ARM GAS  C:\Users\KEVINH~1\AppData\Local\Temp\ccLB3qQw.s 			page 1


   1              		.cpu cortex-m0
   2              		.fpu softvfp
   3              		.eabi_attribute 20, 1
   4              		.eabi_attribute 21, 1
   5              		.eabi_attribute 23, 3
   6              		.eabi_attribute 24, 1
   7              		.eabi_attribute 25, 1
   8              		.eabi_attribute 26, 1
   9              		.eabi_attribute 30, 1
  10              		.eabi_attribute 34, 0
  11              		.eabi_attribute 18, 4
  12              		.code	16
  13              		.file	"cyfitter_cfg.c"
  14              		.text
  15              	.Ltext0:
  16              		.cfi_sections	.debug_frame
  17              		.section	.text.cfg_write_bytes32,"ax",%progbits
  18              		.align	2
  19              		.code	16
  20              		.thumb_func
  21              		.type	cfg_write_bytes32, %function
  22              	cfg_write_bytes32:
  23              	.LFB5:
  24              		.file 1 ".\\Generated_Source\\PSoC4\\cyfitter_cfg.c"
   1:.\Generated_Source\PSoC4/cyfitter_cfg.c **** /*******************************************************************************
   2:.\Generated_Source\PSoC4/cyfitter_cfg.c **** * FILENAME: cyfitter_cfg.c
   3:.\Generated_Source\PSoC4/cyfitter_cfg.c **** * 
   4:.\Generated_Source\PSoC4/cyfitter_cfg.c **** * PSoC Creator  3.2
   5:.\Generated_Source\PSoC4/cyfitter_cfg.c **** *
   6:.\Generated_Source\PSoC4/cyfitter_cfg.c **** * DESCRIPTION:
   7:.\Generated_Source\PSoC4/cyfitter_cfg.c **** * This file contains device initialization code.
   8:.\Generated_Source\PSoC4/cyfitter_cfg.c **** * Except for the user defined sections in CyClockStartupError(), this file should not be modified.
   9:.\Generated_Source\PSoC4/cyfitter_cfg.c **** * This file is automatically generated by PSoC Creator.
  10:.\Generated_Source\PSoC4/cyfitter_cfg.c **** *
  11:.\Generated_Source\PSoC4/cyfitter_cfg.c **** ********************************************************************************
  12:.\Generated_Source\PSoC4/cyfitter_cfg.c **** * Copyright (c) 2007-2015 Cypress Semiconductor.  All rights reserved.
  13:.\Generated_Source\PSoC4/cyfitter_cfg.c **** * You may use this file only in accordance with the license, terms, conditions, 
  14:.\Generated_Source\PSoC4/cyfitter_cfg.c **** * disclaimers, and limitations in the end user license agreement accompanying 
  15:.\Generated_Source\PSoC4/cyfitter_cfg.c **** * the software package with which this file was provided.
  16:.\Generated_Source\PSoC4/cyfitter_cfg.c **** ********************************************************************************/
  17:.\Generated_Source\PSoC4/cyfitter_cfg.c **** 
  18:.\Generated_Source\PSoC4/cyfitter_cfg.c **** #include <string.h>
  19:.\Generated_Source\PSoC4/cyfitter_cfg.c **** #include "cytypes.h"
  20:.\Generated_Source\PSoC4/cyfitter_cfg.c **** #include "cydevice_trm.h"
  21:.\Generated_Source\PSoC4/cyfitter_cfg.c **** #include "cyfitter.h"
  22:.\Generated_Source\PSoC4/cyfitter_cfg.c **** #include "CyLib.h"
  23:.\Generated_Source\PSoC4/cyfitter_cfg.c **** #include "CyLFClk.h"
  24:.\Generated_Source\PSoC4/cyfitter_cfg.c **** #include "cyfitter_cfg.h"
  25:.\Generated_Source\PSoC4/cyfitter_cfg.c **** 
  26:.\Generated_Source\PSoC4/cyfitter_cfg.c **** 
  27:.\Generated_Source\PSoC4/cyfitter_cfg.c **** #if defined(__GNUC__) || defined(__ARMCC_VERSION)
  28:.\Generated_Source\PSoC4/cyfitter_cfg.c ****     #define CYPACKED 
  29:.\Generated_Source\PSoC4/cyfitter_cfg.c ****     #define CYPACKED_ATTR __attribute__ ((packed))
  30:.\Generated_Source\PSoC4/cyfitter_cfg.c ****     #define CYALIGNED __attribute__ ((aligned))
  31:.\Generated_Source\PSoC4/cyfitter_cfg.c ****     #define CY_CFG_UNUSED __attribute__ ((unused))
  32:.\Generated_Source\PSoC4/cyfitter_cfg.c ****     #define CY_CFG_SECTION __attribute__ ((section(".psocinit")))
  33:.\Generated_Source\PSoC4/cyfitter_cfg.c ****     
ARM GAS  C:\Users\KEVINH~1\AppData\Local\Temp\ccLB3qQw.s 			page 2


  34:.\Generated_Source\PSoC4/cyfitter_cfg.c ****     #if defined(__ARMCC_VERSION)
  35:.\Generated_Source\PSoC4/cyfitter_cfg.c ****         #define CY_CFG_MEMORY_BARRIER() __memory_changed()
  36:.\Generated_Source\PSoC4/cyfitter_cfg.c ****     #else
  37:.\Generated_Source\PSoC4/cyfitter_cfg.c ****         #define CY_CFG_MEMORY_BARRIER() __sync_synchronize()
  38:.\Generated_Source\PSoC4/cyfitter_cfg.c ****     #endif
  39:.\Generated_Source\PSoC4/cyfitter_cfg.c ****     
  40:.\Generated_Source\PSoC4/cyfitter_cfg.c **** #elif defined(__ICCARM__)
  41:.\Generated_Source\PSoC4/cyfitter_cfg.c ****     #include <intrinsics.h>
  42:.\Generated_Source\PSoC4/cyfitter_cfg.c **** 
  43:.\Generated_Source\PSoC4/cyfitter_cfg.c ****     #define CYPACKED __packed
  44:.\Generated_Source\PSoC4/cyfitter_cfg.c ****     #define CYPACKED_ATTR 
  45:.\Generated_Source\PSoC4/cyfitter_cfg.c ****     #define CYALIGNED _Pragma("data_alignment=4")
  46:.\Generated_Source\PSoC4/cyfitter_cfg.c ****     #define CY_CFG_UNUSED _Pragma("diag_suppress=Pe177")
  47:.\Generated_Source\PSoC4/cyfitter_cfg.c ****     #define CY_CFG_SECTION _Pragma("location=\".psocinit\"")
  48:.\Generated_Source\PSoC4/cyfitter_cfg.c ****     
  49:.\Generated_Source\PSoC4/cyfitter_cfg.c ****     #define CY_CFG_MEMORY_BARRIER() __DMB()
  50:.\Generated_Source\PSoC4/cyfitter_cfg.c ****     
  51:.\Generated_Source\PSoC4/cyfitter_cfg.c **** #else
  52:.\Generated_Source\PSoC4/cyfitter_cfg.c ****     #error Unsupported toolchain
  53:.\Generated_Source\PSoC4/cyfitter_cfg.c **** #endif
  54:.\Generated_Source\PSoC4/cyfitter_cfg.c **** 
  55:.\Generated_Source\PSoC4/cyfitter_cfg.c **** 
  56:.\Generated_Source\PSoC4/cyfitter_cfg.c **** CY_CFG_UNUSED
  57:.\Generated_Source\PSoC4/cyfitter_cfg.c **** static void CYMEMZERO(void *s, size_t n);
  58:.\Generated_Source\PSoC4/cyfitter_cfg.c **** CY_CFG_UNUSED
  59:.\Generated_Source\PSoC4/cyfitter_cfg.c **** static void CYMEMZERO(void *s, size_t n)
  60:.\Generated_Source\PSoC4/cyfitter_cfg.c **** {
  61:.\Generated_Source\PSoC4/cyfitter_cfg.c **** 	(void)memset(s, 0, n);
  62:.\Generated_Source\PSoC4/cyfitter_cfg.c **** }
  63:.\Generated_Source\PSoC4/cyfitter_cfg.c **** CY_CFG_UNUSED
  64:.\Generated_Source\PSoC4/cyfitter_cfg.c **** static void CYCONFIGCPY(void *dest, const void *src, size_t n);
  65:.\Generated_Source\PSoC4/cyfitter_cfg.c **** CY_CFG_UNUSED
  66:.\Generated_Source\PSoC4/cyfitter_cfg.c **** static void CYCONFIGCPY(void *dest, const void *src, size_t n)
  67:.\Generated_Source\PSoC4/cyfitter_cfg.c **** {
  68:.\Generated_Source\PSoC4/cyfitter_cfg.c **** 	(void)memcpy(dest, src, n);
  69:.\Generated_Source\PSoC4/cyfitter_cfg.c **** }
  70:.\Generated_Source\PSoC4/cyfitter_cfg.c **** CY_CFG_UNUSED
  71:.\Generated_Source\PSoC4/cyfitter_cfg.c **** static void CYCONFIGCPYCODE(void *dest, const void *src, size_t n);
  72:.\Generated_Source\PSoC4/cyfitter_cfg.c **** CY_CFG_UNUSED
  73:.\Generated_Source\PSoC4/cyfitter_cfg.c **** static void CYCONFIGCPYCODE(void *dest, const void *src, size_t n)
  74:.\Generated_Source\PSoC4/cyfitter_cfg.c **** {
  75:.\Generated_Source\PSoC4/cyfitter_cfg.c **** 	(void)memcpy(dest, src, n);
  76:.\Generated_Source\PSoC4/cyfitter_cfg.c **** }
  77:.\Generated_Source\PSoC4/cyfitter_cfg.c **** 
  78:.\Generated_Source\PSoC4/cyfitter_cfg.c **** 
  79:.\Generated_Source\PSoC4/cyfitter_cfg.c **** 
  80:.\Generated_Source\PSoC4/cyfitter_cfg.c **** /* Clock startup error codes                                                   */
  81:.\Generated_Source\PSoC4/cyfitter_cfg.c **** #define CYCLOCKSTART_NO_ERROR    0u
  82:.\Generated_Source\PSoC4/cyfitter_cfg.c **** #define CYCLOCKSTART_XTAL_ERROR  1u
  83:.\Generated_Source\PSoC4/cyfitter_cfg.c **** #define CYCLOCKSTART_32KHZ_ERROR 2u
  84:.\Generated_Source\PSoC4/cyfitter_cfg.c **** #define CYCLOCKSTART_PLL_ERROR   3u
  85:.\Generated_Source\PSoC4/cyfitter_cfg.c **** 
  86:.\Generated_Source\PSoC4/cyfitter_cfg.c **** #ifdef CY_NEED_CYCLOCKSTARTUPERROR
  87:.\Generated_Source\PSoC4/cyfitter_cfg.c **** /*******************************************************************************
  88:.\Generated_Source\PSoC4/cyfitter_cfg.c **** * Function Name: CyClockStartupError
  89:.\Generated_Source\PSoC4/cyfitter_cfg.c **** ********************************************************************************
  90:.\Generated_Source\PSoC4/cyfitter_cfg.c **** * Summary:
ARM GAS  C:\Users\KEVINH~1\AppData\Local\Temp\ccLB3qQw.s 			page 3


  91:.\Generated_Source\PSoC4/cyfitter_cfg.c **** *  If an error is encountered during clock configuration (crystal startup error,
  92:.\Generated_Source\PSoC4/cyfitter_cfg.c **** *  PLL lock error, etc.), the system will end up here.  Unless reimplemented by
  93:.\Generated_Source\PSoC4/cyfitter_cfg.c **** *  the customer, this function will stop in an infinite loop.
  94:.\Generated_Source\PSoC4/cyfitter_cfg.c **** *
  95:.\Generated_Source\PSoC4/cyfitter_cfg.c **** * Parameters:
  96:.\Generated_Source\PSoC4/cyfitter_cfg.c **** *   void
  97:.\Generated_Source\PSoC4/cyfitter_cfg.c **** *
  98:.\Generated_Source\PSoC4/cyfitter_cfg.c **** * Return:
  99:.\Generated_Source\PSoC4/cyfitter_cfg.c **** *   void
 100:.\Generated_Source\PSoC4/cyfitter_cfg.c **** *
 101:.\Generated_Source\PSoC4/cyfitter_cfg.c **** *******************************************************************************/
 102:.\Generated_Source\PSoC4/cyfitter_cfg.c **** CY_CFG_UNUSED
 103:.\Generated_Source\PSoC4/cyfitter_cfg.c **** static void CyClockStartupError(uint8 errorCode);
 104:.\Generated_Source\PSoC4/cyfitter_cfg.c **** CY_CFG_UNUSED
 105:.\Generated_Source\PSoC4/cyfitter_cfg.c **** static void CyClockStartupError(uint8 errorCode)
 106:.\Generated_Source\PSoC4/cyfitter_cfg.c **** {
 107:.\Generated_Source\PSoC4/cyfitter_cfg.c ****     /* To remove the compiler warning if errorCode not used.                */
 108:.\Generated_Source\PSoC4/cyfitter_cfg.c ****     errorCode = errorCode;
 109:.\Generated_Source\PSoC4/cyfitter_cfg.c **** 
 110:.\Generated_Source\PSoC4/cyfitter_cfg.c ****     /* `#START CyClockStartupError` */
 111:.\Generated_Source\PSoC4/cyfitter_cfg.c **** 
 112:.\Generated_Source\PSoC4/cyfitter_cfg.c ****     /* If we have a clock startup error (bad MHz crystal, PLL lock, etc.),  */
 113:.\Generated_Source\PSoC4/cyfitter_cfg.c ****     /* we will end up here to allow the customer to implement something to  */
 114:.\Generated_Source\PSoC4/cyfitter_cfg.c ****     /* deal with the clock condition.                                       */
 115:.\Generated_Source\PSoC4/cyfitter_cfg.c **** 
 116:.\Generated_Source\PSoC4/cyfitter_cfg.c ****     /* `#END` */
 117:.\Generated_Source\PSoC4/cyfitter_cfg.c **** 
 118:.\Generated_Source\PSoC4/cyfitter_cfg.c ****     /* If nothing else, stop here since the clocks have not started         */
 119:.\Generated_Source\PSoC4/cyfitter_cfg.c ****     /* correctly.                                                           */
 120:.\Generated_Source\PSoC4/cyfitter_cfg.c ****     while(1) {}
 121:.\Generated_Source\PSoC4/cyfitter_cfg.c **** }
 122:.\Generated_Source\PSoC4/cyfitter_cfg.c **** #endif
 123:.\Generated_Source\PSoC4/cyfitter_cfg.c **** 
 124:.\Generated_Source\PSoC4/cyfitter_cfg.c **** #define CY_CFG_BASE_ADDR_COUNT 7u
 125:.\Generated_Source\PSoC4/cyfitter_cfg.c **** CYPACKED typedef struct
 126:.\Generated_Source\PSoC4/cyfitter_cfg.c **** {
 127:.\Generated_Source\PSoC4/cyfitter_cfg.c **** 	uint8 offset;
 128:.\Generated_Source\PSoC4/cyfitter_cfg.c **** 	uint8 value;
 129:.\Generated_Source\PSoC4/cyfitter_cfg.c **** } CYPACKED_ATTR cy_cfg_addrvalue_t;
 130:.\Generated_Source\PSoC4/cyfitter_cfg.c **** 
 131:.\Generated_Source\PSoC4/cyfitter_cfg.c **** 
 132:.\Generated_Source\PSoC4/cyfitter_cfg.c **** 
 133:.\Generated_Source\PSoC4/cyfitter_cfg.c **** /*******************************************************************************
 134:.\Generated_Source\PSoC4/cyfitter_cfg.c **** * Function Name: cfg_write_bytes32
 135:.\Generated_Source\PSoC4/cyfitter_cfg.c **** ********************************************************************************
 136:.\Generated_Source\PSoC4/cyfitter_cfg.c **** * Summary:
 137:.\Generated_Source\PSoC4/cyfitter_cfg.c **** *  This function is used for setting up the chip configuration areas that
 138:.\Generated_Source\PSoC4/cyfitter_cfg.c **** *  contain relatively sparse data.
 139:.\Generated_Source\PSoC4/cyfitter_cfg.c **** *
 140:.\Generated_Source\PSoC4/cyfitter_cfg.c **** * Parameters:
 141:.\Generated_Source\PSoC4/cyfitter_cfg.c **** *   void
 142:.\Generated_Source\PSoC4/cyfitter_cfg.c **** *
 143:.\Generated_Source\PSoC4/cyfitter_cfg.c **** * Return:
 144:.\Generated_Source\PSoC4/cyfitter_cfg.c **** *   void
 145:.\Generated_Source\PSoC4/cyfitter_cfg.c **** *
 146:.\Generated_Source\PSoC4/cyfitter_cfg.c **** *******************************************************************************/
 147:.\Generated_Source\PSoC4/cyfitter_cfg.c **** static void cfg_write_bytes32(const uint32 addr_table[], const cy_cfg_addrvalue_t data_table[]);
ARM GAS  C:\Users\KEVINH~1\AppData\Local\Temp\ccLB3qQw.s 			page 4


 148:.\Generated_Source\PSoC4/cyfitter_cfg.c **** static void cfg_write_bytes32(const uint32 addr_table[], const cy_cfg_addrvalue_t data_table[])
 149:.\Generated_Source\PSoC4/cyfitter_cfg.c **** {
  25              		.loc 1 149 0
  26              		.cfi_startproc
  27              	.LVL0:
  28 0000 F0B5     		push	{r4, r5, r6, r7, lr}
  29              		.cfi_def_cfa_offset 20
  30              		.cfi_offset 4, -20
  31              		.cfi_offset 5, -16
  32              		.cfi_offset 6, -12
  33              		.cfi_offset 7, -8
  34              		.cfi_offset 14, -4
  35              	.LVL1:
 150:.\Generated_Source\PSoC4/cyfitter_cfg.c **** 	/* For 32-bit little-endian architectures */
 151:.\Generated_Source\PSoC4/cyfitter_cfg.c **** 	uint32 i, j = 0u;
  36              		.loc 1 151 0
  37 0002 0022     		mov	r2, #0
 152:.\Generated_Source\PSoC4/cyfitter_cfg.c **** 	for (i = 0u; i < CY_CFG_BASE_ADDR_COUNT; i++)
  38              		.loc 1 152 0
  39 0004 0027     		mov	r7, #0
  40              	.LBB2:
 153:.\Generated_Source\PSoC4/cyfitter_cfg.c **** 	{
 154:.\Generated_Source\PSoC4/cyfitter_cfg.c **** 		uint32 baseAddr = addr_table[i];
 155:.\Generated_Source\PSoC4/cyfitter_cfg.c **** 		uint8 count = (uint8)baseAddr;
 156:.\Generated_Source\PSoC4/cyfitter_cfg.c **** 		baseAddr &= 0xFFFFFF00u;
  41              		.loc 1 156 0
  42 0006 FF23     		mov	r3, #255
  43 0008 9C46     		mov	ip, r3
  44              	.LBE2:
 152:.\Generated_Source\PSoC4/cyfitter_cfg.c **** 	for (i = 0u; i < CY_CFG_BASE_ADDR_COUNT; i++)
  45              		.loc 1 152 0
  46 000a 11E0     		b	.L2
  47              	.LVL2:
  48              	.L5:
  49              	.LBB3:
 154:.\Generated_Source\PSoC4/cyfitter_cfg.c **** 		uint32 baseAddr = addr_table[i];
  50              		.loc 1 154 0
  51 000c BB00     		lsl	r3, r7, #2
  52 000e C658     		ldr	r6, [r0, r3]
  53              	.LVL3:
 155:.\Generated_Source\PSoC4/cyfitter_cfg.c **** 		uint8 count = (uint8)baseAddr;
  54              		.loc 1 155 0
  55 0010 F3B2     		uxtb	r3, r6
  56              	.LVL4:
  57              		.loc 1 156 0
  58 0012 6446     		mov	r4, ip
  59 0014 A643     		bic	r6, r4
  60              	.LVL5:
 157:.\Generated_Source\PSoC4/cyfitter_cfg.c **** 		while (count != 0u)
  61              		.loc 1 157 0
  62 0016 08E0     		b	.L3
  63              	.L4:
 158:.\Generated_Source\PSoC4/cyfitter_cfg.c **** 		{
 159:.\Generated_Source\PSoC4/cyfitter_cfg.c **** 			CY_SET_XTND_REG8((void CYFAR *)(baseAddr + data_table[j].offset), data_table[j].value);
  64              		.loc 1 159 0
  65 0018 5400     		lsl	r4, r2, #1
  66 001a 0C19     		add	r4, r1, r4
ARM GAS  C:\Users\KEVINH~1\AppData\Local\Temp\ccLB3qQw.s 			page 5


  67 001c 2578     		ldrb	r5, [r4]
  68 001e AD19     		add	r5, r5, r6
  69 0020 6478     		ldrb	r4, [r4, #1]
  70 0022 2C70     		strb	r4, [r5]
 160:.\Generated_Source\PSoC4/cyfitter_cfg.c **** 			j++;
  71              		.loc 1 160 0
  72 0024 0132     		add	r2, r2, #1
  73              	.LVL6:
 161:.\Generated_Source\PSoC4/cyfitter_cfg.c **** 			count--;
  74              		.loc 1 161 0
  75 0026 013B     		sub	r3, r3, #1
  76              	.LVL7:
  77 0028 DBB2     		uxtb	r3, r3
  78              	.LVL8:
  79              	.L3:
 157:.\Generated_Source\PSoC4/cyfitter_cfg.c **** 		while (count != 0u)
  80              		.loc 1 157 0 discriminator 1
  81 002a 002B     		cmp	r3, #0
  82 002c F4D1     		bne	.L4
  83              	.LBE3:
 152:.\Generated_Source\PSoC4/cyfitter_cfg.c **** 	for (i = 0u; i < CY_CFG_BASE_ADDR_COUNT; i++)
  84              		.loc 1 152 0
  85 002e 0137     		add	r7, r7, #1
  86              	.LVL9:
  87              	.L2:
 152:.\Generated_Source\PSoC4/cyfitter_cfg.c **** 	for (i = 0u; i < CY_CFG_BASE_ADDR_COUNT; i++)
  88              		.loc 1 152 0 is_stmt 0 discriminator 1
  89 0030 062F     		cmp	r7, #6
  90 0032 EBD9     		bls	.L5
 162:.\Generated_Source\PSoC4/cyfitter_cfg.c **** 		}
 163:.\Generated_Source\PSoC4/cyfitter_cfg.c **** 	}
 164:.\Generated_Source\PSoC4/cyfitter_cfg.c **** }
  91              		.loc 1 164 0 is_stmt 1
  92              		@ sp needed
  93              	.LVL10:
  94 0034 F0BD     		pop	{r4, r5, r6, r7, pc}
  95              		.cfi_endproc
  96              	.LFE5:
  97              		.size	cfg_write_bytes32, .-cfg_write_bytes32
  98 0036 C046     		.section	.text.CYMEMZERO,"ax",%progbits
  99              		.align	2
 100              		.code	16
 101              		.thumb_func
 102              		.type	CYMEMZERO, %function
 103              	CYMEMZERO:
 104              	.LFB2:
  60:.\Generated_Source\PSoC4/cyfitter_cfg.c **** {
 105              		.loc 1 60 0
 106              		.cfi_startproc
 107              	.LVL11:
 108 0000 08B5     		push	{r3, lr}
 109              		.cfi_def_cfa_offset 8
 110              		.cfi_offset 3, -8
 111              		.cfi_offset 14, -4
 112 0002 0A1C     		mov	r2, r1
  61:.\Generated_Source\PSoC4/cyfitter_cfg.c **** 	(void)memset(s, 0, n);
 113              		.loc 1 61 0
ARM GAS  C:\Users\KEVINH~1\AppData\Local\Temp\ccLB3qQw.s 			page 6


 114 0004 0021     		mov	r1, #0
 115              	.LVL12:
 116 0006 FFF7FEFF 		bl	memset
 117              	.LVL13:
  62:.\Generated_Source\PSoC4/cyfitter_cfg.c **** }
 118              		.loc 1 62 0
 119              		@ sp needed
 120 000a 08BD     		pop	{r3, pc}
 121              		.cfi_endproc
 122              	.LFE2:
 123              		.size	CYMEMZERO, .-CYMEMZERO
 124              		.section	.psocinit,"ax",%progbits
 125              		.align	2
 126              		.code	16
 127              		.thumb_func
 128              		.type	ClockSetup, %function
 129              	ClockSetup:
 130              	.LFB6:
 165:.\Generated_Source\PSoC4/cyfitter_cfg.c **** 
 166:.\Generated_Source\PSoC4/cyfitter_cfg.c **** 
 167:.\Generated_Source\PSoC4/cyfitter_cfg.c **** /*******************************************************************************
 168:.\Generated_Source\PSoC4/cyfitter_cfg.c **** * Function Name: ClockSetup
 169:.\Generated_Source\PSoC4/cyfitter_cfg.c **** ********************************************************************************
 170:.\Generated_Source\PSoC4/cyfitter_cfg.c **** *
 171:.\Generated_Source\PSoC4/cyfitter_cfg.c **** * Summary:
 172:.\Generated_Source\PSoC4/cyfitter_cfg.c **** *   Performs the initialization of all of the clocks in the device based on the
 173:.\Generated_Source\PSoC4/cyfitter_cfg.c **** *   settings in the Clock tab of the DWR.  This includes enabling the requested
 174:.\Generated_Source\PSoC4/cyfitter_cfg.c **** *   clocks and setting the necessary dividers to produce the desired frequency. 
 175:.\Generated_Source\PSoC4/cyfitter_cfg.c **** *
 176:.\Generated_Source\PSoC4/cyfitter_cfg.c **** * Parameters:
 177:.\Generated_Source\PSoC4/cyfitter_cfg.c **** *   void
 178:.\Generated_Source\PSoC4/cyfitter_cfg.c **** *
 179:.\Generated_Source\PSoC4/cyfitter_cfg.c **** * Return:
 180:.\Generated_Source\PSoC4/cyfitter_cfg.c **** *   void
 181:.\Generated_Source\PSoC4/cyfitter_cfg.c **** *
 182:.\Generated_Source\PSoC4/cyfitter_cfg.c **** *******************************************************************************/
 183:.\Generated_Source\PSoC4/cyfitter_cfg.c **** static void ClockSetup(void);
 184:.\Generated_Source\PSoC4/cyfitter_cfg.c **** CY_CFG_SECTION
 185:.\Generated_Source\PSoC4/cyfitter_cfg.c **** static void ClockSetup(void)
 186:.\Generated_Source\PSoC4/cyfitter_cfg.c **** {
 131              		.loc 1 186 0
 132              		.cfi_startproc
 133 0000 38B5     		push	{r3, r4, r5, lr}
 134              		.cfi_def_cfa_offset 16
 135              		.cfi_offset 3, -16
 136              		.cfi_offset 4, -12
 137              		.cfi_offset 5, -8
 138              		.cfi_offset 14, -4
 187:.\Generated_Source\PSoC4/cyfitter_cfg.c **** 
 188:.\Generated_Source\PSoC4/cyfitter_cfg.c **** 	/* Set Flash Cycles based on max possible frequency in case a glitch occurs during ClockSetup(). *
 189:.\Generated_Source\PSoC4/cyfitter_cfg.c **** 	CY_SET_REG32((void CYXDATA *)(CYREG_CPUSS_FLASH_CTL), (0x0012u));
 139              		.loc 1 189 0
 140 0002 1222     		mov	r2, #18
 141 0004 294B     		ldr	r3, .L8
 142 0006 1A60     		str	r2, [r3]
 190:.\Generated_Source\PSoC4/cyfitter_cfg.c **** 
 191:.\Generated_Source\PSoC4/cyfitter_cfg.c **** 	/* Start the WCO */
ARM GAS  C:\Users\KEVINH~1\AppData\Local\Temp\ccLB3qQw.s 			page 7


 192:.\Generated_Source\PSoC4/cyfitter_cfg.c **** 	CySysClkWcoStart();
 143              		.loc 1 192 0
 144 0008 FFF7FEFF 		bl	CySysClkWcoStart
 145              	.LVL14:
 193:.\Generated_Source\PSoC4/cyfitter_cfg.c **** 	CyDelayCycles(12000000u); /* WCO may take up to 500ms to start */
 146              		.loc 1 193 0
 147 000c 2848     		ldr	r0, .L8+4
 148 000e FFF7FEFF 		bl	CyDelayCycles
 149              	.LVL15:
 194:.\Generated_Source\PSoC4/cyfitter_cfg.c **** 	(void)CySysClkWcoSetPowerMode(CY_SYS_CLK_WCO_LPM);    /* Switch to the low power mode */
 150              		.loc 1 194 0
 151 0012 0120     		mov	r0, #1
 152 0014 FFF7FEFF 		bl	CySysClkWcoSetPowerMode
 153              	.LVL16:
 195:.\Generated_Source\PSoC4/cyfitter_cfg.c **** 
 196:.\Generated_Source\PSoC4/cyfitter_cfg.c **** 	/* Setup and trim IMO based on desired frequency. */
 197:.\Generated_Source\PSoC4/cyfitter_cfg.c **** 	CySysClkWriteImoFreq(48u);
 154              		.loc 1 197 0
 155 0018 3020     		mov	r0, #48
 156 001a FFF7FEFF 		bl	CySysClkWriteImoFreq
 157              	.LVL17:
 198:.\Generated_Source\PSoC4/cyfitter_cfg.c **** 	/* CYDEV_CLK_ILO_CONFIG Starting address: CYDEV_CLK_ILO_CONFIG */
 199:.\Generated_Source\PSoC4/cyfitter_cfg.c **** 	CY_SET_XTND_REG32((void CYFAR *)(CYREG_CLK_ILO_CONFIG), 0x80000006u);
 158              		.loc 1 199 0
 159 001e 254A     		ldr	r2, .L8+8
 160 0020 254B     		ldr	r3, .L8+12
 161 0022 1A60     		str	r2, [r3]
 200:.\Generated_Source\PSoC4/cyfitter_cfg.c **** 
 201:.\Generated_Source\PSoC4/cyfitter_cfg.c **** 	/* CYDEV_WDT_CONFIG Starting address: CYDEV_WDT_CONFIG */
 202:.\Generated_Source\PSoC4/cyfitter_cfg.c **** 	CY_SET_XTND_REG32((void CYFAR *)(CYREG_WDT_CONFIG), 0x40000000u);
 162              		.loc 1 202 0
 163 0024 254C     		ldr	r4, .L8+16
 164 0026 8025     		mov	r5, #128
 165 0028 ED05     		lsl	r5, r5, #23
 166 002a 2560     		str	r5, [r4]
 203:.\Generated_Source\PSoC4/cyfitter_cfg.c **** 
 204:.\Generated_Source\PSoC4/cyfitter_cfg.c **** 
 205:.\Generated_Source\PSoC4/cyfitter_cfg.c **** 	/* Enable fast start mode for XO */
 206:.\Generated_Source\PSoC4/cyfitter_cfg.c **** 	CY_SET_REG32((void*)CYREG_BLE_BLERD_BB_XO, CY_GET_REG32((void*)CYREG_BLE_BLERD_BB_XO) | (uint32)0x
 167              		.loc 1 206 0
 168 002c 244B     		ldr	r3, .L8+20
 169 002e 1968     		ldr	r1, [r3]
 170 0030 0222     		mov	r2, #2
 171 0032 0A43     		orr	r2, r1
 172 0034 1A60     		str	r2, [r3]
 207:.\Generated_Source\PSoC4/cyfitter_cfg.c **** 	CY_SET_XTND_REG32((void CYFAR *)(CYREG_BLE_BLERD_BB_XO_CAPTRIM), 0x00003E2Du);
 173              		.loc 1 207 0
 174 0036 234A     		ldr	r2, .L8+24
 175 0038 234B     		ldr	r3, .L8+28
 176 003a 1A60     		str	r2, [r3]
 208:.\Generated_Source\PSoC4/cyfitter_cfg.c **** 	/* Disable Crystal Stable Interrupt before enabling ECO */
 209:.\Generated_Source\PSoC4/cyfitter_cfg.c **** 	CY_SET_REG32((void*)CYREG_BLE_BLESS_LL_DSM_CTRL, CY_GET_REG32((void*)CYREG_BLE_BLESS_LL_DSM_CTRL) 
 177              		.loc 1 209 0
 178 003c 234B     		ldr	r3, .L8+32
 179 003e 1A68     		ldr	r2, [r3]
 180 0040 0821     		mov	r1, #8
 181 0042 8A43     		bic	r2, r1
ARM GAS  C:\Users\KEVINH~1\AppData\Local\Temp\ccLB3qQw.s 			page 8


 182 0044 1A60     		str	r2, [r3]
 210:.\Generated_Source\PSoC4/cyfitter_cfg.c **** 	/* Start the ECO and do not check status since it is not needed for HFCLK */
 211:.\Generated_Source\PSoC4/cyfitter_cfg.c **** 	(void)CySysClkEcoStart(2000u);
 183              		.loc 1 211 0
 184 0046 FA20     		mov	r0, #250
 185 0048 C000     		lsl	r0, r0, #3
 186 004a FFF7FEFF 		bl	CySysClkEcoStart
 187              	.LVL18:
 212:.\Generated_Source\PSoC4/cyfitter_cfg.c **** 	CyDelayUs(1500u); /* Wait to stabalize */
 188              		.loc 1 212 0
 189 004e 2048     		ldr	r0, .L8+36
 190 0050 FFF7FEFF 		bl	CyDelayUs
 191              	.LVL19:
 213:.\Generated_Source\PSoC4/cyfitter_cfg.c **** 
 214:.\Generated_Source\PSoC4/cyfitter_cfg.c **** 	/* Setup phase aligned clocks */
 215:.\Generated_Source\PSoC4/cyfitter_cfg.c **** 	CY_SET_REG32((void *)CYREG_PERI_DIV_16_CTL2, 0x00002F00u);
 192              		.loc 1 215 0
 193 0054 BC22     		mov	r2, #188
 194 0056 9201     		lsl	r2, r2, #6
 195 0058 1E4B     		ldr	r3, .L8+40
 196 005a 1A60     		str	r2, [r3]
 216:.\Generated_Source\PSoC4/cyfitter_cfg.c **** 	CY_SET_REG32((void *)CYREG_PERI_DIV_CMD, 0x8000FF42u);
 197              		.loc 1 216 0
 198 005c 1E4B     		ldr	r3, .L8+44
 199 005e 1F4A     		ldr	r2, .L8+48
 200 0060 1A60     		str	r2, [r3]
 217:.\Generated_Source\PSoC4/cyfitter_cfg.c **** 	CY_SET_REG32((void *)CYREG_PERI_DIV_16_CTL0, 0x0000FE00u);
 201              		.loc 1 217 0
 202 0062 FE22     		mov	r2, #254
 203 0064 1202     		lsl	r2, r2, #8
 204 0066 1E49     		ldr	r1, .L8+52
 205 0068 0A60     		str	r2, [r1]
 218:.\Generated_Source\PSoC4/cyfitter_cfg.c **** 	CY_SET_REG32((void *)CYREG_PERI_DIV_CMD, 0x8000FF40u);
 206              		.loc 1 218 0
 207 006a 1E49     		ldr	r1, .L8+56
 208 006c 1960     		str	r1, [r3]
 219:.\Generated_Source\PSoC4/cyfitter_cfg.c **** 	CY_SET_REG32((void *)CYREG_PERI_DIV_16_CTL1, 0x0000FE00u);
 209              		.loc 1 219 0
 210 006e 1E49     		ldr	r1, .L8+60
 211 0070 0A60     		str	r2, [r1]
 220:.\Generated_Source\PSoC4/cyfitter_cfg.c **** 	CY_SET_REG32((void *)CYREG_PERI_DIV_CMD, 0x8000FF41u);
 212              		.loc 1 220 0
 213 0072 1E4A     		ldr	r2, .L8+64
 214 0074 1A60     		str	r2, [r3]
 221:.\Generated_Source\PSoC4/cyfitter_cfg.c **** 
 222:.\Generated_Source\PSoC4/cyfitter_cfg.c **** 	/* CYDEV_CLK_IMO_CONFIG Starting address: CYDEV_CLK_IMO_CONFIG */
 223:.\Generated_Source\PSoC4/cyfitter_cfg.c **** 	CY_SET_XTND_REG32((void CYFAR *)(CYREG_CLK_IMO_CONFIG), 0x80000000u);
 215              		.loc 1 223 0
 216 0076 8022     		mov	r2, #128
 217 0078 1206     		lsl	r2, r2, #24
 218 007a 1D4B     		ldr	r3, .L8+68
 219 007c 1A60     		str	r2, [r3]
 224:.\Generated_Source\PSoC4/cyfitter_cfg.c **** 
 225:.\Generated_Source\PSoC4/cyfitter_cfg.c **** 	/* CYDEV_CLK_SELECT Starting address: CYDEV_CLK_SELECT */
 226:.\Generated_Source\PSoC4/cyfitter_cfg.c **** 	CY_SET_XTND_REG32((void CYFAR *)(CYREG_CLK_SELECT), 0x00040000u);
 220              		.loc 1 226 0
 221 007e 8022     		mov	r2, #128
ARM GAS  C:\Users\KEVINH~1\AppData\Local\Temp\ccLB3qQw.s 			page 9


 222 0080 D202     		lsl	r2, r2, #11
 223 0082 1C4B     		ldr	r3, .L8+72
 224 0084 1A60     		str	r2, [r3]
 227:.\Generated_Source\PSoC4/cyfitter_cfg.c **** 
 228:.\Generated_Source\PSoC4/cyfitter_cfg.c **** 	/* CYDEV_PERI_PCLK_CTL11 Starting address: CYDEV_PERI_PCLK_CTL11 */
 229:.\Generated_Source\PSoC4/cyfitter_cfg.c **** 	CY_SET_XTND_REG32((void CYFAR *)(CYREG_PERI_PCLK_CTL11), 0x00000042u);
 225              		.loc 1 229 0
 226 0086 4222     		mov	r2, #66
 227 0088 1B4B     		ldr	r3, .L8+76
 228 008a 1A60     		str	r2, [r3]
 230:.\Generated_Source\PSoC4/cyfitter_cfg.c **** 
 231:.\Generated_Source\PSoC4/cyfitter_cfg.c **** 	/* CYDEV_PERI_PCLK_CTL5 Starting address: CYDEV_PERI_PCLK_CTL5 */
 232:.\Generated_Source\PSoC4/cyfitter_cfg.c **** 	CY_SET_XTND_REG32((void CYFAR *)(CYREG_PERI_PCLK_CTL5), 0x00000040u);
 229              		.loc 1 232 0
 230 008c 4022     		mov	r2, #64
 231 008e 1B4B     		ldr	r3, .L8+80
 232 0090 1A60     		str	r2, [r3]
 233:.\Generated_Source\PSoC4/cyfitter_cfg.c **** 
 234:.\Generated_Source\PSoC4/cyfitter_cfg.c **** 	/* CYDEV_PERI_PCLK_CTL4 Starting address: CYDEV_PERI_PCLK_CTL4 */
 235:.\Generated_Source\PSoC4/cyfitter_cfg.c **** 	CY_SET_XTND_REG32((void CYFAR *)(CYREG_PERI_PCLK_CTL4), 0x00000041u);
 233              		.loc 1 235 0
 234 0092 4122     		mov	r2, #65
 235 0094 1A4B     		ldr	r3, .L8+84
 236 0096 1A60     		str	r2, [r3]
 236:.\Generated_Source\PSoC4/cyfitter_cfg.c **** 
 237:.\Generated_Source\PSoC4/cyfitter_cfg.c **** 	(void)CyIntSetVector(8u, &CySysWdtIsr);
 237              		.loc 1 237 0
 238 0098 0820     		mov	r0, #8
 239 009a 1A49     		ldr	r1, .L8+88
 240 009c FFF7FEFF 		bl	CyIntSetVector
 241              	.LVL20:
 238:.\Generated_Source\PSoC4/cyfitter_cfg.c **** 	CyIntEnable(8u);
 242              		.loc 1 238 0
 243 00a0 0820     		mov	r0, #8
 244 00a2 FFF7FEFF 		bl	CyIntEnable
 245              	.LVL21:
 239:.\Generated_Source\PSoC4/cyfitter_cfg.c **** 	CY_SET_XTND_REG32((void CYFAR *)(CYREG_WDT_CONFIG), 0x40000000u);
 246              		.loc 1 239 0
 247 00a6 2560     		str	r5, [r4]
 240:.\Generated_Source\PSoC4/cyfitter_cfg.c **** }
 248              		.loc 1 240 0
 249              		@ sp needed
 250 00a8 38BD     		pop	{r3, r4, r5, pc}
 251              	.L9:
 252 00aa C046     		.align	2
 253              	.L8:
 254 00ac 30001040 		.word	1074790448
 255 00b0 001BB700 		.word	12000000
 256 00b4 06000080 		.word	-2147483642
 257 00b8 04010B40 		.word	1074462980
 258 00bc 0C020B40 		.word	1074463244
 259 00c0 78002E40 		.word	1076756600
 260 00c4 2D3E0000 		.word	15917
 261 00c8 7C002E40 		.word	1076756604
 262 00cc 6CF02E40 		.word	1076818028
 263 00d0 DC050000 		.word	1500
 264 00d4 08030140 		.word	1073808136
ARM GAS  C:\Users\KEVINH~1\AppData\Local\Temp\ccLB3qQw.s 			page 10


 265 00d8 00000140 		.word	1073807360
 266 00dc 42FF0080 		.word	-2147418302
 267 00e0 00030140 		.word	1073808128
 268 00e4 40FF0080 		.word	-2147418304
 269 00e8 04030140 		.word	1073808132
 270 00ec 41FF0080 		.word	-2147418303
 271 00f0 08010B40 		.word	1074462984
 272 00f4 00010B40 		.word	1074462976
 273 00f8 2C010140 		.word	1073807660
 274 00fc 14010140 		.word	1073807636
 275 0100 10010140 		.word	1073807632
 276 0104 00000000 		.word	CySysWdtIsr
 277              		.cfi_endproc
 278              	.LFE6:
 279              		.size	ClockSetup, .-ClockSetup
 280              		.section	.text.SetAnalogRoutingPumps,"ax",%progbits
 281              		.align	2
 282              		.global	SetAnalogRoutingPumps
 283              		.code	16
 284              		.thumb_func
 285              		.type	SetAnalogRoutingPumps, %function
 286              	SetAnalogRoutingPumps:
 287              	.LFB8:
 241:.\Generated_Source\PSoC4/cyfitter_cfg.c **** 
 242:.\Generated_Source\PSoC4/cyfitter_cfg.c **** 
 243:.\Generated_Source\PSoC4/cyfitter_cfg.c **** /* Analog API Functions */
 244:.\Generated_Source\PSoC4/cyfitter_cfg.c **** 
 245:.\Generated_Source\PSoC4/cyfitter_cfg.c **** 
 246:.\Generated_Source\PSoC4/cyfitter_cfg.c **** /*******************************************************************************
 247:.\Generated_Source\PSoC4/cyfitter_cfg.c **** * Function Name: AnalogSetDefault
 248:.\Generated_Source\PSoC4/cyfitter_cfg.c **** ********************************************************************************
 249:.\Generated_Source\PSoC4/cyfitter_cfg.c **** *
 250:.\Generated_Source\PSoC4/cyfitter_cfg.c **** * Summary:
 251:.\Generated_Source\PSoC4/cyfitter_cfg.c **** *  Sets up the analog portions of the chip to default values based on chip
 252:.\Generated_Source\PSoC4/cyfitter_cfg.c **** *  configuration options from the project.
 253:.\Generated_Source\PSoC4/cyfitter_cfg.c **** *
 254:.\Generated_Source\PSoC4/cyfitter_cfg.c **** * Parameters:
 255:.\Generated_Source\PSoC4/cyfitter_cfg.c **** *  void
 256:.\Generated_Source\PSoC4/cyfitter_cfg.c **** *
 257:.\Generated_Source\PSoC4/cyfitter_cfg.c **** * Return:
 258:.\Generated_Source\PSoC4/cyfitter_cfg.c **** *  void
 259:.\Generated_Source\PSoC4/cyfitter_cfg.c **** *
 260:.\Generated_Source\PSoC4/cyfitter_cfg.c **** *******************************************************************************/
 261:.\Generated_Source\PSoC4/cyfitter_cfg.c **** static void AnalogSetDefault(void);
 262:.\Generated_Source\PSoC4/cyfitter_cfg.c **** static void AnalogSetDefault(void)
 263:.\Generated_Source\PSoC4/cyfitter_cfg.c **** {
 264:.\Generated_Source\PSoC4/cyfitter_cfg.c **** 	CY_SET_XTND_REG32((void CYFAR *)CYREG_CTBM0_DFT_CTRL, 0x00000003u);
 265:.\Generated_Source\PSoC4/cyfitter_cfg.c **** 	CY_SET_XTND_REG32((void CYFAR *)CYREG_CTBM1_DFT_CTRL, 0x00000003u);
 266:.\Generated_Source\PSoC4/cyfitter_cfg.c **** 	CY_SET_XTND_REG32((void CYFAR *)CYREG_PASS_DSAB_DSAB_CTRL, 0x00000000u);
 267:.\Generated_Source\PSoC4/cyfitter_cfg.c **** 	SetAnalogRoutingPumps(1);
 268:.\Generated_Source\PSoC4/cyfitter_cfg.c **** }
 269:.\Generated_Source\PSoC4/cyfitter_cfg.c **** 
 270:.\Generated_Source\PSoC4/cyfitter_cfg.c **** 
 271:.\Generated_Source\PSoC4/cyfitter_cfg.c **** /*******************************************************************************
 272:.\Generated_Source\PSoC4/cyfitter_cfg.c **** * Function Name: SetAnalogRoutingPumps
 273:.\Generated_Source\PSoC4/cyfitter_cfg.c **** ********************************************************************************
 274:.\Generated_Source\PSoC4/cyfitter_cfg.c **** *
ARM GAS  C:\Users\KEVINH~1\AppData\Local\Temp\ccLB3qQw.s 			page 11


 275:.\Generated_Source\PSoC4/cyfitter_cfg.c **** * Summary:
 276:.\Generated_Source\PSoC4/cyfitter_cfg.c **** * Enables or disables the analog pumps feeding analog routing switches.
 277:.\Generated_Source\PSoC4/cyfitter_cfg.c **** * Intended to be called at startup, based on the Vdda system configuration;
 278:.\Generated_Source\PSoC4/cyfitter_cfg.c **** * may be called during operation when the user informs us that the Vdda voltage crossed the pump th
 279:.\Generated_Source\PSoC4/cyfitter_cfg.c **** *
 280:.\Generated_Source\PSoC4/cyfitter_cfg.c **** * Parameters:
 281:.\Generated_Source\PSoC4/cyfitter_cfg.c **** *  enabled - 1 to enable the pumps, 0 to disable the pumps
 282:.\Generated_Source\PSoC4/cyfitter_cfg.c **** *
 283:.\Generated_Source\PSoC4/cyfitter_cfg.c **** * Return:
 284:.\Generated_Source\PSoC4/cyfitter_cfg.c **** *  void
 285:.\Generated_Source\PSoC4/cyfitter_cfg.c **** *
 286:.\Generated_Source\PSoC4/cyfitter_cfg.c **** *******************************************************************************/
 287:.\Generated_Source\PSoC4/cyfitter_cfg.c **** void SetAnalogRoutingPumps(uint8 enabled)
 288:.\Generated_Source\PSoC4/cyfitter_cfg.c **** {
 288              		.loc 1 288 0
 289              		.cfi_startproc
 290              	.LVL22:
 289:.\Generated_Source\PSoC4/cyfitter_cfg.c **** 	uint32 regValue = CY_GET_XTND_REG32((void *)(CYREG_SAR_PUMP_CTRL));
 291              		.loc 1 289 0
 292 0000 0C4B     		ldr	r3, .L15
 293 0002 1B68     		ldr	r3, [r3]
 294              	.LVL23:
 290:.\Generated_Source\PSoC4/cyfitter_cfg.c **** 	if (enabled != 0u)
 295              		.loc 1 290 0
 296 0004 0028     		cmp	r0, #0
 297 0006 03D0     		beq	.L11
 291:.\Generated_Source\PSoC4/cyfitter_cfg.c **** 	{
 292:.\Generated_Source\PSoC4/cyfitter_cfg.c **** 		regValue |= 0x80000000u;
 298              		.loc 1 292 0
 299 0008 8022     		mov	r2, #128
 300 000a 1206     		lsl	r2, r2, #24
 301 000c 1A43     		orr	r2, r3
 302              	.LVL24:
 303 000e 01E0     		b	.L12
 304              	.LVL25:
 305              	.L11:
 293:.\Generated_Source\PSoC4/cyfitter_cfg.c **** 	}
 294:.\Generated_Source\PSoC4/cyfitter_cfg.c **** 	else
 295:.\Generated_Source\PSoC4/cyfitter_cfg.c **** 	{
 296:.\Generated_Source\PSoC4/cyfitter_cfg.c **** 		regValue &= ~0x80000000u;
 306              		.loc 1 296 0
 307 0010 5A00     		lsl	r2, r3, #1
 308 0012 5208     		lsr	r2, r2, #1
 309              	.LVL26:
 310              	.L12:
 297:.\Generated_Source\PSoC4/cyfitter_cfg.c **** 	}
 298:.\Generated_Source\PSoC4/cyfitter_cfg.c **** 	CY_SET_XTND_REG32((void *)(CYREG_SAR_PUMP_CTRL), regValue);
 311              		.loc 1 298 0
 312 0014 074B     		ldr	r3, .L15
 313 0016 1A60     		str	r2, [r3]
 299:.\Generated_Source\PSoC4/cyfitter_cfg.c **** 	regValue = CY_GET_XTND_REG32((void *)(CYREG_CLK_IMO_CONFIG));
 314              		.loc 1 299 0
 315 0018 074B     		ldr	r3, .L15+4
 316 001a 1B68     		ldr	r3, [r3]
 317              	.LVL27:
 300:.\Generated_Source\PSoC4/cyfitter_cfg.c **** 	if (enabled != 0u)
 318              		.loc 1 300 0
ARM GAS  C:\Users\KEVINH~1\AppData\Local\Temp\ccLB3qQw.s 			page 12


 319 001c 0028     		cmp	r0, #0
 320 001e 03D0     		beq	.L13
 301:.\Generated_Source\PSoC4/cyfitter_cfg.c **** 	{
 302:.\Generated_Source\PSoC4/cyfitter_cfg.c **** 		regValue |= 0x02000000u;
 321              		.loc 1 302 0
 322 0020 8022     		mov	r2, #128
 323 0022 9204     		lsl	r2, r2, #18
 324 0024 1A43     		orr	r2, r3
 325              	.LVL28:
 326 0026 01E0     		b	.L14
 327              	.LVL29:
 328              	.L13:
 303:.\Generated_Source\PSoC4/cyfitter_cfg.c **** 	}
 304:.\Generated_Source\PSoC4/cyfitter_cfg.c **** 	else
 305:.\Generated_Source\PSoC4/cyfitter_cfg.c **** 	{
 306:.\Generated_Source\PSoC4/cyfitter_cfg.c **** 		regValue &= ~0x02000000u;
 329              		.loc 1 306 0
 330 0028 044A     		ldr	r2, .L15+8
 331 002a 1A40     		and	r2, r3
 332              	.LVL30:
 333              	.L14:
 307:.\Generated_Source\PSoC4/cyfitter_cfg.c **** 	}
 308:.\Generated_Source\PSoC4/cyfitter_cfg.c **** 	CY_SET_XTND_REG32((void *)(CYREG_CLK_IMO_CONFIG), regValue);
 334              		.loc 1 308 0
 335 002c 024B     		ldr	r3, .L15+4
 336 002e 1A60     		str	r2, [r3]
 309:.\Generated_Source\PSoC4/cyfitter_cfg.c **** }
 337              		.loc 1 309 0
 338              		@ sp needed
 339 0030 7047     		bx	lr
 340              	.L16:
 341 0032 C046     		.align	2
 342              	.L15:
 343 0034 80033A40 		.word	1077543808
 344 0038 08010B40 		.word	1074462984
 345 003c FFFFFFFD 		.word	-33554433
 346              		.cfi_endproc
 347              	.LFE8:
 348              		.size	SetAnalogRoutingPumps, .-SetAnalogRoutingPumps
 349              		.section	.text.AnalogSetDefault,"ax",%progbits
 350              		.align	2
 351              		.code	16
 352              		.thumb_func
 353              		.type	AnalogSetDefault, %function
 354              	AnalogSetDefault:
 355              	.LFB7:
 263:.\Generated_Source\PSoC4/cyfitter_cfg.c **** {
 356              		.loc 1 263 0
 357              		.cfi_startproc
 358 0000 08B5     		push	{r3, lr}
 359              		.cfi_def_cfa_offset 8
 360              		.cfi_offset 3, -8
 361              		.cfi_offset 14, -4
 264:.\Generated_Source\PSoC4/cyfitter_cfg.c **** 	CY_SET_XTND_REG32((void CYFAR *)CYREG_CTBM0_DFT_CTRL, 0x00000003u);
 362              		.loc 1 264 0
 363 0002 0323     		mov	r3, #3
 364 0004 054A     		ldr	r2, .L18
ARM GAS  C:\Users\KEVINH~1\AppData\Local\Temp\ccLB3qQw.s 			page 13


 365 0006 1360     		str	r3, [r2]
 265:.\Generated_Source\PSoC4/cyfitter_cfg.c **** 	CY_SET_XTND_REG32((void CYFAR *)CYREG_CTBM1_DFT_CTRL, 0x00000003u);
 366              		.loc 1 265 0
 367 0008 054A     		ldr	r2, .L18+4
 368 000a 1360     		str	r3, [r2]
 266:.\Generated_Source\PSoC4/cyfitter_cfg.c **** 	CY_SET_XTND_REG32((void CYFAR *)CYREG_PASS_DSAB_DSAB_CTRL, 0x00000000u);
 369              		.loc 1 266 0
 370 000c 0022     		mov	r2, #0
 371 000e 054B     		ldr	r3, .L18+8
 372 0010 1A60     		str	r2, [r3]
 267:.\Generated_Source\PSoC4/cyfitter_cfg.c **** 	SetAnalogRoutingPumps(1);
 373              		.loc 1 267 0
 374 0012 0120     		mov	r0, #1
 375 0014 FFF7FEFF 		bl	SetAnalogRoutingPumps
 376              	.LVL31:
 268:.\Generated_Source\PSoC4/cyfitter_cfg.c **** }
 377              		.loc 1 268 0
 378              		@ sp needed
 379 0018 08BD     		pop	{r3, pc}
 380              	.L19:
 381 001a C046     		.align	2
 382              	.L18:
 383 001c 30003040 		.word	1076887600
 384 0020 30003140 		.word	1076953136
 385 0024 000E3F40 		.word	1077874176
 386              		.cfi_endproc
 387              	.LFE7:
 388              		.size	AnalogSetDefault, .-AnalogSetDefault
 389              		.section	.psocinit
 390              		.align	2
 391              		.global	cyfitter_cfg
 392              		.code	16
 393              		.thumb_func
 394              		.type	cyfitter_cfg, %function
 395              	cyfitter_cfg:
 396              	.LFB9:
 310:.\Generated_Source\PSoC4/cyfitter_cfg.c **** 
 311:.\Generated_Source\PSoC4/cyfitter_cfg.c **** #define CY_AMUX_UNUSED CYREG_CM0_ROM_DWT
 312:.\Generated_Source\PSoC4/cyfitter_cfg.c **** 
 313:.\Generated_Source\PSoC4/cyfitter_cfg.c **** 
 314:.\Generated_Source\PSoC4/cyfitter_cfg.c **** /*******************************************************************************
 315:.\Generated_Source\PSoC4/cyfitter_cfg.c **** * Function Name: cyfitter_cfg
 316:.\Generated_Source\PSoC4/cyfitter_cfg.c **** ********************************************************************************
 317:.\Generated_Source\PSoC4/cyfitter_cfg.c **** * Summary:
 318:.\Generated_Source\PSoC4/cyfitter_cfg.c **** *  This function is called by the start-up code for the selected device. It
 319:.\Generated_Source\PSoC4/cyfitter_cfg.c **** *  performs all of the necessary device configuration based on the design
 320:.\Generated_Source\PSoC4/cyfitter_cfg.c **** *  settings.  This includes settings from the Design Wide Resources (DWR) such
 321:.\Generated_Source\PSoC4/cyfitter_cfg.c **** *  as Clocks and Pins as well as any component configuration that is necessary.
 322:.\Generated_Source\PSoC4/cyfitter_cfg.c **** *
 323:.\Generated_Source\PSoC4/cyfitter_cfg.c **** * Parameters:  
 324:.\Generated_Source\PSoC4/cyfitter_cfg.c **** *   void
 325:.\Generated_Source\PSoC4/cyfitter_cfg.c **** *
 326:.\Generated_Source\PSoC4/cyfitter_cfg.c **** * Return:
 327:.\Generated_Source\PSoC4/cyfitter_cfg.c **** *   void
 328:.\Generated_Source\PSoC4/cyfitter_cfg.c **** *
 329:.\Generated_Source\PSoC4/cyfitter_cfg.c **** *******************************************************************************/
 330:.\Generated_Source\PSoC4/cyfitter_cfg.c **** CY_CFG_SECTION
ARM GAS  C:\Users\KEVINH~1\AppData\Local\Temp\ccLB3qQw.s 			page 14


 331:.\Generated_Source\PSoC4/cyfitter_cfg.c **** void cyfitter_cfg(void)
 332:.\Generated_Source\PSoC4/cyfitter_cfg.c **** {
 397              		.loc 1 332 0
 398              		.cfi_startproc
 399 0108 38B5     		push	{r3, r4, r5, lr}
 400              		.cfi_def_cfa_offset 16
 401              		.cfi_offset 3, -16
 402              		.cfi_offset 4, -12
 403              		.cfi_offset 5, -8
 404              		.cfi_offset 14, -4
 333:.\Generated_Source\PSoC4/cyfitter_cfg.c **** 	/* Disable interrupts by default. Let user enable if/when they want. */
 334:.\Generated_Source\PSoC4/cyfitter_cfg.c **** 	CyGlobalIntDisable;
 405              		.loc 1 334 0
 406              	@ 334 ".\Generated_Source\PSoC4\cyfitter_cfg.c" 1
 407 010a 72B6     		CPSID   i
 408              	@ 0 "" 2
 335:.\Generated_Source\PSoC4/cyfitter_cfg.c **** 
 336:.\Generated_Source\PSoC4/cyfitter_cfg.c **** 	CY_SET_XTND_REG32((void CYFAR *)(CYREG_BLE_BLESS_LL_DSM_CTRL), 0x00000000u);
 409              		.loc 1 336 0
 410              		.code	16
 411 010c 0022     		mov	r2, #0
 412 010e 2D4B     		ldr	r3, .L23
 413 0110 1A60     		str	r2, [r3]
 414              	.LVL32:
 415              	.LBB4:
 337:.\Generated_Source\PSoC4/cyfitter_cfg.c **** 
 338:.\Generated_Source\PSoC4/cyfitter_cfg.c **** 	{
 339:.\Generated_Source\PSoC4/cyfitter_cfg.c **** 		static const uint32 CYCODE cy_cfg_addr_table[] = {
 340:.\Generated_Source\PSoC4/cyfitter_cfg.c **** 			0x400F3241u, /* Base address: 0x400F3200 Count: 65 */
 341:.\Generated_Source\PSoC4/cyfitter_cfg.c **** 			0x400F3326u, /* Base address: 0x400F3300 Count: 38 */
 342:.\Generated_Source\PSoC4/cyfitter_cfg.c **** 			0x400F4003u, /* Base address: 0x400F4000 Count: 3 */
 343:.\Generated_Source\PSoC4/cyfitter_cfg.c **** 			0x400F410Au, /* Base address: 0x400F4100 Count: 10 */
 344:.\Generated_Source\PSoC4/cyfitter_cfg.c **** 			0x400F4202u, /* Base address: 0x400F4200 Count: 2 */
 345:.\Generated_Source\PSoC4/cyfitter_cfg.c **** 			0x400F4303u, /* Base address: 0x400F4300 Count: 3 */
 346:.\Generated_Source\PSoC4/cyfitter_cfg.c **** 			0x400F6002u, /* Base address: 0x400F6000 Count: 2 */
 347:.\Generated_Source\PSoC4/cyfitter_cfg.c **** 		};
 348:.\Generated_Source\PSoC4/cyfitter_cfg.c **** 
 349:.\Generated_Source\PSoC4/cyfitter_cfg.c **** 		static const cy_cfg_addrvalue_t CYCODE cy_cfg_data_table[] = {
 350:.\Generated_Source\PSoC4/cyfitter_cfg.c **** 			{0x01u, 0x04u},
 351:.\Generated_Source\PSoC4/cyfitter_cfg.c **** 			{0x05u, 0x04u},
 352:.\Generated_Source\PSoC4/cyfitter_cfg.c **** 			{0x07u, 0x08u},
 353:.\Generated_Source\PSoC4/cyfitter_cfg.c **** 			{0x09u, 0x04u},
 354:.\Generated_Source\PSoC4/cyfitter_cfg.c **** 			{0x0Bu, 0x08u},
 355:.\Generated_Source\PSoC4/cyfitter_cfg.c **** 			{0x19u, 0x01u},
 356:.\Generated_Source\PSoC4/cyfitter_cfg.c **** 			{0x1Bu, 0x02u},
 357:.\Generated_Source\PSoC4/cyfitter_cfg.c **** 			{0x25u, 0x01u},
 358:.\Generated_Source\PSoC4/cyfitter_cfg.c **** 			{0x29u, 0x01u},
 359:.\Generated_Source\PSoC4/cyfitter_cfg.c **** 			{0x2Bu, 0x02u},
 360:.\Generated_Source\PSoC4/cyfitter_cfg.c **** 			{0x2Eu, 0x01u},
 361:.\Generated_Source\PSoC4/cyfitter_cfg.c **** 			{0x31u, 0x0Cu},
 362:.\Generated_Source\PSoC4/cyfitter_cfg.c **** 			{0x33u, 0x03u},
 363:.\Generated_Source\PSoC4/cyfitter_cfg.c **** 			{0x36u, 0x01u},
 364:.\Generated_Source\PSoC4/cyfitter_cfg.c **** 			{0x39u, 0x0Au},
 365:.\Generated_Source\PSoC4/cyfitter_cfg.c **** 			{0x40u, 0x06u},
 366:.\Generated_Source\PSoC4/cyfitter_cfg.c **** 			{0x45u, 0x01u},
 367:.\Generated_Source\PSoC4/cyfitter_cfg.c **** 			{0x46u, 0x40u},
 368:.\Generated_Source\PSoC4/cyfitter_cfg.c **** 			{0x47u, 0x05u},
ARM GAS  C:\Users\KEVINH~1\AppData\Local\Temp\ccLB3qQw.s 			page 15


 369:.\Generated_Source\PSoC4/cyfitter_cfg.c **** 			{0x48u, 0x1Bu},
 370:.\Generated_Source\PSoC4/cyfitter_cfg.c **** 			{0x49u, 0xFFu},
 371:.\Generated_Source\PSoC4/cyfitter_cfg.c **** 			{0x4Au, 0xFFu},
 372:.\Generated_Source\PSoC4/cyfitter_cfg.c **** 			{0x4Bu, 0xFFu},
 373:.\Generated_Source\PSoC4/cyfitter_cfg.c **** 			{0x4Cu, 0x02u},
 374:.\Generated_Source\PSoC4/cyfitter_cfg.c **** 			{0x4Du, 0x20u},
 375:.\Generated_Source\PSoC4/cyfitter_cfg.c **** 			{0x4Eu, 0xF0u},
 376:.\Generated_Source\PSoC4/cyfitter_cfg.c **** 			{0x52u, 0x07u},
 377:.\Generated_Source\PSoC4/cyfitter_cfg.c **** 			{0x58u, 0x04u},
 378:.\Generated_Source\PSoC4/cyfitter_cfg.c **** 			{0x59u, 0x0Fu},
 379:.\Generated_Source\PSoC4/cyfitter_cfg.c **** 			{0x5Au, 0x0Fu},
 380:.\Generated_Source\PSoC4/cyfitter_cfg.c **** 			{0x5Bu, 0x04u},
 381:.\Generated_Source\PSoC4/cyfitter_cfg.c **** 			{0x5Fu, 0x01u},
 382:.\Generated_Source\PSoC4/cyfitter_cfg.c **** 			{0x62u, 0x48u},
 383:.\Generated_Source\PSoC4/cyfitter_cfg.c **** 			{0x63u, 0xADu},
 384:.\Generated_Source\PSoC4/cyfitter_cfg.c **** 			{0x64u, 0xC0u},
 385:.\Generated_Source\PSoC4/cyfitter_cfg.c **** 			{0x66u, 0xC0u},
 386:.\Generated_Source\PSoC4/cyfitter_cfg.c **** 			{0x8Fu, 0x01u},
 387:.\Generated_Source\PSoC4/cyfitter_cfg.c **** 			{0xA4u, 0x01u},
 388:.\Generated_Source\PSoC4/cyfitter_cfg.c **** 			{0xA8u, 0x01u},
 389:.\Generated_Source\PSoC4/cyfitter_cfg.c **** 			{0xAAu, 0x02u},
 390:.\Generated_Source\PSoC4/cyfitter_cfg.c **** 			{0xACu, 0x01u},
 391:.\Generated_Source\PSoC4/cyfitter_cfg.c **** 			{0xAEu, 0x02u},
 392:.\Generated_Source\PSoC4/cyfitter_cfg.c **** 			{0xB3u, 0x01u},
 393:.\Generated_Source\PSoC4/cyfitter_cfg.c **** 			{0xB6u, 0x03u},
 394:.\Generated_Source\PSoC4/cyfitter_cfg.c **** 			{0xB8u, 0xA0u},
 395:.\Generated_Source\PSoC4/cyfitter_cfg.c **** 			{0xBEu, 0x10u},
 396:.\Generated_Source\PSoC4/cyfitter_cfg.c **** 			{0xC0u, 0x02u},
 397:.\Generated_Source\PSoC4/cyfitter_cfg.c **** 			{0xC7u, 0x10u},
 398:.\Generated_Source\PSoC4/cyfitter_cfg.c **** 			{0xC8u, 0x21u},
 399:.\Generated_Source\PSoC4/cyfitter_cfg.c **** 			{0xC9u, 0xFFu},
 400:.\Generated_Source\PSoC4/cyfitter_cfg.c **** 			{0xCAu, 0xFFu},
 401:.\Generated_Source\PSoC4/cyfitter_cfg.c **** 			{0xCBu, 0xFFu},
 402:.\Generated_Source\PSoC4/cyfitter_cfg.c **** 			{0xCCu, 0x02u},
 403:.\Generated_Source\PSoC4/cyfitter_cfg.c **** 			{0xCDu, 0x20u},
 404:.\Generated_Source\PSoC4/cyfitter_cfg.c **** 			{0xCEu, 0xF0u},
 405:.\Generated_Source\PSoC4/cyfitter_cfg.c **** 			{0xD2u, 0x03u},
 406:.\Generated_Source\PSoC4/cyfitter_cfg.c **** 			{0xD8u, 0x0Eu},
 407:.\Generated_Source\PSoC4/cyfitter_cfg.c **** 			{0xD9u, 0x04u},
 408:.\Generated_Source\PSoC4/cyfitter_cfg.c **** 			{0xDAu, 0x0Eu},
 409:.\Generated_Source\PSoC4/cyfitter_cfg.c **** 			{0xDBu, 0x04u},
 410:.\Generated_Source\PSoC4/cyfitter_cfg.c **** 			{0xDFu, 0x01u},
 411:.\Generated_Source\PSoC4/cyfitter_cfg.c **** 			{0xE2u, 0x48u},
 412:.\Generated_Source\PSoC4/cyfitter_cfg.c **** 			{0xE3u, 0xADu},
 413:.\Generated_Source\PSoC4/cyfitter_cfg.c **** 			{0xE4u, 0xC0u},
 414:.\Generated_Source\PSoC4/cyfitter_cfg.c **** 			{0xE6u, 0xC0u},
 415:.\Generated_Source\PSoC4/cyfitter_cfg.c **** 			{0x10u, 0x2Au},
 416:.\Generated_Source\PSoC4/cyfitter_cfg.c **** 			{0x15u, 0x40u},
 417:.\Generated_Source\PSoC4/cyfitter_cfg.c **** 			{0x18u, 0x04u},
 418:.\Generated_Source\PSoC4/cyfitter_cfg.c **** 			{0x1Au, 0x09u},
 419:.\Generated_Source\PSoC4/cyfitter_cfg.c **** 			{0x1Fu, 0x80u},
 420:.\Generated_Source\PSoC4/cyfitter_cfg.c **** 			{0x21u, 0x04u},
 421:.\Generated_Source\PSoC4/cyfitter_cfg.c **** 			{0x24u, 0x40u},
 422:.\Generated_Source\PSoC4/cyfitter_cfg.c **** 			{0x27u, 0x20u},
 423:.\Generated_Source\PSoC4/cyfitter_cfg.c **** 			{0x2Fu, 0x28u},
 424:.\Generated_Source\PSoC4/cyfitter_cfg.c **** 			{0x37u, 0x10u},
 425:.\Generated_Source\PSoC4/cyfitter_cfg.c **** 			{0x39u, 0x80u},
ARM GAS  C:\Users\KEVINH~1\AppData\Local\Temp\ccLB3qQw.s 			page 16


 426:.\Generated_Source\PSoC4/cyfitter_cfg.c **** 			{0x3Eu, 0x10u},
 427:.\Generated_Source\PSoC4/cyfitter_cfg.c **** 			{0x3Fu, 0x0Au},
 428:.\Generated_Source\PSoC4/cyfitter_cfg.c **** 			{0x40u, 0x04u},
 429:.\Generated_Source\PSoC4/cyfitter_cfg.c **** 			{0x48u, 0x20u},
 430:.\Generated_Source\PSoC4/cyfitter_cfg.c **** 			{0x4Eu, 0x04u},
 431:.\Generated_Source\PSoC4/cyfitter_cfg.c **** 			{0x4Fu, 0x0Au},
 432:.\Generated_Source\PSoC4/cyfitter_cfg.c **** 			{0x50u, 0x02u},
 433:.\Generated_Source\PSoC4/cyfitter_cfg.c **** 			{0x57u, 0x28u},
 434:.\Generated_Source\PSoC4/cyfitter_cfg.c **** 			{0x68u, 0x08u},
 435:.\Generated_Source\PSoC4/cyfitter_cfg.c **** 			{0x69u, 0x80u},
 436:.\Generated_Source\PSoC4/cyfitter_cfg.c **** 			{0x6Du, 0x40u},
 437:.\Generated_Source\PSoC4/cyfitter_cfg.c **** 			{0x6Eu, 0x10u},
 438:.\Generated_Source\PSoC4/cyfitter_cfg.c **** 			{0x6Fu, 0x10u},
 439:.\Generated_Source\PSoC4/cyfitter_cfg.c **** 			{0x79u, 0x08u},
 440:.\Generated_Source\PSoC4/cyfitter_cfg.c **** 			{0x7Fu, 0x80u},
 441:.\Generated_Source\PSoC4/cyfitter_cfg.c **** 			{0x83u, 0x20u},
 442:.\Generated_Source\PSoC4/cyfitter_cfg.c **** 			{0x86u, 0x01u},
 443:.\Generated_Source\PSoC4/cyfitter_cfg.c **** 			{0x8Au, 0x04u},
 444:.\Generated_Source\PSoC4/cyfitter_cfg.c **** 			{0x8Cu, 0x40u},
 445:.\Generated_Source\PSoC4/cyfitter_cfg.c **** 			{0xC4u, 0x87u},
 446:.\Generated_Source\PSoC4/cyfitter_cfg.c **** 			{0xCAu, 0x60u},
 447:.\Generated_Source\PSoC4/cyfitter_cfg.c **** 			{0xCCu, 0x20u},
 448:.\Generated_Source\PSoC4/cyfitter_cfg.c **** 			{0xCEu, 0xE8u},
 449:.\Generated_Source\PSoC4/cyfitter_cfg.c **** 			{0xD0u, 0x04u},
 450:.\Generated_Source\PSoC4/cyfitter_cfg.c **** 			{0xD2u, 0x20u},
 451:.\Generated_Source\PSoC4/cyfitter_cfg.c **** 			{0xDEu, 0x82u},
 452:.\Generated_Source\PSoC4/cyfitter_cfg.c **** 			{0xE2u, 0x80u},
 453:.\Generated_Source\PSoC4/cyfitter_cfg.c **** 			{0x52u, 0x02u},
 454:.\Generated_Source\PSoC4/cyfitter_cfg.c **** 			{0x54u, 0x80u},
 455:.\Generated_Source\PSoC4/cyfitter_cfg.c **** 			{0xD4u, 0xC0u},
 456:.\Generated_Source\PSoC4/cyfitter_cfg.c **** 			{0x3Bu, 0x08u},
 457:.\Generated_Source\PSoC4/cyfitter_cfg.c **** 			{0x3Cu, 0x02u},
 458:.\Generated_Source\PSoC4/cyfitter_cfg.c **** 			{0x82u, 0x02u},
 459:.\Generated_Source\PSoC4/cyfitter_cfg.c **** 			{0x84u, 0x80u},
 460:.\Generated_Source\PSoC4/cyfitter_cfg.c **** 			{0x88u, 0x01u},
 461:.\Generated_Source\PSoC4/cyfitter_cfg.c **** 			{0x8Bu, 0x04u},
 462:.\Generated_Source\PSoC4/cyfitter_cfg.c **** 			{0xA4u, 0x80u},
 463:.\Generated_Source\PSoC4/cyfitter_cfg.c **** 			{0xA6u, 0x02u},
 464:.\Generated_Source\PSoC4/cyfitter_cfg.c **** 			{0xCEu, 0xC0u},
 465:.\Generated_Source\PSoC4/cyfitter_cfg.c **** 			{0xE2u, 0x90u},
 466:.\Generated_Source\PSoC4/cyfitter_cfg.c **** 			{0x5Du, 0x08u},
 467:.\Generated_Source\PSoC4/cyfitter_cfg.c **** 			{0xD6u, 0x01u},
 468:.\Generated_Source\PSoC4/cyfitter_cfg.c **** 			{0x8Du, 0x08u},
 469:.\Generated_Source\PSoC4/cyfitter_cfg.c **** 			{0x9Du, 0x08u},
 470:.\Generated_Source\PSoC4/cyfitter_cfg.c **** 			{0xE0u, 0x02u},
 471:.\Generated_Source\PSoC4/cyfitter_cfg.c **** 			{0x01u, 0x01u},
 472:.\Generated_Source\PSoC4/cyfitter_cfg.c **** 			{0x10u, 0x01u},
 473:.\Generated_Source\PSoC4/cyfitter_cfg.c **** 		};
 474:.\Generated_Source\PSoC4/cyfitter_cfg.c **** 
 475:.\Generated_Source\PSoC4/cyfitter_cfg.c **** 
 476:.\Generated_Source\PSoC4/cyfitter_cfg.c **** 
 477:.\Generated_Source\PSoC4/cyfitter_cfg.c **** 		CYPACKED typedef struct {
 478:.\Generated_Source\PSoC4/cyfitter_cfg.c **** 			void CYFAR *address;
 479:.\Generated_Source\PSoC4/cyfitter_cfg.c **** 			uint16 size;
 480:.\Generated_Source\PSoC4/cyfitter_cfg.c **** 		} CYPACKED_ATTR cfg_memset_t;
 481:.\Generated_Source\PSoC4/cyfitter_cfg.c **** 
 482:.\Generated_Source\PSoC4/cyfitter_cfg.c **** 		static const cfg_memset_t CYCODE cfg_memset_list [] = {
ARM GAS  C:\Users\KEVINH~1\AppData\Local\Temp\ccLB3qQw.s 			page 17


 483:.\Generated_Source\PSoC4/cyfitter_cfg.c **** 			/* address, size */
 484:.\Generated_Source\PSoC4/cyfitter_cfg.c **** 			{(void CYFAR *)(CYDEV_UDB_P0_U0_BASE), 1024u},
 485:.\Generated_Source\PSoC4/cyfitter_cfg.c **** 			{(void CYFAR *)(CYDEV_UDB_DSI0_BASE), 1024u},
 486:.\Generated_Source\PSoC4/cyfitter_cfg.c **** 		};
 487:.\Generated_Source\PSoC4/cyfitter_cfg.c **** 
 488:.\Generated_Source\PSoC4/cyfitter_cfg.c **** 		uint8 CYDATA i;
 489:.\Generated_Source\PSoC4/cyfitter_cfg.c **** 
 490:.\Generated_Source\PSoC4/cyfitter_cfg.c **** 		/* Zero out critical memory blocks before beginning configuration */
 491:.\Generated_Source\PSoC4/cyfitter_cfg.c **** 		for (i = 0u; i < (sizeof(cfg_memset_list)/sizeof(cfg_memset_list[0])); i++)
 416              		.loc 1 491 0
 417 0112 0024     		mov	r4, #0
 418              	.LBB5:
 492:.\Generated_Source\PSoC4/cyfitter_cfg.c **** 		{
 493:.\Generated_Source\PSoC4/cyfitter_cfg.c **** 			const cfg_memset_t CYCODE * CYDATA ms = &cfg_memset_list[i];
 419              		.loc 1 493 0
 420 0114 2C4D     		ldr	r5, .L23+4
 421              	.LBE5:
 491:.\Generated_Source\PSoC4/cyfitter_cfg.c **** 		for (i = 0u; i < (sizeof(cfg_memset_list)/sizeof(cfg_memset_list[0])); i++)
 422              		.loc 1 491 0
 423 0116 0CE0     		b	.L21
 424              	.LVL33:
 425              	.L22:
 426              	.LBB6:
 427              		.loc 1 493 0 discriminator 2
 428 0118 6300     		lsl	r3, r4, #1
 429 011a 1B19     		add	r3, r3, r4
 430 011c 5B00     		lsl	r3, r3, #1
 431 011e EB18     		add	r3, r5, r3
 432              	.LVL34:
 494:.\Generated_Source\PSoC4/cyfitter_cfg.c **** 			CYMEMZERO(ms->address, (size_t)(uint32)(ms->size));
 433              		.loc 1 494 0 discriminator 2
 434 0120 9988     		ldrh	r1, [r3, #4]
 435 0122 1A88     		ldrh	r2, [r3]
 436 0124 5888     		ldrh	r0, [r3, #2]
 437 0126 0004     		lsl	r0, r0, #16
 438 0128 1043     		orr	r0, r2
 439 012a FFF7FEFF 		bl	CYMEMZERO
 440              	.LVL35:
 441              	.LBE6:
 491:.\Generated_Source\PSoC4/cyfitter_cfg.c **** 		for (i = 0u; i < (sizeof(cfg_memset_list)/sizeof(cfg_memset_list[0])); i++)
 442              		.loc 1 491 0 discriminator 2
 443 012e 0134     		add	r4, r4, #1
 444              	.LVL36:
 445 0130 E4B2     		uxtb	r4, r4
 446              	.LVL37:
 447              	.L21:
 491:.\Generated_Source\PSoC4/cyfitter_cfg.c **** 		for (i = 0u; i < (sizeof(cfg_memset_list)/sizeof(cfg_memset_list[0])); i++)
 448              		.loc 1 491 0 is_stmt 0 discriminator 1
 449 0132 012C     		cmp	r4, #1
 450 0134 F0D9     		bls	.L22
 495:.\Generated_Source\PSoC4/cyfitter_cfg.c **** 		}
 496:.\Generated_Source\PSoC4/cyfitter_cfg.c **** 
 497:.\Generated_Source\PSoC4/cyfitter_cfg.c **** 		cfg_write_bytes32(cy_cfg_addr_table, cy_cfg_data_table);
 451              		.loc 1 497 0 is_stmt 1
 452 0136 2449     		ldr	r1, .L23+4
 453 0138 081C     		mov	r0, r1
 454 013a 0C30     		add	r0, r0, #12
ARM GAS  C:\Users\KEVINH~1\AppData\Local\Temp\ccLB3qQw.s 			page 18


 455 013c 2831     		add	r1, r1, #40
 456 013e FFF7FEFF 		bl	cfg_write_bytes32
 457              	.LVL38:
 498:.\Generated_Source\PSoC4/cyfitter_cfg.c **** 
 499:.\Generated_Source\PSoC4/cyfitter_cfg.c **** 		/* PWR_BG_CONFIG Starting address: CYDEV_PWR_BG_CONFIG */
 500:.\Generated_Source\PSoC4/cyfitter_cfg.c **** 		CY_SET_XTND_REG32((void CYFAR *)(CYREG_PWR_BG_CONFIG), 0x00040000u);
 458              		.loc 1 500 0
 459 0142 8022     		mov	r2, #128
 460 0144 D202     		lsl	r2, r2, #11
 461 0146 214B     		ldr	r3, .L23+8
 462 0148 1A60     		str	r2, [r3]
 501:.\Generated_Source\PSoC4/cyfitter_cfg.c **** 
 502:.\Generated_Source\PSoC4/cyfitter_cfg.c **** 		/* HSIOM Starting address: CYDEV_HSIOM_BASE */
 503:.\Generated_Source\PSoC4/cyfitter_cfg.c **** 		CY_SET_XTND_REG32((void CYFAR *)(CYDEV_HSIOM_BASE), 0xEE000033u);
 463              		.loc 1 503 0
 464 014a 2149     		ldr	r1, .L23+12
 465 014c 214B     		ldr	r3, .L23+16
 466 014e 1960     		str	r1, [r3]
 504:.\Generated_Source\PSoC4/cyfitter_cfg.c **** 		CY_SET_XTND_REG32((void CYFAR *)(CYREG_HSIOM_PORT_SEL2), 0x03000000u);
 467              		.loc 1 504 0
 468 0150 C021     		mov	r1, #192
 469 0152 8904     		lsl	r1, r1, #18
 470 0154 204B     		ldr	r3, .L23+20
 471 0156 1960     		str	r1, [r3]
 505:.\Generated_Source\PSoC4/cyfitter_cfg.c **** 
 506:.\Generated_Source\PSoC4/cyfitter_cfg.c **** 		/* UDB_PA_0 Starting address: CYDEV_UDB_PA0_BASE */
 507:.\Generated_Source\PSoC4/cyfitter_cfg.c **** 		CY_SET_XTND_REG32((void CYFAR *)(CYDEV_UDB_PA0_BASE), 0x00990000u);
 472              		.loc 1 507 0
 473 0158 9923     		mov	r3, #153
 474 015a 1B04     		lsl	r3, r3, #16
 475 015c 1F49     		ldr	r1, .L23+24
 476 015e 0B60     		str	r3, [r1]
 508:.\Generated_Source\PSoC4/cyfitter_cfg.c **** 		CY_SET_XTND_REG32((void CYFAR *)(CYREG_UDB_PA0_CFG8), 0x00060000u);
 477              		.loc 1 508 0
 478 0160 C020     		mov	r0, #192
 479 0162 C002     		lsl	r0, r0, #11
 480 0164 1E49     		ldr	r1, .L23+28
 481 0166 0860     		str	r0, [r1]
 509:.\Generated_Source\PSoC4/cyfitter_cfg.c **** 
 510:.\Generated_Source\PSoC4/cyfitter_cfg.c **** 		/* UDB_PA_2 Starting address: CYDEV_UDB_PA2_BASE */
 511:.\Generated_Source\PSoC4/cyfitter_cfg.c **** 		CY_SET_XTND_REG32((void CYFAR *)(CYDEV_UDB_PA2_BASE), 0x00990000u);
 482              		.loc 1 511 0
 483 0168 1E49     		ldr	r1, .L23+32
 484 016a 0B60     		str	r3, [r1]
 512:.\Generated_Source\PSoC4/cyfitter_cfg.c **** 		CY_SET_XTND_REG32((void CYFAR *)(CYREG_UDB_PA2_CFG8), 0x10000000u);
 485              		.loc 1 512 0
 486 016c 8021     		mov	r1, #128
 487 016e 4905     		lsl	r1, r1, #21
 488 0170 1D4B     		ldr	r3, .L23+36
 489 0172 1960     		str	r1, [r3]
 513:.\Generated_Source\PSoC4/cyfitter_cfg.c **** 
 514:.\Generated_Source\PSoC4/cyfitter_cfg.c **** 		/* Enable digital routing */
 515:.\Generated_Source\PSoC4/cyfitter_cfg.c **** 		CY_SET_XTND_REG8((void *)CYREG_UDB_UDBIF_BANK_CTL, CY_GET_XTND_REG8((void *)CYREG_UDB_UDBIF_BANK_
 490              		.loc 1 515 0
 491 0174 1D4B     		ldr	r3, .L23+40
 492 0176 1878     		ldrb	r0, [r3]
 493 0178 0221     		mov	r1, #2
ARM GAS  C:\Users\KEVINH~1\AppData\Local\Temp\ccLB3qQw.s 			page 19


 494 017a 0143     		orr	r1, r0
 495 017c 1970     		strb	r1, [r3]
 516:.\Generated_Source\PSoC4/cyfitter_cfg.c **** 
 517:.\Generated_Source\PSoC4/cyfitter_cfg.c **** 		/* Enable UDB array */
 518:.\Generated_Source\PSoC4/cyfitter_cfg.c **** 		CY_SET_XTND_REG8((void *)CYREG_UDB_UDBIF_WAIT_CFG, (uint8)((CY_GET_XTND_REG8((void *)CYREG_UDB_UD
 496              		.loc 1 518 0
 497 017e 1C49     		ldr	r1, .L23+44
 498 0180 0878     		ldrb	r0, [r1]
 499 0182 3C24     		mov	r4, #60
 500              	.LVL39:
 501 0184 A043     		bic	r0, r4
 502 0186 1424     		mov	r4, #20
 503 0188 2043     		orr	r0, r4
 504 018a 0870     		strb	r0, [r1]
 519:.\Generated_Source\PSoC4/cyfitter_cfg.c **** 		CY_SET_XTND_REG8((void *)CYREG_UDB_UDBIF_BANK_CTL, (uint8)(CY_GET_XTND_REG8((void *)CYREG_UDB_UDB
 505              		.loc 1 519 0
 506 018c 1878     		ldrb	r0, [r3]
 507 018e 1621     		mov	r1, #22
 508 0190 0143     		orr	r1, r0
 509 0192 1970     		strb	r1, [r3]
 510              	.LBE4:
 520:.\Generated_Source\PSoC4/cyfitter_cfg.c **** 	}
 521:.\Generated_Source\PSoC4/cyfitter_cfg.c **** 
 522:.\Generated_Source\PSoC4/cyfitter_cfg.c **** 	/* Perform second pass device configuration. These items must be configured in specific order afte
 523:.\Generated_Source\PSoC4/cyfitter_cfg.c **** 	/* IOPINS0_0 Starting address: CYDEV_GPIO_PRT0_DR */
 524:.\Generated_Source\PSoC4/cyfitter_cfg.c **** 	CY_SET_XTND_REG32((void CYFAR *)(CYREG_GPIO_PRT0_DR), 0x00000003u);
 511              		.loc 1 524 0
 512 0194 0321     		mov	r1, #3
 513 0196 174B     		ldr	r3, .L23+48
 514 0198 1960     		str	r1, [r3]
 525:.\Generated_Source\PSoC4/cyfitter_cfg.c **** 	CY_SET_XTND_REG32((void CYFAR *)(CYREG_GPIO_PRT0_PC), 0x00D80009u);
 515              		.loc 1 525 0
 516 019a 1749     		ldr	r1, .L23+52
 517 019c 174B     		ldr	r3, .L23+56
 518 019e 1960     		str	r1, [r3]
 526:.\Generated_Source\PSoC4/cyfitter_cfg.c **** 
 527:.\Generated_Source\PSoC4/cyfitter_cfg.c **** 	/* IOPINS0_2 Starting address: CYDEV_GPIO_PRT2_DR */
 528:.\Generated_Source\PSoC4/cyfitter_cfg.c **** 	CY_SET_XTND_REG32((void CYFAR *)(CYREG_GPIO_PRT2_DR), 0x0000007Eu);
 519              		.loc 1 528 0
 520 01a0 7E21     		mov	r1, #126
 521 01a2 174B     		ldr	r3, .L23+60
 522 01a4 1960     		str	r1, [r3]
 529:.\Generated_Source\PSoC4/cyfitter_cfg.c **** 	CY_SET_XTND_REG32((void CYFAR *)(CYREG_GPIO_PRT2_PC), 0x00040000u);
 523              		.loc 1 529 0
 524 01a6 174B     		ldr	r3, .L23+64
 525 01a8 1A60     		str	r2, [r3]
 530:.\Generated_Source\PSoC4/cyfitter_cfg.c **** 	CY_SET_XTND_REG32((void CYFAR *)(CYREG_GPIO_PRT2_PC2), 0x0000003Eu);
 526              		.loc 1 530 0
 527 01aa 3E22     		mov	r2, #62
 528 01ac 164B     		ldr	r3, .L23+68
 529 01ae 1A60     		str	r2, [r3]
 531:.\Generated_Source\PSoC4/cyfitter_cfg.c **** 
 532:.\Generated_Source\PSoC4/cyfitter_cfg.c **** 	/* IOPINS0_4 Starting address: CYDEV_GPIO_PRT4_DR */
 533:.\Generated_Source\PSoC4/cyfitter_cfg.c **** 	CY_SET_XTND_REG32((void CYFAR *)(CYREG_GPIO_PRT4_DR), 0x00000001u);
 530              		.loc 1 533 0
 531 01b0 0123     		mov	r3, #1
 532 01b2 164A     		ldr	r2, .L23+72
ARM GAS  C:\Users\KEVINH~1\AppData\Local\Temp\ccLB3qQw.s 			page 20


 533 01b4 1360     		str	r3, [r2]
 534:.\Generated_Source\PSoC4/cyfitter_cfg.c **** 	CY_SET_XTND_REG32((void CYFAR *)(CYREG_GPIO_PRT4_PC2), 0x00000001u);
 534              		.loc 1 534 0
 535 01b6 164A     		ldr	r2, .L23+76
 536 01b8 1360     		str	r3, [r2]
 535:.\Generated_Source\PSoC4/cyfitter_cfg.c **** 
 536:.\Generated_Source\PSoC4/cyfitter_cfg.c **** 	/* Setup clocks based on selections from Clock DWR */
 537:.\Generated_Source\PSoC4/cyfitter_cfg.c **** 	ClockSetup();
 537              		.loc 1 537 0
 538 01ba FFF721FF 		bl	ClockSetup
 539              	.LVL40:
 538:.\Generated_Source\PSoC4/cyfitter_cfg.c **** 
 539:.\Generated_Source\PSoC4/cyfitter_cfg.c **** 	/* Perform basic analog initialization to defaults */
 540:.\Generated_Source\PSoC4/cyfitter_cfg.c **** 	AnalogSetDefault();
 540              		.loc 1 540 0
 541 01be FFF7FEFF 		bl	AnalogSetDefault
 542              	.LVL41:
 541:.\Generated_Source\PSoC4/cyfitter_cfg.c **** 
 542:.\Generated_Source\PSoC4/cyfitter_cfg.c **** }
 543              		.loc 1 542 0
 544              		@ sp needed
 545 01c2 38BD     		pop	{r3, r4, r5, pc}
 546              	.L24:
 547              		.align	2
 548              	.L23:
 549 01c4 6CF02E40 		.word	1076818028
 550 01c8 00000000 		.word	.LANCHOR0
 551 01cc 14000B40 		.word	1074462740
 552 01d0 330000EE 		.word	-301989837
 553 01d4 00000240 		.word	1073872896
 554 01d8 00020240 		.word	1073873408
 555 01dc 00500F40 		.word	1074745344
 556 01e0 08500F40 		.word	1074745352
 557 01e4 20500F40 		.word	1074745376
 558 01e8 28500F40 		.word	1074745384
 559 01ec 00700F40 		.word	1074753536
 560 01f0 01700F40 		.word	1074753537
 561 01f4 00000440 		.word	1074003968
 562 01f8 0900D800 		.word	14155785
 563 01fc 08000440 		.word	1074003976
 564 0200 00020440 		.word	1074004480
 565 0204 08020440 		.word	1074004488
 566 0208 18020440 		.word	1074004504
 567 020c 00040440 		.word	1074004992
 568 0210 18040440 		.word	1074005016
 569              		.cfi_endproc
 570              	.LFE9:
 571              		.size	cyfitter_cfg, .-cyfitter_cfg
 572              		.section	.rodata
 573              		.align	2
 574              		.set	.LANCHOR0,. + 0
 575              		.type	cfg_memset_list.4774, %object
 576              		.size	cfg_memset_list.4774, 12
 577              	cfg_memset_list.4774:
 578 0000 00300F40 		.word	1074737152
 579 0004 0004     		.short	1024
 580 0006 00400F40 		.4byte	1074741248
ARM GAS  C:\Users\KEVINH~1\AppData\Local\Temp\ccLB3qQw.s 			page 21


 581 000a 0004     		.short	1024
 582              		.type	cy_cfg_addr_table.4768, %object
 583              		.size	cy_cfg_addr_table.4768, 28
 584              	cy_cfg_addr_table.4768:
 585 000c 41320F40 		.word	1074737729
 586 0010 26330F40 		.word	1074737958
 587 0014 03400F40 		.word	1074741251
 588 0018 0A410F40 		.word	1074741514
 589 001c 02420F40 		.word	1074741762
 590 0020 03430F40 		.word	1074742019
 591 0024 02600F40 		.word	1074749442
 592              		.type	cy_cfg_data_table.4769, %object
 593              		.size	cy_cfg_data_table.4769, 246
 594              	cy_cfg_data_table.4769:
 595 0028 01       		.byte	1
 596 0029 04       		.byte	4
 597 002a 05       		.byte	5
 598 002b 04       		.byte	4
 599 002c 07       		.byte	7
 600 002d 08       		.byte	8
 601 002e 09       		.byte	9
 602 002f 04       		.byte	4
 603 0030 0B       		.byte	11
 604 0031 08       		.byte	8
 605 0032 19       		.byte	25
 606 0033 01       		.byte	1
 607 0034 1B       		.byte	27
 608 0035 02       		.byte	2
 609 0036 25       		.byte	37
 610 0037 01       		.byte	1
 611 0038 29       		.byte	41
 612 0039 01       		.byte	1
 613 003a 2B       		.byte	43
 614 003b 02       		.byte	2
 615 003c 2E       		.byte	46
 616 003d 01       		.byte	1
 617 003e 31       		.byte	49
 618 003f 0C       		.byte	12
 619 0040 33       		.byte	51
 620 0041 03       		.byte	3
 621 0042 36       		.byte	54
 622 0043 01       		.byte	1
 623 0044 39       		.byte	57
 624 0045 0A       		.byte	10
 625 0046 40       		.byte	64
 626 0047 06       		.byte	6
 627 0048 45       		.byte	69
 628 0049 01       		.byte	1
 629 004a 46       		.byte	70
 630 004b 40       		.byte	64
 631 004c 47       		.byte	71
 632 004d 05       		.byte	5
 633 004e 48       		.byte	72
 634 004f 1B       		.byte	27
 635 0050 49       		.byte	73
 636 0051 FF       		.byte	-1
 637 0052 4A       		.byte	74
ARM GAS  C:\Users\KEVINH~1\AppData\Local\Temp\ccLB3qQw.s 			page 22


 638 0053 FF       		.byte	-1
 639 0054 4B       		.byte	75
 640 0055 FF       		.byte	-1
 641 0056 4C       		.byte	76
 642 0057 02       		.byte	2
 643 0058 4D       		.byte	77
 644 0059 20       		.byte	32
 645 005a 4E       		.byte	78
 646 005b F0       		.byte	-16
 647 005c 52       		.byte	82
 648 005d 07       		.byte	7
 649 005e 58       		.byte	88
 650 005f 04       		.byte	4
 651 0060 59       		.byte	89
 652 0061 0F       		.byte	15
 653 0062 5A       		.byte	90
 654 0063 0F       		.byte	15
 655 0064 5B       		.byte	91
 656 0065 04       		.byte	4
 657 0066 5F       		.byte	95
 658 0067 01       		.byte	1
 659 0068 62       		.byte	98
 660 0069 48       		.byte	72
 661 006a 63       		.byte	99
 662 006b AD       		.byte	-83
 663 006c 64       		.byte	100
 664 006d C0       		.byte	-64
 665 006e 66       		.byte	102
 666 006f C0       		.byte	-64
 667 0070 8F       		.byte	-113
 668 0071 01       		.byte	1
 669 0072 A4       		.byte	-92
 670 0073 01       		.byte	1
 671 0074 A8       		.byte	-88
 672 0075 01       		.byte	1
 673 0076 AA       		.byte	-86
 674 0077 02       		.byte	2
 675 0078 AC       		.byte	-84
 676 0079 01       		.byte	1
 677 007a AE       		.byte	-82
 678 007b 02       		.byte	2
 679 007c B3       		.byte	-77
 680 007d 01       		.byte	1
 681 007e B6       		.byte	-74
 682 007f 03       		.byte	3
 683 0080 B8       		.byte	-72
 684 0081 A0       		.byte	-96
 685 0082 BE       		.byte	-66
 686 0083 10       		.byte	16
 687 0084 C0       		.byte	-64
 688 0085 02       		.byte	2
 689 0086 C7       		.byte	-57
 690 0087 10       		.byte	16
 691 0088 C8       		.byte	-56
 692 0089 21       		.byte	33
 693 008a C9       		.byte	-55
 694 008b FF       		.byte	-1
ARM GAS  C:\Users\KEVINH~1\AppData\Local\Temp\ccLB3qQw.s 			page 23


 695 008c CA       		.byte	-54
 696 008d FF       		.byte	-1
 697 008e CB       		.byte	-53
 698 008f FF       		.byte	-1
 699 0090 CC       		.byte	-52
 700 0091 02       		.byte	2
 701 0092 CD       		.byte	-51
 702 0093 20       		.byte	32
 703 0094 CE       		.byte	-50
 704 0095 F0       		.byte	-16
 705 0096 D2       		.byte	-46
 706 0097 03       		.byte	3
 707 0098 D8       		.byte	-40
 708 0099 0E       		.byte	14
 709 009a D9       		.byte	-39
 710 009b 04       		.byte	4
 711 009c DA       		.byte	-38
 712 009d 0E       		.byte	14
 713 009e DB       		.byte	-37
 714 009f 04       		.byte	4
 715 00a0 DF       		.byte	-33
 716 00a1 01       		.byte	1
 717 00a2 E2       		.byte	-30
 718 00a3 48       		.byte	72
 719 00a4 E3       		.byte	-29
 720 00a5 AD       		.byte	-83
 721 00a6 E4       		.byte	-28
 722 00a7 C0       		.byte	-64
 723 00a8 E6       		.byte	-26
 724 00a9 C0       		.byte	-64
 725 00aa 10       		.byte	16
 726 00ab 2A       		.byte	42
 727 00ac 15       		.byte	21
 728 00ad 40       		.byte	64
 729 00ae 18       		.byte	24
 730 00af 04       		.byte	4
 731 00b0 1A       		.byte	26
 732 00b1 09       		.byte	9
 733 00b2 1F       		.byte	31
 734 00b3 80       		.byte	-128
 735 00b4 21       		.byte	33
 736 00b5 04       		.byte	4
 737 00b6 24       		.byte	36
 738 00b7 40       		.byte	64
 739 00b8 27       		.byte	39
 740 00b9 20       		.byte	32
 741 00ba 2F       		.byte	47
 742 00bb 28       		.byte	40
 743 00bc 37       		.byte	55
 744 00bd 10       		.byte	16
 745 00be 39       		.byte	57
 746 00bf 80       		.byte	-128
 747 00c0 3E       		.byte	62
 748 00c1 10       		.byte	16
 749 00c2 3F       		.byte	63
 750 00c3 0A       		.byte	10
 751 00c4 40       		.byte	64
ARM GAS  C:\Users\KEVINH~1\AppData\Local\Temp\ccLB3qQw.s 			page 24


 752 00c5 04       		.byte	4
 753 00c6 48       		.byte	72
 754 00c7 20       		.byte	32
 755 00c8 4E       		.byte	78
 756 00c9 04       		.byte	4
 757 00ca 4F       		.byte	79
 758 00cb 0A       		.byte	10
 759 00cc 50       		.byte	80
 760 00cd 02       		.byte	2
 761 00ce 57       		.byte	87
 762 00cf 28       		.byte	40
 763 00d0 68       		.byte	104
 764 00d1 08       		.byte	8
 765 00d2 69       		.byte	105
 766 00d3 80       		.byte	-128
 767 00d4 6D       		.byte	109
 768 00d5 40       		.byte	64
 769 00d6 6E       		.byte	110
 770 00d7 10       		.byte	16
 771 00d8 6F       		.byte	111
 772 00d9 10       		.byte	16
 773 00da 79       		.byte	121
 774 00db 08       		.byte	8
 775 00dc 7F       		.byte	127
 776 00dd 80       		.byte	-128
 777 00de 83       		.byte	-125
 778 00df 20       		.byte	32
 779 00e0 86       		.byte	-122
 780 00e1 01       		.byte	1
 781 00e2 8A       		.byte	-118
 782 00e3 04       		.byte	4
 783 00e4 8C       		.byte	-116
 784 00e5 40       		.byte	64
 785 00e6 C4       		.byte	-60
 786 00e7 87       		.byte	-121
 787 00e8 CA       		.byte	-54
 788 00e9 60       		.byte	96
 789 00ea CC       		.byte	-52
 790 00eb 20       		.byte	32
 791 00ec CE       		.byte	-50
 792 00ed E8       		.byte	-24
 793 00ee D0       		.byte	-48
 794 00ef 04       		.byte	4
 795 00f0 D2       		.byte	-46
 796 00f1 20       		.byte	32
 797 00f2 DE       		.byte	-34
 798 00f3 82       		.byte	-126
 799 00f4 E2       		.byte	-30
 800 00f5 80       		.byte	-128
 801 00f6 52       		.byte	82
 802 00f7 02       		.byte	2
 803 00f8 54       		.byte	84
 804 00f9 80       		.byte	-128
 805 00fa D4       		.byte	-44
 806 00fb C0       		.byte	-64
 807 00fc 3B       		.byte	59
 808 00fd 08       		.byte	8
ARM GAS  C:\Users\KEVINH~1\AppData\Local\Temp\ccLB3qQw.s 			page 25


 809 00fe 3C       		.byte	60
 810 00ff 02       		.byte	2
 811 0100 82       		.byte	-126
 812 0101 02       		.byte	2
 813 0102 84       		.byte	-124
 814 0103 80       		.byte	-128
 815 0104 88       		.byte	-120
 816 0105 01       		.byte	1
 817 0106 8B       		.byte	-117
 818 0107 04       		.byte	4
 819 0108 A4       		.byte	-92
 820 0109 80       		.byte	-128
 821 010a A6       		.byte	-90
 822 010b 02       		.byte	2
 823 010c CE       		.byte	-50
 824 010d C0       		.byte	-64
 825 010e E2       		.byte	-30
 826 010f 90       		.byte	-112
 827 0110 5D       		.byte	93
 828 0111 08       		.byte	8
 829 0112 D6       		.byte	-42
 830 0113 01       		.byte	1
 831 0114 8D       		.byte	-115
 832 0115 08       		.byte	8
 833 0116 9D       		.byte	-99
 834 0117 08       		.byte	8
 835 0118 E0       		.byte	-32
 836 0119 02       		.byte	2
 837 011a 01       		.byte	1
 838 011b 01       		.byte	1
 839 011c 10       		.byte	16
 840 011d 01       		.byte	1
 841 011e 0000     		.text
 842              	.Letext0:
 843              		.file 2 "d:\\program\\cy8\\psoc creator\\3.2\\psoc creator\\import\\gnu\\arm\\4.8.4\\lib\\gcc\\arm
 844              		.file 3 ".\\Generated_Source\\PSoC4\\cytypes.h"
 845              		.file 4 ".\\Generated_Source\\PSoC4\\CyLib.h"
 846              		.file 5 ".\\Generated_Source\\PSoC4\\CyLFClk.h"