ARM GAS  C:\Users\TANUSH~1\AppData\Local\Temp\ccckXzaE.s 			page 1


   1              		.cpu cortex-m0
   2              		.fpu softvfp
   3              		.eabi_attribute 20, 1
   4              		.eabi_attribute 21, 1
   5              		.eabi_attribute 23, 3
   6              		.eabi_attribute 24, 1
   7              		.eabi_attribute 25, 1
   8              		.eabi_attribute 26, 1
   9              		.eabi_attribute 30, 6
  10              		.eabi_attribute 34, 0
  11              		.eabi_attribute 18, 4
  12              		.code	16
  13              		.file	"cyfitter_cfg.c"
  14              		.text
  15              	.Ltext0:
  16              		.cfi_sections	.debug_frame
  17              		.section	.text.CYMEMZERO,"ax",%progbits
  18              		.align	2
  19              		.code	16
  20              		.thumb_func
  21              		.type	CYMEMZERO, %function
  22              	CYMEMZERO:
  23              	.LFB2:
  24              		.file 1 ".\\Generated_Source\\PSoC4\\cyfitter_cfg.c"
   1:.\Generated_Source\PSoC4/cyfitter_cfg.c **** /*******************************************************************************
   2:.\Generated_Source\PSoC4/cyfitter_cfg.c **** * FILENAME: cyfitter_cfg.c
   3:.\Generated_Source\PSoC4/cyfitter_cfg.c **** * 
   4:.\Generated_Source\PSoC4/cyfitter_cfg.c **** * PSoC Creator  3.2
   5:.\Generated_Source\PSoC4/cyfitter_cfg.c **** *
   6:.\Generated_Source\PSoC4/cyfitter_cfg.c **** * DESCRIPTION:
   7:.\Generated_Source\PSoC4/cyfitter_cfg.c **** * This file contains device initialization code.
   8:.\Generated_Source\PSoC4/cyfitter_cfg.c **** * Except for the user defined sections in CyClockStartupError(), this file should not be modified.
   9:.\Generated_Source\PSoC4/cyfitter_cfg.c **** * This file is automatically generated by PSoC Creator.
  10:.\Generated_Source\PSoC4/cyfitter_cfg.c **** *
  11:.\Generated_Source\PSoC4/cyfitter_cfg.c **** ********************************************************************************
  12:.\Generated_Source\PSoC4/cyfitter_cfg.c **** * Copyright (c) 2007-2015 Cypress Semiconductor.  All rights reserved.
  13:.\Generated_Source\PSoC4/cyfitter_cfg.c **** * You may use this file only in accordance with the license, terms, conditions, 
  14:.\Generated_Source\PSoC4/cyfitter_cfg.c **** * disclaimers, and limitations in the end user license agreement accompanying 
  15:.\Generated_Source\PSoC4/cyfitter_cfg.c **** * the software package with which this file was provided.
  16:.\Generated_Source\PSoC4/cyfitter_cfg.c **** ********************************************************************************/
  17:.\Generated_Source\PSoC4/cyfitter_cfg.c **** 
  18:.\Generated_Source\PSoC4/cyfitter_cfg.c **** #include <string.h>
  19:.\Generated_Source\PSoC4/cyfitter_cfg.c **** #include "cytypes.h"
  20:.\Generated_Source\PSoC4/cyfitter_cfg.c **** #include "cydevice_trm.h"
  21:.\Generated_Source\PSoC4/cyfitter_cfg.c **** #include "cyfitter.h"
  22:.\Generated_Source\PSoC4/cyfitter_cfg.c **** #include "CyLib.h"
  23:.\Generated_Source\PSoC4/cyfitter_cfg.c **** #include "cyfitter_cfg.h"
  24:.\Generated_Source\PSoC4/cyfitter_cfg.c **** 
  25:.\Generated_Source\PSoC4/cyfitter_cfg.c **** 
  26:.\Generated_Source\PSoC4/cyfitter_cfg.c **** #if defined(__GNUC__) || defined(__ARMCC_VERSION)
  27:.\Generated_Source\PSoC4/cyfitter_cfg.c ****     #define CYPACKED 
  28:.\Generated_Source\PSoC4/cyfitter_cfg.c ****     #define CYPACKED_ATTR __attribute__ ((packed))
  29:.\Generated_Source\PSoC4/cyfitter_cfg.c ****     #define CYALIGNED __attribute__ ((aligned))
  30:.\Generated_Source\PSoC4/cyfitter_cfg.c ****     #define CY_CFG_UNUSED __attribute__ ((unused))
  31:.\Generated_Source\PSoC4/cyfitter_cfg.c ****     #define CY_CFG_SECTION __attribute__ ((section(".psocinit")))
  32:.\Generated_Source\PSoC4/cyfitter_cfg.c ****     
  33:.\Generated_Source\PSoC4/cyfitter_cfg.c ****     #if defined(__ARMCC_VERSION)
ARM GAS  C:\Users\TANUSH~1\AppData\Local\Temp\ccckXzaE.s 			page 2


  34:.\Generated_Source\PSoC4/cyfitter_cfg.c ****         #define CY_CFG_MEMORY_BARRIER() __memory_changed()
  35:.\Generated_Source\PSoC4/cyfitter_cfg.c ****     #else
  36:.\Generated_Source\PSoC4/cyfitter_cfg.c ****         #define CY_CFG_MEMORY_BARRIER() __sync_synchronize()
  37:.\Generated_Source\PSoC4/cyfitter_cfg.c ****     #endif
  38:.\Generated_Source\PSoC4/cyfitter_cfg.c ****     
  39:.\Generated_Source\PSoC4/cyfitter_cfg.c **** #elif defined(__ICCARM__)
  40:.\Generated_Source\PSoC4/cyfitter_cfg.c ****     #include <intrinsics.h>
  41:.\Generated_Source\PSoC4/cyfitter_cfg.c **** 
  42:.\Generated_Source\PSoC4/cyfitter_cfg.c ****     #define CYPACKED __packed
  43:.\Generated_Source\PSoC4/cyfitter_cfg.c ****     #define CYPACKED_ATTR 
  44:.\Generated_Source\PSoC4/cyfitter_cfg.c ****     #define CYALIGNED _Pragma("data_alignment=4")
  45:.\Generated_Source\PSoC4/cyfitter_cfg.c ****     #define CY_CFG_UNUSED _Pragma("diag_suppress=Pe177")
  46:.\Generated_Source\PSoC4/cyfitter_cfg.c ****     #define CY_CFG_SECTION _Pragma("location=\".psocinit\"")
  47:.\Generated_Source\PSoC4/cyfitter_cfg.c ****     
  48:.\Generated_Source\PSoC4/cyfitter_cfg.c ****     #define CY_CFG_MEMORY_BARRIER() __DMB()
  49:.\Generated_Source\PSoC4/cyfitter_cfg.c ****     
  50:.\Generated_Source\PSoC4/cyfitter_cfg.c **** #else
  51:.\Generated_Source\PSoC4/cyfitter_cfg.c ****     #error Unsupported toolchain
  52:.\Generated_Source\PSoC4/cyfitter_cfg.c **** #endif
  53:.\Generated_Source\PSoC4/cyfitter_cfg.c **** 
  54:.\Generated_Source\PSoC4/cyfitter_cfg.c **** 
  55:.\Generated_Source\PSoC4/cyfitter_cfg.c **** CY_CFG_UNUSED
  56:.\Generated_Source\PSoC4/cyfitter_cfg.c **** static void CYMEMZERO(void *s, size_t n);
  57:.\Generated_Source\PSoC4/cyfitter_cfg.c **** CY_CFG_UNUSED
  58:.\Generated_Source\PSoC4/cyfitter_cfg.c **** static void CYMEMZERO(void *s, size_t n)
  59:.\Generated_Source\PSoC4/cyfitter_cfg.c **** {
  25              		.loc 1 59 0
  26              		.cfi_startproc
  27 0000 80B5     		push	{r7, lr}
  28              		.cfi_def_cfa_offset 8
  29              		.cfi_offset 7, -8
  30              		.cfi_offset 14, -4
  31 0002 82B0     		sub	sp, sp, #8
  32              		.cfi_def_cfa_offset 16
  33 0004 00AF     		add	r7, sp, #0
  34              		.cfi_def_cfa_register 7
  35 0006 7860     		str	r0, [r7, #4]
  36 0008 3960     		str	r1, [r7]
  60:.\Generated_Source\PSoC4/cyfitter_cfg.c **** 	(void)memset(s, 0, n);
  37              		.loc 1 60 0
  38 000a 7A68     		ldr	r2, [r7, #4]
  39 000c 3B68     		ldr	r3, [r7]
  40 000e 101C     		mov	r0, r2
  41 0010 0021     		mov	r1, #0
  42 0012 1A1C     		mov	r2, r3
  43 0014 FFF7FEFF 		bl	memset
  61:.\Generated_Source\PSoC4/cyfitter_cfg.c **** }
  44              		.loc 1 61 0
  45 0018 BD46     		mov	sp, r7
  46 001a 02B0     		add	sp, sp, #8
  47              		@ sp needed
  48 001c 80BD     		pop	{r7, pc}
  49              		.cfi_endproc
  50              	.LFE2:
  51              		.size	CYMEMZERO, .-CYMEMZERO
  52 001e C046     		.section	.text.CYCONFIGCPY,"ax",%progbits
  53              		.align	2
ARM GAS  C:\Users\TANUSH~1\AppData\Local\Temp\ccckXzaE.s 			page 3


  54              		.code	16
  55              		.thumb_func
  56              		.type	CYCONFIGCPY, %function
  57              	CYCONFIGCPY:
  58              	.LFB3:
  62:.\Generated_Source\PSoC4/cyfitter_cfg.c **** CY_CFG_UNUSED
  63:.\Generated_Source\PSoC4/cyfitter_cfg.c **** static void CYCONFIGCPY(void *dest, const void *src, size_t n);
  64:.\Generated_Source\PSoC4/cyfitter_cfg.c **** CY_CFG_UNUSED
  65:.\Generated_Source\PSoC4/cyfitter_cfg.c **** static void CYCONFIGCPY(void *dest, const void *src, size_t n)
  66:.\Generated_Source\PSoC4/cyfitter_cfg.c **** {
  59              		.loc 1 66 0
  60              		.cfi_startproc
  61 0000 80B5     		push	{r7, lr}
  62              		.cfi_def_cfa_offset 8
  63              		.cfi_offset 7, -8
  64              		.cfi_offset 14, -4
  65 0002 84B0     		sub	sp, sp, #16
  66              		.cfi_def_cfa_offset 24
  67 0004 00AF     		add	r7, sp, #0
  68              		.cfi_def_cfa_register 7
  69 0006 F860     		str	r0, [r7, #12]
  70 0008 B960     		str	r1, [r7, #8]
  71 000a 7A60     		str	r2, [r7, #4]
  67:.\Generated_Source\PSoC4/cyfitter_cfg.c **** 	(void)memcpy(dest, src, n);
  72              		.loc 1 67 0
  73 000c F968     		ldr	r1, [r7, #12]
  74 000e BA68     		ldr	r2, [r7, #8]
  75 0010 7B68     		ldr	r3, [r7, #4]
  76 0012 081C     		mov	r0, r1
  77 0014 111C     		mov	r1, r2
  78 0016 1A1C     		mov	r2, r3
  79 0018 FFF7FEFF 		bl	memcpy
  68:.\Generated_Source\PSoC4/cyfitter_cfg.c **** }
  80              		.loc 1 68 0
  81 001c BD46     		mov	sp, r7
  82 001e 04B0     		add	sp, sp, #16
  83              		@ sp needed
  84 0020 80BD     		pop	{r7, pc}
  85              		.cfi_endproc
  86              	.LFE3:
  87              		.size	CYCONFIGCPY, .-CYCONFIGCPY
  88 0022 C046     		.section	.text.CYCONFIGCPYCODE,"ax",%progbits
  89              		.align	2
  90              		.code	16
  91              		.thumb_func
  92              		.type	CYCONFIGCPYCODE, %function
  93              	CYCONFIGCPYCODE:
  94              	.LFB4:
  69:.\Generated_Source\PSoC4/cyfitter_cfg.c **** CY_CFG_UNUSED
  70:.\Generated_Source\PSoC4/cyfitter_cfg.c **** static void CYCONFIGCPYCODE(void *dest, const void *src, size_t n);
  71:.\Generated_Source\PSoC4/cyfitter_cfg.c **** CY_CFG_UNUSED
  72:.\Generated_Source\PSoC4/cyfitter_cfg.c **** static void CYCONFIGCPYCODE(void *dest, const void *src, size_t n)
  73:.\Generated_Source\PSoC4/cyfitter_cfg.c **** {
  95              		.loc 1 73 0
  96              		.cfi_startproc
  97 0000 80B5     		push	{r7, lr}
  98              		.cfi_def_cfa_offset 8
ARM GAS  C:\Users\TANUSH~1\AppData\Local\Temp\ccckXzaE.s 			page 4


  99              		.cfi_offset 7, -8
 100              		.cfi_offset 14, -4
 101 0002 84B0     		sub	sp, sp, #16
 102              		.cfi_def_cfa_offset 24
 103 0004 00AF     		add	r7, sp, #0
 104              		.cfi_def_cfa_register 7
 105 0006 F860     		str	r0, [r7, #12]
 106 0008 B960     		str	r1, [r7, #8]
 107 000a 7A60     		str	r2, [r7, #4]
  74:.\Generated_Source\PSoC4/cyfitter_cfg.c **** 	(void)memcpy(dest, src, n);
 108              		.loc 1 74 0
 109 000c F968     		ldr	r1, [r7, #12]
 110 000e BA68     		ldr	r2, [r7, #8]
 111 0010 7B68     		ldr	r3, [r7, #4]
 112 0012 081C     		mov	r0, r1
 113 0014 111C     		mov	r1, r2
 114 0016 1A1C     		mov	r2, r3
 115 0018 FFF7FEFF 		bl	memcpy
  75:.\Generated_Source\PSoC4/cyfitter_cfg.c **** }
 116              		.loc 1 75 0
 117 001c BD46     		mov	sp, r7
 118 001e 04B0     		add	sp, sp, #16
 119              		@ sp needed
 120 0020 80BD     		pop	{r7, pc}
 121              		.cfi_endproc
 122              	.LFE4:
 123              		.size	CYCONFIGCPYCODE, .-CYCONFIGCPYCODE
 124 0022 C046     		.section	.text.cfg_write_bytes32,"ax",%progbits
 125              		.align	2
 126              		.code	16
 127              		.thumb_func
 128              		.type	cfg_write_bytes32, %function
 129              	cfg_write_bytes32:
 130              	.LFB5:
  76:.\Generated_Source\PSoC4/cyfitter_cfg.c **** 
  77:.\Generated_Source\PSoC4/cyfitter_cfg.c **** 
  78:.\Generated_Source\PSoC4/cyfitter_cfg.c **** 
  79:.\Generated_Source\PSoC4/cyfitter_cfg.c **** /* Clock startup error codes                                                   */
  80:.\Generated_Source\PSoC4/cyfitter_cfg.c **** #define CYCLOCKSTART_NO_ERROR    0u
  81:.\Generated_Source\PSoC4/cyfitter_cfg.c **** #define CYCLOCKSTART_XTAL_ERROR  1u
  82:.\Generated_Source\PSoC4/cyfitter_cfg.c **** #define CYCLOCKSTART_32KHZ_ERROR 2u
  83:.\Generated_Source\PSoC4/cyfitter_cfg.c **** #define CYCLOCKSTART_PLL_ERROR   3u
  84:.\Generated_Source\PSoC4/cyfitter_cfg.c **** 
  85:.\Generated_Source\PSoC4/cyfitter_cfg.c **** #ifdef CY_NEED_CYCLOCKSTARTUPERROR
  86:.\Generated_Source\PSoC4/cyfitter_cfg.c **** /*******************************************************************************
  87:.\Generated_Source\PSoC4/cyfitter_cfg.c **** * Function Name: CyClockStartupError
  88:.\Generated_Source\PSoC4/cyfitter_cfg.c **** ********************************************************************************
  89:.\Generated_Source\PSoC4/cyfitter_cfg.c **** * Summary:
  90:.\Generated_Source\PSoC4/cyfitter_cfg.c **** *  If an error is encountered during clock configuration (crystal startup error,
  91:.\Generated_Source\PSoC4/cyfitter_cfg.c **** *  PLL lock error, etc.), the system will end up here.  Unless reimplemented by
  92:.\Generated_Source\PSoC4/cyfitter_cfg.c **** *  the customer, this function will stop in an infinite loop.
  93:.\Generated_Source\PSoC4/cyfitter_cfg.c **** *
  94:.\Generated_Source\PSoC4/cyfitter_cfg.c **** * Parameters:
  95:.\Generated_Source\PSoC4/cyfitter_cfg.c **** *   void
  96:.\Generated_Source\PSoC4/cyfitter_cfg.c **** *
  97:.\Generated_Source\PSoC4/cyfitter_cfg.c **** * Return:
  98:.\Generated_Source\PSoC4/cyfitter_cfg.c **** *   void
ARM GAS  C:\Users\TANUSH~1\AppData\Local\Temp\ccckXzaE.s 			page 5


  99:.\Generated_Source\PSoC4/cyfitter_cfg.c **** *
 100:.\Generated_Source\PSoC4/cyfitter_cfg.c **** *******************************************************************************/
 101:.\Generated_Source\PSoC4/cyfitter_cfg.c **** CY_CFG_UNUSED
 102:.\Generated_Source\PSoC4/cyfitter_cfg.c **** static void CyClockStartupError(uint8 errorCode);
 103:.\Generated_Source\PSoC4/cyfitter_cfg.c **** CY_CFG_UNUSED
 104:.\Generated_Source\PSoC4/cyfitter_cfg.c **** static void CyClockStartupError(uint8 errorCode)
 105:.\Generated_Source\PSoC4/cyfitter_cfg.c **** {
 106:.\Generated_Source\PSoC4/cyfitter_cfg.c ****     /* To remove the compiler warning if errorCode not used.                */
 107:.\Generated_Source\PSoC4/cyfitter_cfg.c ****     errorCode = errorCode;
 108:.\Generated_Source\PSoC4/cyfitter_cfg.c **** 
 109:.\Generated_Source\PSoC4/cyfitter_cfg.c ****     /* `#START CyClockStartupError` */
 110:.\Generated_Source\PSoC4/cyfitter_cfg.c **** 
 111:.\Generated_Source\PSoC4/cyfitter_cfg.c ****     /* If we have a clock startup error (bad MHz crystal, PLL lock, etc.),  */
 112:.\Generated_Source\PSoC4/cyfitter_cfg.c ****     /* we will end up here to allow the customer to implement something to  */
 113:.\Generated_Source\PSoC4/cyfitter_cfg.c ****     /* deal with the clock condition.                                       */
 114:.\Generated_Source\PSoC4/cyfitter_cfg.c **** 
 115:.\Generated_Source\PSoC4/cyfitter_cfg.c ****     /* `#END` */
 116:.\Generated_Source\PSoC4/cyfitter_cfg.c **** 
 117:.\Generated_Source\PSoC4/cyfitter_cfg.c ****     /* If nothing else, stop here since the clocks have not started         */
 118:.\Generated_Source\PSoC4/cyfitter_cfg.c ****     /* correctly.                                                           */
 119:.\Generated_Source\PSoC4/cyfitter_cfg.c ****     while(1) {}
 120:.\Generated_Source\PSoC4/cyfitter_cfg.c **** }
 121:.\Generated_Source\PSoC4/cyfitter_cfg.c **** #endif
 122:.\Generated_Source\PSoC4/cyfitter_cfg.c **** 
 123:.\Generated_Source\PSoC4/cyfitter_cfg.c **** #define CY_CFG_BASE_ADDR_COUNT 7u
 124:.\Generated_Source\PSoC4/cyfitter_cfg.c **** CYPACKED typedef struct
 125:.\Generated_Source\PSoC4/cyfitter_cfg.c **** {
 126:.\Generated_Source\PSoC4/cyfitter_cfg.c **** 	uint8 offset;
 127:.\Generated_Source\PSoC4/cyfitter_cfg.c **** 	uint8 value;
 128:.\Generated_Source\PSoC4/cyfitter_cfg.c **** } CYPACKED_ATTR cy_cfg_addrvalue_t;
 129:.\Generated_Source\PSoC4/cyfitter_cfg.c **** 
 130:.\Generated_Source\PSoC4/cyfitter_cfg.c **** 
 131:.\Generated_Source\PSoC4/cyfitter_cfg.c **** 
 132:.\Generated_Source\PSoC4/cyfitter_cfg.c **** /*******************************************************************************
 133:.\Generated_Source\PSoC4/cyfitter_cfg.c **** * Function Name: cfg_write_bytes32
 134:.\Generated_Source\PSoC4/cyfitter_cfg.c **** ********************************************************************************
 135:.\Generated_Source\PSoC4/cyfitter_cfg.c **** * Summary:
 136:.\Generated_Source\PSoC4/cyfitter_cfg.c **** *  This function is used for setting up the chip configuration areas that
 137:.\Generated_Source\PSoC4/cyfitter_cfg.c **** *  contain relatively sparse data.
 138:.\Generated_Source\PSoC4/cyfitter_cfg.c **** *
 139:.\Generated_Source\PSoC4/cyfitter_cfg.c **** * Parameters:
 140:.\Generated_Source\PSoC4/cyfitter_cfg.c **** *   void
 141:.\Generated_Source\PSoC4/cyfitter_cfg.c **** *
 142:.\Generated_Source\PSoC4/cyfitter_cfg.c **** * Return:
 143:.\Generated_Source\PSoC4/cyfitter_cfg.c **** *   void
 144:.\Generated_Source\PSoC4/cyfitter_cfg.c **** *
 145:.\Generated_Source\PSoC4/cyfitter_cfg.c **** *******************************************************************************/
 146:.\Generated_Source\PSoC4/cyfitter_cfg.c **** static void cfg_write_bytes32(const uint32 addr_table[], const cy_cfg_addrvalue_t data_table[]);
 147:.\Generated_Source\PSoC4/cyfitter_cfg.c **** static void cfg_write_bytes32(const uint32 addr_table[], const cy_cfg_addrvalue_t data_table[])
 148:.\Generated_Source\PSoC4/cyfitter_cfg.c **** {
 131              		.loc 1 148 0
 132              		.cfi_startproc
 133 0000 80B5     		push	{r7, lr}
 134              		.cfi_def_cfa_offset 8
 135              		.cfi_offset 7, -8
 136              		.cfi_offset 14, -4
 137 0002 86B0     		sub	sp, sp, #24
ARM GAS  C:\Users\TANUSH~1\AppData\Local\Temp\ccckXzaE.s 			page 6


 138              		.cfi_def_cfa_offset 32
 139 0004 00AF     		add	r7, sp, #0
 140              		.cfi_def_cfa_register 7
 141 0006 7860     		str	r0, [r7, #4]
 142 0008 3960     		str	r1, [r7]
 149:.\Generated_Source\PSoC4/cyfitter_cfg.c **** 	/* For 32-bit little-endian architectures */
 150:.\Generated_Source\PSoC4/cyfitter_cfg.c **** 	uint32 i, j = 0u;
 143              		.loc 1 150 0
 144 000a 0023     		mov	r3, #0
 145 000c 3B61     		str	r3, [r7, #16]
 151:.\Generated_Source\PSoC4/cyfitter_cfg.c **** 	for (i = 0u; i < CY_CFG_BASE_ADDR_COUNT; i++)
 146              		.loc 1 151 0
 147 000e 0023     		mov	r3, #0
 148 0010 7B61     		str	r3, [r7, #20]
 149 0012 2EE0     		b	.L5
 150              	.L8:
 151              	.LBB2:
 152:.\Generated_Source\PSoC4/cyfitter_cfg.c **** 	{
 153:.\Generated_Source\PSoC4/cyfitter_cfg.c **** 		uint32 baseAddr = addr_table[i];
 152              		.loc 1 153 0
 153 0014 7B69     		ldr	r3, [r7, #20]
 154 0016 9B00     		lsl	r3, r3, #2
 155 0018 7A68     		ldr	r2, [r7, #4]
 156 001a D318     		add	r3, r2, r3
 157 001c 1B68     		ldr	r3, [r3]
 158 001e BB60     		str	r3, [r7, #8]
 154:.\Generated_Source\PSoC4/cyfitter_cfg.c **** 		uint8 count = (uint8)baseAddr;
 159              		.loc 1 154 0
 160 0020 3B1C     		mov	r3, r7
 161 0022 0F33     		add	r3, r3, #15
 162 0024 BA68     		ldr	r2, [r7, #8]
 163 0026 1A70     		strb	r2, [r3]
 155:.\Generated_Source\PSoC4/cyfitter_cfg.c **** 		baseAddr &= 0xFFFFFF00u;
 164              		.loc 1 155 0
 165 0028 BB68     		ldr	r3, [r7, #8]
 166 002a FF22     		mov	r2, #255
 167 002c 9343     		bic	r3, r2
 168 002e BB60     		str	r3, [r7, #8]
 156:.\Generated_Source\PSoC4/cyfitter_cfg.c **** 		while (count != 0u)
 169              		.loc 1 156 0
 170 0030 17E0     		b	.L6
 171              	.L7:
 157:.\Generated_Source\PSoC4/cyfitter_cfg.c **** 		{
 158:.\Generated_Source\PSoC4/cyfitter_cfg.c **** 			CY_SET_XTND_REG8((void CYFAR *)(baseAddr + data_table[j].offset), data_table[j].value);
 172              		.loc 1 158 0
 173 0032 3B69     		ldr	r3, [r7, #16]
 174 0034 5B00     		lsl	r3, r3, #1
 175 0036 3A68     		ldr	r2, [r7]
 176 0038 D318     		add	r3, r2, r3
 177 003a 1B78     		ldrb	r3, [r3]
 178 003c 1A1C     		mov	r2, r3
 179 003e BB68     		ldr	r3, [r7, #8]
 180 0040 D318     		add	r3, r2, r3
 181 0042 3A69     		ldr	r2, [r7, #16]
 182 0044 5200     		lsl	r2, r2, #1
 183 0046 3968     		ldr	r1, [r7]
 184 0048 8A18     		add	r2, r1, r2
ARM GAS  C:\Users\TANUSH~1\AppData\Local\Temp\ccckXzaE.s 			page 7


 185 004a 5278     		ldrb	r2, [r2, #1]
 186 004c 1A70     		strb	r2, [r3]
 159:.\Generated_Source\PSoC4/cyfitter_cfg.c **** 			j++;
 187              		.loc 1 159 0
 188 004e 3B69     		ldr	r3, [r7, #16]
 189 0050 0133     		add	r3, r3, #1
 190 0052 3B61     		str	r3, [r7, #16]
 160:.\Generated_Source\PSoC4/cyfitter_cfg.c **** 			count--;
 191              		.loc 1 160 0
 192 0054 3B1C     		mov	r3, r7
 193 0056 0F33     		add	r3, r3, #15
 194 0058 1A78     		ldrb	r2, [r3]
 195 005a 3B1C     		mov	r3, r7
 196 005c 0F33     		add	r3, r3, #15
 197 005e 013A     		sub	r2, r2, #1
 198 0060 1A70     		strb	r2, [r3]
 199              	.L6:
 156:.\Generated_Source\PSoC4/cyfitter_cfg.c **** 		while (count != 0u)
 200              		.loc 1 156 0 discriminator 1
 201 0062 3B1C     		mov	r3, r7
 202 0064 0F33     		add	r3, r3, #15
 203 0066 1B78     		ldrb	r3, [r3]
 204 0068 002B     		cmp	r3, #0
 205 006a E2D1     		bne	.L7
 206              	.LBE2:
 151:.\Generated_Source\PSoC4/cyfitter_cfg.c **** 	for (i = 0u; i < CY_CFG_BASE_ADDR_COUNT; i++)
 207              		.loc 1 151 0
 208 006c 7B69     		ldr	r3, [r7, #20]
 209 006e 0133     		add	r3, r3, #1
 210 0070 7B61     		str	r3, [r7, #20]
 211              	.L5:
 151:.\Generated_Source\PSoC4/cyfitter_cfg.c **** 	for (i = 0u; i < CY_CFG_BASE_ADDR_COUNT; i++)
 212              		.loc 1 151 0 is_stmt 0 discriminator 1
 213 0072 7B69     		ldr	r3, [r7, #20]
 214 0074 062B     		cmp	r3, #6
 215 0076 CDD9     		bls	.L8
 161:.\Generated_Source\PSoC4/cyfitter_cfg.c **** 		}
 162:.\Generated_Source\PSoC4/cyfitter_cfg.c **** 	}
 163:.\Generated_Source\PSoC4/cyfitter_cfg.c **** }
 216              		.loc 1 163 0 is_stmt 1
 217 0078 BD46     		mov	sp, r7
 218 007a 06B0     		add	sp, sp, #24
 219              		@ sp needed
 220 007c 80BD     		pop	{r7, pc}
 221              		.cfi_endproc
 222              	.LFE5:
 223              		.size	cfg_write_bytes32, .-cfg_write_bytes32
 224 007e C046     		.section	.psocinit,"ax",%progbits
 225              		.align	2
 226              		.code	16
 227              		.thumb_func
 228              		.type	ClockSetup, %function
 229              	ClockSetup:
 230              	.LFB6:
 164:.\Generated_Source\PSoC4/cyfitter_cfg.c **** 
 165:.\Generated_Source\PSoC4/cyfitter_cfg.c **** 
 166:.\Generated_Source\PSoC4/cyfitter_cfg.c **** /*******************************************************************************
ARM GAS  C:\Users\TANUSH~1\AppData\Local\Temp\ccckXzaE.s 			page 8


 167:.\Generated_Source\PSoC4/cyfitter_cfg.c **** * Function Name: ClockSetup
 168:.\Generated_Source\PSoC4/cyfitter_cfg.c **** ********************************************************************************
 169:.\Generated_Source\PSoC4/cyfitter_cfg.c **** *
 170:.\Generated_Source\PSoC4/cyfitter_cfg.c **** * Summary:
 171:.\Generated_Source\PSoC4/cyfitter_cfg.c **** *   Performs the initialization of all of the clocks in the device based on the
 172:.\Generated_Source\PSoC4/cyfitter_cfg.c **** *   settings in the Clock tab of the DWR.  This includes enabling the requested
 173:.\Generated_Source\PSoC4/cyfitter_cfg.c **** *   clocks and setting the necessary dividers to produce the desired frequency. 
 174:.\Generated_Source\PSoC4/cyfitter_cfg.c **** *
 175:.\Generated_Source\PSoC4/cyfitter_cfg.c **** * Parameters:
 176:.\Generated_Source\PSoC4/cyfitter_cfg.c **** *   void
 177:.\Generated_Source\PSoC4/cyfitter_cfg.c **** *
 178:.\Generated_Source\PSoC4/cyfitter_cfg.c **** * Return:
 179:.\Generated_Source\PSoC4/cyfitter_cfg.c **** *   void
 180:.\Generated_Source\PSoC4/cyfitter_cfg.c **** *
 181:.\Generated_Source\PSoC4/cyfitter_cfg.c **** *******************************************************************************/
 182:.\Generated_Source\PSoC4/cyfitter_cfg.c **** static void ClockSetup(void);
 183:.\Generated_Source\PSoC4/cyfitter_cfg.c **** CY_CFG_SECTION
 184:.\Generated_Source\PSoC4/cyfitter_cfg.c **** static void ClockSetup(void)
 185:.\Generated_Source\PSoC4/cyfitter_cfg.c **** {
 231              		.loc 1 185 0
 232              		.cfi_startproc
 233 0000 80B5     		push	{r7, lr}
 234              		.cfi_def_cfa_offset 8
 235              		.cfi_offset 7, -8
 236              		.cfi_offset 14, -4
 237 0002 00AF     		add	r7, sp, #0
 238              		.cfi_def_cfa_register 7
 186:.\Generated_Source\PSoC4/cyfitter_cfg.c **** 
 187:.\Generated_Source\PSoC4/cyfitter_cfg.c **** 	/* Set Flash Cycles based on max possible frequency in case a glitch occurs during ClockSetup(). *
 188:.\Generated_Source\PSoC4/cyfitter_cfg.c **** 	CY_SET_REG32((void CYXDATA *)(CYREG_CPUSS_FLASH_CTL), (0x0012u));
 239              		.loc 1 188 0
 240 0004 274B     		ldr	r3, .L10
 241 0006 1222     		mov	r2, #18
 242 0008 1A60     		str	r2, [r3]
 189:.\Generated_Source\PSoC4/cyfitter_cfg.c **** 
 190:.\Generated_Source\PSoC4/cyfitter_cfg.c **** 	/* Start the WCO */
 191:.\Generated_Source\PSoC4/cyfitter_cfg.c **** 	CySysClkWcoStart();
 243              		.loc 1 191 0
 244 000a FFF7FEFF 		bl	CySysClkWcoStart
 192:.\Generated_Source\PSoC4/cyfitter_cfg.c **** 	CyDelayCycles(12000000u); /* WCO may take up to 500ms to start */
 245              		.loc 1 192 0
 246 000e 264B     		ldr	r3, .L10+4
 247 0010 181C     		mov	r0, r3
 248 0012 FFF7FEFF 		bl	CyDelayCycles
 193:.\Generated_Source\PSoC4/cyfitter_cfg.c **** 	(void)CySysClkWcoSetPowerMode(CY_SYS_CLK_WCO_LPM);    /* Switch to the low power mode */
 249              		.loc 1 193 0
 250 0016 0120     		mov	r0, #1
 251 0018 FFF7FEFF 		bl	CySysClkWcoSetPowerMode
 194:.\Generated_Source\PSoC4/cyfitter_cfg.c **** 
 195:.\Generated_Source\PSoC4/cyfitter_cfg.c **** 	/* Setup and trim IMO based on desired frequency. */
 196:.\Generated_Source\PSoC4/cyfitter_cfg.c **** 	CySysClkWriteImoFreq(12u);
 252              		.loc 1 196 0
 253 001c 0C20     		mov	r0, #12
 254 001e FFF7FEFF 		bl	CySysClkWriteImoFreq
 197:.\Generated_Source\PSoC4/cyfitter_cfg.c **** 	/* CYDEV_CLK_ILO_CONFIG Starting address: CYDEV_CLK_ILO_CONFIG */
 198:.\Generated_Source\PSoC4/cyfitter_cfg.c **** 	CY_SET_XTND_REG32((void CYFAR *)(CYREG_CLK_ILO_CONFIG), 0x80000006u);
 255              		.loc 1 198 0
ARM GAS  C:\Users\TANUSH~1\AppData\Local\Temp\ccckXzaE.s 			page 9


 256 0022 224B     		ldr	r3, .L10+8
 257 0024 224A     		ldr	r2, .L10+12
 258 0026 1A60     		str	r2, [r3]
 199:.\Generated_Source\PSoC4/cyfitter_cfg.c **** 
 200:.\Generated_Source\PSoC4/cyfitter_cfg.c **** 	/* CYDEV_WDT_CONFIG Starting address: CYDEV_WDT_CONFIG */
 201:.\Generated_Source\PSoC4/cyfitter_cfg.c **** 	CY_SET_XTND_REG32((void CYFAR *)(CYREG_WDT_CONFIG), 0x40000000u);
 259              		.loc 1 201 0
 260 0028 224B     		ldr	r3, .L10+16
 261 002a 8022     		mov	r2, #128
 262 002c D205     		lsl	r2, r2, #23
 263 002e 1A60     		str	r2, [r3]
 202:.\Generated_Source\PSoC4/cyfitter_cfg.c **** 
 203:.\Generated_Source\PSoC4/cyfitter_cfg.c **** 
 204:.\Generated_Source\PSoC4/cyfitter_cfg.c **** 	/* Enable fast start mode for XO */
 205:.\Generated_Source\PSoC4/cyfitter_cfg.c **** 	CY_SET_REG32((void*)CYREG_BLE_BLERD_BB_XO, CY_GET_REG32((void*)CYREG_BLE_BLERD_BB_XO) | (uint32)0x
 264              		.loc 1 205 0
 265 0030 214B     		ldr	r3, .L10+20
 266 0032 214A     		ldr	r2, .L10+20
 267 0034 1268     		ldr	r2, [r2]
 268 0036 0221     		mov	r1, #2
 269 0038 0A43     		orr	r2, r1
 270 003a 1A60     		str	r2, [r3]
 206:.\Generated_Source\PSoC4/cyfitter_cfg.c **** 	CY_SET_XTND_REG32((void CYFAR *)(CYREG_BLE_BLERD_BB_XO_CAPTRIM), 0x00002D6Au);
 271              		.loc 1 206 0
 272 003c 1F4B     		ldr	r3, .L10+24
 273 003e 204A     		ldr	r2, .L10+28
 274 0040 1A60     		str	r2, [r3]
 207:.\Generated_Source\PSoC4/cyfitter_cfg.c **** 	/* Disable Crystal Stable Interrupt before enabling ECO */
 208:.\Generated_Source\PSoC4/cyfitter_cfg.c **** 	CY_SET_REG32((void*)CYREG_BLE_BLESS_LL_DSM_CTRL, CY_GET_REG32((void*)CYREG_BLE_BLESS_LL_DSM_CTRL) 
 275              		.loc 1 208 0
 276 0042 204B     		ldr	r3, .L10+32
 277 0044 1F4A     		ldr	r2, .L10+32
 278 0046 1268     		ldr	r2, [r2]
 279 0048 0821     		mov	r1, #8
 280 004a 8A43     		bic	r2, r1
 281 004c 1A60     		str	r2, [r3]
 209:.\Generated_Source\PSoC4/cyfitter_cfg.c **** 	/* Start the ECO and do not check status since it is not needed for HFCLK */
 210:.\Generated_Source\PSoC4/cyfitter_cfg.c **** 	(void)CySysClkEcoStart(2000u);
 282              		.loc 1 210 0
 283 004e FA23     		mov	r3, #250
 284 0050 DB00     		lsl	r3, r3, #3
 285 0052 181C     		mov	r0, r3
 286 0054 FFF7FEFF 		bl	CySysClkEcoStart
 211:.\Generated_Source\PSoC4/cyfitter_cfg.c **** 	CyDelayUs(1500u); /* Wait to stabalize */
 287              		.loc 1 211 0
 288 0058 1B4B     		ldr	r3, .L10+36
 289 005a 181C     		mov	r0, r3
 290 005c FFF7FEFF 		bl	CyDelayUs
 212:.\Generated_Source\PSoC4/cyfitter_cfg.c **** 
 213:.\Generated_Source\PSoC4/cyfitter_cfg.c **** 	/* Setup phase aligned clocks */
 214:.\Generated_Source\PSoC4/cyfitter_cfg.c **** 	CY_SET_REG32((void *)CYREG_PERI_DIV_16_CTL0, 0x0000FE00u);
 291              		.loc 1 214 0
 292 0060 1A4B     		ldr	r3, .L10+40
 293 0062 FE22     		mov	r2, #254
 294 0064 1202     		lsl	r2, r2, #8
 295 0066 1A60     		str	r2, [r3]
 215:.\Generated_Source\PSoC4/cyfitter_cfg.c **** 	CY_SET_REG32((void *)CYREG_PERI_DIV_CMD, 0x8000FF40u);
ARM GAS  C:\Users\TANUSH~1\AppData\Local\Temp\ccckXzaE.s 			page 10


 296              		.loc 1 215 0
 297 0068 194B     		ldr	r3, .L10+44
 298 006a 1A4A     		ldr	r2, .L10+48
 299 006c 1A60     		str	r2, [r3]
 216:.\Generated_Source\PSoC4/cyfitter_cfg.c **** 	CY_SET_REG32((void *)CYREG_PERI_DIV_16_CTL1, 0x0000FE00u);
 300              		.loc 1 216 0
 301 006e 1A4B     		ldr	r3, .L10+52
 302 0070 FE22     		mov	r2, #254
 303 0072 1202     		lsl	r2, r2, #8
 304 0074 1A60     		str	r2, [r3]
 217:.\Generated_Source\PSoC4/cyfitter_cfg.c **** 	CY_SET_REG32((void *)CYREG_PERI_DIV_CMD, 0x8000FF41u);
 305              		.loc 1 217 0
 306 0076 164B     		ldr	r3, .L10+44
 307 0078 184A     		ldr	r2, .L10+56
 308 007a 1A60     		str	r2, [r3]
 218:.\Generated_Source\PSoC4/cyfitter_cfg.c **** 
 219:.\Generated_Source\PSoC4/cyfitter_cfg.c **** 	/* CYDEV_CLK_IMO_CONFIG Starting address: CYDEV_CLK_IMO_CONFIG */
 220:.\Generated_Source\PSoC4/cyfitter_cfg.c **** 	CY_SET_XTND_REG32((void CYFAR *)(CYREG_CLK_IMO_CONFIG), 0x80000000u);
 309              		.loc 1 220 0
 310 007c 184B     		ldr	r3, .L10+60
 311 007e 8022     		mov	r2, #128
 312 0080 1206     		lsl	r2, r2, #24
 313 0082 1A60     		str	r2, [r3]
 221:.\Generated_Source\PSoC4/cyfitter_cfg.c **** 
 222:.\Generated_Source\PSoC4/cyfitter_cfg.c **** 	/* CYDEV_PERI_PCLK_CTL5 Starting address: CYDEV_PERI_PCLK_CTL5 */
 223:.\Generated_Source\PSoC4/cyfitter_cfg.c **** 	CY_SET_XTND_REG32((void CYFAR *)(CYREG_PERI_PCLK_CTL5), 0x00000040u);
 314              		.loc 1 223 0
 315 0084 174B     		ldr	r3, .L10+64
 316 0086 4022     		mov	r2, #64
 317 0088 1A60     		str	r2, [r3]
 224:.\Generated_Source\PSoC4/cyfitter_cfg.c **** 
 225:.\Generated_Source\PSoC4/cyfitter_cfg.c **** 	/* CYDEV_PERI_PCLK_CTL4 Starting address: CYDEV_PERI_PCLK_CTL4 */
 226:.\Generated_Source\PSoC4/cyfitter_cfg.c **** 	CY_SET_XTND_REG32((void CYFAR *)(CYREG_PERI_PCLK_CTL4), 0x00000041u);
 318              		.loc 1 226 0
 319 008a 174B     		ldr	r3, .L10+68
 320 008c 4122     		mov	r2, #65
 321 008e 1A60     		str	r2, [r3]
 227:.\Generated_Source\PSoC4/cyfitter_cfg.c **** 
 228:.\Generated_Source\PSoC4/cyfitter_cfg.c **** 	CY_SET_XTND_REG32((void CYFAR *)(CYREG_WDT_CONFIG), 0x40000000u);
 322              		.loc 1 228 0
 323 0090 084B     		ldr	r3, .L10+16
 324 0092 8022     		mov	r2, #128
 325 0094 D205     		lsl	r2, r2, #23
 326 0096 1A60     		str	r2, [r3]
 229:.\Generated_Source\PSoC4/cyfitter_cfg.c **** 	/* Set Flash Cycles based on newly configured 12.00MHz HFCLK. */
 230:.\Generated_Source\PSoC4/cyfitter_cfg.c **** 	CY_SET_REG32((void CYXDATA *)(CYREG_CPUSS_FLASH_CTL), (0x0000u));
 327              		.loc 1 230 0
 328 0098 024B     		ldr	r3, .L10
 329 009a 0022     		mov	r2, #0
 330 009c 1A60     		str	r2, [r3]
 231:.\Generated_Source\PSoC4/cyfitter_cfg.c **** }
 331              		.loc 1 231 0
 332 009e BD46     		mov	sp, r7
 333              		@ sp needed
 334 00a0 80BD     		pop	{r7, pc}
 335              	.L11:
 336 00a2 C046     		.align	2
ARM GAS  C:\Users\TANUSH~1\AppData\Local\Temp\ccckXzaE.s 			page 11


 337              	.L10:
 338 00a4 30001040 		.word	1074790448
 339 00a8 001BB700 		.word	12000000
 340 00ac 04010B40 		.word	1074462980
 341 00b0 06000080 		.word	-2147483642
 342 00b4 0C020B40 		.word	1074463244
 343 00b8 78002E40 		.word	1076756600
 344 00bc 7C002E40 		.word	1076756604
 345 00c0 6A2D0000 		.word	11626
 346 00c4 6CF02E40 		.word	1076818028
 347 00c8 DC050000 		.word	1500
 348 00cc 00030140 		.word	1073808128
 349 00d0 00000140 		.word	1073807360
 350 00d4 40FF0080 		.word	-2147418304
 351 00d8 04030140 		.word	1073808132
 352 00dc 41FF0080 		.word	-2147418303
 353 00e0 08010B40 		.word	1074462984
 354 00e4 14010140 		.word	1073807636
 355 00e8 10010140 		.word	1073807632
 356              		.cfi_endproc
 357              	.LFE6:
 358              		.size	ClockSetup, .-ClockSetup
 359              		.section	.text.AnalogSetDefault,"ax",%progbits
 360              		.align	2
 361              		.code	16
 362              		.thumb_func
 363              		.type	AnalogSetDefault, %function
 364              	AnalogSetDefault:
 365              	.LFB7:
 232:.\Generated_Source\PSoC4/cyfitter_cfg.c **** 
 233:.\Generated_Source\PSoC4/cyfitter_cfg.c **** 
 234:.\Generated_Source\PSoC4/cyfitter_cfg.c **** /* Analog API Functions */
 235:.\Generated_Source\PSoC4/cyfitter_cfg.c **** 
 236:.\Generated_Source\PSoC4/cyfitter_cfg.c **** 
 237:.\Generated_Source\PSoC4/cyfitter_cfg.c **** /*******************************************************************************
 238:.\Generated_Source\PSoC4/cyfitter_cfg.c **** * Function Name: AnalogSetDefault
 239:.\Generated_Source\PSoC4/cyfitter_cfg.c **** ********************************************************************************
 240:.\Generated_Source\PSoC4/cyfitter_cfg.c **** *
 241:.\Generated_Source\PSoC4/cyfitter_cfg.c **** * Summary:
 242:.\Generated_Source\PSoC4/cyfitter_cfg.c **** *  Sets up the analog portions of the chip to default values based on chip
 243:.\Generated_Source\PSoC4/cyfitter_cfg.c **** *  configuration options from the project.
 244:.\Generated_Source\PSoC4/cyfitter_cfg.c **** *
 245:.\Generated_Source\PSoC4/cyfitter_cfg.c **** * Parameters:
 246:.\Generated_Source\PSoC4/cyfitter_cfg.c **** *  void
 247:.\Generated_Source\PSoC4/cyfitter_cfg.c **** *
 248:.\Generated_Source\PSoC4/cyfitter_cfg.c **** * Return:
 249:.\Generated_Source\PSoC4/cyfitter_cfg.c **** *  void
 250:.\Generated_Source\PSoC4/cyfitter_cfg.c **** *
 251:.\Generated_Source\PSoC4/cyfitter_cfg.c **** *******************************************************************************/
 252:.\Generated_Source\PSoC4/cyfitter_cfg.c **** static void AnalogSetDefault(void);
 253:.\Generated_Source\PSoC4/cyfitter_cfg.c **** static void AnalogSetDefault(void)
 254:.\Generated_Source\PSoC4/cyfitter_cfg.c **** {
 366              		.loc 1 254 0
 367              		.cfi_startproc
 368 0000 80B5     		push	{r7, lr}
 369              		.cfi_def_cfa_offset 8
 370              		.cfi_offset 7, -8
ARM GAS  C:\Users\TANUSH~1\AppData\Local\Temp\ccckXzaE.s 			page 12


 371              		.cfi_offset 14, -4
 372 0002 00AF     		add	r7, sp, #0
 373              		.cfi_def_cfa_register 7
 255:.\Generated_Source\PSoC4/cyfitter_cfg.c **** 	CY_SET_XTND_REG32((void CYFAR *)CYREG_CTBM0_DFT_CTRL, 0x00000003u);
 374              		.loc 1 255 0
 375 0004 064B     		ldr	r3, .L13
 376 0006 0322     		mov	r2, #3
 377 0008 1A60     		str	r2, [r3]
 256:.\Generated_Source\PSoC4/cyfitter_cfg.c **** 	CY_SET_XTND_REG32((void CYFAR *)CYREG_CTBM1_DFT_CTRL, 0x00000003u);
 378              		.loc 1 256 0
 379 000a 064B     		ldr	r3, .L13+4
 380 000c 0322     		mov	r2, #3
 381 000e 1A60     		str	r2, [r3]
 257:.\Generated_Source\PSoC4/cyfitter_cfg.c **** 	CY_SET_XTND_REG32((void CYFAR *)CYREG_PASS_DSAB_DSAB_CTRL, 0x00000000u);
 382              		.loc 1 257 0
 383 0010 054B     		ldr	r3, .L13+8
 384 0012 0022     		mov	r2, #0
 385 0014 1A60     		str	r2, [r3]
 258:.\Generated_Source\PSoC4/cyfitter_cfg.c **** 	SetAnalogRoutingPumps(1);
 386              		.loc 1 258 0
 387 0016 0120     		mov	r0, #1
 388 0018 FFF7FEFF 		bl	SetAnalogRoutingPumps
 259:.\Generated_Source\PSoC4/cyfitter_cfg.c **** }
 389              		.loc 1 259 0
 390 001c BD46     		mov	sp, r7
 391              		@ sp needed
 392 001e 80BD     		pop	{r7, pc}
 393              	.L14:
 394              		.align	2
 395              	.L13:
 396 0020 30003040 		.word	1076887600
 397 0024 30003140 		.word	1076953136
 398 0028 000E3F40 		.word	1077874176
 399              		.cfi_endproc
 400              	.LFE7:
 401              		.size	AnalogSetDefault, .-AnalogSetDefault
 402              		.section	.text.SetAnalogRoutingPumps,"ax",%progbits
 403              		.align	2
 404              		.global	SetAnalogRoutingPumps
 405              		.code	16
 406              		.thumb_func
 407              		.type	SetAnalogRoutingPumps, %function
 408              	SetAnalogRoutingPumps:
 409              	.LFB8:
 260:.\Generated_Source\PSoC4/cyfitter_cfg.c **** 
 261:.\Generated_Source\PSoC4/cyfitter_cfg.c **** 
 262:.\Generated_Source\PSoC4/cyfitter_cfg.c **** /*******************************************************************************
 263:.\Generated_Source\PSoC4/cyfitter_cfg.c **** * Function Name: SetAnalogRoutingPumps
 264:.\Generated_Source\PSoC4/cyfitter_cfg.c **** ********************************************************************************
 265:.\Generated_Source\PSoC4/cyfitter_cfg.c **** *
 266:.\Generated_Source\PSoC4/cyfitter_cfg.c **** * Summary:
 267:.\Generated_Source\PSoC4/cyfitter_cfg.c **** * Enables or disables the analog pumps feeding analog routing switches.
 268:.\Generated_Source\PSoC4/cyfitter_cfg.c **** * Intended to be called at startup, based on the Vdda system configuration;
 269:.\Generated_Source\PSoC4/cyfitter_cfg.c **** * may be called during operation when the user informs us that the Vdda voltage crossed the pump th
 270:.\Generated_Source\PSoC4/cyfitter_cfg.c **** *
 271:.\Generated_Source\PSoC4/cyfitter_cfg.c **** * Parameters:
 272:.\Generated_Source\PSoC4/cyfitter_cfg.c **** *  enabled - 1 to enable the pumps, 0 to disable the pumps
ARM GAS  C:\Users\TANUSH~1\AppData\Local\Temp\ccckXzaE.s 			page 13


 273:.\Generated_Source\PSoC4/cyfitter_cfg.c **** *
 274:.\Generated_Source\PSoC4/cyfitter_cfg.c **** * Return:
 275:.\Generated_Source\PSoC4/cyfitter_cfg.c **** *  void
 276:.\Generated_Source\PSoC4/cyfitter_cfg.c **** *
 277:.\Generated_Source\PSoC4/cyfitter_cfg.c **** *******************************************************************************/
 278:.\Generated_Source\PSoC4/cyfitter_cfg.c **** void SetAnalogRoutingPumps(uint8 enabled)
 279:.\Generated_Source\PSoC4/cyfitter_cfg.c **** {
 410              		.loc 1 279 0
 411              		.cfi_startproc
 412 0000 80B5     		push	{r7, lr}
 413              		.cfi_def_cfa_offset 8
 414              		.cfi_offset 7, -8
 415              		.cfi_offset 14, -4
 416 0002 84B0     		sub	sp, sp, #16
 417              		.cfi_def_cfa_offset 24
 418 0004 00AF     		add	r7, sp, #0
 419              		.cfi_def_cfa_register 7
 420 0006 021C     		mov	r2, r0
 421 0008 FB1D     		add	r3, r7, #7
 422 000a 1A70     		strb	r2, [r3]
 280:.\Generated_Source\PSoC4/cyfitter_cfg.c **** 	uint32 regValue = CY_GET_XTND_REG32((void *)(CYREG_SAR_PUMP_CTRL));
 423              		.loc 1 280 0
 424 000c 154B     		ldr	r3, .L20
 425 000e 1B68     		ldr	r3, [r3]
 426 0010 FB60     		str	r3, [r7, #12]
 281:.\Generated_Source\PSoC4/cyfitter_cfg.c **** 	if (enabled != 0u)
 427              		.loc 1 281 0
 428 0012 FB1D     		add	r3, r7, #7
 429 0014 1B78     		ldrb	r3, [r3]
 430 0016 002B     		cmp	r3, #0
 431 0018 05D0     		beq	.L16
 282:.\Generated_Source\PSoC4/cyfitter_cfg.c **** 	{
 283:.\Generated_Source\PSoC4/cyfitter_cfg.c **** 		regValue |= 0x80000000u;
 432              		.loc 1 283 0
 433 001a FB68     		ldr	r3, [r7, #12]
 434 001c 8022     		mov	r2, #128
 435 001e 1206     		lsl	r2, r2, #24
 436 0020 1343     		orr	r3, r2
 437 0022 FB60     		str	r3, [r7, #12]
 438 0024 03E0     		b	.L17
 439              	.L16:
 284:.\Generated_Source\PSoC4/cyfitter_cfg.c **** 	}
 285:.\Generated_Source\PSoC4/cyfitter_cfg.c **** 	else
 286:.\Generated_Source\PSoC4/cyfitter_cfg.c **** 	{
 287:.\Generated_Source\PSoC4/cyfitter_cfg.c **** 		regValue &= ~0x80000000u;
 440              		.loc 1 287 0
 441 0026 FB68     		ldr	r3, [r7, #12]
 442 0028 5B00     		lsl	r3, r3, #1
 443 002a 5B08     		lsr	r3, r3, #1
 444 002c FB60     		str	r3, [r7, #12]
 445              	.L17:
 288:.\Generated_Source\PSoC4/cyfitter_cfg.c **** 	}
 289:.\Generated_Source\PSoC4/cyfitter_cfg.c **** 	CY_SET_XTND_REG32((void *)(CYREG_SAR_PUMP_CTRL), regValue);
 446              		.loc 1 289 0
 447 002e 0D4B     		ldr	r3, .L20
 448 0030 FA68     		ldr	r2, [r7, #12]
 449 0032 1A60     		str	r2, [r3]
ARM GAS  C:\Users\TANUSH~1\AppData\Local\Temp\ccckXzaE.s 			page 14


 290:.\Generated_Source\PSoC4/cyfitter_cfg.c **** 	regValue = CY_GET_XTND_REG32((void *)(CYREG_CLK_IMO_CONFIG));
 450              		.loc 1 290 0
 451 0034 0C4B     		ldr	r3, .L20+4
 452 0036 1B68     		ldr	r3, [r3]
 453 0038 FB60     		str	r3, [r7, #12]
 291:.\Generated_Source\PSoC4/cyfitter_cfg.c **** 	if (enabled != 0u)
 454              		.loc 1 291 0
 455 003a FB1D     		add	r3, r7, #7
 456 003c 1B78     		ldrb	r3, [r3]
 457 003e 002B     		cmp	r3, #0
 458 0040 05D0     		beq	.L18
 292:.\Generated_Source\PSoC4/cyfitter_cfg.c **** 	{
 293:.\Generated_Source\PSoC4/cyfitter_cfg.c **** 		regValue |= 0x26000000u;
 459              		.loc 1 293 0
 460 0042 FB68     		ldr	r3, [r7, #12]
 461 0044 9822     		mov	r2, #152
 462 0046 9205     		lsl	r2, r2, #22
 463 0048 1343     		orr	r3, r2
 464 004a FB60     		str	r3, [r7, #12]
 465 004c 03E0     		b	.L19
 466              	.L18:
 294:.\Generated_Source\PSoC4/cyfitter_cfg.c **** 	}
 295:.\Generated_Source\PSoC4/cyfitter_cfg.c **** 	else
 296:.\Generated_Source\PSoC4/cyfitter_cfg.c **** 	{
 297:.\Generated_Source\PSoC4/cyfitter_cfg.c **** 		regValue &= ~0x26000000u;
 467              		.loc 1 297 0
 468 004e FA68     		ldr	r2, [r7, #12]
 469 0050 064B     		ldr	r3, .L20+8
 470 0052 1340     		and	r3, r2
 471 0054 FB60     		str	r3, [r7, #12]
 472              	.L19:
 298:.\Generated_Source\PSoC4/cyfitter_cfg.c **** 	}
 299:.\Generated_Source\PSoC4/cyfitter_cfg.c **** 	CY_SET_XTND_REG32((void *)(CYREG_CLK_IMO_CONFIG), regValue);
 473              		.loc 1 299 0
 474 0056 044B     		ldr	r3, .L20+4
 475 0058 FA68     		ldr	r2, [r7, #12]
 476 005a 1A60     		str	r2, [r3]
 300:.\Generated_Source\PSoC4/cyfitter_cfg.c **** }
 477              		.loc 1 300 0
 478 005c BD46     		mov	sp, r7
 479 005e 04B0     		add	sp, sp, #16
 480              		@ sp needed
 481 0060 80BD     		pop	{r7, pc}
 482              	.L21:
 483 0062 C046     		.align	2
 484              	.L20:
 485 0064 80033A40 		.word	1077543808
 486 0068 08010B40 		.word	1074462984
 487 006c FFFFFFD9 		.word	-637534209
 488              		.cfi_endproc
 489              	.LFE8:
 490              		.size	SetAnalogRoutingPumps, .-SetAnalogRoutingPumps
 491              		.section	.psocinit
 492              		.align	2
 493              		.global	cyfitter_cfg
 494              		.code	16
 495              		.thumb_func
ARM GAS  C:\Users\TANUSH~1\AppData\Local\Temp\ccckXzaE.s 			page 15


 496              		.type	cyfitter_cfg, %function
 497              	cyfitter_cfg:
 498              	.LFB9:
 301:.\Generated_Source\PSoC4/cyfitter_cfg.c **** 
 302:.\Generated_Source\PSoC4/cyfitter_cfg.c **** #define CY_AMUX_UNUSED CYREG_CM0_ROM_DWT
 303:.\Generated_Source\PSoC4/cyfitter_cfg.c **** 
 304:.\Generated_Source\PSoC4/cyfitter_cfg.c **** 
 305:.\Generated_Source\PSoC4/cyfitter_cfg.c **** /*******************************************************************************
 306:.\Generated_Source\PSoC4/cyfitter_cfg.c **** * Function Name: cyfitter_cfg
 307:.\Generated_Source\PSoC4/cyfitter_cfg.c **** ********************************************************************************
 308:.\Generated_Source\PSoC4/cyfitter_cfg.c **** * Summary:
 309:.\Generated_Source\PSoC4/cyfitter_cfg.c **** *  This function is called by the start-up code for the selected device. It
 310:.\Generated_Source\PSoC4/cyfitter_cfg.c **** *  performs all of the necessary device configuration based on the design
 311:.\Generated_Source\PSoC4/cyfitter_cfg.c **** *  settings.  This includes settings from the Design Wide Resources (DWR) such
 312:.\Generated_Source\PSoC4/cyfitter_cfg.c **** *  as Clocks and Pins as well as any component configuration that is necessary.
 313:.\Generated_Source\PSoC4/cyfitter_cfg.c **** *
 314:.\Generated_Source\PSoC4/cyfitter_cfg.c **** * Parameters:  
 315:.\Generated_Source\PSoC4/cyfitter_cfg.c **** *   void
 316:.\Generated_Source\PSoC4/cyfitter_cfg.c **** *
 317:.\Generated_Source\PSoC4/cyfitter_cfg.c **** * Return:
 318:.\Generated_Source\PSoC4/cyfitter_cfg.c **** *   void
 319:.\Generated_Source\PSoC4/cyfitter_cfg.c **** *
 320:.\Generated_Source\PSoC4/cyfitter_cfg.c **** *******************************************************************************/
 321:.\Generated_Source\PSoC4/cyfitter_cfg.c **** CY_CFG_SECTION
 322:.\Generated_Source\PSoC4/cyfitter_cfg.c **** void cyfitter_cfg(void)
 323:.\Generated_Source\PSoC4/cyfitter_cfg.c **** {
 499              		.loc 1 323 0
 500              		.cfi_startproc
 501 00ec 80B5     		push	{r7, lr}
 502              		.cfi_def_cfa_offset 8
 503              		.cfi_offset 7, -8
 504              		.cfi_offset 14, -4
 505 00ee 82B0     		sub	sp, sp, #8
 506              		.cfi_def_cfa_offset 16
 507 00f0 00AF     		add	r7, sp, #0
 508              		.cfi_def_cfa_register 7
 324:.\Generated_Source\PSoC4/cyfitter_cfg.c **** 	/* Disable interrupts by default. Let user enable if/when they want. */
 325:.\Generated_Source\PSoC4/cyfitter_cfg.c **** 	CyGlobalIntDisable;
 509              		.loc 1 325 0
 510              	@ 325 ".\Generated_Source\PSoC4\cyfitter_cfg.c" 1
 511 00f2 72B6     		CPSID   i
 512              	@ 0 "" 2
 326:.\Generated_Source\PSoC4/cyfitter_cfg.c **** 
 327:.\Generated_Source\PSoC4/cyfitter_cfg.c **** 	CY_SET_XTND_REG32((void CYFAR *)(CYREG_BLE_BLESS_LL_DSM_CTRL), 0x00000000u);
 513              		.loc 1 327 0
 514              		.code	16
 515 00f4 414B     		ldr	r3, .L25
 516 00f6 0022     		mov	r2, #0
 517 00f8 1A60     		str	r2, [r3]
 518              	.LBB3:
 328:.\Generated_Source\PSoC4/cyfitter_cfg.c **** 
 329:.\Generated_Source\PSoC4/cyfitter_cfg.c **** 	{
 330:.\Generated_Source\PSoC4/cyfitter_cfg.c **** 		static const uint32 CYCODE cy_cfg_addr_table[] = {
 331:.\Generated_Source\PSoC4/cyfitter_cfg.c **** 			0x400F3204u, /* Base address: 0x400F3200 Count: 4 */
 332:.\Generated_Source\PSoC4/cyfitter_cfg.c **** 			0x400F3304u, /* Base address: 0x400F3300 Count: 4 */
 333:.\Generated_Source\PSoC4/cyfitter_cfg.c **** 			0x400F4002u, /* Base address: 0x400F4000 Count: 2 */
 334:.\Generated_Source\PSoC4/cyfitter_cfg.c **** 			0x400F4108u, /* Base address: 0x400F4100 Count: 8 */
ARM GAS  C:\Users\TANUSH~1\AppData\Local\Temp\ccckXzaE.s 			page 16


 335:.\Generated_Source\PSoC4/cyfitter_cfg.c **** 			0x400F4202u, /* Base address: 0x400F4200 Count: 2 */
 336:.\Generated_Source\PSoC4/cyfitter_cfg.c **** 			0x400F4301u, /* Base address: 0x400F4300 Count: 1 */
 337:.\Generated_Source\PSoC4/cyfitter_cfg.c **** 			0x400F6002u, /* Base address: 0x400F6000 Count: 2 */
 338:.\Generated_Source\PSoC4/cyfitter_cfg.c **** 		};
 339:.\Generated_Source\PSoC4/cyfitter_cfg.c **** 
 340:.\Generated_Source\PSoC4/cyfitter_cfg.c **** 		static const cy_cfg_addrvalue_t CYCODE cy_cfg_data_table[] = {
 341:.\Generated_Source\PSoC4/cyfitter_cfg.c **** 			{0x38u, 0x80u},
 342:.\Generated_Source\PSoC4/cyfitter_cfg.c **** 			{0x3Eu, 0x40u},
 343:.\Generated_Source\PSoC4/cyfitter_cfg.c **** 			{0x58u, 0x04u},
 344:.\Generated_Source\PSoC4/cyfitter_cfg.c **** 			{0x5Fu, 0x01u},
 345:.\Generated_Source\PSoC4/cyfitter_cfg.c **** 			{0x1Fu, 0x80u},
 346:.\Generated_Source\PSoC4/cyfitter_cfg.c **** 			{0x83u, 0x80u},
 347:.\Generated_Source\PSoC4/cyfitter_cfg.c **** 			{0x87u, 0x80u},
 348:.\Generated_Source\PSoC4/cyfitter_cfg.c **** 			{0xEEu, 0x08u},
 349:.\Generated_Source\PSoC4/cyfitter_cfg.c **** 			{0x53u, 0x20u},
 350:.\Generated_Source\PSoC4/cyfitter_cfg.c **** 			{0xD4u, 0x20u},
 351:.\Generated_Source\PSoC4/cyfitter_cfg.c **** 			{0x3Bu, 0x02u},
 352:.\Generated_Source\PSoC4/cyfitter_cfg.c **** 			{0x3Fu, 0x02u},
 353:.\Generated_Source\PSoC4/cyfitter_cfg.c **** 			{0x83u, 0x01u},
 354:.\Generated_Source\PSoC4/cyfitter_cfg.c **** 			{0x87u, 0x01u},
 355:.\Generated_Source\PSoC4/cyfitter_cfg.c **** 			{0xAFu, 0x20u},
 356:.\Generated_Source\PSoC4/cyfitter_cfg.c **** 			{0xCEu, 0xC0u},
 357:.\Generated_Source\PSoC4/cyfitter_cfg.c **** 			{0xE6u, 0x30u},
 358:.\Generated_Source\PSoC4/cyfitter_cfg.c **** 			{0xEEu, 0x10u},
 359:.\Generated_Source\PSoC4/cyfitter_cfg.c **** 			{0x0Fu, 0x02u},
 360:.\Generated_Source\PSoC4/cyfitter_cfg.c **** 			{0xC2u, 0x01u},
 361:.\Generated_Source\PSoC4/cyfitter_cfg.c **** 			{0xAFu, 0x01u},
 362:.\Generated_Source\PSoC4/cyfitter_cfg.c **** 			{0x02u, 0x01u},
 363:.\Generated_Source\PSoC4/cyfitter_cfg.c **** 			{0x11u, 0x01u},
 364:.\Generated_Source\PSoC4/cyfitter_cfg.c **** 		};
 365:.\Generated_Source\PSoC4/cyfitter_cfg.c **** 
 366:.\Generated_Source\PSoC4/cyfitter_cfg.c **** 
 367:.\Generated_Source\PSoC4/cyfitter_cfg.c **** 
 368:.\Generated_Source\PSoC4/cyfitter_cfg.c **** 		CYPACKED typedef struct {
 369:.\Generated_Source\PSoC4/cyfitter_cfg.c **** 			void CYFAR *address;
 370:.\Generated_Source\PSoC4/cyfitter_cfg.c **** 			uint16 size;
 371:.\Generated_Source\PSoC4/cyfitter_cfg.c **** 		} CYPACKED_ATTR cfg_memset_t;
 372:.\Generated_Source\PSoC4/cyfitter_cfg.c **** 
 373:.\Generated_Source\PSoC4/cyfitter_cfg.c **** 		static const cfg_memset_t CYCODE cfg_memset_list [] = {
 374:.\Generated_Source\PSoC4/cyfitter_cfg.c **** 			/* address, size */
 375:.\Generated_Source\PSoC4/cyfitter_cfg.c **** 			{(void CYFAR *)(CYDEV_UDB_P0_U0_BASE), 1024u},
 376:.\Generated_Source\PSoC4/cyfitter_cfg.c **** 			{(void CYFAR *)(CYDEV_UDB_DSI0_BASE), 1024u},
 377:.\Generated_Source\PSoC4/cyfitter_cfg.c **** 		};
 378:.\Generated_Source\PSoC4/cyfitter_cfg.c **** 
 379:.\Generated_Source\PSoC4/cyfitter_cfg.c **** 		uint8 CYDATA i;
 380:.\Generated_Source\PSoC4/cyfitter_cfg.c **** 
 381:.\Generated_Source\PSoC4/cyfitter_cfg.c **** 		/* Zero out critical memory blocks before beginning configuration */
 382:.\Generated_Source\PSoC4/cyfitter_cfg.c **** 		for (i = 0u; i < (sizeof(cfg_memset_list)/sizeof(cfg_memset_list[0])); i++)
 519              		.loc 1 382 0
 520 00fa FB1D     		add	r3, r7, #7
 521 00fc 0022     		mov	r2, #0
 522 00fe 1A70     		strb	r2, [r3]
 523 0100 23E0     		b	.L23
 524              	.L24:
 525              	.LBB4:
 383:.\Generated_Source\PSoC4/cyfitter_cfg.c **** 		{
 384:.\Generated_Source\PSoC4/cyfitter_cfg.c **** 			const cfg_memset_t CYCODE * CYDATA ms = &cfg_memset_list[i];
ARM GAS  C:\Users\TANUSH~1\AppData\Local\Temp\ccckXzaE.s 			page 17


 526              		.loc 1 384 0 discriminator 2
 527 0102 FB1D     		add	r3, r7, #7
 528 0104 1A78     		ldrb	r2, [r3]
 529 0106 131C     		mov	r3, r2
 530 0108 5B00     		lsl	r3, r3, #1
 531 010a 9B18     		add	r3, r3, r2
 532 010c 5B00     		lsl	r3, r3, #1
 533 010e 3C4A     		ldr	r2, .L25+4
 534 0110 9B18     		add	r3, r3, r2
 535 0112 3B60     		str	r3, [r7]
 385:.\Generated_Source\PSoC4/cyfitter_cfg.c **** 			CYMEMZERO(ms->address, (size_t)(uint32)(ms->size));
 536              		.loc 1 385 0 discriminator 2
 537 0114 3B68     		ldr	r3, [r7]
 538 0116 1A78     		ldrb	r2, [r3]
 539 0118 5978     		ldrb	r1, [r3, #1]
 540 011a 0902     		lsl	r1, r1, #8
 541 011c 0A43     		orr	r2, r1
 542 011e 9978     		ldrb	r1, [r3, #2]
 543 0120 0904     		lsl	r1, r1, #16
 544 0122 0A43     		orr	r2, r1
 545 0124 DB78     		ldrb	r3, [r3, #3]
 546 0126 1B06     		lsl	r3, r3, #24
 547 0128 1343     		orr	r3, r2
 548 012a 1A1C     		mov	r2, r3
 549 012c 3B68     		ldr	r3, [r7]
 550 012e 1979     		ldrb	r1, [r3, #4]
 551 0130 5B79     		ldrb	r3, [r3, #5]
 552 0132 1B02     		lsl	r3, r3, #8
 553 0134 0B43     		orr	r3, r1
 554 0136 9BB2     		uxth	r3, r3
 555 0138 101C     		mov	r0, r2
 556 013a 191C     		mov	r1, r3
 557 013c FFF7FEFF 		bl	CYMEMZERO
 558              	.LBE4:
 382:.\Generated_Source\PSoC4/cyfitter_cfg.c **** 		for (i = 0u; i < (sizeof(cfg_memset_list)/sizeof(cfg_memset_list[0])); i++)
 559              		.loc 1 382 0 discriminator 2
 560 0140 FB1D     		add	r3, r7, #7
 561 0142 1A78     		ldrb	r2, [r3]
 562 0144 FB1D     		add	r3, r7, #7
 563 0146 0132     		add	r2, r2, #1
 564 0148 1A70     		strb	r2, [r3]
 565              	.L23:
 382:.\Generated_Source\PSoC4/cyfitter_cfg.c **** 		for (i = 0u; i < (sizeof(cfg_memset_list)/sizeof(cfg_memset_list[0])); i++)
 566              		.loc 1 382 0 is_stmt 0 discriminator 1
 567 014a FB1D     		add	r3, r7, #7
 568 014c 1B78     		ldrb	r3, [r3]
 569 014e 012B     		cmp	r3, #1
 570 0150 D7D9     		bls	.L24
 386:.\Generated_Source\PSoC4/cyfitter_cfg.c **** 		}
 387:.\Generated_Source\PSoC4/cyfitter_cfg.c **** 
 388:.\Generated_Source\PSoC4/cyfitter_cfg.c **** 		cfg_write_bytes32(cy_cfg_addr_table, cy_cfg_data_table);
 571              		.loc 1 388 0 is_stmt 1
 572 0152 2C4A     		ldr	r2, .L25+8
 573 0154 2C4B     		ldr	r3, .L25+12
 574 0156 101C     		mov	r0, r2
 575 0158 191C     		mov	r1, r3
 576 015a FFF7FEFF 		bl	cfg_write_bytes32
ARM GAS  C:\Users\TANUSH~1\AppData\Local\Temp\ccckXzaE.s 			page 18


 389:.\Generated_Source\PSoC4/cyfitter_cfg.c **** 
 390:.\Generated_Source\PSoC4/cyfitter_cfg.c **** 		/* PWR_BG_CONFIG Starting address: CYDEV_PWR_BG_CONFIG */
 391:.\Generated_Source\PSoC4/cyfitter_cfg.c **** 		CY_SET_XTND_REG32((void CYFAR *)(CYREG_PWR_BG_CONFIG), 0x00040000u);
 577              		.loc 1 391 0
 578 015e 2B4B     		ldr	r3, .L25+16
 579 0160 8022     		mov	r2, #128
 580 0162 D202     		lsl	r2, r2, #11
 581 0164 1A60     		str	r2, [r3]
 392:.\Generated_Source\PSoC4/cyfitter_cfg.c **** 
 393:.\Generated_Source\PSoC4/cyfitter_cfg.c **** 		/* HSIOM Starting address: CYDEV_HSIOM_BASE */
 394:.\Generated_Source\PSoC4/cyfitter_cfg.c **** 		CY_SET_XTND_REG32((void CYFAR *)(CYDEV_HSIOM_BASE), 0x00000003u);
 582              		.loc 1 394 0
 583 0166 2A4B     		ldr	r3, .L25+20
 584 0168 0322     		mov	r2, #3
 585 016a 1A60     		str	r2, [r3]
 395:.\Generated_Source\PSoC4/cyfitter_cfg.c **** 
 396:.\Generated_Source\PSoC4/cyfitter_cfg.c **** 		/* UDB_PA_0 Starting address: CYDEV_UDB_PA0_BASE */
 397:.\Generated_Source\PSoC4/cyfitter_cfg.c **** 		CY_SET_XTND_REG32((void CYFAR *)(CYDEV_UDB_PA0_BASE), 0x00990000u);
 586              		.loc 1 397 0
 587 016c 294B     		ldr	r3, .L25+24
 588 016e 9922     		mov	r2, #153
 589 0170 1204     		lsl	r2, r2, #16
 590 0172 1A60     		str	r2, [r3]
 398:.\Generated_Source\PSoC4/cyfitter_cfg.c **** 
 399:.\Generated_Source\PSoC4/cyfitter_cfg.c **** 		/* UDB_PA_2 Starting address: CYDEV_UDB_PA2_BASE */
 400:.\Generated_Source\PSoC4/cyfitter_cfg.c **** 		CY_SET_XTND_REG32((void CYFAR *)(CYDEV_UDB_PA2_BASE), 0x00990004u);
 591              		.loc 1 400 0
 592 0174 284B     		ldr	r3, .L25+28
 593 0176 294A     		ldr	r2, .L25+32
 594 0178 1A60     		str	r2, [r3]
 401:.\Generated_Source\PSoC4/cyfitter_cfg.c **** 		CY_SET_XTND_REG32((void CYFAR *)(CYREG_UDB_PA2_CFG4), 0x80000000u);
 595              		.loc 1 401 0
 596 017a 294B     		ldr	r3, .L25+36
 597 017c 8022     		mov	r2, #128
 598 017e 1206     		lsl	r2, r2, #24
 599 0180 1A60     		str	r2, [r3]
 402:.\Generated_Source\PSoC4/cyfitter_cfg.c **** 
 403:.\Generated_Source\PSoC4/cyfitter_cfg.c **** 		/* Enable digital routing */
 404:.\Generated_Source\PSoC4/cyfitter_cfg.c **** 		CY_SET_XTND_REG8((void *)CYREG_UDB_UDBIF_BANK_CTL, CY_GET_XTND_REG8((void *)CYREG_UDB_UDBIF_BANK_
 600              		.loc 1 404 0
 601 0182 284B     		ldr	r3, .L25+40
 602 0184 274A     		ldr	r2, .L25+40
 603 0186 1278     		ldrb	r2, [r2]
 604 0188 D2B2     		uxtb	r2, r2
 605 018a 0221     		mov	r1, #2
 606 018c 0A43     		orr	r2, r1
 607 018e D2B2     		uxtb	r2, r2
 608 0190 1A70     		strb	r2, [r3]
 405:.\Generated_Source\PSoC4/cyfitter_cfg.c **** 
 406:.\Generated_Source\PSoC4/cyfitter_cfg.c **** 		/* Enable UDB array */
 407:.\Generated_Source\PSoC4/cyfitter_cfg.c **** 		CY_SET_XTND_REG8((void *)CYREG_UDB_UDBIF_WAIT_CFG, (uint8)((CY_GET_XTND_REG8((void *)CYREG_UDB_UD
 609              		.loc 1 407 0
 610 0192 254B     		ldr	r3, .L25+44
 611 0194 244A     		ldr	r2, .L25+44
 612 0196 1278     		ldrb	r2, [r2]
 613 0198 D2B2     		uxtb	r2, r2
 614 019a 3C21     		mov	r1, #60
ARM GAS  C:\Users\TANUSH~1\AppData\Local\Temp\ccckXzaE.s 			page 19


 615 019c 8A43     		bic	r2, r1
 616 019e D2B2     		uxtb	r2, r2
 617 01a0 1421     		mov	r1, #20
 618 01a2 0A43     		orr	r2, r1
 619 01a4 D2B2     		uxtb	r2, r2
 620 01a6 1A70     		strb	r2, [r3]
 408:.\Generated_Source\PSoC4/cyfitter_cfg.c **** 		CY_SET_XTND_REG8((void *)CYREG_UDB_UDBIF_BANK_CTL, (uint8)(CY_GET_XTND_REG8((void *)CYREG_UDB_UDB
 621              		.loc 1 408 0
 622 01a8 1E4B     		ldr	r3, .L25+40
 623 01aa 1E4A     		ldr	r2, .L25+40
 624 01ac 1278     		ldrb	r2, [r2]
 625 01ae D2B2     		uxtb	r2, r2
 626 01b0 1621     		mov	r1, #22
 627 01b2 0A43     		orr	r2, r1
 628 01b4 D2B2     		uxtb	r2, r2
 629 01b6 1A70     		strb	r2, [r3]
 630              	.LBE3:
 409:.\Generated_Source\PSoC4/cyfitter_cfg.c **** 	}
 410:.\Generated_Source\PSoC4/cyfitter_cfg.c **** 
 411:.\Generated_Source\PSoC4/cyfitter_cfg.c **** 	/* Perform second pass device configuration. These items must be configured in specific order afte
 412:.\Generated_Source\PSoC4/cyfitter_cfg.c **** 	/* IOPINS0_0 Starting address: CYDEV_GPIO_PRT0_DR */
 413:.\Generated_Source\PSoC4/cyfitter_cfg.c **** 	CY_SET_XTND_REG32((void CYFAR *)(CYREG_GPIO_PRT0_DR), 0x00000001u);
 631              		.loc 1 413 0
 632 01b8 1C4B     		ldr	r3, .L25+48
 633 01ba 0122     		mov	r2, #1
 634 01bc 1A60     		str	r2, [r3]
 414:.\Generated_Source\PSoC4/cyfitter_cfg.c **** 	CY_SET_XTND_REG32((void CYFAR *)(CYREG_GPIO_PRT0_PC), 0x00000006u);
 635              		.loc 1 414 0
 636 01be 1C4B     		ldr	r3, .L25+52
 637 01c0 0622     		mov	r2, #6
 638 01c2 1A60     		str	r2, [r3]
 415:.\Generated_Source\PSoC4/cyfitter_cfg.c **** 
 416:.\Generated_Source\PSoC4/cyfitter_cfg.c **** 	/* IOPINS0_2 Starting address: CYDEV_GPIO_PRT2_DR */
 417:.\Generated_Source\PSoC4/cyfitter_cfg.c **** 	CY_SET_XTND_REG32((void CYFAR *)(CYREG_GPIO_PRT2_DR), 0x00000081u);
 639              		.loc 1 417 0
 640 01c4 1B4B     		ldr	r3, .L25+56
 641 01c6 8122     		mov	r2, #129
 642 01c8 1A60     		str	r2, [r3]
 418:.\Generated_Source\PSoC4/cyfitter_cfg.c **** 	CY_SET_XTND_REG32((void CYFAR *)(CYREG_GPIO_PRT2_PC), 0x00440000u);
 643              		.loc 1 418 0
 644 01ca 1B4B     		ldr	r3, .L25+60
 645 01cc 8822     		mov	r2, #136
 646 01ce D203     		lsl	r2, r2, #15
 647 01d0 1A60     		str	r2, [r3]
 419:.\Generated_Source\PSoC4/cyfitter_cfg.c **** 	CY_SET_XTND_REG32((void CYFAR *)(CYREG_GPIO_PRT2_INTR_CFG), 0x00008000u);
 648              		.loc 1 419 0
 649 01d2 1A4B     		ldr	r3, .L25+64
 650 01d4 8022     		mov	r2, #128
 651 01d6 1202     		lsl	r2, r2, #8
 652 01d8 1A60     		str	r2, [r3]
 420:.\Generated_Source\PSoC4/cyfitter_cfg.c **** 	CY_SET_XTND_REG32((void CYFAR *)(CYREG_GPIO_PRT2_PC2), 0x00000001u);
 653              		.loc 1 420 0
 654 01da 194B     		ldr	r3, .L25+68
 655 01dc 0122     		mov	r2, #1
 656 01de 1A60     		str	r2, [r3]
 421:.\Generated_Source\PSoC4/cyfitter_cfg.c **** 
 422:.\Generated_Source\PSoC4/cyfitter_cfg.c **** 	/* IOPINS0_4 Starting address: CYDEV_GPIO_PRT4_DR */
ARM GAS  C:\Users\TANUSH~1\AppData\Local\Temp\ccckXzaE.s 			page 20


 423:.\Generated_Source\PSoC4/cyfitter_cfg.c **** 	CY_SET_XTND_REG32((void CYFAR *)(CYREG_GPIO_PRT4_DR), 0x00000001u);
 657              		.loc 1 423 0
 658 01e0 184B     		ldr	r3, .L25+72
 659 01e2 0122     		mov	r2, #1
 660 01e4 1A60     		str	r2, [r3]
 424:.\Generated_Source\PSoC4/cyfitter_cfg.c **** 	CY_SET_XTND_REG32((void CYFAR *)(CYREG_GPIO_PRT4_PC2), 0x00000001u);
 661              		.loc 1 424 0
 662 01e6 184B     		ldr	r3, .L25+76
 663 01e8 0122     		mov	r2, #1
 664 01ea 1A60     		str	r2, [r3]
 425:.\Generated_Source\PSoC4/cyfitter_cfg.c **** 
 426:.\Generated_Source\PSoC4/cyfitter_cfg.c **** 	/* Setup clocks based on selections from Clock DWR */
 427:.\Generated_Source\PSoC4/cyfitter_cfg.c **** 	ClockSetup();
 665              		.loc 1 427 0
 666 01ec FFF708FF 		bl	ClockSetup
 428:.\Generated_Source\PSoC4/cyfitter_cfg.c **** 
 429:.\Generated_Source\PSoC4/cyfitter_cfg.c **** 	/* Perform basic analog initialization to defaults */
 430:.\Generated_Source\PSoC4/cyfitter_cfg.c **** 	AnalogSetDefault();
 667              		.loc 1 430 0
 668 01f0 FFF7FEFF 		bl	AnalogSetDefault
 431:.\Generated_Source\PSoC4/cyfitter_cfg.c **** 
 432:.\Generated_Source\PSoC4/cyfitter_cfg.c **** }
 669              		.loc 1 432 0
 670 01f4 BD46     		mov	sp, r7
 671 01f6 02B0     		add	sp, sp, #8
 672              		@ sp needed
 673 01f8 80BD     		pop	{r7, pc}
 674              	.L26:
 675 01fa C046     		.align	2
 676              	.L25:
 677 01fc 6CF02E40 		.word	1076818028
 678 0200 00000000 		.word	cfg_memset_list.4750
 679 0204 0C000000 		.word	cy_cfg_addr_table.4744
 680 0208 28000000 		.word	cy_cfg_data_table.4745
 681 020c 14000B40 		.word	1074462740
 682 0210 00000240 		.word	1073872896
 683 0214 00500F40 		.word	1074745344
 684 0218 20500F40 		.word	1074745376
 685 021c 04009900 		.word	10027012
 686 0220 24500F40 		.word	1074745380
 687 0224 00700F40 		.word	1074753536
 688 0228 01700F40 		.word	1074753537
 689 022c 00000440 		.word	1074003968
 690 0230 08000440 		.word	1074003976
 691 0234 00020440 		.word	1074004480
 692 0238 08020440 		.word	1074004488
 693 023c 0C020440 		.word	1074004492
 694 0240 18020440 		.word	1074004504
 695 0244 00040440 		.word	1074004992
 696 0248 18040440 		.word	1074005016
 697              		.cfi_endproc
 698              	.LFE9:
 699              		.size	cyfitter_cfg, .-cyfitter_cfg
 700              		.section	.rodata
 701              		.align	2
 702              		.type	cfg_memset_list.4750, %object
 703              		.size	cfg_memset_list.4750, 12
ARM GAS  C:\Users\TANUSH~1\AppData\Local\Temp\ccckXzaE.s 			page 21


 704              	cfg_memset_list.4750:
 705 0000 00300F40 		.word	1074737152
 706 0004 0004     		.short	1024
 707 0006 00400F40 		.4byte	1074741248
 708 000a 0004     		.short	1024
 709              		.align	2
 710              		.type	cy_cfg_addr_table.4744, %object
 711              		.size	cy_cfg_addr_table.4744, 28
 712              	cy_cfg_addr_table.4744:
 713 000c 04320F40 		.word	1074737668
 714 0010 04330F40 		.word	1074737924
 715 0014 02400F40 		.word	1074741250
 716 0018 08410F40 		.word	1074741512
 717 001c 02420F40 		.word	1074741762
 718 0020 01430F40 		.word	1074742017
 719 0024 02600F40 		.word	1074749442
 720              		.align	2
 721              		.type	cy_cfg_data_table.4745, %object
 722              		.size	cy_cfg_data_table.4745, 46
 723              	cy_cfg_data_table.4745:
 724 0028 38       		.byte	56
 725 0029 80       		.byte	-128
 726 002a 3E       		.byte	62
 727 002b 40       		.byte	64
 728 002c 58       		.byte	88
 729 002d 04       		.byte	4
 730 002e 5F       		.byte	95
 731 002f 01       		.byte	1
 732 0030 1F       		.byte	31
 733 0031 80       		.byte	-128
 734 0032 83       		.byte	-125
 735 0033 80       		.byte	-128
 736 0034 87       		.byte	-121
 737 0035 80       		.byte	-128
 738 0036 EE       		.byte	-18
 739 0037 08       		.byte	8
 740 0038 53       		.byte	83
 741 0039 20       		.byte	32
 742 003a D4       		.byte	-44
 743 003b 20       		.byte	32
 744 003c 3B       		.byte	59
 745 003d 02       		.byte	2
 746 003e 3F       		.byte	63
 747 003f 02       		.byte	2
 748 0040 83       		.byte	-125
 749 0041 01       		.byte	1
 750 0042 87       		.byte	-121
 751 0043 01       		.byte	1
 752 0044 AF       		.byte	-81
 753 0045 20       		.byte	32
 754 0046 CE       		.byte	-50
 755 0047 C0       		.byte	-64
 756 0048 E6       		.byte	-26
 757 0049 30       		.byte	48
 758 004a EE       		.byte	-18
 759 004b 10       		.byte	16
 760 004c 0F       		.byte	15
ARM GAS  C:\Users\TANUSH~1\AppData\Local\Temp\ccckXzaE.s 			page 22


 761 004d 02       		.byte	2
 762 004e C2       		.byte	-62
 763 004f 01       		.byte	1
 764 0050 AF       		.byte	-81
 765 0051 01       		.byte	1
 766 0052 02       		.byte	2
 767 0053 01       		.byte	1
 768 0054 11       		.byte	17
 769 0055 01       		.byte	1
 770 0056 0000     		.text
 771              	.Letext0:
 772              		.file 2 "c:\\program files (x86)\\cypress\\psoc creator\\3.2\\psoc creator\\import\\gnu\\arm\\4.8.
 773              		.file 3 ".\\Generated_Source\\PSoC4\\cytypes.h"