ARM GAS  C:\Users\TANUSH~1\AppData\Local\Temp\ccOaGfgQ.s 			page 1


   1              		.cpu cortex-m0
   2              		.fpu softvfp
   3              		.eabi_attribute 20, 1
   4              		.eabi_attribute 21, 1
   5              		.eabi_attribute 23, 3
   6              		.eabi_attribute 24, 1
   7              		.eabi_attribute 25, 1
   8              		.eabi_attribute 26, 1
   9              		.eabi_attribute 30, 6
  10              		.eabi_attribute 34, 0
  11              		.eabi_attribute 18, 4
  12              		.code	16
  13              		.file	"main.c"
  14              		.text
  15              	.Ltext0:
  16              		.cfi_sections	.debug_frame
  17              		.global	initializeCapSenseBaseline
  18              		.data
  19              		.type	initializeCapSenseBaseline, %object
  20              		.size	initializeCapSenseBaseline, 1
  21              	initializeCapSenseBaseline:
  22 0000 01       		.byte	1
  23              		.bss
  24              		.align	2
  25              	currentTimestamp:
  26 0000 00000000 		.space	4
  27              		.comm	bleMode,1,1
  28              		.comm	interruptStatus,1,1
  29              		.section	.text.main,"ax",%progbits
  30              		.align	2
  31              		.global	main
  32              		.code	16
  33              		.thumb_func
  34              		.type	main, %function
  35              	main:
  36              	.LFB35:
  37              		.file 1 ".\\main.c"
   1:.\main.c      **** /******************************************************************************
   2:.\main.c      **** * Project Name		: PSoC_4_BLE_CapSense_Proximity
   3:.\main.c      **** * File Name			: main.c
   4:.\main.c      **** * Version 			: 1.0
   5:.\main.c      **** * Device Used		: CY8C4247LQI-BL483
   6:.\main.c      **** * Software Used		: PSoC Creator 3.1
   7:.\main.c      **** * Compiler    		: ARM GCC 4.8.4, ARM RVDS Generic, ARM MDK Generic
   8:.\main.c      **** * Related Hardware	: CY8CKIT-042-BLE Bluetooth Low Energy Pioneer Kit 
   9:.\main.c      **** * Owner				: ROIT
  10:.\main.c      **** *
  11:.\main.c      **** ********************************************************************************
  12:.\main.c      **** * Copyright (2014), Cypress Semiconductor Corporation. All Rights Reserved.
  13:.\main.c      **** ********************************************************************************
  14:.\main.c      **** * This software is owned by Cypress Semiconductor Corporation (Cypress)
  15:.\main.c      **** * and is protected by and subject to worldwide patent protection (United
  16:.\main.c      **** * States and foreign), United States copyright laws and international treaty
  17:.\main.c      **** * provisions. Cypress hereby grants to licensee a personal, non-exclusive,
  18:.\main.c      **** * non-transferable license to copy, use, modify, create derivative works of,
  19:.\main.c      **** * and compile the Cypress Source Code and derivative works for the sole
  20:.\main.c      **** * purpose of creating custom software in support of licensee product to be
ARM GAS  C:\Users\TANUSH~1\AppData\Local\Temp\ccOaGfgQ.s 			page 2


  21:.\main.c      **** * used only in conjunction with a Cypress integrated circuit as specified in
  22:.\main.c      **** * the applicable agreement. Any reproduction, modification, translation,
  23:.\main.c      **** * compilation, or representation of this software except as specified above 
  24:.\main.c      **** * is prohibited without the express written permission of Cypress.
  25:.\main.c      **** *
  26:.\main.c      **** * Disclaimer: CYPRESS MAKES NO WARRANTY OF ANY KIND, EXPRESS OR IMPLIED, WITH 
  27:.\main.c      **** * REGARD TO THIS MATERIAL, INCLUDING, BUT NOT LIMITED TO, THE IMPLIED 
  28:.\main.c      **** * WARRANTIES OF MERCHANTABILITY AND FITNESS FOR A PARTICULAR PURPOSE.
  29:.\main.c      **** * Cypress reserves the right to make changes without further notice to the 
  30:.\main.c      **** * materials described herein. Cypress does not assume any liability arising out 
  31:.\main.c      **** * of the application or use of any product or circuit described herein. Cypress 
  32:.\main.c      **** * does not authorize its products for use as critical components in life-support 
  33:.\main.c      **** * systems where a malfunction or failure may reasonably be expected to result in 
  34:.\main.c      **** * significant injury to the user. The inclusion of Cypress' product in a life-
  35:.\main.c      **** * support systems application implies that the manufacturer assumes all risk of 
  36:.\main.c      **** * such use and in doing so indemnifies Cypress against all charges. 
  37:.\main.c      **** *
  38:.\main.c      **** * Use of this Software may be limited by and subject to the applicable Cypress
  39:.\main.c      **** * software license agreement. 
  40:.\main.c      **** *******************************************************************************/
  41:.\main.c      **** 
  42:.\main.c      **** /******************************************************************************
  43:.\main.c      **** *                           THEORY OF OPERATION
  44:.\main.c      **** *******************************************************************************
  45:.\main.c      **** * The project will show case the capability of PSoC 4 BLE to communicate with
  46:.\main.c      **** * a BLE Central device. The data communicated is the CapSense proximity value,
  47:.\main.c      **** * sent from PSoC 4 BLE over a custom service. This custom service allows
  48:.\main.c      **** * notifications to be sent to central device after notifications are enabled.
  49:.\main.c      **** * This project utilizes CapSense component to detect the change in capacitance
  50:.\main.c      **** * of the proximity sensor and report this to central device over BLE.
  51:.\main.c      **** * The BLE central device can be either BLE capable smartphone with associated 
  52:.\main.c      **** * mobile application or CySmart PC tool.
  53:.\main.c      **** * This project also inludes low power mode operation, idle for battery operated 
  54:.\main.c      **** * devices. The project utlizes Deep Sleep feature of both BLESS and CPU to remain 
  55:.\main.c      **** * in low power mode as much as possible, while maintaining the BLE connection and  
  56:.\main.c      **** * data transfer. This allows the device to run on coin cell battery for long time.
  57:.\main.c      **** *
  58:.\main.c      **** * Note:
  59:.\main.c      **** * The programming pins have been configured as GPIO, and not SWD. This is because 
  60:.\main.c      **** * when programming pins are configured for SWD, then the silicon consumes extra
  61:.\main.c      **** * power through the pins. To prevent the leakage of power, the pins have been set 
  62:.\main.c      **** * to GPIO. With this setting, the kit can still be acquired by PSoC Creator or
  63:.\main.c      **** * PSoC Programmer software tools for programming, but the project cannot be 
  64:.\main.c      **** * externally debugged. To re-enable debugging, go to PSoC_4_BLE_CapSense.cydwr from
  65:.\main.c      **** * Workspace Explorer, go to Systems tab, and set the Debug Select option to 'SWD'.
  66:.\main.c      **** * Build and program this project to enable external Debugging.
  67:.\main.c      **** *
  68:.\main.c      **** * Refer to BLE Pioneer Kit user guide for details.
  69:.\main.c      **** *******************************************************************************
  70:.\main.c      **** * Hardware connection required for testing -
  71:.\main.c      **** * PROX pin 		- P2[0] (requires an external wire-loop connection to PROX sensor)
  72:.\main.c      **** * Cmod pin		- P4[0] (hard-wired in the PSoC 4 BLE Module)
  73:.\main.c      **** * User Button	- P2[7] (hard-wired on BLE Pioneer Kit)
  74:.\main.c      **** * Status LED	- P3[7] (hard-wired on BLE Pioneer Kit)
  75:.\main.c      **** ******************************************************************************/
  76:.\main.c      **** #include <main.h>
  77:.\main.c      **** #include "WatchdogTimer.h"
ARM GAS  C:\Users\TANUSH~1\AppData\Local\Temp\ccOaGfgQ.s 			page 3


  78:.\main.c      **** #include <BLEApplications.h>
  79:.\main.c      **** /*'deviceConnected' flag is used by application to know whether a Central device  
  80:.\main.c      **** * has been connected. This is updated in BLE event callback */
  81:.\main.c      **** extern uint8 deviceConnected;
  82:.\main.c      **** 
  83:.\main.c      **** /*'startNotification' flag is set when the central device writes to CCC (Client  
  84:.\main.c      **** * Characteristic Configuration) of the CapSense proximity characteristic to 
  85:.\main.c      **** * enable notifications */
  86:.\main.c      **** extern uint8 startNotification;	
  87:.\main.c      **** 
  88:.\main.c      **** /* 'restartAdvertisement' flag is used to restart advertisement */
  89:.\main.c      **** extern uint8 restartAdvertisement;
  90:.\main.c      **** 
  91:.\main.c      **** /* 'initializeCapSenseBaseline' flag is used to call the function once that initializes 
  92:.\main.c      **** * all CapSense baseline. The baseline is initialized when the first advertisement 
  93:.\main.c      **** * is started. This is done so that any external disturbance while powering the kit does 
  94:.\main.c      **** * not infliuence the baseline value, that may cause wrong readings. */
  95:.\main.c      **** uint8 initializeCapSenseBaseline = TRUE;
  96:.\main.c      **** 
  97:.\main.c      ****     static uint32 currentTimestamp = 0;
  98:.\main.c      ****     CYBLE_LP_MODE_T bleMode;
  99:.\main.c      ****     uint8 interruptStatus;
 100:.\main.c      **** /*******************************************************************************
 101:.\main.c      **** * Function Name: main
 102:.\main.c      **** ********************************************************************************
 103:.\main.c      **** * Summary:
 104:.\main.c      **** *        System entrance point. This calls the BLE routine functions as well as
 105:.\main.c      **** * function for handling CapSense Proximity changes
 106:.\main.c      **** *
 107:.\main.c      **** * Parameters:
 108:.\main.c      **** *  void
 109:.\main.c      **** *
 110:.\main.c      **** * Return:
 111:.\main.c      **** *  int
 112:.\main.c      **** *
 113:.\main.c      **** 
 114:.\main.c      **** *******************************************************************************/
 115:.\main.c      **** int main()
 116:.\main.c      **** {
  38              		.loc 1 116 0
  39              		.cfi_startproc
  40 0000 80B5     		push	{r7, lr}
  41              		.cfi_def_cfa_offset 8
  42              		.cfi_offset 7, -8
  43              		.cfi_offset 14, -4
  44 0002 00AF     		add	r7, sp, #0
  45              		.cfi_def_cfa_register 7
 117:.\main.c      ****     /* This function will initialize the system resources such as BLE and CapSense */
 118:.\main.c      **** 	InitializeSystem();
  46              		.loc 1 118 0
  47 0004 FFF7FEFF 		bl	InitializeSystem
 119:.\main.c      **** 	 currentTimestamp = WatchdogTimer_GetTimestamp(); 
  48              		.loc 1 119 0
  49 0008 FFF7FEFF 		bl	WatchdogTimer_GetTimestamp
  50 000c 021C     		mov	r2, r0
  51 000e 354B     		ldr	r3, .L13
  52 0010 1A60     		str	r2, [r3]
ARM GAS  C:\Users\TANUSH~1\AppData\Local\Temp\ccOaGfgQ.s 			page 4


  53              	.L12:
 120:.\main.c      ****     for(;;)
 121:.\main.c      ****     {
 122:.\main.c      **** 		/*Process Event callback to handle BLE events. The events generated and 
 123:.\main.c      **** 		* used for this application are inside the 'CustomEventHandler' routine*/
 124:.\main.c      **** 		CyBle_ProcessEvents();
  54              		.loc 1 124 0
  55 0012 FFF7FEFF 		bl	CyBle_ProcessEvents
 125:.\main.c      **** 		
 126:.\main.c      **** 		/* Function to handle LED status depending on BLE state */
 127:.\main.c      **** 		HandleStatusLED();
  56              		.loc 1 127 0
  57 0016 FFF7FEFF 		bl	HandleStatusLED
 128:.\main.c      **** 		
 129:.\main.c      **** 		/* Handle proximity data and CCCD value update only if BLE device is connected */
 130:.\main.c      **** 		if(TRUE == deviceConnected) 
  58              		.loc 1 130 0
  59 001a 334B     		ldr	r3, .L13+4
  60 001c 1B78     		ldrb	r3, [r3]
  61 001e 012B     		cmp	r3, #1
  62 0020 12D1     		bne	.L2
 131:.\main.c      **** 		{	
 132:.\main.c      **** 			/* When the Client Characteristic Configuration descriptor (CCCD) is written
 133:.\main.c      **** 			* by Central device for enabling/disabling notifications, then the same
 134:.\main.c      **** 			* descriptor value has to be explicitly updated in application so that
 135:.\main.c      **** 			* it reflects the correct value when the descriptor is read */
 136:.\main.c      **** 			UpdateNotificationCCCD();
  63              		.loc 1 136 0
  64 0022 FFF7FEFF 		bl	UpdateNotificationCCCD
 137:.\main.c      **** 			
 138:.\main.c      **** 			/* If CapSense Initialize Baseline API has not been called yet, call the
 139:.\main.c      **** 			* API and reset the flag. */
 140:.\main.c      **** 			if(initializeCapSenseBaseline)
  65              		.loc 1 140 0
  66 0026 314B     		ldr	r3, .L13+8
  67 0028 1B78     		ldrb	r3, [r3]
  68 002a 002B     		cmp	r3, #0
  69 002c 04D0     		beq	.L3
 141:.\main.c      **** 			{
 142:.\main.c      **** 				/* Reset 'initializeCapSenseBaseline' flag*/
 143:.\main.c      **** 				initializeCapSenseBaseline = FALSE;
  70              		.loc 1 143 0
  71 002e 2F4B     		ldr	r3, .L13+8
  72 0030 0022     		mov	r2, #0
  73 0032 1A70     		strb	r2, [r3]
 144:.\main.c      **** 				
 145:.\main.c      **** 				/* Initialize all CapSense Baseline */
 146:.\main.c      **** 				CapSense_InitializeAllBaselines();
  74              		.loc 1 146 0
  75 0034 FFF7FEFF 		bl	CapSense_InitializeAllBaselines
  76              	.L3:
 147:.\main.c      **** 			}
 148:.\main.c      **** 			
 149:.\main.c      **** 			/* Send proximity data when notifications are enabled */
 150:.\main.c      **** 			if(startNotification & CCCD_NTF_BIT_MASK)
  77              		.loc 1 150 0
  78 0038 2D4B     		ldr	r3, .L13+12
ARM GAS  C:\Users\TANUSH~1\AppData\Local\Temp\ccOaGfgQ.s 			page 5


  79 003a 1B78     		ldrb	r3, [r3]
  80 003c 1A1C     		mov	r2, r3
  81 003e 0123     		mov	r3, #1
  82 0040 1340     		and	r3, r2
  83 0042 01D0     		beq	.L2
 151:.\main.c      **** 			{
 152:.\main.c      **** 				/*Check for CapSense proximity change and report to BLE central device*/
 153:.\main.c      **** 				HandleCapSenseProximity();
  84              		.loc 1 153 0
  85 0044 FFF7FEFF 		bl	HandleCapSenseProximity
  86              	.L2:
 154:.\main.c      **** 			}
 155:.\main.c      **** 		}
 156:.\main.c      **** 
 157:.\main.c      **** 		if(restartAdvertisement)
  87              		.loc 1 157 0
  88 0048 2A4B     		ldr	r3, .L13+16
  89 004a 1B78     		ldrb	r3, [r3]
  90 004c 002B     		cmp	r3, #0
  91 004e 06D0     		beq	.L4
 158:.\main.c      **** 		{
 159:.\main.c      **** 			/* Reset 'restartAdvertisement' flag*/
 160:.\main.c      **** 			restartAdvertisement = FALSE;
  92              		.loc 1 160 0
  93 0050 284B     		ldr	r3, .L13+16
  94 0052 0022     		mov	r2, #0
  95 0054 1A70     		strb	r2, [r3]
 161:.\main.c      **** 			
 162:.\main.c      **** 			/* Start Advertisement and enter Discoverable mode*/
 163:.\main.c      **** 			CyBle_GappStartAdvertisement(CYBLE_ADVERTISING_FAST);	
  96              		.loc 1 163 0
  97 0056 0020     		mov	r0, #0
  98 0058 FFF7FEFF 		bl	CyBle_GappStartAdvertisement
 164:.\main.c      **** 		}
 165:.\main.c      ****          /* Try to stay in low power mode until the next watchdog interrupt */
 166:.\main.c      ****         while(WatchdogTimer_GetTimestamp() == currentTimestamp)
  99              		.loc 1 166 0
 100 005c 2CE0     		b	.L5
 101              	.L4:
 102 005e 2BE0     		b	.L5
 103              	.L10:
 167:.\main.c      ****         {
 168:.\main.c      ****             /* Process any pending BLE events */
 169:.\main.c      ****             CyBle_ProcessEvents();
 104              		.loc 1 169 0
 105 0060 FFF7FEFF 		bl	CyBle_ProcessEvents
 170:.\main.c      ****             
 171:.\main.c      ****             /* The idea of low power operation is to first request the BLE 
 172:.\main.c      ****              * block go to Deep Sleep, and then check whether it actually
 173:.\main.c      ****              * entered Deep Sleep. This is important because the BLE block
 174:.\main.c      ****              * runs asynchronous to the rest of the application and thus
 175:.\main.c      ****              * could be busy/idle independent of the application state. 
 176:.\main.c      ****              * 
 177:.\main.c      ****              * Once the BLE block is in Deep Sleep, only then the system 
 178:.\main.c      ****              * can enter Deep Sleep. This is important to maintain the BLE 
 179:.\main.c      ****              * connection alive while being in Deep Sleep.
 180:.\main.c      ****              */
ARM GAS  C:\Users\TANUSH~1\AppData\Local\Temp\ccOaGfgQ.s 			page 6


 181:.\main.c      **** 
 182:.\main.c      ****             
 183:.\main.c      ****             /* Request the BLE block to enter Deep Sleep */
 184:.\main.c      ****             bleMode = CyBle_EnterLPM(CYBLE_BLESS_DEEPSLEEP);
 106              		.loc 1 184 0
 107 0064 0320     		mov	r0, #3
 108 0066 FFF7FEFF 		bl	CyBle_EnterLPM
 109 006a 031C     		mov	r3, r0
 110 006c 1A1C     		mov	r2, r3
 111 006e 224B     		ldr	r3, .L13+20
 112 0070 1A70     		strb	r2, [r3]
 185:.\main.c      **** 
 186:.\main.c      ****             
 187:.\main.c      ****             /* Check if the BLE block entered Deep Sleep and if so, then the 
 188:.\main.c      ****              * system can enter Deep Sleep. This is done inside a Critical 
 189:.\main.c      ****              * Section (where global interrupts are disabled) to avoid a 
 190:.\main.c      ****              * race condition between application main (that wants to go to 
 191:.\main.c      ****              * Deep Sleep) and other interrupts (which keep the device from 
 192:.\main.c      ****              * going to Deep Sleep). 
 193:.\main.c      ****              */
 194:.\main.c      ****             interruptStatus = CyEnterCriticalSection();
 113              		.loc 1 194 0
 114 0072 FFF7FEFF 		bl	CyEnterCriticalSection
 115 0076 031C     		mov	r3, r0
 116 0078 1A1C     		mov	r2, r3
 117 007a 204B     		ldr	r3, .L13+24
 118 007c 1A70     		strb	r2, [r3]
 195:.\main.c      ****             
 196:.\main.c      ****             /* Check if the BLE block entered Deep Sleep */
 197:.\main.c      ****             if(CYBLE_BLESS_DEEPSLEEP == bleMode)
 119              		.loc 1 197 0
 120 007e 1E4B     		ldr	r3, .L13+20
 121 0080 1B78     		ldrb	r3, [r3]
 122 0082 032B     		cmp	r3, #3
 123 0084 0CD1     		bne	.L6
 198:.\main.c      ****             {
 199:.\main.c      ****                 /* Check the current state of BLE - System can enter Deep Sleep
 200:.\main.c      ****                  * only when the BLE block is starting the ECO (during 
 201:.\main.c      ****                  * pre-processing for a new connection event) or when it is 
 202:.\main.c      ****                  * idle.
 203:.\main.c      ****                  */
 204:.\main.c      ****                 if((CyBle_GetBleSsState() == CYBLE_BLESS_STATE_ECO_ON) ||
 124              		.loc 1 204 0
 125 0086 FFF7FEFF 		bl	CyBle_GetBleSsState
 126 008a 031C     		mov	r3, r0
 127 008c 042B     		cmp	r3, #4
 128 008e 04D0     		beq	.L7
 205:.\main.c      ****                    (CyBle_GetBleSsState() == CYBLE_BLESS_STATE_DEEPSLEEP))
 129              		.loc 1 205 0 discriminator 1
 130 0090 FFF7FEFF 		bl	CyBle_GetBleSsState
 131 0094 031C     		mov	r3, r0
 204:.\main.c      ****                 if((CyBle_GetBleSsState() == CYBLE_BLESS_STATE_ECO_ON) ||
 132              		.loc 1 204 0 discriminator 1
 133 0096 062B     		cmp	r3, #6
 134 0098 09D1     		bne	.L9
 135              	.L7:
 206:.\main.c      ****                 {
ARM GAS  C:\Users\TANUSH~1\AppData\Local\Temp\ccOaGfgQ.s 			page 7


 207:.\main.c      ****                     CySysPmDeepSleep();
 136              		.loc 1 207 0
 137 009a FFF7FEFF 		bl	CySysPmDeepSleep
 138 009e 06E0     		b	.L9
 139              	.L6:
 208:.\main.c      ****                 }
 209:.\main.c      ****             }
 210:.\main.c      ****             /* The else condition signifies that the BLE block cannot enter 
 211:.\main.c      ****              * Deep Sleep and is in Active mode.  
 212:.\main.c      ****              */
 213:.\main.c      ****             else
 214:.\main.c      ****             {
 215:.\main.c      ****                 /* At this point, the CPU can enter Sleep, but Deep Sleep is not
 216:.\main.c      ****                  * allowed. 
 217:.\main.c      ****                  * There is one exception - at a connection event, when the BLE 
 218:.\main.c      ****                  * Rx/Tx has just finished, and the post processing for the 
 219:.\main.c      ****                  * connection event is ongoing, the CPU cannot go to sleep.
 220:.\main.c      ****                  * The CPU should wait in Active mode until the post processing 
 221:.\main.c      ****                  * is complete while continuously polling the BLE low power 
 222:.\main.c      ****                  * entry. As soon as post processing is complete, the BLE block 
 223:.\main.c      ****                  * would enter Deep Sleep (because of the polling) and the 
 224:.\main.c      ****                  * system Deep Sleep would then be entered. Deep Sleep is the 
 225:.\main.c      ****                  * preferred low power mode since it takes much lesser current.
 226:.\main.c      ****                  */
 227:.\main.c      ****                 if(CyBle_GetBleSsState() != CYBLE_BLESS_STATE_EVENT_CLOSE)
 140              		.loc 1 227 0
 141 00a0 FFF7FEFF 		bl	CyBle_GetBleSsState
 142 00a4 031C     		mov	r3, r0
 143 00a6 022B     		cmp	r3, #2
 144 00a8 01D0     		beq	.L9
 228:.\main.c      ****                 {
 229:.\main.c      ****                     CySysPmSleep();
 145              		.loc 1 229 0
 146 00aa FFF7FEFF 		bl	CySysPmSleep
 147              	.L9:
 230:.\main.c      ****                 }
 231:.\main.c      ****             }
 232:.\main.c      ****             
 233:.\main.c      ****             /* Exit Critical section - Global interrupts are enabled again */
 234:.\main.c      ****             CyExitCriticalSection(interruptStatus);
 148              		.loc 1 234 0
 149 00ae 134B     		ldr	r3, .L13+24
 150 00b0 1B78     		ldrb	r3, [r3]
 151 00b2 181C     		mov	r0, r3
 152 00b4 FFF7FEFF 		bl	CyExitCriticalSection
 153              	.L5:
 166:.\main.c      ****         while(WatchdogTimer_GetTimestamp() == currentTimestamp)
 154              		.loc 1 166 0 discriminator 1
 155 00b8 FFF7FEFF 		bl	WatchdogTimer_GetTimestamp
 156 00bc 021C     		mov	r2, r0
 157 00be 094B     		ldr	r3, .L13
 158 00c0 1B68     		ldr	r3, [r3]
 159 00c2 9A42     		cmp	r2, r3
 160 00c4 CCD0     		beq	.L10
 235:.\main.c      ****         }
 236:.\main.c      **** 
 237:.\main.c      ****         /* Hibernate entry point - Hibernate is entered upon a BLE disconnect
ARM GAS  C:\Users\TANUSH~1\AppData\Local\Temp\ccOaGfgQ.s 			page 8


 238:.\main.c      ****          * event or advertisement timeout. Wakeup happens via SW2 switch press, 
 239:.\main.c      ****          * upon which the execution starts from the first line of code. 
 240:.\main.c      ****          * The I/O state, RAM and UDBs are retained during Hibernate.
 241:.\main.c      ****          */
 242:.\main.c      ****         if(enterHibernateFlag)
 161              		.loc 1 242 0
 162 00c6 0E4B     		ldr	r3, .L13+28
 163 00c8 1B78     		ldrb	r3, [r3]
 164 00ca 002B     		cmp	r3, #0
 165 00cc 08D0     		beq	.L11
 243:.\main.c      ****         {
 244:.\main.c      ****             /* Stop the BLE component */
 245:.\main.c      ****             CyBle_Stop();
 166              		.loc 1 245 0
 167 00ce FFF7FEFF 		bl	CyBle_Stop
 246:.\main.c      ****             
 247:.\main.c      ****             /* Enable the Hibernate wakeup functionality */
 248:.\main.c      ****             SW2_Switch_ClearInterrupt();
 168              		.loc 1 248 0
 169 00d2 FFF7FEFF 		bl	SW2_Switch_ClearInterrupt
 249:.\main.c      ****             Wakeup_ISR_Start();
 170              		.loc 1 249 0
 171 00d6 FFF7FEFF 		bl	Wakeup_ISR_Start
 250:.\main.c      ****             
 251:.\main.c      ****             
 252:.\main.c      ****             
 253:.\main.c      ****             /* Enter hibernate mode */
 254:.\main.c      ****             CySysPmHibernate();
 172              		.loc 1 254 0
 173 00da FFF7FEFF 		bl	CySysPmHibernate
 255:.\main.c      ****         }
 256:.\main.c      ****     }	/* This is end of for(;;) */
 174              		.loc 1 256 0
 175 00de 98E7     		b	.L12
 176              	.L11:
 177 00e0 97E7     		b	.L12
 178              	.L14:
 179 00e2 C046     		.align	2
 180              	.L13:
 181 00e4 00000000 		.word	currentTimestamp
 182 00e8 00000000 		.word	deviceConnected
 183 00ec 00000000 		.word	initializeCapSenseBaseline
 184 00f0 00000000 		.word	startNotification
 185 00f4 00000000 		.word	restartAdvertisement
 186 00f8 00000000 		.word	bleMode
 187 00fc 00000000 		.word	interruptStatus
 188 0100 00000000 		.word	enterHibernateFlag
 189              		.cfi_endproc
 190              	.LFE35:
 191              		.size	main, .-main
 192              		.section	.text.InitializeSystem,"ax",%progbits
 193              		.align	2
 194              		.global	InitializeSystem
 195              		.code	16
 196              		.thumb_func
 197              		.type	InitializeSystem, %function
 198              	InitializeSystem:
ARM GAS  C:\Users\TANUSH~1\AppData\Local\Temp\ccOaGfgQ.s 			page 9


 199              	.LFB36:
 257:.\main.c      **** }
 258:.\main.c      **** 
 259:.\main.c      **** /*******************************************************************************
 260:.\main.c      **** * Function Name: InitializeSystem
 261:.\main.c      **** ********************************************************************************
 262:.\main.c      **** * Summary:
 263:.\main.c      **** *        Starts the components and initializes CapSense baselines
 264:.\main.c      **** *
 265:.\main.c      **** * Parameters:
 266:.\main.c      **** *  void
 267:.\main.c      **** *
 268:.\main.c      **** * Return:
 269:.\main.c      **** *  void
 270:.\main.c      **** *
 271:.\main.c      **** 
 272:.\main.c      **** *******************************************************************************/
 273:.\main.c      **** void InitializeSystem(void)
 274:.\main.c      **** {
 200              		.loc 1 274 0
 201              		.cfi_startproc
 202 0000 80B5     		push	{r7, lr}
 203              		.cfi_def_cfa_offset 8
 204              		.cfi_offset 7, -8
 205              		.cfi_offset 14, -4
 206 0002 00AF     		add	r7, sp, #0
 207              		.cfi_def_cfa_register 7
 275:.\main.c      **** 	/* Enable global interrupt mask */
 276:.\main.c      **** 	CyGlobalIntEnable;
 208              		.loc 1 276 0
 209              	@ 276 ".\main.c" 1
 210 0004 62B6     		CPSIE   i
 211              	@ 0 "" 2
 277:.\main.c      **** 
 278:.\main.c      **** 	/* Start BLE component and register the CustomEventHandler function. This 
 279:.\main.c      **** 	* function exposes the events from BLE component for application use */
 280:.\main.c      **** 	CyBle_Start(CustomEventHandler);					
 212              		.loc 1 280 0
 213              		.code	16
 214 0006 084B     		ldr	r3, .L16
 215 0008 181C     		mov	r0, r3
 216 000a FFF7FEFF 		bl	CyBle_Start
 281:.\main.c      **** 	
 282:.\main.c      **** 	/* Set drive mode of the status LED pin to Strong*/
 283:.\main.c      **** 	Status_LED_SetDriveMode(Status_LED_DM_STRONG);	
 217              		.loc 1 283 0
 218 000e 0620     		mov	r0, #6
 219 0010 FFF7FEFF 		bl	Status_LED_SetDriveMode
 284:.\main.c      **** 	
 285:.\main.c      **** 	#ifdef CAPSENSE_ENABLED
 286:.\main.c      **** 	/* Enable the proximity widget explicitly and start CapSense component. 
 287:.\main.c      **** 	* Initialization of the baseline is done when the first connection 
 288:.\main.c      **** 	* happens  */
 289:.\main.c      **** 	CapSense_EnableWidget(CapSense_PROXIMITYSENSOR0__PROX);
 220              		.loc 1 289 0
 221 0014 0020     		mov	r0, #0
 222 0016 FFF7FEFF 		bl	CapSense_EnableWidget
ARM GAS  C:\Users\TANUSH~1\AppData\Local\Temp\ccOaGfgQ.s 			page 10


 290:.\main.c      **** 	CapSense_Start();
 223              		.loc 1 290 0
 224 001a FFF7FEFF 		bl	CapSense_Start
 291:.\main.c      ****     WatchdogTimer_Start();
 225              		.loc 1 291 0
 226 001e FFF7FEFF 		bl	WatchdogTimer_Start
 292:.\main.c      **** 	#endif
 293:.\main.c      **** 		
 294:.\main.c      **** }
 227              		.loc 1 294 0
 228 0022 BD46     		mov	sp, r7
 229              		@ sp needed
 230 0024 80BD     		pop	{r7, pc}
 231              	.L17:
 232 0026 C046     		.align	2
 233              	.L16:
 234 0028 00000000 		.word	CustomEventHandler
 235              		.cfi_endproc
 236              	.LFE36:
 237              		.size	InitializeSystem, .-InitializeSystem
 238              		.section	.text.HandleCapSenseProximity,"ax",%progbits
 239              		.align	2
 240              		.global	HandleCapSenseProximity
 241              		.code	16
 242              		.thumb_func
 243              		.type	HandleCapSenseProximity, %function
 244              	HandleCapSenseProximity:
 245              	.LFB37:
 295:.\main.c      **** 
 296:.\main.c      **** /*******************************************************************************
 297:.\main.c      **** * Function Name: HandleCapSenseProximity
 298:.\main.c      **** ********************************************************************************
 299:.\main.c      **** * Summary:
 300:.\main.c      **** *       Read the proximity data from the sensor and update the BLE
 301:.\main.c      **** *		custom notification value.
 302:.\main.c      **** *
 303:.\main.c      **** * Parameters:
 304:.\main.c      **** *  void
 305:.\main.c      **** *
 306:.\main.c      **** * Return:
 307:.\main.c      **** *  void
 308:.\main.c      **** *
 309:.\main.c      **** *******************************************************************************/
 310:.\main.c      **** void HandleCapSenseProximity(void)
 311:.\main.c      **** {
 246              		.loc 1 311 0
 247              		.cfi_startproc
 248 0000 90B5     		push	{r4, r7, lr}
 249              		.cfi_def_cfa_offset 12
 250              		.cfi_offset 4, -12
 251              		.cfi_offset 7, -8
 252              		.cfi_offset 14, -4
 253 0002 83B0     		sub	sp, sp, #12
 254              		.cfi_def_cfa_offset 24
 255 0004 00AF     		add	r7, sp, #0
 256              		.cfi_def_cfa_register 7
 312:.\main.c      **** 	#ifdef CAPSENSE_ENABLED
ARM GAS  C:\Users\TANUSH~1\AppData\Local\Temp\ccOaGfgQ.s 			page 11


 313:.\main.c      **** 	/* Static variable used as counter for reading the new proximity value */
 314:.\main.c      **** 	static uint16 proxCounter = TRUE;			
 315:.\main.c      **** 				
 316:.\main.c      **** 	/* 'proximityValue' stores the proximity value read from CapSense component */
 317:.\main.c      **** 	uint8 proximityValue;	
 318:.\main.c      **** 		
 319:.\main.c      **** 	/* Check if proxCounter has reached its counting value */
 320:.\main.c      **** 	if(FALSE == (--proxCounter))			
 257              		.loc 1 320 0
 258 0006 134B     		ldr	r3, .L21
 259 0008 1B88     		ldrh	r3, [r3]
 260 000a 013B     		sub	r3, r3, #1
 261 000c 9AB2     		uxth	r2, r3
 262 000e 114B     		ldr	r3, .L21
 263 0010 1A80     		strh	r2, [r3]
 264 0012 104B     		ldr	r3, .L21
 265 0014 1B88     		ldrh	r3, [r3]
 266 0016 002B     		cmp	r3, #0
 267 0018 18D1     		bne	.L18
 321:.\main.c      **** 	{
 322:.\main.c      **** 		/* Set 'proxCounter' to the PROX_COUNTER_VALUE. This counter prevents sending 
 323:.\main.c      **** 		   of large number of CapSense proximity data to BLE Central device */
 324:.\main.c      **** 		proxCounter = PROX_COUNTER_VALUE;
 268              		.loc 1 324 0
 269 001a 0E4B     		ldr	r3, .L21
 270 001c 0522     		mov	r2, #5
 271 001e 1A80     		strh	r2, [r3]
 325:.\main.c      **** 
 326:.\main.c      **** 		/* Scan the Proximity Widget */
 327:.\main.c      **** 		CapSense_ScanWidget(CapSense_PROXIMITYSENSOR0__PROX);				
 272              		.loc 1 327 0
 273 0020 0020     		mov	r0, #0
 274 0022 FFF7FEFF 		bl	CapSense_ScanWidget
 328:.\main.c      **** 		
 329:.\main.c      **** 		/* Wait for CapSense scanning to be complete. This could take about 5 ms */
 330:.\main.c      **** 		while(CapSense_IsBusy())
 275              		.loc 1 330 0
 276 0026 C046     		mov	r8, r8
 277              	.L20:
 278              		.loc 1 330 0 is_stmt 0 discriminator 1
 279 0028 FFF7FEFF 		bl	CapSense_IsBusy
 280 002c 031C     		mov	r3, r0
 281 002e 002B     		cmp	r3, #0
 282 0030 FAD1     		bne	.L20
 331:.\main.c      **** 		{
 332:.\main.c      **** 		}
 333:.\main.c      **** 		
 334:.\main.c      **** 		/* Update CapSense Baseline */
 335:.\main.c      **** 		CapSense_UpdateEnabledBaselines();			
 283              		.loc 1 335 0 is_stmt 1
 284 0032 FFF7FEFF 		bl	CapSense_UpdateEnabledBaselines
 336:.\main.c      **** 
 337:.\main.c      **** 		/* Get the Diffcount between proximity raw data and baseline */
 338:.\main.c      **** 		proximityValue = CapSense_GetDiffCountData(CapSense_PROXIMITYSENSOR0__PROX);
 285              		.loc 1 338 0
 286 0036 FC1D     		add	r4, r7, #7
 287 0038 0020     		mov	r0, #0
ARM GAS  C:\Users\TANUSH~1\AppData\Local\Temp\ccOaGfgQ.s 			page 12


 288 003a FFF7FEFF 		bl	CapSense_GetDiffCountData
 289 003e 031C     		mov	r3, r0
 290 0040 2370     		strb	r3, [r4]
 339:.\main.c      **** 		
 340:.\main.c      **** 		/* Send the proximity data to BLE central device by notifications*/
 341:.\main.c      **** 		SendDataOverCapSenseNotification(proximityValue);
 291              		.loc 1 341 0
 292 0042 FB1D     		add	r3, r7, #7
 293 0044 1B78     		ldrb	r3, [r3]
 294 0046 181C     		mov	r0, r3
 295 0048 FFF7FEFF 		bl	SendDataOverCapSenseNotification
 296              	.L18:
 342:.\main.c      **** 			
 343:.\main.c      **** 	}
 344:.\main.c      **** 	#endif
 345:.\main.c      **** }
 297              		.loc 1 345 0
 298 004c BD46     		mov	sp, r7
 299 004e 03B0     		add	sp, sp, #12
 300              		@ sp needed
 301 0050 90BD     		pop	{r4, r7, pc}
 302              	.L22:
 303 0052 C046     		.align	2
 304              	.L21:
 305 0054 02000000 		.word	proxCounter.6633
 306              		.cfi_endproc
 307              	.LFE37:
 308              		.size	HandleCapSenseProximity, .-HandleCapSenseProximity
 309              		.data
 310 0001 00       		.align	1
 311              		.type	proxCounter.6633, %object
 312              		.size	proxCounter.6633, 2
 313              	proxCounter.6633:
 314 0002 0100     		.short	1
 315              		.text
 316              	.Letext0:
 317              		.file 2 "Generated_Source\\PSoC4/cytypes.h"
 318              		.file 3 "Generated_Source\\PSoC4/BLE_Stack.h"
 319              		.file 4 "./BLEApplications.h"