Archive member included because of file (symbol)

.\CortexM0\ARM_GCC_484\Debug\BLE Lab 2.a(cyfitter_cfg.o)
                              .\CortexM0\ARM_GCC_484\Debug\Cm0Start.o (cyfitter_cfg)
.\CortexM0\ARM_GCC_484\Debug\BLE Lab 2.a(SW2_Switch.o)
                              .\CortexM0\ARM_GCC_484\Debug\main.o (SW2_Switch_ClearInterrupt)
.\CortexM0\ARM_GCC_484\Debug\BLE Lab 2.a(Wakeup_ISR.o)
                              .\CortexM0\ARM_GCC_484\Debug\main.o (Wakeup_ISR_Start)
.\CortexM0\ARM_GCC_484\Debug\BLE Lab 2.a(Led_Advertising_Green.o)
                              .\CortexM0\ARM_GCC_484\Debug\main.o (Led_Advertising_Green_Write)
.\CortexM0\ARM_GCC_484\Debug\BLE Lab 2.a(Led_Connected_Blue.o)
                              .\CortexM0\ARM_GCC_484\Debug\main.o (Led_Connected_Blue_Write)
.\CortexM0\ARM_GCC_484\Debug\BLE Lab 2.a(BLE_hrs.o)
                              .\CortexM0\ARM_GCC_484\Debug\main.o (CyBle_HrsRegisterAttrCallback)
.\CortexM0\ARM_GCC_484\Debug\BLE Lab 2.a(BLE.o)
                              .\CortexM0\ARM_GCC_484\Debug\BLE Lab 2.a(BLE_hrs.o) (CyBle_ApplCallback)
.\CortexM0\ARM_GCC_484\Debug\BLE Lab 2.a(BLE_gatt.o)
                              .\CortexM0\ARM_GCC_484\Debug\BleProcessing.o (cyBle_state)
.\CortexM0\ARM_GCC_484\Debug\BLE Lab 2.a(BLE_eventHandler.o)
                              .\CortexM0\ARM_GCC_484\Debug\BleProcessing.o (cyBle_connHandle)
.\CortexM0\ARM_GCC_484\Debug\BLE Lab 2.a(BLE_dis.o)
                              .\CortexM0\ARM_GCC_484\Debug\BLE Lab 2.a(BLE.o) (CyBle_DisInit)
.\CortexM0\ARM_GCC_484\Debug\BLE Lab 2.a(Opamp.o)
                              .\CortexM0\ARM_GCC_484\Debug\main.o (Opamp_Start)
.\CortexM0\ARM_GCC_484\Debug\BLE Lab 2.a(Opamp_PM.o)
                              .\CortexM0\ARM_GCC_484\Debug\main.o (Opamp_Sleep)
.\CortexM0\ARM_GCC_484\Debug\BLE Lab 2.a(ADC.o)
                              .\CortexM0\ARM_GCC_484\Debug\main.o (ADC_Start)
.\CortexM0\ARM_GCC_484\Debug\BLE Lab 2.a(ADC_PM.o)
                              .\CortexM0\ARM_GCC_484\Debug\main.o (ADC_Sleep)
.\CortexM0\ARM_GCC_484\Debug\BLE Lab 2.a(ADC_INT.o)
                              .\CortexM0\ARM_GCC_484\Debug\BLE Lab 2.a(ADC.o) (ADC_ISR)
.\CortexM0\ARM_GCC_484\Debug\BLE Lab 2.a(CyBootAsmGnu.o)
                              .\CortexM0\ARM_GCC_484\Debug\BLE Lab 2.a(cyfitter_cfg.o) (CyDelayCycles)
.\CortexM0\ARM_GCC_484\Debug\BLE Lab 2.a(CyLib.o)
                              .\CortexM0\ARM_GCC_484\Debug\BLE Lab 2.a(cyfitter_cfg.o) (CySysClkWriteImoFreq)
.\CortexM0\ARM_GCC_484\Debug\BLE Lab 2.a(cyPm.o)
                              .\CortexM0\ARM_GCC_484\Debug\main.o (CySysPmSleep)
.\CortexM0\ARM_GCC_484\Debug\BLE Lab 2.a(CyLFClk.o)
                              .\CortexM0\ARM_GCC_484\Debug\BLE Lab 2.a(cyfitter_cfg.o) (CySysClkWcoStart)
D:\program\CY8\PSoC Creator\3.2\PSoC Creator\psoc\content\cycomponentlibrary\CyComponentLibrary.cylib\BLE_v2_0\Library\gccCyBLEStack_BLE_SOC_PERIPHERAL.a(CyBle.o)
                              .\CortexM0\ARM_GCC_484\Debug\main.o (CyBle_EnterLPM)
D:\program\CY8\PSoC Creator\3.2\PSoC Creator\psoc\content\cycomponentlibrary\CyComponentLibrary.cylib\BLE_v2_0\Library\gccCyBLEStack_BLE_SOC_PERIPHERAL.a(CyBleStackMgrIP_Interface.o)
                              D:\program\CY8\PSoC Creator\3.2\PSoC Creator\psoc\content\cycomponentlibrary\CyComponentLibrary.cylib\BLE_v2_0\Library\gccCyBLEStack_BLE_SOC_PERIPHERAL.a(CyBle.o) (CyBleStackMgr_Init)
D:\program\CY8\PSoC Creator\3.2\PSoC Creator\psoc\content\cycomponentlibrary\CyComponentLibrary.cylib\BLE_v2_0\Library\gccCyBLEStack_BLE_SOC_PERIPHERAL.a(BT_os.o)
                              D:\program\CY8\PSoC Creator\3.2\PSoC Creator\psoc\content\cycomponentlibrary\CyComponentLibrary.cylib\BLE_v2_0\Library\gccCyBLEStack_BLE_SOC_PERIPHERAL.a(CyBleStackMgrIP_Interface.o) (cyBleStackMemoryConfig)
D:\program\CY8\PSoC Creator\3.2\PSoC Creator\psoc\content\cycomponentlibrary\CyComponentLibrary.cylib\BLE_v2_0\Library\gccCyBLEStack_BLE_SOC_PERIPHERAL.a(CyBleStackMgr_StackTaskHandler.o)
                              D:\program\CY8\PSoC Creator\3.2\PSoC Creator\psoc\content\cycomponentlibrary\CyComponentLibrary.cylib\BLE_v2_0\Library\gccCyBLEStack_BLE_SOC_PERIPHERAL.a(CyBleStackMgrIP_Interface.o) (CyBle_CreateBleStackTask)
D:\program\CY8\PSoC Creator\3.2\PSoC Creator\psoc\content\cycomponentlibrary\CyComponentLibrary.cylib\BLE_v2_0\Library\gccCyBLEStack_BLE_SOC_PERIPHERAL.a(transport_sf.o)
                              D:\program\CY8\PSoC Creator\3.2\PSoC Creator\psoc\content\cycomponentlibrary\CyComponentLibrary.cylib\BLE_v2_0\Library\gccCyBLEStack_BLE_SOC_PERIPHERAL.a(CyBleStackMgr_StackTaskHandler.o) (hci_soft_transport_notify_data_received)
D:\program\CY8\PSoC Creator\3.2\PSoC Creator\psoc\content\cycomponentlibrary\CyComponentLibrary.cylib\BLE_v2_0\Library\gccCyBLEStack_BLE_SOC_PERIPHERAL.a(CyBleStackMgr_PSoCHal.o)
                              D:\program\CY8\PSoC Creator\3.2\PSoC Creator\psoc\content\cycomponentlibrary\CyComponentLibrary.cylib\BLE_v2_0\Library\gccCyBLEStack_BLE_SOC_PERIPHERAL.a(CyBleStackMgrIP_Interface.o) (CyBleStackMgr_HalInit)
D:\program\CY8\PSoC Creator\3.2\PSoC Creator\psoc\content\cycomponentlibrary\CyComponentLibrary.cylib\BLE_v2_0\Library\gccCyBLEStack_BLE_SOC_PERIPHERAL.a(CyBleStackMgr_BleSSDriver.o)
                              D:\program\CY8\PSoC Creator\3.2\PSoC Creator\psoc\content\cycomponentlibrary\CyComponentLibrary.cylib\BLE_v2_0\Library\gccCyBLEStack_BLE_SOC_PERIPHERAL.a(CyBleStackMgrIP_Interface.o) (CyBleStackMgr_BleSSInit)
D:\program\CY8\PSoC Creator\3.2\PSoC Creator\psoc\content\cycomponentlibrary\CyComponentLibrary.cylib\BLE_v2_0\Library\gccCyBLEStack_BLE_SOC_PERIPHERAL.a(config_bin.o)
                              D:\program\CY8\PSoC Creator\3.2\PSoC Creator\psoc\content\cycomponentlibrary\CyComponentLibrary.cylib\BLE_v2_0\Library\gccCyBLEStack_BLE_SOC_PERIPHERAL.a(CyBleStackMgr_PSoCHal.o) (bt_cfg_pdata)
D:\program\CY8\PSoC Creator\3.2\PSoC Creator\psoc\content\cycomponentlibrary\CyComponentLibrary.cylib\BLE_v2_0\Library\gccCyBLEStack_BLE_SOC_PERIPHERAL.a(mint_os.o)
                              D:\program\CY8\PSoC Creator\3.2\PSoC Creator\psoc\content\cycomponentlibrary\CyComponentLibrary.cylib\BLE_v2_0\Library\gccCyBLEStack_BLE_SOC_PERIPHERAL.a(CyBleStackMgrIP_Interface.o) (OS_init)
D:\program\CY8\PSoC Creator\3.2\PSoC Creator\psoc\content\cycomponentlibrary\CyComponentLibrary.cylib\BLE_v2_0\Library\gccCyBLEStack_BLE_SOC_PERIPHERAL.a(mint_os_queue.o)
                              D:\program\CY8\PSoC Creator\3.2\PSoC Creator\psoc\content\cycomponentlibrary\CyComponentLibrary.cylib\BLE_v2_0\Library\gccCyBLEStack_BLE_SOC_PERIPHERAL.a(mint_os.o) (OS_TOTAL_QUEUES)
D:\program\CY8\PSoC Creator\3.2\PSoC Creator\psoc\content\cycomponentlibrary\CyComponentLibrary.cylib\BLE_v2_0\Library\gccCyBLEStack_BLE_SOC_PERIPHERAL.a(mint_os_task.o)
                              D:\program\CY8\PSoC Creator\3.2\PSoC Creator\psoc\content\cycomponentlibrary\CyComponentLibrary.cylib\BLE_v2_0\Library\gccCyBLEStack_BLE_SOC_PERIPHERAL.a(mint_os.o) (idle_func_handler)
D:\program\CY8\PSoC Creator\3.2\PSoC Creator\psoc\content\cycomponentlibrary\CyComponentLibrary.cylib\BLE_v2_0\Library\gccCyBLEStack_BLE_SOC_PERIPHERAL.a(mint_buf_mgmt.o)
                              D:\program\CY8\PSoC Creator\3.2\PSoC Creator\psoc\content\cycomponentlibrary\CyComponentLibrary.cylib\BLE_v2_0\Library\gccCyBLEStack_BLE_SOC_PERIPHERAL.a(BT_os.o) (mint_buf_mgmt_allocate_buffer)
D:\program\CY8\PSoC Creator\3.2\PSoC Creator\psoc\content\cycomponentlibrary\CyComponentLibrary.cylib\BLE_v2_0\Library\gccCyBLEStack_BLE_SOC_PERIPHERAL.a(CyBleControllerIP_Interface.o)
                              D:\program\CY8\PSoC Creator\3.2\PSoC Creator\psoc\content\cycomponentlibrary\CyComponentLibrary.cylib\BLE_v2_0\Library\gccCyBLEStack_BLE_SOC_PERIPHERAL.a(CyBleStackMgr_PSoCHal.o) (bt_config)
D:\program\CY8\PSoC Creator\3.2\PSoC Creator\psoc\content\cycomponentlibrary\CyComponentLibrary.cylib\BLE_v2_0\Library\gccCyBLEStack_BLE_SOC_PERIPHERAL.a(ll.o)
                              D:\program\CY8\PSoC Creator\3.2\PSoC Creator\psoc\content\cycomponentlibrary\CyComponentLibrary.cylib\BLE_v2_0\Library\gccCyBLEStack_BLE_SOC_PERIPHERAL.a(CyBleControllerIP_Interface.o) (ll_self_device_data)
D:\program\CY8\PSoC Creator\3.2\PSoC Creator\psoc\content\cycomponentlibrary\CyComponentLibrary.cylib\BLE_v2_0\Library\gccCyBLEStack_BLE_SOC_PERIPHERAL.a(ll_advertiser.o)
                              D:\program\CY8\PSoC Creator\3.2\PSoC Creator\psoc\content\cycomponentlibrary\CyComponentLibrary.cylib\BLE_v2_0\Library\gccCyBLEStack_BLE_SOC_PERIPHERAL.a(CyBleControllerIP_Interface.o) (CyBleControllerIP_TuneAdvEventInterPktSlots)
D:\program\CY8\PSoC Creator\3.2\PSoC Creator\psoc\content\cycomponentlibrary\CyComponentLibrary.cylib\BLE_v2_0\Library\gccCyBLEStack_BLE_SOC_PERIPHERAL.a(ll_connection.o)
                              D:\program\CY8\PSoC Creator\3.2\PSoC Creator\psoc\content\cycomponentlibrary\CyComponentLibrary.cylib\BLE_v2_0\Library\gccCyBLEStack_BLE_SOC_PERIPHERAL.a(ll.o) (bleSlDsmFix)
D:\program\CY8\PSoC Creator\3.2\PSoC Creator\psoc\content\cycomponentlibrary\CyComponentLibrary.cylib\BLE_v2_0\Library\gccCyBLEStack_BLE_SOC_PERIPHERAL.a(llh_api.o)
                              D:\program\CY8\PSoC Creator\3.2\PSoC Creator\psoc\content\cycomponentlibrary\CyComponentLibrary.cylib\BLE_v2_0\Library\gccCyBLEStack_BLE_SOC_PERIPHERAL.a(ll_advertiser.o) (ll_disable_interrupt_type)
D:\program\CY8\PSoC Creator\3.2\PSoC Creator\psoc\content\cycomponentlibrary\CyComponentLibrary.cylib\BLE_v2_0\Library\gccCyBLEStack_BLE_SOC_PERIPHERAL.a(llh_utils.o)
                              D:\program\CY8\PSoC Creator\3.2\PSoC Creator\psoc\content\cycomponentlibrary\CyComponentLibrary.cylib\BLE_v2_0\Library\gccCyBLEStack_BLE_SOC_PERIPHERAL.a(llh_api.o) (le_set_register_bit)
D:\program\CY8\PSoC Creator\3.2\PSoC Creator\psoc\content\cycomponentlibrary\CyComponentLibrary.cylib\BLE_v2_0\Library\gccCyBLEStack_BLE_SOC_PERIPHERAL.a(ll_pdu.o)
                              D:\program\CY8\PSoC Creator\3.2\PSoC Creator\psoc\content\cycomponentlibrary\CyComponentLibrary.cylib\BLE_v2_0\Library\gccCyBLEStack_BLE_SOC_PERIPHERAL.a(ll_connection.o) (ll_allocate_send_unknown_rsp_pdu)
D:\program\CY8\PSoC Creator\3.2\PSoC Creator\psoc\content\cycomponentlibrary\CyComponentLibrary.cylib\BLE_v2_0\Library\gccCyBLEStack_BLE_SOC_PERIPHERAL.a(ll_policies.o)
                              D:\program\CY8\PSoC Creator\3.2\PSoC Creator\psoc\content\cycomponentlibrary\CyComponentLibrary.cylib\BLE_v2_0\Library\gccCyBLEStack_BLE_SOC_PERIPHERAL.a(ll_advertiser.o) (ll_derive_adv_interval)
D:\program\CY8\PSoC Creator\3.2\PSoC Creator\psoc\content\cycomponentlibrary\CyComponentLibrary.cylib\BLE_v2_0\Library\gccCyBLEStack_BLE_SOC_PERIPHERAL.a(ll_tasks.o)
                              D:\program\CY8\PSoC Creator\3.2\PSoC Creator\psoc\content\cycomponentlibrary\CyComponentLibrary.cylib\BLE_v2_0\Library\gccCyBLEStack_BLE_SOC_PERIPHERAL.a(ll.o) (lastDsmExitSlot)
D:\program\CY8\PSoC Creator\3.2\PSoC Creator\psoc\content\cycomponentlibrary\CyComponentLibrary.cylib\BLE_v2_0\Library\gccCyBLEStack_BLE_SOC_PERIPHERAL.a(ll_utils.o)
                              D:\program\CY8\PSoC Creator\3.2\PSoC Creator\psoc\content\cycomponentlibrary\CyComponentLibrary.cylib\BLE_v2_0\Library\gccCyBLEStack_BLE_SOC_PERIPHERAL.a(ll.o) (ll_check_random_address_in_use)
D:\program\CY8\PSoC Creator\3.2\PSoC Creator\psoc\content\cycomponentlibrary\CyComponentLibrary.cylib\BLE_v2_0\Library\gccCyBLEStack_BLE_SOC_PERIPHERAL.a(llf_task.o)
                              D:\program\CY8\PSoC Creator\3.2\PSoC Creator\psoc\content\cycomponentlibrary\CyComponentLibrary.cylib\BLE_v2_0\Library\gccCyBLEStack_BLE_SOC_PERIPHERAL.a(ll.o) (isBleControllerLLFTFree)
D:\program\CY8\PSoC Creator\3.2\PSoC Creator\psoc\content\cycomponentlibrary\CyComponentLibrary.cylib\BLE_v2_0\Library\gccCyBLEStack_BLE_SOC_PERIPHERAL.a(lec_hci_le.o)
                              D:\program\CY8\PSoC Creator\3.2\PSoC Creator\psoc\content\cycomponentlibrary\CyComponentLibrary.cylib\BLE_v2_0\Library\gccCyBLEStack_BLE_SOC_PERIPHERAL.a(ll_tasks.o) (lec_hci_handle_command_pkts)
D:\program\CY8\PSoC Creator\3.2\PSoC Creator\psoc\content\cycomponentlibrary\CyComponentLibrary.cylib\BLE_v2_0\Library\gccCyBLEStack_BLE_SOC_PERIPHERAL.a(lec_hci_le_commands.o)
                              D:\program\CY8\PSoC Creator\3.2\PSoC Creator\psoc\content\cycomponentlibrary\CyComponentLibrary.cylib\BLE_v2_0\Library\gccCyBLEStack_BLE_SOC_PERIPHERAL.a(ll_connection.o) (hci_le_generate_command_status_event)
D:\program\CY8\PSoC Creator\3.2\PSoC Creator\psoc\content\cycomponentlibrary\CyComponentLibrary.cylib\BLE_v2_0\Library\gccCyBLEStack_BLE_SOC_PERIPHERAL.a(lec_hci_le_common_commands.o)
                              D:\program\CY8\PSoC Creator\3.2\PSoC Creator\psoc\content\cycomponentlibrary\CyComponentLibrary.cylib\BLE_v2_0\Library\gccCyBLEStack_BLE_SOC_PERIPHERAL.a(CyBleControllerIP_Interface.o) (lec_hci_handle_add_to_white_list_command)
D:\program\CY8\PSoC Creator\3.2\PSoC Creator\psoc\content\cycomponentlibrary\CyComponentLibrary.cylib\BLE_v2_0\Library\gccCyBLEStack_BLE_SOC_PERIPHERAL.a(lec_hci_le_conn_commands.o)
                              D:\program\CY8\PSoC Creator\3.2\PSoC Creator\psoc\content\cycomponentlibrary\CyComponentLibrary.cylib\BLE_v2_0\Library\gccCyBLEStack_BLE_SOC_PERIPHERAL.a(ll_pdu.o) (hci_generate_le_conn_update_complete_event)
D:\program\CY8\PSoC Creator\3.2\PSoC Creator\psoc\content\cycomponentlibrary\CyComponentLibrary.cylib\BLE_v2_0\Library\gccCyBLEStack_BLE_SOC_PERIPHERAL.a(lec_hci_le_encryption_commands.o)
                              D:\program\CY8\PSoC Creator\3.2\PSoC Creator\psoc\content\cycomponentlibrary\CyComponentLibrary.cylib\BLE_v2_0\Library\gccCyBLEStack_BLE_SOC_PERIPHERAL.a(ll.o) (hci_le_generate_encrypt_cmd_complete_event)
D:\program\CY8\PSoC Creator\3.2\PSoC Creator\psoc\content\cycomponentlibrary\CyComponentLibrary.cylib\BLE_v2_0\Library\gccCyBLEStack_BLE_SOC_PERIPHERAL.a(lec_hci_le_utils.o)
                              D:\program\CY8\PSoC Creator\3.2\PSoC Creator\psoc\content\cycomponentlibrary\CyComponentLibrary.cylib\BLE_v2_0\Library\gccCyBLEStack_BLE_SOC_PERIPHERAL.a(lec_hci_le_commands.o) (hci_alloc_event_buffer)
D:\program\CY8\PSoC Creator\3.2\PSoC Creator\psoc\content\cycomponentlibrary\CyComponentLibrary.cylib\BLE_v2_0\Library\gccCyBLEStack_BLE_SOC_PERIPHERAL.a(lec_hci_param_converter.o)
                              D:\program\CY8\PSoC Creator\3.2\PSoC Creator\psoc\content\cycomponentlibrary\CyComponentLibrary.cylib\BLE_v2_0\Library\gccCyBLEStack_BLE_SOC_PERIPHERAL.a(lec_hci_le_commands.o) (lec_hci_convert_add_dev_whitelist_command)
D:\program\CY8\PSoC Creator\3.2\PSoC Creator\psoc\content\cycomponentlibrary\CyComponentLibrary.cylib\BLE_v2_0\Library\gccCyBLEStack_BLE_SOC_PERIPHERAL.a(lec_hci_param_validation.o)
                              D:\program\CY8\PSoC Creator\3.2\PSoC Creator\psoc\content\cycomponentlibrary\CyComponentLibrary.cylib\BLE_v2_0\Library\gccCyBLEStack_BLE_SOC_PERIPHERAL.a(lec_hci_le_commands.o) (hci_validate_le_add_rem_dev_in_wh_list_cmd)
D:\program\CY8\PSoC Creator\3.2\PSoC Creator\psoc\content\cycomponentlibrary\CyComponentLibrary.cylib\BLE_v2_0\Library\gccCyBLEStack_BLE_SOC_PERIPHERAL.a(hci_td.o)
                              D:\program\CY8\PSoC Creator\3.2\PSoC Creator\psoc\content\cycomponentlibrary\CyComponentLibrary.cylib\BLE_v2_0\Library\gccCyBLEStack_BLE_SOC_PERIPHERAL.a(transport_sf.o) (hci_td_handle_received_packet)
D:\program\CY8\PSoC Creator\3.2\PSoC Creator\psoc\content\cycomponentlibrary\CyComponentLibrary.cylib\BLE_v2_0\Library\gccCyBLEStack_BLE_SOC_PERIPHERAL.a(hci_td_api.o)
                              D:\program\CY8\PSoC Creator\3.2\PSoC Creator\psoc\content\cycomponentlibrary\CyComponentLibrary.cylib\BLE_v2_0\Library\gccCyBLEStack_BLE_SOC_PERIPHERAL.a(lec_hci_le_utils.o) (hci_td_struct)
D:\program\CY8\PSoC Creator\3.2\PSoC Creator\psoc\content\cycomponentlibrary\CyComponentLibrary.cylib\BLE_v2_0\Library\gccCyBLEStack_BLE_SOC_PERIPHERAL.a(hci_td_task.o)
                              D:\program\CY8\PSoC Creator\3.2\PSoC Creator\psoc\content\cycomponentlibrary\CyComponentLibrary.cylib\BLE_v2_0\Library\gccCyBLEStack_BLE_SOC_PERIPHERAL.a(llf_task.o) (hci_td_process_signal)
D:\program\CY8\PSoC Creator\3.2\PSoC Creator\psoc\content\cycomponentlibrary\CyComponentLibrary.cylib\BLE_v2_0\Library\gccCyBLEStack_BLE_SOC_PERIPHERAL.a(host_main.o)
                              D:\program\CY8\PSoC Creator\3.2\PSoC Creator\psoc\content\cycomponentlibrary\CyComponentLibrary.cylib\BLE_v2_0\Library\gccCyBLEStack_BLE_SOC_PERIPHERAL.a(CyBle.o) (CyBle_HostStackInit)
D:\program\CY8\PSoC Creator\3.2\PSoC Creator\psoc\content\cycomponentlibrary\CyComponentLibrary.cylib\BLE_v2_0\Library\gccCyBLEStack_BLE_SOC_PERIPHERAL.a(att_api.o)
                              D:\program\CY8\PSoC Creator\3.2\PSoC Creator\psoc\content\cycomponentlibrary\CyComponentLibrary.cylib\BLE_v2_0\Library\gccCyBLEStack_BLE_SOC_PERIPHERAL.a(host_main.o) (BT_att_register)
D:\program\CY8\PSoC Creator\3.2\PSoC Creator\psoc\content\cycomponentlibrary\CyComponentLibrary.cylib\BLE_v2_0\Library\gccCyBLEStack_BLE_SOC_PERIPHERAL.a(att_init.o)
                              D:\program\CY8\PSoC Creator\3.2\PSoC Creator\psoc\content\cycomponentlibrary\CyComponentLibrary.cylib\BLE_v2_0\Library\gccCyBLEStack_BLE_SOC_PERIPHERAL.a(att_api.o) (att_connections)
D:\program\CY8\PSoC Creator\3.2\PSoC Creator\psoc\content\cycomponentlibrary\CyComponentLibrary.cylib\BLE_v2_0\Library\gccCyBLEStack_BLE_SOC_PERIPHERAL.a(att_internal.o)
                              D:\program\CY8\PSoC Creator\3.2\PSoC Creator\psoc\content\cycomponentlibrary\CyComponentLibrary.cylib\BLE_v2_0\Library\gccCyBLEStack_BLE_SOC_PERIPHERAL.a(att_api.o) (att_get_fsm_event)
D:\program\CY8\PSoC Creator\3.2\PSoC Creator\psoc\content\cycomponentlibrary\CyComponentLibrary.cylib\BLE_v2_0\Library\gccCyBLEStack_BLE_SOC_PERIPHERAL.a(BT_common.o)
                              D:\program\CY8\PSoC Creator\3.2\PSoC Creator\psoc\content\cycomponentlibrary\CyComponentLibrary.cylib\BLE_v2_0\Library\gccCyBLEStack_BLE_SOC_PERIPHERAL.a(host_main.o) (BT_bluetooth_off)
D:\program\CY8\PSoC Creator\3.2\PSoC Creator\psoc\content\cycomponentlibrary\CyComponentLibrary.cylib\BLE_v2_0\Library\gccCyBLEStack_BLE_SOC_PERIPHERAL.a(device_queue.o)
                              D:\program\CY8\PSoC Creator\3.2\PSoC Creator\psoc\content\cycomponentlibrary\CyComponentLibrary.cylib\BLE_v2_0\Library\gccCyBLEStack_BLE_SOC_PERIPHERAL.a(BT_common.o) (device_queue_bt_init)
D:\program\CY8\PSoC Creator\3.2\PSoC Creator\psoc\content\cycomponentlibrary\CyComponentLibrary.cylib\BLE_v2_0\Library\gccCyBLEStack_BLE_SOC_PERIPHERAL.a(l2cap.o)
                              D:\program\CY8\PSoC Creator\3.2\PSoC Creator\psoc\content\cycomponentlibrary\CyComponentLibrary.cylib\BLE_v2_0\Library\gccCyBLEStack_BLE_SOC_PERIPHERAL.a(host_main.o) (CyBle_L2capCB)
D:\program\CY8\PSoC Creator\3.2\PSoC Creator\psoc\content\cycomponentlibrary\CyComponentLibrary.cylib\BLE_v2_0\Library\gccCyBLEStack_BLE_SOC_PERIPHERAL.a(l2cap_disconnect.o)
                              D:\program\CY8\PSoC Creator\3.2\PSoC Creator\psoc\content\cycomponentlibrary\CyComponentLibrary.cylib\BLE_v2_0\Library\gccCyBLEStack_BLE_SOC_PERIPHERAL.a(l2cap.o) (l2ca_disconnect_req)
D:\program\CY8\PSoC Creator\3.2\PSoC Creator\psoc\content\cycomponentlibrary\CyComponentLibrary.cylib\BLE_v2_0\Library\gccCyBLEStack_BLE_SOC_PERIPHERAL.a(l2cap_init.o)
                              D:\program\CY8\PSoC Creator\3.2\PSoC Creator\psoc\content\cycomponentlibrary\CyComponentLibrary.cylib\BLE_v2_0\Library\gccCyBLEStack_BLE_SOC_PERIPHERAL.a(l2cap_disconnect.o) (l2cap_sigch_list)
D:\program\CY8\PSoC Creator\3.2\PSoC Creator\psoc\content\cycomponentlibrary\CyComponentLibrary.cylib\BLE_v2_0\Library\gccCyBLEStack_BLE_SOC_PERIPHERAL.a(l2cap_utils.o)
                              D:\program\CY8\PSoC Creator\3.2\PSoC Creator\psoc\content\cycomponentlibrary\CyComponentLibrary.cylib\BLE_v2_0\Library\gccCyBLEStack_BLE_SOC_PERIPHERAL.a(l2cap_disconnect.o) (l2cap_buffer_dequeue)
D:\program\CY8\PSoC Creator\3.2\PSoC Creator\psoc\content\cycomponentlibrary\CyComponentLibrary.cylib\BLE_v2_0\Library\gccCyBLEStack_BLE_SOC_PERIPHERAL.a(l2cap_lmp.o)
                              D:\program\CY8\PSoC Creator\3.2\PSoC Creator\psoc\content\cycomponentlibrary\CyComponentLibrary.cylib\BLE_v2_0\Library\gccCyBLEStack_BLE_SOC_PERIPHERAL.a(l2cap_utils.o) (l2cap_schedule_data_tx)
D:\program\CY8\PSoC Creator\3.2\PSoC Creator\psoc\content\cycomponentlibrary\CyComponentLibrary.cylib\BLE_v2_0\Library\gccCyBLEStack_BLE_SOC_PERIPHERAL.a(l2cap_le.o)
                              D:\program\CY8\PSoC Creator\3.2\PSoC Creator\psoc\content\cycomponentlibrary\CyComponentLibrary.cylib\BLE_v2_0\Library\gccCyBLEStack_BLE_SOC_PERIPHERAL.a(l2cap.o) (BT_l2cap_le_connection_param_update_request)
D:\program\CY8\PSoC Creator\3.2\PSoC Creator\psoc\content\cycomponentlibrary\CyComponentLibrary.cylib\BLE_v2_0\Library\gccCyBLEStack_BLE_SOC_PERIPHERAL.a(l2cap_fixed_channel.o)
                              D:\program\CY8\PSoC Creator\3.2\PSoC Creator\psoc\content\cycomponentlibrary\CyComponentLibrary.cylib\BLE_v2_0\Library\gccCyBLEStack_BLE_SOC_PERIPHERAL.a(att_internal.o) (l2cap_fixed_channel_data_write)
D:\program\CY8\PSoC Creator\3.2\PSoC Creator\psoc\content\cycomponentlibrary\CyComponentLibrary.cylib\BLE_v2_0\Library\gccCyBLEStack_BLE_SOC_PERIPHERAL.a(l2cap_channels.o)
                              D:\program\CY8\PSoC Creator\3.2\PSoC Creator\psoc\content\cycomponentlibrary\CyComponentLibrary.cylib\BLE_v2_0\Library\gccCyBLEStack_BLE_SOC_PERIPHERAL.a(l2cap.o) (l2cap_free_channel)
D:\program\CY8\PSoC Creator\3.2\PSoC Creator\psoc\content\cycomponentlibrary\CyComponentLibrary.cylib\BLE_v2_0\Library\gccCyBLEStack_BLE_SOC_PERIPHERAL.a(l2cap_credit_mode.o)
                              D:\program\CY8\PSoC Creator\3.2\PSoC Creator\psoc\content\cycomponentlibrary\CyComponentLibrary.cylib\BLE_v2_0\Library\gccCyBLEStack_BLE_SOC_PERIPHERAL.a(l2cap.o) (l2ca_cbfc_connect_req)
D:\program\CY8\PSoC Creator\3.2\PSoC Creator\psoc\content\cycomponentlibrary\CyComponentLibrary.cylib\BLE_v2_0\Library\gccCyBLEStack_BLE_SOC_PERIPHERAL.a(l2cap_command.o)
                              D:\program\CY8\PSoC Creator\3.2\PSoC Creator\psoc\content\cycomponentlibrary\CyComponentLibrary.cylib\BLE_v2_0\Library\gccCyBLEStack_BLE_SOC_PERIPHERAL.a(l2cap_init.o) (l2cap_command_rej)
D:\program\CY8\PSoC Creator\3.2\PSoC Creator\psoc\content\cycomponentlibrary\CyComponentLibrary.cylib\BLE_v2_0\Library\gccCyBLEStack_BLE_SOC_PERIPHERAL.a(fsm_engine.o)
                              D:\program\CY8\PSoC Creator\3.2\PSoC Creator\psoc\content\cycomponentlibrary\CyComponentLibrary.cylib\BLE_v2_0\Library\gccCyBLEStack_BLE_SOC_PERIPHERAL.a(att_api.o) (fsm_post_event)
D:\program\CY8\PSoC Creator\3.2\PSoC Creator\psoc\content\cycomponentlibrary\CyComponentLibrary.cylib\BLE_v2_0\Library\gccCyBLEStack_BLE_SOC_PERIPHERAL.a(fsm_engine_pl.o)
                              D:\program\CY8\PSoC Creator\3.2\PSoC Creator\psoc\content\cycomponentlibrary\CyComponentLibrary.cylib\BLE_v2_0\Library\gccCyBLEStack_BLE_SOC_PERIPHERAL.a(fsm_engine.o) (fsm_module_table)
D:\program\CY8\PSoC Creator\3.2\PSoC Creator\psoc\content\cycomponentlibrary\CyComponentLibrary.cylib\BLE_v2_0\Library\gccCyBLEStack_BLE_SOC_PERIPHERAL.a(gap.o)
                              D:\program\CY8\PSoC Creator\3.2\PSoC Creator\psoc\content\cycomponentlibrary\CyComponentLibrary.cylib\BLE_v2_0\Library\gccCyBLEStack_BLE_SOC_PERIPHERAL.a(CyBle.o) (gap_device_connected)
D:\program\CY8\PSoC Creator\3.2\PSoC Creator\psoc\content\cycomponentlibrary\CyComponentLibrary.cylib\BLE_v2_0\Library\gccCyBLEStack_BLE_SOC_PERIPHERAL.a(gatt.o)
                              D:\program\CY8\PSoC Creator\3.2\PSoC Creator\psoc\content\cycomponentlibrary\CyComponentLibrary.cylib\BLE_v2_0\Library\gccCyBLEStack_BLE_SOC_PERIPHERAL.a(gap.o) (gSignature)
D:\program\CY8\PSoC Creator\3.2\PSoC Creator\psoc\content\cycomponentlibrary\CyComponentLibrary.cylib\BLE_v2_0\Library\gccCyBLEStack_BLE_SOC_PERIPHERAL.a(gattClient.o)
                              D:\program\CY8\PSoC Creator\3.2\PSoC Creator\psoc\content\cycomponentlibrary\CyComponentLibrary.cylib\BLE_v2_0\Library\gccCyBLEStack_BLE_SOC_PERIPHERAL.a(gatt.o) (CyBle_GattClientInit)
D:\program\CY8\PSoC Creator\3.2\PSoC Creator\psoc\content\cycomponentlibrary\CyComponentLibrary.cylib\BLE_v2_0\Library\gccCyBLEStack_BLE_SOC_PERIPHERAL.a(gattServer.o)
                              D:\program\CY8\PSoC Creator\3.2\PSoC Creator\psoc\content\cycomponentlibrary\CyComponentLibrary.cylib\BLE_v2_0\Library\gccCyBLEStack_BLE_SOC_PERIPHERAL.a(gatt.o) (cyBleAttBuffer)
D:\program\CY8\PSoC Creator\3.2\PSoC Creator\psoc\content\cycomponentlibrary\CyComponentLibrary.cylib\BLE_v2_0\Library\gccCyBLEStack_BLE_SOC_PERIPHERAL.a(gattDbHandler.o)
                              D:\program\CY8\PSoC Creator\3.2\PSoC Creator\psoc\content\cycomponentlibrary\CyComponentLibrary.cylib\BLE_v2_0\Library\gccCyBLEStack_BLE_SOC_PERIPHERAL.a(gattServer.o) (CyBle_GattDbInternal)
D:\program\CY8\PSoC Creator\3.2\PSoC Creator\psoc\content\cycomponentlibrary\CyComponentLibrary.cylib\BLE_v2_0\Library\gccCyBLEStack_BLE_SOC_PERIPHERAL.a(hci_api.o)
                              D:\program\CY8\PSoC Creator\3.2\PSoC Creator\psoc\content\cycomponentlibrary\CyComponentLibrary.cylib\BLE_v2_0\Library\gccCyBLEStack_BLE_SOC_PERIPHERAL.a(gap.o) (BT_hci_get_connection_handle)
D:\program\CY8\PSoC Creator\3.2\PSoC Creator\psoc\content\cycomponentlibrary\CyComponentLibrary.cylib\BLE_v2_0\Library\gccCyBLEStack_BLE_SOC_PERIPHERAL.a(hci_link_control_api.o)
                              D:\program\CY8\PSoC Creator\3.2\PSoC Creator\psoc\content\cycomponentlibrary\CyComponentLibrary.cylib\BLE_v2_0\Library\gccCyBLEStack_BLE_SOC_PERIPHERAL.a(gap.o) (BT_hci_disconnect)
D:\program\CY8\PSoC Creator\3.2\PSoC Creator\psoc\content\cycomponentlibrary\CyComponentLibrary.cylib\BLE_v2_0\Library\gccCyBLEStack_BLE_SOC_PERIPHERAL.a(hci_commands.o)
                              D:\program\CY8\PSoC Creator\3.2\PSoC Creator\psoc\content\cycomponentlibrary\CyComponentLibrary.cylib\BLE_v2_0\Library\gccCyBLEStack_BLE_SOC_PERIPHERAL.a(hci_api.o) (hci_common_api_handler)
D:\program\CY8\PSoC Creator\3.2\PSoC Creator\psoc\content\cycomponentlibrary\CyComponentLibrary.cylib\BLE_v2_0\Library\gccCyBLEStack_BLE_SOC_PERIPHERAL.a(hci_events.o)
                              D:\program\CY8\PSoC Creator\3.2\PSoC Creator\psoc\content\cycomponentlibrary\CyComponentLibrary.cylib\BLE_v2_0\Library\gccCyBLEStack_BLE_SOC_PERIPHERAL.a(CyBleStackMgr_StackTaskHandler.o) (hci_transport_read_data)
D:\program\CY8\PSoC Creator\3.2\PSoC Creator\psoc\content\cycomponentlibrary\CyComponentLibrary.cylib\BLE_v2_0\Library\gccCyBLEStack_BLE_SOC_PERIPHERAL.a(hci_init.o)
                              D:\program\CY8\PSoC Creator\3.2\PSoC Creator\psoc\content\cycomponentlibrary\CyComponentLibrary.cylib\BLE_v2_0\Library\gccCyBLEStack_BLE_SOC_PERIPHERAL.a(hci_events.o) (hci_adv_addr_type)
D:\program\CY8\PSoC Creator\3.2\PSoC Creator\psoc\content\cycomponentlibrary\CyComponentLibrary.cylib\BLE_v2_0\Library\gccCyBLEStack_BLE_SOC_PERIPHERAL.a(hci_le_api.o)
                              D:\program\CY8\PSoC Creator\3.2\PSoC Creator\psoc\content\cycomponentlibrary\CyComponentLibrary.cylib\BLE_v2_0\Library\gccCyBLEStack_BLE_SOC_PERIPHERAL.a(gap.o) (BT_hci_le_set_advertising_parameters)
D:\program\CY8\PSoC Creator\3.2\PSoC Creator\psoc\content\cycomponentlibrary\CyComponentLibrary.cylib\BLE_v2_0\Library\gccCyBLEStack_BLE_SOC_PERIPHERAL.a(hci_utils.o)
                              D:\program\CY8\PSoC Creator\3.2\PSoC Creator\psoc\content\cycomponentlibrary\CyComponentLibrary.cylib\BLE_v2_0\Library\gccCyBLEStack_BLE_SOC_PERIPHERAL.a(hci_link_control_api.o) (hci_find_device_by_handle)
D:\program\CY8\PSoC Creator\3.2\PSoC Creator\psoc\content\cycomponentlibrary\CyComponentLibrary.cylib\BLE_v2_0\Library\gccCyBLEStack_BLE_SOC_PERIPHERAL.a(smp_api.o)
                              D:\program\CY8\PSoC Creator\3.2\PSoC Creator\psoc\content\cycomponentlibrary\CyComponentLibrary.cylib\BLE_v2_0\Library\gccCyBLEStack_BLE_SOC_PERIPHERAL.a(gap.o) (BT_smp_authenticate)
D:\program\CY8\PSoC Creator\3.2\PSoC Creator\psoc\content\cycomponentlibrary\CyComponentLibrary.cylib\BLE_v2_0\Library\gccCyBLEStack_BLE_SOC_PERIPHERAL.a(smp_core.o)
                              D:\program\CY8\PSoC Creator\3.2\PSoC Creator\psoc\content\cycomponentlibrary\CyComponentLibrary.cylib\BLE_v2_0\Library\gccCyBLEStack_BLE_SOC_PERIPHERAL.a(smp_api.o) (smp_get_auth_info_from_req)
D:\program\CY8\PSoC Creator\3.2\PSoC Creator\psoc\content\cycomponentlibrary\CyComponentLibrary.cylib\BLE_v2_0\Library\gccCyBLEStack_BLE_SOC_PERIPHERAL.a(smp_init.o)
                              D:\program\CY8\PSoC Creator\3.2\PSoC Creator\psoc\content\cycomponentlibrary\CyComponentLibrary.cylib\BLE_v2_0\Library\gccCyBLEStack_BLE_SOC_PERIPHERAL.a(smp_core.o) (smp_context)
D:\program\CY8\PSoC Creator\3.2\PSoC Creator\psoc\content\cycomponentlibrary\CyComponentLibrary.cylib\BLE_v2_0\Library\gccCyBLEStack_BLE_SOC_PERIPHERAL.a(smp_interface.o)
                              D:\program\CY8\PSoC Creator\3.2\PSoC Creator\psoc\content\cycomponentlibrary\CyComponentLibrary.cylib\BLE_v2_0\Library\gccCyBLEStack_BLE_SOC_PERIPHERAL.a(hci_events.o) (smp_command_complete)
D:\program\CY8\PSoC Creator\3.2\PSoC Creator\psoc\content\cycomponentlibrary\CyComponentLibrary.cylib\BLE_v2_0\Library\gccCyBLEStack_BLE_SOC_PERIPHERAL.a(smp_utils.o)
                              D:\program\CY8\PSoC Creator\3.2\PSoC Creator\psoc\content\cycomponentlibrary\CyComponentLibrary.cylib\BLE_v2_0\Library\gccCyBLEStack_BLE_SOC_PERIPHERAL.a(smp_core.o) (smp_free_context)
D:\program\CY8\PSoC Creator\3.2\PSoC Creator\psoc\content\cycomponentlibrary\CyComponentLibrary.cylib\BLE_v2_0\Library\gccCyBLEStack_BLE_SOC_PERIPHERAL.a(smp_fsm_engine.o)
                              D:\program\CY8\PSoC Creator\3.2\PSoC Creator\psoc\content\cycomponentlibrary\CyComponentLibrary.cylib\BLE_v2_0\Library\gccCyBLEStack_BLE_SOC_PERIPHERAL.a(fsm_engine_pl.o) (smp_access_state_handler)
D:\program\CY8\PSoC Creator\3.2\PSoC Creator\psoc\content\cycomponentlibrary\CyComponentLibrary.cylib\BLE_v2_0\Library\gccCyBLEStack_BLE_SOC_PERIPHERAL.a(smp_fsm_table.o)
                              D:\program\CY8\PSoC Creator\3.2\PSoC Creator\psoc\content\cycomponentlibrary\CyComponentLibrary.cylib\BLE_v2_0\Library\gccCyBLEStack_BLE_SOC_PERIPHERAL.a(fsm_engine_pl.o) (smp_event_handler_table)
D:\program\CY8\PSoC Creator\3.2\PSoC Creator\psoc\content\cycomponentlibrary\CyComponentLibrary.cylib\BLE_v2_0\Library\gccCyBLEStack_BLE_SOC_PERIPHERAL.a(smp_tools.o)
                              D:\program\CY8\PSoC Creator\3.2\PSoC Creator\psoc\content\cycomponentlibrary\CyComponentLibrary.cylib\BLE_v2_0\Library\gccCyBLEStack_BLE_SOC_PERIPHERAL.a(smp_api.o) (smp_tbx_ah_eval)
D:\program\CY8\PSoC Creator\3.2\PSoC Creator\psoc\content\cycomponentlibrary\CyComponentLibrary.cylib\BLE_v2_0\Library\gccCyBLEStack_BLE_SOC_PERIPHERAL.a(smp_psstore.o)
                              D:\program\CY8\PSoC Creator\3.2\PSoC Creator\psoc\content\cycomponentlibrary\CyComponentLibrary.cylib\BLE_v2_0\Library\gccCyBLEStack_BLE_SOC_PERIPHERAL.a(smp_init.o) (smp_pstorage_cb)
D:\program\CY8\PSoC Creator\3.2\PSoC Creator\psoc\content\cycomponentlibrary\CyComponentLibrary.cylib\BLE_v2_0\Library\gccCyBLEStack_BLE_SOC_PERIPHERAL.a(write_task.o)
                              D:\program\CY8\PSoC Creator\3.2\PSoC Creator\psoc\content\cycomponentlibrary\CyComponentLibrary.cylib\BLE_v2_0\Library\gccCyBLEStack_BLE_SOC_PERIPHERAL.a(BT_common.o) (write_task_bt_init)
D:\program\CY8\PSoC Creator\3.2\PSoC Creator\psoc\content\cycomponentlibrary\CyComponentLibrary.cylib\BLE_v2_0\Library\gccCyBLEStack_BLE_SOC_PERIPHERAL.a(aes_cmac.o)
                              D:\program\CY8\PSoC Creator\3.2\PSoC Creator\psoc\content\cycomponentlibrary\CyComponentLibrary.cylib\BLE_v2_0\Library\gccCyBLEStack_BLE_SOC_PERIPHERAL.a(smp_api.o) (aes_cmac)
D:\program\CY8\PSoC Creator\3.2\PSoC Creator\psoc\content\cycomponentlibrary\CyComponentLibrary.cylib\BLE_v2_0\Library\gccCyBLEStack_BLE_SOC_PERIPHERAL.a(aes_cmac_pl.o)
                              D:\program\CY8\PSoC Creator\3.2\PSoC Creator\psoc\content\cycomponentlibrary\CyComponentLibrary.cylib\BLE_v2_0\Library\gccCyBLEStack_BLE_SOC_PERIPHERAL.a(gap.o) (aes_cmac_128B_encrypt_complete_pl)
D:\program\CY8\PSoC Creator\3.2\PSoC Creator\psoc\content\cycomponentlibrary\CyComponentLibrary.cylib\BLE_v2_0\Library\gccCyBLEStack_BLE_SOC_PERIPHERAL.a(status.o)
                              D:\program\CY8\PSoC Creator\3.2\PSoC Creator\psoc\content\cycomponentlibrary\CyComponentLibrary.cylib\BLE_v2_0\Library\gccCyBLEStack_BLE_SOC_PERIPHERAL.a(att_internal.o) (BT_status_set_bit)
D:\program\CY8\PSoC Creator\3.2\PSoC Creator\psoc\content\cycomponentlibrary\CyComponentLibrary.cylib\BLE_v2_0\Library\gccCyBLEStack_BLE_SOC_PERIPHERAL.a(storage.o)
                              D:\program\CY8\PSoC Creator\3.2\PSoC Creator\psoc\content\cycomponentlibrary\CyComponentLibrary.cylib\BLE_v2_0\Library\gccCyBLEStack_BLE_SOC_PERIPHERAL.a(device_queue.o) (BT_storage_read)
D:\program\CY8\PSoC Creator\3.2\PSoC Creator\psoc\content\cycomponentlibrary\CyComponentLibrary.cylib\BLE_v2_0\Library\gccCyBLEStack_BLE_SOC_PERIPHERAL.a(bt_os_common.o)
                              D:\program\CY8\PSoC Creator\3.2\PSoC Creator\psoc\content\cycomponentlibrary\CyComponentLibrary.cylib\BLE_v2_0\Library\gccCyBLEStack_BLE_SOC_PERIPHERAL.a(CyBleStackMgr_StackTaskHandler.o) (BT_ISROSQPost)
D:\program\CY8\PSoC Creator\3.2\PSoC Creator\psoc\content\cycomponentlibrary\CyComponentLibrary.cylib\BLE_v2_0\Library\gccCyBLEStack_BLE_SOC_PERIPHERAL.a(BT_timer.o)
                              D:\program\CY8\PSoC Creator\3.2\PSoC Creator\psoc\content\cycomponentlibrary\CyComponentLibrary.cylib\BLE_v2_0\Library\gccCyBLEStack_BLE_SOC_PERIPHERAL.a(host_main.o) (BT_start_timer)
D:\program\CY8\PSoC Creator\3.2\PSoC Creator\psoc\content\cycomponentlibrary\CyComponentLibrary.cylib\BLE_v2_0\Library\gccCyBLEStack_BLE_SOC_PERIPHERAL.a(storage_pl.o)
                              D:\program\CY8\PSoC Creator\3.2\PSoC Creator\psoc\content\cycomponentlibrary\CyComponentLibrary.cylib\BLE_v2_0\Library\gccCyBLEStack_BLE_SOC_PERIPHERAL.a(host_main.o) (BleStackWriteToFlash)
D:\program\CY8\PSoC Creator\3.2\PSoC Creator\psoc\content\cycomponentlibrary\CyComponentLibrary.cylib\BLE_v2_0\Library\gccCyBLEStack_BLE_SOC_PERIPHERAL.a(drbg.o)
                              D:\program\CY8\PSoC Creator\3.2\PSoC Creator\psoc\content\cycomponentlibrary\CyComponentLibrary.cylib\BLE_v2_0\Library\gccCyBLEStack_BLE_SOC_PERIPHERAL.a(CyBleControllerIP_Interface.o) (drbg_get_random_number)
D:\program\CY8\PSoC Creator\3.2\PSoC Creator\psoc\content\cycomponentlibrary\CyComponentLibrary.cylib\BLE_v2_0\Library\gccCyBLEStack_BLE_SOC_PERIPHERAL.a(bt_fw_os_al.o)
                              D:\program\CY8\PSoC Creator\3.2\PSoC Creator\psoc\content\cycomponentlibrary\CyComponentLibrary.cylib\BLE_v2_0\Library\gccCyBLEStack_BLE_SOC_PERIPHERAL.a(CyBleControllerIP_Interface.o) (convert_to_lsb)
D:\program\CY8\PSoC Creator\3.2\PSoC Creator\psoc\content\cycomponentlibrary\CyComponentLibrary.cylib\BLE_v2_0\Library\gccCyBLEStack_BLE_SOC_PERIPHERAL.a(lec_hci_br_edr_commands.o)
                              D:\program\CY8\PSoC Creator\3.2\PSoC Creator\psoc\content\cycomponentlibrary\CyComponentLibrary.cylib\BLE_v2_0\Library\gccCyBLEStack_BLE_SOC_PERIPHERAL.a(lec_hci_le.o) (lec_generate_br_edr_command_complete_event)
D:\program\CY8\PSoC Creator\3.2\PSoC Creator\psoc\content\cycomponentlibrary\CyComponentLibrary.cylib\BLE_v2_0\Library\gccCyBLEStack_BLE_SOC_PERIPHERAL.a(lec_hci_le_adv_commands.o)
                              D:\program\CY8\PSoC Creator\3.2\PSoC Creator\psoc\content\cycomponentlibrary\CyComponentLibrary.cylib\BLE_v2_0\Library\gccCyBLEStack_BLE_SOC_PERIPHERAL.a(lec_hci_le_commands.o) (lec_hci_handle_set_adv_data_command)
D:\program\CY8\PSoC Creator\3.2\PSoC Creator\psoc\content\cycomponentlibrary\CyComponentLibrary.cylib\BLE_v2_0\Library\gccCyBLEStack_BLE_SOC_PERIPHERAL.a(BT_common_pl.o)
                              D:\program\CY8\PSoC Creator\3.2\PSoC Creator\psoc\content\cycomponentlibrary\CyComponentLibrary.cylib\BLE_v2_0\Library\gccCyBLEStack_BLE_SOC_PERIPHERAL.a(BT_common.o) (bluetooth_off_lower_pl)
D:\program\CY8\PSoC Creator\3.2\PSoC Creator\psoc\content\cycomponentlibrary\CyComponentLibrary.cylib\BLE_v2_0\Library\gccCyBLEStack_BLE_SOC_PERIPHERAL.a(device_queue_pl.o)
                              D:\program\CY8\PSoC Creator\3.2\PSoC Creator\psoc\content\cycomponentlibrary\CyComponentLibrary.cylib\BLE_v2_0\Library\gccCyBLEStack_BLE_SOC_PERIPHERAL.a(device_queue.o) (device_queue_disconnect_on_full_pl)
D:\program\CY8\PSoC Creator\3.2\PSoC Creator\psoc\content\cycomponentlibrary\CyComponentLibrary.cylib\BLE_v2_0\Library\gccCyBLEStack_BLE_SOC_PERIPHERAL.a(smp_pl.o)
                              D:\program\CY8\PSoC Creator\3.2\PSoC Creator\psoc\content\cycomponentlibrary\CyComponentLibrary.cylib\BLE_v2_0\Library\gccCyBLEStack_BLE_SOC_PERIPHERAL.a(gap.o) (smp_io_capability_pl)
D:\program\CY8\PSoC Creator\3.2\PSoC Creator\psoc\content\cycomponentlibrary\CyComponentLibrary.cylib\BLE_v2_0\Library\gccCyBLEStack_BLE_SOC_PERIPHERAL.a(att_fsm_table.o)
                              D:\program\CY8\PSoC Creator\3.2\PSoC Creator\psoc\content\cycomponentlibrary\CyComponentLibrary.cylib\BLE_v2_0\Library\gccCyBLEStack_BLE_SOC_PERIPHERAL.a(fsm_engine_pl.o) (att_event_handler_table)
D:\program\CY8\PSoC Creator\3.2\PSoC Creator\psoc\content\cycomponentlibrary\CyComponentLibrary.cylib\BLE_v2_0\Library\gccCyBLEStack_BLE_SOC_PERIPHERAL.a(l2cap_data_recv.o)
                              D:\program\CY8\PSoC Creator\3.2\PSoC Creator\psoc\content\cycomponentlibrary\CyComponentLibrary.cylib\BLE_v2_0\Library\gccCyBLEStack_BLE_SOC_PERIPHERAL.a(hci_events.o) (l2cap_lp_data_read)
D:\program\CY8\PSoC Creator\3.2\PSoC Creator\psoc\content\cycomponentlibrary\CyComponentLibrary.cylib\BLE_v2_0\Library\gccCyBLEStack_BLE_SOC_PERIPHERAL.a(gattDbInternal.o)
                              D:\program\CY8\PSoC Creator\3.2\PSoC Creator\psoc\content\cycomponentlibrary\CyComponentLibrary.cylib\BLE_v2_0\Library\gccCyBLEStack_BLE_SOC_PERIPHERAL.a(gattDbHandler.o) (CyBle_GattDbCheckPermission)
D:\program\CY8\PSoC Creator\3.2\PSoC Creator\psoc\content\cycomponentlibrary\CyComponentLibrary.cylib\BLE_v2_0\Library\gccCyBLEStack_BLE_SOC_PERIPHERAL.a(hci_command_queue.o)
                              D:\program\CY8\PSoC Creator\3.2\PSoC Creator\psoc\content\cycomponentlibrary\CyComponentLibrary.cylib\BLE_v2_0\Library\gccCyBLEStack_BLE_SOC_PERIPHERAL.a(hci_commands.o) (hci_common_api_bh)
D:\program\CY8\PSoC Creator\3.2\PSoC Creator\psoc\content\cycomponentlibrary\CyComponentLibrary.cylib\BLE_v2_0\Library\gccCyBLEStack_BLE_SOC_PERIPHERAL.a(hci_connect.o)
                              D:\program\CY8\PSoC Creator\3.2\PSoC Creator\psoc\content\cycomponentlibrary\CyComponentLibrary.cylib\BLE_v2_0\Library\gccCyBLEStack_BLE_SOC_PERIPHERAL.a(hci_events.o) (hci_handle_connection_command_status)
D:\program\CY8\PSoC Creator\3.2\PSoC Creator\psoc\content\cycomponentlibrary\CyComponentLibrary.cylib\BLE_v2_0\Library\gccCyBLEStack_BLE_SOC_PERIPHERAL.a(hci_disconnect.o)
                              D:\program\CY8\PSoC Creator\3.2\PSoC Creator\psoc\content\cycomponentlibrary\CyComponentLibrary.cylib\BLE_v2_0\Library\gccCyBLEStack_BLE_SOC_PERIPHERAL.a(hci_events.o) (hci_disconnection_complete_event)
D:\program\CY8\PSoC Creator\3.2\PSoC Creator\psoc\content\cycomponentlibrary\CyComponentLibrary.cylib\BLE_v2_0\Library\gccCyBLEStack_BLE_SOC_PERIPHERAL.a(smp_fsm_handlers.o)
                              D:\program\CY8\PSoC Creator\3.2\PSoC Creator\psoc\content\cycomponentlibrary\CyComponentLibrary.cylib\BLE_v2_0\Library\gccCyBLEStack_BLE_SOC_PERIPHERAL.a(smp_fsm_table.o) (se_smp_dummy_handler)
D:\program\CY8\PSoC Creator\3.2\PSoC Creator\psoc\content\cycomponentlibrary\CyComponentLibrary.cylib\BLE_v2_0\Library\gccCyBLEStack_BLE_SOC_PERIPHERAL.a(att_fsm_handlers.o)
                              D:\program\CY8\PSoC Creator\3.2\PSoC Creator\psoc\content\cycomponentlibrary\CyComponentLibrary.cylib\BLE_v2_0\Library\gccCyBLEStack_BLE_SOC_PERIPHERAL.a(att_fsm_table.o) (se_error_handler)
D:\program\CY8\PSoC Creator\3.2\PSoC Creator\psoc\content\cycomponentlibrary\CyComponentLibrary.cylib\BLE_v2_0\Library\gccCyBLEStack_BLE_SOC_PERIPHERAL.a(l2cap_connect.o)
                              D:\program\CY8\PSoC Creator\3.2\PSoC Creator\psoc\content\cycomponentlibrary\CyComponentLibrary.cylib\BLE_v2_0\Library\gccCyBLEStack_BLE_SOC_PERIPHERAL.a(hci_connect.o) (l2cap_lp_connect_ind)
.\CortexM0\ARM_GCC_484\Debug\BLE Lab 2.a(BLE_HAL_PVT.o)
                              D:\program\CY8\PSoC Creator\3.2\PSoC Creator\psoc\content\cycomponentlibrary\CyComponentLibrary.cylib\BLE_v2_0\Library\gccCyBLEStack_BLE_SOC_PERIPHERAL.a(host_main.o) (CyBLE_Nvram_Write)
.\CortexM0\ARM_GCC_484\Debug\BLE Lab 2.a(BLE_bless_isr.o)
                              .\CortexM0\ARM_GCC_484\Debug\BLE Lab 2.a(BLE_HAL_PVT.o) (BLE_bless_isr_Disable)
.\CortexM0\ARM_GCC_484\Debug\BLE Lab 2.a(CyFlash.o)
                              .\CortexM0\ARM_GCC_484\Debug\BLE Lab 2.a(BLE_HAL_PVT.o) (CySysFlashWriteRow)
.\CortexM0\ARM_GCC_484\Debug\BLE Lab 2.a(BLE_HAL_INT.o)
                              .\CortexM0\ARM_GCC_484\Debug\BLE Lab 2.a(BLE_HAL_PVT.o) (CyBLE_Bless_Interrupt)
D:\program\CY8\PSoC Creator\3.2\PSoC Creator\psoc\content\cycomponentlibrary\CyComponentLibrary.cylib\BLE_v2_0\Library\gccCyBLEStack_BLE_SOC_PERIPHERAL.a(ll_isr.o)
                              .\CortexM0\ARM_GCC_484\Debug\BLE Lab 2.a(BLE_HAL_INT.o) (CyBle_BleSSInterruptHandler)
d:/program/cy8/psoc creator/3.2/psoc creator/import/gnu/arm/4.8.4/bin/../lib/gcc/arm-none-eabi/4.8.4/armv6-m\libgcc.a(_udivsi3.o)
                              .\CortexM0\ARM_GCC_484\Debug\HeartRateProcessing.o (__aeabi_uidiv)
d:/program/cy8/psoc creator/3.2/psoc creator/import/gnu/arm/4.8.4/bin/../lib/gcc/arm-none-eabi/4.8.4/armv6-m\libgcc.a(_divsi3.o)
                              .\CortexM0\ARM_GCC_484\Debug\BLE Lab 2.a(ADC.o) (__aeabi_idiv)
d:/program/cy8/psoc creator/3.2/psoc creator/import/gnu/arm/4.8.4/bin/../lib/gcc/arm-none-eabi/4.8.4/armv6-m\libgcc.a(_dvmd_tls.o)
                              d:/program/cy8/psoc creator/3.2/psoc creator/import/gnu/arm/4.8.4/bin/../lib/gcc/arm-none-eabi/4.8.4/armv6-m\libgcc.a(_udivsi3.o) (__aeabi_idiv0)
d:/program/cy8/psoc creator/3.2/psoc creator/import/gnu/arm/4.8.4/bin/../lib/gcc/arm-none-eabi/4.8.4/armv6-m\libgcc.a(_aeabi_ldivmod.o)
                              .\CortexM0\ARM_GCC_484\Debug\BLE Lab 2.a(ADC.o) (__aeabi_ldivmod)
d:/program/cy8/psoc creator/3.2/psoc creator/import/gnu/arm/4.8.4/bin/../lib/gcc/arm-none-eabi/4.8.4/armv6-m\libgcc.a(_muldi3.o)
                              .\CortexM0\ARM_GCC_484\Debug\BLE Lab 2.a(ADC.o) (__aeabi_lmul)
d:/program/cy8/psoc creator/3.2/psoc creator/import/gnu/arm/4.8.4/bin/../lib/gcc/arm-none-eabi/4.8.4/armv6-m\libgcc.a(bpabi.o)
                              d:/program/cy8/psoc creator/3.2/psoc creator/import/gnu/arm/4.8.4/bin/../lib/gcc/arm-none-eabi/4.8.4/armv6-m\libgcc.a(_aeabi_ldivmod.o) (__gnu_ldivmod_helper)
d:/program/cy8/psoc creator/3.2/psoc creator/import/gnu/arm/4.8.4/bin/../lib/gcc/arm-none-eabi/4.8.4/armv6-m\libgcc.a(divsf3.o)
                              .\CortexM0\ARM_GCC_484\Debug\BLE Lab 2.a(ADC.o) (__aeabi_fdiv)
d:/program/cy8/psoc creator/3.2/psoc creator/import/gnu/arm/4.8.4/bin/../lib/gcc/arm-none-eabi/4.8.4/armv6-m\libgcc.a(mulsf3.o)
                              .\CortexM0\ARM_GCC_484\Debug\BLE Lab 2.a(ADC.o) (__aeabi_fmul)
d:/program/cy8/psoc creator/3.2/psoc creator/import/gnu/arm/4.8.4/bin/../lib/gcc/arm-none-eabi/4.8.4/armv6-m\libgcc.a(floatsisf.o)
                              .\CortexM0\ARM_GCC_484\Debug\BLE Lab 2.a(ADC.o) (__aeabi_i2f)
d:/program/cy8/psoc creator/3.2/psoc creator/import/gnu/arm/4.8.4/bin/../lib/gcc/arm-none-eabi/4.8.4/armv6-m\libgcc.a(_clzsi2.o)
                              d:/program/cy8/psoc creator/3.2/psoc creator/import/gnu/arm/4.8.4/bin/../lib/gcc/arm-none-eabi/4.8.4/armv6-m\libgcc.a(divsf3.o) (__clzsi2)
d:/program/cy8/psoc creator/3.2/psoc creator/import/gnu/arm/4.8.4/bin/../lib/gcc/arm-none-eabi/4.8.4/armv6-m\libgcc.a(_divdi3.o)
                              d:/program/cy8/psoc creator/3.2/psoc creator/import/gnu/arm/4.8.4/bin/../lib/gcc/arm-none-eabi/4.8.4/armv6-m\libgcc.a(bpabi.o) (__divdi3)
d:/program/cy8/psoc creator/3.2/psoc creator/import/gnu/arm/4.8.4/bin/../lib/gcc/arm-none-eabi/4.8.4/armv6-m\libgcc.a(_udivdi3.o)
                              d:/program/cy8/psoc creator/3.2/psoc creator/import/gnu/arm/4.8.4/bin/../lib/gcc/arm-none-eabi/4.8.4/armv6-m\libgcc.a(bpabi.o) (__udivdi3)
d:/program/cy8/psoc creator/3.2/psoc creator/import/gnu/arm/4.8.4/bin/../lib/gcc/arm-none-eabi/4.8.4/../../../../arm-none-eabi/lib/armv6-m\libg_s.a(lib_a-errno.o)
                              .\CortexM0\ARM_GCC_484\Debug\Cm0Start.o (__errno)
d:/program/cy8/psoc creator/3.2/psoc creator/import/gnu/arm/4.8.4/bin/../lib/gcc/arm-none-eabi/4.8.4/../../../../arm-none-eabi/lib/armv6-m\libg_s.a(lib_a-exit.o)
                              d:/program/cy8/psoc creator/3.2/psoc creator/import/gnu/arm/4.8.4/bin/../lib/gcc/arm-none-eabi/4.8.4/../../../../arm-none-eabi/lib/armv6-m/crt0.o (exit)
d:/program/cy8/psoc creator/3.2/psoc creator/import/gnu/arm/4.8.4/bin/../lib/gcc/arm-none-eabi/4.8.4/../../../../arm-none-eabi/lib/armv6-m\libg_s.a(lib_a-impure.o)
                              d:/program/cy8/psoc creator/3.2/psoc creator/import/gnu/arm/4.8.4/bin/../lib/gcc/arm-none-eabi/4.8.4/../../../../arm-none-eabi/lib/armv6-m\libg_s.a(lib_a-exit.o) (_global_impure_ptr)
d:/program/cy8/psoc creator/3.2/psoc creator/import/gnu/arm/4.8.4/bin/../lib/gcc/arm-none-eabi/4.8.4/../../../../arm-none-eabi/lib/armv6-m\libg_s.a(lib_a-init.o)
                              d:/program/cy8/psoc creator/3.2/psoc creator/import/gnu/arm/4.8.4/bin/../lib/gcc/arm-none-eabi/4.8.4/../../../../arm-none-eabi/lib/armv6-m/crt0.o (__libc_init_array)
d:/program/cy8/psoc creator/3.2/psoc creator/import/gnu/arm/4.8.4/bin/../lib/gcc/arm-none-eabi/4.8.4/../../../../arm-none-eabi/lib/armv6-m\libg_s.a(lib_a-memcmp.o)
                              D:\program\CY8\PSoC Creator\3.2\PSoC Creator\psoc\content\cycomponentlibrary\CyComponentLibrary.cylib\BLE_v2_0\Library\gccCyBLEStack_BLE_SOC_PERIPHERAL.a(device_queue.o) (memcmp)
d:/program/cy8/psoc creator/3.2/psoc creator/import/gnu/arm/4.8.4/bin/../lib/gcc/arm-none-eabi/4.8.4/../../../../arm-none-eabi/lib/armv6-m\libg_s.a(lib_a-memcpy-stub.o)
                              .\CortexM0\ARM_GCC_484\Debug\BLE Lab 2.a(cyfitter_cfg.o) (memcpy)
d:/program/cy8/psoc creator/3.2/psoc creator/import/gnu/arm/4.8.4/bin/../lib/gcc/arm-none-eabi/4.8.4/../../../../arm-none-eabi/lib/armv6-m\libg_s.a(lib_a-memset.o)
                              d:/program/cy8/psoc creator/3.2/psoc creator/import/gnu/arm/4.8.4/bin/../lib/gcc/arm-none-eabi/4.8.4/../../../../arm-none-eabi/lib/armv6-m/crt0.o (memset)

Allocating common symbols
Common symbol       size              file

cyBle_busyStatus    0x1               .\CortexM0\ARM_GCC_484\Debug\BLE Lab 2.a(BLE_eventHandler.o)
cyBle_connHandle    0x2               .\CortexM0\ARM_GCC_484\Debug\BLE Lab 2.a(BLE_eventHandler.o)
CyBle_ApplCallback  0x4               .\CortexM0\ARM_GCC_484\Debug\BLE Lab 2.a(BLE.o)
ADC_countsPer10Volt
                    0x4               .\CortexM0\ARM_GCC_484\Debug\BLE Lab 2.a(ADC.o)
cyBle_attValuesCCCD
                    0x4               .\CortexM0\ARM_GCC_484\Debug\BLE Lab 2.a(BLE_gatt.o)
cyBle_state         0x1               .\CortexM0\ARM_GCC_484\Debug\BLE Lab 2.a(BLE_gatt.o)
ADC_offset          0x2               .\CortexM0\ARM_GCC_484\Debug\BLE Lab 2.a(ADC.o)
cyBle_stackMemoryRam
                    0xa6c             .\CortexM0\ARM_GCC_484\Debug\BLE Lab 2.a(BLE.o)
cyBle_advertisingIntervalType
                    0x1               .\CortexM0\ARM_GCC_484\Debug\BLE Lab 2.a(BLE_eventHandler.o)
cyBle_eventHandlerFlag
                    0x1               .\CortexM0\ARM_GCC_484\Debug\BLE Lab 2.a(BLE_eventHandler.o)

Discarded input sections

 .text          0x00000000        0x0 d:/program/cy8/psoc creator/3.2/psoc creator/import/gnu/arm/4.8.4/bin/../lib/gcc/arm-none-eabi/4.8.4/armv6-m/crti.o
 .data          0x00000000        0x0 d:/program/cy8/psoc creator/3.2/psoc creator/import/gnu/arm/4.8.4/bin/../lib/gcc/arm-none-eabi/4.8.4/armv6-m/crti.o
 .bss           0x00000000        0x0 d:/program/cy8/psoc creator/3.2/psoc creator/import/gnu/arm/4.8.4/bin/../lib/gcc/arm-none-eabi/4.8.4/armv6-m/crti.o
 .data          0x00000000        0x4 d:/program/cy8/psoc creator/3.2/psoc creator/import/gnu/arm/4.8.4/bin/../lib/gcc/arm-none-eabi/4.8.4/armv6-m/crtbegin.o
 .text          0x00000000       0x78 d:/program/cy8/psoc creator/3.2/psoc creator/import/gnu/arm/4.8.4/bin/../lib/gcc/arm-none-eabi/4.8.4/../../../../arm-none-eabi/lib/armv6-m/crt0.o
 .data          0x00000000        0x0 d:/program/cy8/psoc creator/3.2/psoc creator/import/gnu/arm/4.8.4/bin/../lib/gcc/arm-none-eabi/4.8.4/../../../../arm-none-eabi/lib/armv6-m/crt0.o
 .bss           0x00000000        0x0 d:/program/cy8/psoc creator/3.2/psoc creator/import/gnu/arm/4.8.4/bin/../lib/gcc/arm-none-eabi/4.8.4/../../../../arm-none-eabi/lib/armv6-m/crt0.o
 .ARM.extab     0x00000000        0x0 d:/program/cy8/psoc creator/3.2/psoc creator/import/gnu/arm/4.8.4/bin/../lib/gcc/arm-none-eabi/4.8.4/../../../../arm-none-eabi/lib/armv6-m/crt0.o
 .ARM.exidx     0x00000000        0x8 d:/program/cy8/psoc creator/3.2/psoc creator/import/gnu/arm/4.8.4/bin/../lib/gcc/arm-none-eabi/4.8.4/../../../../arm-none-eabi/lib/armv6-m/crt0.o
 .text          0x00000000        0x0 .\CortexM0\ARM_GCC_484\Debug\main.o
 .data          0x00000000        0x0 .\CortexM0\ARM_GCC_484\Debug\main.o
 .text          0x00000000        0x0 .\CortexM0\ARM_GCC_484\Debug\HeartRateProcessing.o
 .text          0x00000000        0x0 .\CortexM0\ARM_GCC_484\Debug\BleProcessing.o
 .data          0x00000000        0x0 .\CortexM0\ARM_GCC_484\Debug\BleProcessing.o
 .text          0x00000000        0x0 .\CortexM0\ARM_GCC_484\Debug\WatchdogTimer.o
 .data          0x00000000        0x0 .\CortexM0\ARM_GCC_484\Debug\WatchdogTimer.o
 .text          0x00000000        0x0 .\CortexM0\ARM_GCC_484\Debug\cymetadata.o
 .data          0x00000000        0x0 .\CortexM0\ARM_GCC_484\Debug\cymetadata.o
 .bss           0x00000000        0x0 .\CortexM0\ARM_GCC_484\Debug\cymetadata.o
 .text          0x00000000        0x0 .\CortexM0\ARM_GCC_484\Debug\Cm0Start.o
 .data          0x00000000        0x4 .\CortexM0\ARM_GCC_484\Debug\Cm0Start.o
 .bss           0x00000000        0x0 .\CortexM0\ARM_GCC_484\Debug\Cm0Start.o
 .text._exit    0x00000000       0x14 .\CortexM0\ARM_GCC_484\Debug\Cm0Start.o
 .text._sbrk    0x00000000       0x50 .\CortexM0\ARM_GCC_484\Debug\Cm0Start.o
 .text          0x00000000        0x0 .\CortexM0\ARM_GCC_484\Debug\BLE Lab 2.a(cyfitter_cfg.o)
 .data          0x00000000        0x0 .\CortexM0\ARM_GCC_484\Debug\BLE Lab 2.a(cyfitter_cfg.o)
 .bss           0x00000000        0x0 .\CortexM0\ARM_GCC_484\Debug\BLE Lab 2.a(cyfitter_cfg.o)
 .text.CYCONFIGCPY
                0x00000000       0x24 .\CortexM0\ARM_GCC_484\Debug\BLE Lab 2.a(cyfitter_cfg.o)
 .text.CYCONFIGCPYCODE
                0x00000000       0x24 .\CortexM0\ARM_GCC_484\Debug\BLE Lab 2.a(cyfitter_cfg.o)
 .text          0x00000000        0x0 .\CortexM0\ARM_GCC_484\Debug\BLE Lab 2.a(SW2_Switch.o)
 .data          0x00000000        0x0 .\CortexM0\ARM_GCC_484\Debug\BLE Lab 2.a(SW2_Switch.o)
 .bss           0x00000000        0x0 .\CortexM0\ARM_GCC_484\Debug\BLE Lab 2.a(SW2_Switch.o)
 .text.SW2_Switch_Write
                0x00000000       0x48 .\CortexM0\ARM_GCC_484\Debug\BLE Lab 2.a(SW2_Switch.o)
 .text.SW2_Switch_SetDriveMode
                0x00000000       0x30 .\CortexM0\ARM_GCC_484\Debug\BLE Lab 2.a(SW2_Switch.o)
 .text.SW2_Switch_Read
                0x00000000       0x1c .\CortexM0\ARM_GCC_484\Debug\BLE Lab 2.a(SW2_Switch.o)
 .text.SW2_Switch_ReadDataReg
                0x00000000       0x1c .\CortexM0\ARM_GCC_484\Debug\BLE Lab 2.a(SW2_Switch.o)
 .text          0x00000000        0x0 .\CortexM0\ARM_GCC_484\Debug\BLE Lab 2.a(Wakeup_ISR.o)
 .data          0x00000000        0x0 .\CortexM0\ARM_GCC_484\Debug\BLE Lab 2.a(Wakeup_ISR.o)
 .bss           0x00000000        0x0 .\CortexM0\ARM_GCC_484\Debug\BLE Lab 2.a(Wakeup_ISR.o)
 .text.Wakeup_ISR_StartEx
                0x00000000       0x24 .\CortexM0\ARM_GCC_484\Debug\BLE Lab 2.a(Wakeup_ISR.o)
 .text.Wakeup_ISR_Stop
                0x00000000       0x18 .\CortexM0\ARM_GCC_484\Debug\BLE Lab 2.a(Wakeup_ISR.o)
 .text.Wakeup_ISR_GetVector
                0x00000000       0x14 .\CortexM0\ARM_GCC_484\Debug\BLE Lab 2.a(Wakeup_ISR.o)
 .text.Wakeup_ISR_GetPriority
                0x00000000       0x30 .\CortexM0\ARM_GCC_484\Debug\BLE Lab 2.a(Wakeup_ISR.o)
 .text.Wakeup_ISR_GetState
                0x00000000       0x20 .\CortexM0\ARM_GCC_484\Debug\BLE Lab 2.a(Wakeup_ISR.o)
 .text.Wakeup_ISR_SetPending
                0x00000000       0x14 .\CortexM0\ARM_GCC_484\Debug\BLE Lab 2.a(Wakeup_ISR.o)
 .text.Wakeup_ISR_ClearPending
                0x00000000       0x14 .\CortexM0\ARM_GCC_484\Debug\BLE Lab 2.a(Wakeup_ISR.o)
 .text          0x00000000        0x0 .\CortexM0\ARM_GCC_484\Debug\BLE Lab 2.a(Led_Advertising_Green.o)
 .data          0x00000000        0x0 .\CortexM0\ARM_GCC_484\Debug\BLE Lab 2.a(Led_Advertising_Green.o)
 .bss           0x00000000        0x0 .\CortexM0\ARM_GCC_484\Debug\BLE Lab 2.a(Led_Advertising_Green.o)
 .text.Led_Advertising_Green_Read
                0x00000000       0x1c .\CortexM0\ARM_GCC_484\Debug\BLE Lab 2.a(Led_Advertising_Green.o)
 .text.Led_Advertising_Green_ReadDataReg
                0x00000000       0x1c .\CortexM0\ARM_GCC_484\Debug\BLE Lab 2.a(Led_Advertising_Green.o)
 .text.Led_Advertising_Green_ClearInterrupt
                0x00000000       0x30 .\CortexM0\ARM_GCC_484\Debug\BLE Lab 2.a(Led_Advertising_Green.o)
 .text          0x00000000        0x0 .\CortexM0\ARM_GCC_484\Debug\BLE Lab 2.a(Led_Connected_Blue.o)
 .data          0x00000000        0x0 .\CortexM0\ARM_GCC_484\Debug\BLE Lab 2.a(Led_Connected_Blue.o)
 .bss           0x00000000        0x0 .\CortexM0\ARM_GCC_484\Debug\BLE Lab 2.a(Led_Connected_Blue.o)
 .text.Led_Connected_Blue_Read
                0x00000000       0x1c .\CortexM0\ARM_GCC_484\Debug\BLE Lab 2.a(Led_Connected_Blue.o)
 .text.Led_Connected_Blue_ReadDataReg
                0x00000000       0x1c .\CortexM0\ARM_GCC_484\Debug\BLE Lab 2.a(Led_Connected_Blue.o)
 .text.Led_Connected_Blue_ClearInterrupt
                0x00000000       0x30 .\CortexM0\ARM_GCC_484\Debug\BLE Lab 2.a(Led_Connected_Blue.o)
 .text          0x00000000        0x0 .\CortexM0\ARM_GCC_484\Debug\BLE Lab 2.a(BLE_hrs.o)
 .data          0x00000000        0x0 .\CortexM0\ARM_GCC_484\Debug\BLE Lab 2.a(BLE_hrs.o)
 .text.CyBle_HrssSetCharacteristicValue
                0x00000000       0x9c .\CortexM0\ARM_GCC_484\Debug\BLE Lab 2.a(BLE_hrs.o)
 .text.CyBle_HrssGetCharacteristicDescriptor
                0x00000000       0x98 .\CortexM0\ARM_GCC_484\Debug\BLE Lab 2.a(BLE_hrs.o)
 .text          0x00000000        0x0 .\CortexM0\ARM_GCC_484\Debug\BLE Lab 2.a(BLE.o)
 .text.CyBle_GappStopAdvertisement
                0x00000000       0x20 .\CortexM0\ARM_GCC_484\Debug\BLE Lab 2.a(BLE.o)
 .text.CyBle_ChangeAdLocalName
                0x00000000      0x1a0 .\CortexM0\ARM_GCC_484\Debug\BLE Lab 2.a(BLE.o)
 .text.CyBle_GapSetLocalName
                0x00000000       0xc8 .\CortexM0\ARM_GCC_484\Debug\BLE Lab 2.a(BLE.o)
 .text.CyBle_GapGetLocalName
                0x00000000       0xa4 .\CortexM0\ARM_GCC_484\Debug\BLE Lab 2.a(BLE.o)
 .text.CyBle_Set16ByPtr
                0x00000000       0x30 .\CortexM0\ARM_GCC_484\Debug\BLE Lab 2.a(BLE.o)
 .text          0x00000000        0x0 .\CortexM0\ARM_GCC_484\Debug\BLE Lab 2.a(BLE_gatt.o)
 .bss           0x00000000        0x0 .\CortexM0\ARM_GCC_484\Debug\BLE Lab 2.a(BLE_gatt.o)
 .text.CyBle_GattsReInitGattDb
                0x00000000       0x40 .\CortexM0\ARM_GCC_484\Debug\BLE Lab 2.a(BLE_gatt.o)
 .text          0x00000000        0x0 .\CortexM0\ARM_GCC_484\Debug\BLE Lab 2.a(BLE_eventHandler.o)
 .bss           0x00000000        0x0 .\CortexM0\ARM_GCC_484\Debug\BLE Lab 2.a(BLE_eventHandler.o)
 .text          0x00000000        0x0 .\CortexM0\ARM_GCC_484\Debug\BLE Lab 2.a(BLE_dis.o)
 .data          0x00000000        0x0 .\CortexM0\ARM_GCC_484\Debug\BLE Lab 2.a(BLE_dis.o)
 .bss           0x00000000        0x0 .\CortexM0\ARM_GCC_484\Debug\BLE Lab 2.a(BLE_dis.o)
 .rodata        0x00000000       0x14 .\CortexM0\ARM_GCC_484\Debug\BLE Lab 2.a(BLE_dis.o)
 .text.CyBle_DisRegisterAttrCallback
                0x00000000       0x10 .\CortexM0\ARM_GCC_484\Debug\BLE Lab 2.a(BLE_dis.o)
 .text.CyBle_DissSetCharacteristicValue
                0x00000000       0x84 .\CortexM0\ARM_GCC_484\Debug\BLE Lab 2.a(BLE_dis.o)
 .text.CyBle_DissGetCharacteristicValue
                0x00000000       0x84 .\CortexM0\ARM_GCC_484\Debug\BLE Lab 2.a(BLE_dis.o)
 .text          0x00000000        0x0 .\CortexM0\ARM_GCC_484\Debug\BLE Lab 2.a(Opamp.o)
 .data          0x00000000        0x0 .\CortexM0\ARM_GCC_484\Debug\BLE Lab 2.a(Opamp.o)
 .text.Opamp_SetPower
                0x00000000       0x38 .\CortexM0\ARM_GCC_484\Debug\BLE Lab 2.a(Opamp.o)
 .text.Opamp_PumpControl
                0x00000000       0x38 .\CortexM0\ARM_GCC_484\Debug\BLE Lab 2.a(Opamp.o)
 .text          0x00000000        0x0 .\CortexM0\ARM_GCC_484\Debug\BLE Lab 2.a(Opamp_PM.o)
 .data          0x00000000        0x0 .\CortexM0\ARM_GCC_484\Debug\BLE Lab 2.a(Opamp_PM.o)
 .text.Opamp_SaveConfig
                0x00000000        0x8 .\CortexM0\ARM_GCC_484\Debug\BLE Lab 2.a(Opamp_PM.o)
 .text.Opamp_RestoreConfig
                0x00000000        0x8 .\CortexM0\ARM_GCC_484\Debug\BLE Lab 2.a(Opamp_PM.o)
 .text          0x00000000        0x0 .\CortexM0\ARM_GCC_484\Debug\BLE Lab 2.a(ADC.o)
 .data          0x00000000        0x0 .\CortexM0\ARM_GCC_484\Debug\BLE Lab 2.a(ADC.o)
 .rodata        0x00000000        0x4 .\CortexM0\ARM_GCC_484\Debug\BLE Lab 2.a(ADC.o)
 .text.ADC_SetChanMask
                0x00000000       0x1c .\CortexM0\ARM_GCC_484\Debug\BLE Lab 2.a(ADC.o)
 .text.ADC_SetLowLimit
                0x00000000       0x30 .\CortexM0\ARM_GCC_484\Debug\BLE Lab 2.a(ADC.o)
 .text.ADC_SetHighLimit
                0x00000000       0x2c .\CortexM0\ARM_GCC_484\Debug\BLE Lab 2.a(ADC.o)
 .text.ADC_SetLimitMask
                0x00000000       0x1c .\CortexM0\ARM_GCC_484\Debug\BLE Lab 2.a(ADC.o)
 .text.ADC_SetSatMask
                0x00000000       0x1c .\CortexM0\ARM_GCC_484\Debug\BLE Lab 2.a(ADC.o)
 .text.ADC_SetOffset
                0x00000000       0x30 .\CortexM0\ARM_GCC_484\Debug\BLE Lab 2.a(ADC.o)
 .text.ADC_SetGain
                0x00000000       0x2c .\CortexM0\ARM_GCC_484\Debug\BLE Lab 2.a(ADC.o)
 .text.ADC_CountsTo_mVolts
                0x00000000       0xa4 .\CortexM0\ARM_GCC_484\Debug\BLE Lab 2.a(ADC.o)
 .text.ADC_CountsTo_uVolts
                0x00000000       0x98 .\CortexM0\ARM_GCC_484\Debug\BLE Lab 2.a(ADC.o)
 .text.ADC_CountsTo_Volts
                0x00000000       0x80 .\CortexM0\ARM_GCC_484\Debug\BLE Lab 2.a(ADC.o)
 .text          0x00000000        0x0 .\CortexM0\ARM_GCC_484\Debug\BLE Lab 2.a(ADC_PM.o)
 .data          0x00000000        0x0 .\CortexM0\ARM_GCC_484\Debug\BLE Lab 2.a(ADC_PM.o)
 .text.ADC_SaveConfig
                0x00000000        0x8 .\CortexM0\ARM_GCC_484\Debug\BLE Lab 2.a(ADC_PM.o)
 .text.ADC_RestoreConfig
                0x00000000        0x8 .\CortexM0\ARM_GCC_484\Debug\BLE Lab 2.a(ADC_PM.o)
 .text          0x00000000        0x0 .\CortexM0\ARM_GCC_484\Debug\BLE Lab 2.a(ADC_INT.o)
 .data          0x00000000        0x0 .\CortexM0\ARM_GCC_484\Debug\BLE Lab 2.a(ADC_INT.o)
 .bss           0x00000000        0x0 .\CortexM0\ARM_GCC_484\Debug\BLE Lab 2.a(ADC_INT.o)
 .data          0x00000000        0x0 .\CortexM0\ARM_GCC_484\Debug\BLE Lab 2.a(CyBootAsmGnu.o)
 .bss           0x00000000        0x0 .\CortexM0\ARM_GCC_484\Debug\BLE Lab 2.a(CyBootAsmGnu.o)
 .text          0x00000000        0x0 .\CortexM0\ARM_GCC_484\Debug\BLE Lab 2.a(CyLib.o)
 .bss           0x00000000       0x18 .\CortexM0\ARM_GCC_484\Debug\BLE Lab 2.a(CyLib.o)
 .text.CySysClkImoStart
                0x00000000       0x1c .\CortexM0\ARM_GCC_484\Debug\BLE Lab 2.a(CyLib.o)
 .text.CySysClkImoStop
                0x00000000       0x18 .\CortexM0\ARM_GCC_484\Debug\BLE Lab 2.a(CyLib.o)
 .text.CySysClkWriteHfclkDirect
                0x00000000       0x44 .\CortexM0\ARM_GCC_484\Debug\BLE Lab 2.a(CyLib.o)
 .text.CySysClkEcoStop
                0x00000000       0x2c .\CortexM0\ARM_GCC_484\Debug\BLE Lab 2.a(CyLib.o)
 .text.CySysClkWriteEcoDiv
                0x00000000       0x58 .\CortexM0\ARM_GCC_484\Debug\BLE Lab 2.a(CyLib.o)
 .text.CySysLvdEnable
                0x00000000       0x64 .\CortexM0\ARM_GCC_484\Debug\BLE Lab 2.a(CyLib.o)
 .text.CySysLvdDisable
                0x00000000       0x28 .\CortexM0\ARM_GCC_484\Debug\BLE Lab 2.a(CyLib.o)
 .text.CySysLvdGetInterruptSource
                0x00000000       0x18 .\CortexM0\ARM_GCC_484\Debug\BLE Lab 2.a(CyLib.o)
 .text.CySysLvdClearInterrupt
                0x00000000       0x14 .\CortexM0\ARM_GCC_484\Debug\BLE Lab 2.a(CyLib.o)
 .text.CySysGetResetReason
                0x00000000       0x30 .\CortexM0\ARM_GCC_484\Debug\BLE Lab 2.a(CyLib.o)
 .text.CyDisableInts
                0x00000000       0x24 .\CortexM0\ARM_GCC_484\Debug\BLE Lab 2.a(CyLib.o)
 .text.CyEnableInts
                0x00000000       0x18 .\CortexM0\ARM_GCC_484\Debug\BLE Lab 2.a(CyLib.o)
 .text.CyIntSetSysVector
                0x00000000       0x48 .\CortexM0\ARM_GCC_484\Debug\BLE Lab 2.a(CyLib.o)
 .text.CyIntGetSysVector
                0x00000000       0x34 .\CortexM0\ARM_GCC_484\Debug\BLE Lab 2.a(CyLib.o)
 .text.CyIntGetVector
                0x00000000       0x38 .\CortexM0\ARM_GCC_484\Debug\BLE Lab 2.a(CyLib.o)
 .text.CyIntGetPriority
                0x00000000       0x58 .\CortexM0\ARM_GCC_484\Debug\BLE Lab 2.a(CyLib.o)
 .text.CyIntGetState
                0x00000000       0x34 .\CortexM0\ARM_GCC_484\Debug\BLE Lab 2.a(CyLib.o)
 .text.CyIntDisable
                0x00000000       0x2c .\CortexM0\ARM_GCC_484\Debug\BLE Lab 2.a(CyLib.o)
 .text.CyIntSetPending
                0x00000000       0x2c .\CortexM0\ARM_GCC_484\Debug\BLE Lab 2.a(CyLib.o)
 .text.CyIntClearPending
                0x00000000       0x2c .\CortexM0\ARM_GCC_484\Debug\BLE Lab 2.a(CyLib.o)
 .text.CySoftwareReset
                0x00000000       0x20 .\CortexM0\ARM_GCC_484\Debug\BLE Lab 2.a(CyLib.o)
 .text.CyDelayFreq
                0x00000000       0x80 .\CortexM0\ARM_GCC_484\Debug\BLE Lab 2.a(CyLib.o)
 .text.CySysTickStart
                0x00000000       0x24 .\CortexM0\ARM_GCC_484\Debug\BLE Lab 2.a(CyLib.o)
 .text.CySysTickInit
                0x00000000       0x64 .\CortexM0\ARM_GCC_484\Debug\BLE Lab 2.a(CyLib.o)
 .text.CySysTickEnable
                0x00000000       0x1c .\CortexM0\ARM_GCC_484\Debug\BLE Lab 2.a(CyLib.o)
 .text.CySysTickStop
                0x00000000       0x18 .\CortexM0\ARM_GCC_484\Debug\BLE Lab 2.a(CyLib.o)
 .text.CySysTickEnableInterrupt
                0x00000000       0x18 .\CortexM0\ARM_GCC_484\Debug\BLE Lab 2.a(CyLib.o)
 .text.CySysTickDisableInterrupt
                0x00000000       0x18 .\CortexM0\ARM_GCC_484\Debug\BLE Lab 2.a(CyLib.o)
 .text.CySysTickSetReload
                0x00000000       0x1c .\CortexM0\ARM_GCC_484\Debug\BLE Lab 2.a(CyLib.o)
 .text.CySysTickGetReload
                0x00000000       0x18 .\CortexM0\ARM_GCC_484\Debug\BLE Lab 2.a(CyLib.o)
 .text.CySysTickGetValue
                0x00000000       0x18 .\CortexM0\ARM_GCC_484\Debug\BLE Lab 2.a(CyLib.o)
 .text.CySysTickSetClockSource
                0x00000000       0x34 .\CortexM0\ARM_GCC_484\Debug\BLE Lab 2.a(CyLib.o)
 .text.CySysTickGetCountFlag
                0x00000000       0x18 .\CortexM0\ARM_GCC_484\Debug\BLE Lab 2.a(CyLib.o)
 .text.CySysTickClear
                0x00000000       0x14 .\CortexM0\ARM_GCC_484\Debug\BLE Lab 2.a(CyLib.o)
 .text.CySysTickSetCallback
                0x00000000       0x2c .\CortexM0\ARM_GCC_484\Debug\BLE Lab 2.a(CyLib.o)
 .text.CySysTickGetCallback
                0x00000000       0x1c .\CortexM0\ARM_GCC_484\Debug\BLE Lab 2.a(CyLib.o)
 .text.CySysTickServiceCallbacks
                0x00000000       0x44 .\CortexM0\ARM_GCC_484\Debug\BLE Lab 2.a(CyLib.o)
 .text.CyGetUniqueId
                0x00000000       0xc0 .\CortexM0\ARM_GCC_484\Debug\BLE Lab 2.a(CyLib.o)
 .text          0x00000000        0x0 .\CortexM0\ARM_GCC_484\Debug\BLE Lab 2.a(cyPm.o)
 .data          0x00000000        0x0 .\CortexM0\ARM_GCC_484\Debug\BLE Lab 2.a(cyPm.o)
 .bss           0x00000000        0x0 .\CortexM0\ARM_GCC_484\Debug\BLE Lab 2.a(cyPm.o)
 .text.CySysPmStop
                0x00000000       0x3c .\CortexM0\ARM_GCC_484\Debug\BLE Lab 2.a(cyPm.o)
 .text.CySysPmSetWakeupPolarity
                0x00000000       0x4c .\CortexM0\ARM_GCC_484\Debug\BLE Lab 2.a(cyPm.o)
 .text.CySysPmGetResetReason
                0x00000000       0x40 .\CortexM0\ARM_GCC_484\Debug\BLE Lab 2.a(cyPm.o)
 .text.CySysPmFreezeIo
                0x00000000       0x58 .\CortexM0\ARM_GCC_484\Debug\BLE Lab 2.a(cyPm.o)
 .text.CySysPmUnfreezeIo
                0x00000000       0x50 .\CortexM0\ARM_GCC_484\Debug\BLE Lab 2.a(cyPm.o)
 .text          0x00000000        0x0 .\CortexM0\ARM_GCC_484\Debug\BLE Lab 2.a(CyLFClk.o)
 .data          0x00000000        0x4 .\CortexM0\ARM_GCC_484\Debug\BLE Lab 2.a(CyLFClk.o)
 .bss           0x00000000       0x1c .\CortexM0\ARM_GCC_484\Debug\BLE Lab 2.a(CyLFClk.o)
 .rodata        0x00000000        0xc .\CortexM0\ARM_GCC_484\Debug\BLE Lab 2.a(CyLFClk.o)
 .text.CySysClkIloStart
                0x00000000       0x1c .\CortexM0\ARM_GCC_484\Debug\BLE Lab 2.a(CyLFClk.o)
 .text.CySysClkIloStop
                0x00000000       0x64 .\CortexM0\ARM_GCC_484\Debug\BLE Lab 2.a(CyLFClk.o)
 .text.CySysClkIloEnabled
                0x00000000       0x1c .\CortexM0\ARM_GCC_484\Debug\BLE Lab 2.a(CyLFClk.o)
 .text.CySysClkGetLfclkSource
                0x00000000       0x20 .\CortexM0\ARM_GCC_484\Debug\BLE Lab 2.a(CyLFClk.o)
 .text.CySysClkSetLfclkSource
                0x00000000       0x54 .\CortexM0\ARM_GCC_484\Debug\BLE Lab 2.a(CyLFClk.o)
 .text.CySysClkWcoStop
                0x00000000       0x60 .\CortexM0\ARM_GCC_484\Debug\BLE Lab 2.a(CyLFClk.o)
 .text.CySysClkWcoEnabled
                0x00000000       0x1c .\CortexM0\ARM_GCC_484\Debug\BLE Lab 2.a(CyLFClk.o)
 .text.CySysWdtGetMode
                0x00000000       0x24 .\CortexM0\ARM_GCC_484\Debug\BLE Lab 2.a(CyLFClk.o)
 .text.CySysWdtGetClearOnMatch
                0x00000000       0x40 .\CortexM0\ARM_GCC_484\Debug\BLE Lab 2.a(CyLFClk.o)
 .text.CySysWdtDisable
                0x00000000       0x70 .\CortexM0\ARM_GCC_484\Debug\BLE Lab 2.a(CyLFClk.o)
 .text.CySysWdtSetCascade
                0x00000000       0x58 .\CortexM0\ARM_GCC_484\Debug\BLE Lab 2.a(CyLFClk.o)
 .text.CySysWdtGetCascade
                0x00000000       0x1c .\CortexM0\ARM_GCC_484\Debug\BLE Lab 2.a(CyLFClk.o)
 .text.CySysWdtSetToggleBit
                0x00000000       0x44 .\CortexM0\ARM_GCC_484\Debug\BLE Lab 2.a(CyLFClk.o)
 .text.CySysWdtGetToggleBit
                0x00000000       0x18 .\CortexM0\ARM_GCC_484\Debug\BLE Lab 2.a(CyLFClk.o)
 .text.CySysWdtGetMatch
                0x00000000       0x44 .\CortexM0\ARM_GCC_484\Debug\BLE Lab 2.a(CyLFClk.o)
 .text.CySysWdtGetCount
                0x00000000       0x54 .\CortexM0\ARM_GCC_484\Debug\BLE Lab 2.a(CyLFClk.o)
 .text.CySysWdtGetInterruptSource
                0x00000000       0x1c .\CortexM0\ARM_GCC_484\Debug\BLE Lab 2.a(CyLFClk.o)
 .text.CySysWdtResetCounters
                0x00000000       0x34 .\CortexM0\ARM_GCC_484\Debug\BLE Lab 2.a(CyLFClk.o)
 .text.CySysWdtSetInterruptCallback
                0x00000000       0x40 .\CortexM0\ARM_GCC_484\Debug\BLE Lab 2.a(CyLFClk.o)
 .text.CySysWdtGetInterruptCallback
                0x00000000       0x34 .\CortexM0\ARM_GCC_484\Debug\BLE Lab 2.a(CyLFClk.o)
 .text.CySysWdtEnableCounterIsr
                0x00000000       0x50 .\CortexM0\ARM_GCC_484\Debug\BLE Lab 2.a(CyLFClk.o)
 .text.CySysWdtDisableCounterIsr
                0x00000000       0x38 .\CortexM0\ARM_GCC_484\Debug\BLE Lab 2.a(CyLFClk.o)
 .text.CySysWdtIsr
                0x00000000       0xec .\CortexM0\ARM_GCC_484\Debug\BLE Lab 2.a(CyLFClk.o)
 .text.CySysTimerDelay
                0x00000000       0x6c .\CortexM0\ARM_GCC_484\Debug\BLE Lab 2.a(CyLFClk.o)
 .text.CySysTimerDelayUntilMatch
                0x00000000       0xb0 .\CortexM0\ARM_GCC_484\Debug\BLE Lab 2.a(CyLFClk.o)
 .text.CySysWatchdogFeed
                0x00000000       0x88 .\CortexM0\ARM_GCC_484\Debug\BLE Lab 2.a(CyLFClk.o)
 .text.CySysClkLfclkPosedgeCatch
                0x00000000       0x9c .\CortexM0\ARM_GCC_484\Debug\BLE Lab 2.a(CyLFClk.o)
 .text.CySysClkLfclkPosedgeRestore
                0x00000000       0x3c .\CortexM0\ARM_GCC_484\Debug\BLE Lab 2.a(CyLFClk.o)
 i.CyBle_GetDeviceAddress
                0x00000000        0x8 D:\program\CY8\PSoC Creator\3.2\PSoC Creator\psoc\content\cycomponentlibrary\CyComponentLibrary.cylib\BLE_v2_0\Library\gccCyBLEStack_BLE_SOC_PERIPHERAL.a(CyBle.o)
 i.CyBle_GetStackLibraryVersion
                0x00000000       0x18 D:\program\CY8\PSoC Creator\3.2\PSoC Creator\psoc\content\cycomponentlibrary\CyComponentLibrary.cylib\BLE_v2_0\Library\gccCyBLEStack_BLE_SOC_PERIPHERAL.a(CyBle.o)
 i.CyBle_SoftReset
                0x00000000       0x30 D:\program\CY8\PSoC Creator\3.2\PSoC Creator\psoc\content\cycomponentlibrary\CyComponentLibrary.cylib\BLE_v2_0\Library\gccCyBLEStack_BLE_SOC_PERIPHERAL.a(CyBle.o)
 .data          0x00000000        0x4 D:\program\CY8\PSoC Creator\3.2\PSoC Creator\psoc\content\cycomponentlibrary\CyComponentLibrary.cylib\BLE_v2_0\Library\gccCyBLEStack_BLE_SOC_PERIPHERAL.a(CyBle.o)
 .data          0x00000000        0x4 D:\program\CY8\PSoC Creator\3.2\PSoC Creator\psoc\content\cycomponentlibrary\CyComponentLibrary.cylib\BLE_v2_0\Library\gccCyBLEStack_BLE_SOC_PERIPHERAL.a(BT_os.o)
 .data          0x00000000        0x2 D:\program\CY8\PSoC Creator\3.2\PSoC Creator\psoc\content\cycomponentlibrary\CyComponentLibrary.cylib\BLE_v2_0\Library\gccCyBLEStack_BLE_SOC_PERIPHERAL.a(BT_os.o)
 .data          0x00000000        0x4 D:\program\CY8\PSoC Creator\3.2\PSoC Creator\psoc\content\cycomponentlibrary\CyComponentLibrary.cylib\BLE_v2_0\Library\gccCyBLEStack_BLE_SOC_PERIPHERAL.a(BT_os.o)
 i.idle_task_handler
                0x00000000        0x2 D:\program\CY8\PSoC Creator\3.2\PSoC Creator\psoc\content\cycomponentlibrary\CyComponentLibrary.cylib\BLE_v2_0\Library\gccCyBLEStack_BLE_SOC_PERIPHERAL.a(CyBleStackMgr_StackTaskHandler.o)
 __ARM_common_switch8
                0x00000000        0xc D:\program\CY8\PSoC Creator\3.2\PSoC Creator\psoc\content\cycomponentlibrary\CyComponentLibrary.cylib\BLE_v2_0\Library\gccCyBLEStack_BLE_SOC_PERIPHERAL.a(CyBleStackMgr_StackTaskHandler.o)
 i.pf_app_get_max_tx_acl_data_size
                0x00000000        0x4 D:\program\CY8\PSoC Creator\3.2\PSoC Creator\psoc\content\cycomponentlibrary\CyComponentLibrary.cylib\BLE_v2_0\Library\gccCyBLEStack_BLE_SOC_PERIPHERAL.a(transport_sf.o)
 i.pf_app_transport_alloc_buffer
                0x00000000        0x4 D:\program\CY8\PSoC Creator\3.2\PSoC Creator\psoc\content\cycomponentlibrary\CyComponentLibrary.cylib\BLE_v2_0\Library\gccCyBLEStack_BLE_SOC_PERIPHERAL.a(transport_sf.o)
 i.CyBleStackMgr_HalShutdown
                0x00000000        0x2 D:\program\CY8\PSoC Creator\3.2\PSoC Creator\psoc\content\cycomponentlibrary\CyComponentLibrary.cylib\BLE_v2_0\Library\gccCyBLEStack_BLE_SOC_PERIPHERAL.a(CyBleStackMgr_PSoCHal.o)
 i.CyBleStackMgr_NvramRead
                0x00000000        0xe D:\program\CY8\PSoC Creator\3.2\PSoC Creator\psoc\content\cycomponentlibrary\CyComponentLibrary.cylib\BLE_v2_0\Library\gccCyBLEStack_BLE_SOC_PERIPHERAL.a(CyBleStackMgr_PSoCHal.o)
 i.CyBleStackMgr_BleSSRdRegRead
                0x00000000        0xc D:\program\CY8\PSoC Creator\3.2\PSoC Creator\psoc\content\cycomponentlibrary\CyComponentLibrary.cylib\BLE_v2_0\Library\gccCyBLEStack_BLE_SOC_PERIPHERAL.a(CyBleStackMgr_BleSSDriver.o)
 i.CyBleStackMgr_BleSSRdRegWrite
                0x00000000        0xc D:\program\CY8\PSoC Creator\3.2\PSoC Creator\psoc\content\cycomponentlibrary\CyComponentLibrary.cylib\BLE_v2_0\Library\gccCyBLEStack_BLE_SOC_PERIPHERAL.a(CyBleStackMgr_BleSSDriver.o)
 i.CyBle_AesCcmInit
                0x00000000       0x68 D:\program\CY8\PSoC Creator\3.2\PSoC Creator\psoc\content\cycomponentlibrary\CyComponentLibrary.cylib\BLE_v2_0\Library\gccCyBLEStack_BLE_SOC_PERIPHERAL.a(CyBleStackMgr_BleSSDriver.o)
 i.CyBle_GetBleClockCfgParam
                0x00000000       0x20 D:\program\CY8\PSoC Creator\3.2\PSoC Creator\psoc\content\cycomponentlibrary\CyComponentLibrary.cylib\BLE_v2_0\Library\gccCyBLEStack_BLE_SOC_PERIPHERAL.a(CyBleStackMgr_BleSSDriver.o)
 i.CyBle_SetBleClockCfgParam
                0x00000000       0xc0 D:\program\CY8\PSoC Creator\3.2\PSoC Creator\psoc\content\cycomponentlibrary\CyComponentLibrary.cylib\BLE_v2_0\Library\gccCyBLEStack_BLE_SOC_PERIPHERAL.a(CyBleStackMgr_BleSSDriver.o)
 i.pf_rf_get_abs_power
                0x00000000        0x2 D:\program\CY8\PSoC Creator\3.2\PSoC Creator\psoc\content\cycomponentlibrary\CyComponentLibrary.cylib\BLE_v2_0\Library\gccCyBLEStack_BLE_SOC_PERIPHERAL.a(CyBleStackMgr_BleSSDriver.o)
 __ARM_common_switch8
                0x00000000        0xc D:\program\CY8\PSoC Creator\3.2\PSoC Creator\psoc\content\cycomponentlibrary\CyComponentLibrary.cylib\BLE_v2_0\Library\gccCyBLEStack_BLE_SOC_PERIPHERAL.a(CyBleStackMgr_BleSSDriver.o)
 i.__ARM_common_switch8
                0x00000000       0x1a D:\program\CY8\PSoC Creator\3.2\PSoC Creator\psoc\content\cycomponentlibrary\CyComponentLibrary.cylib\BLE_v2_0\Library\gccCyBLEStack_BLE_SOC_PERIPHERAL.a(CyBleStackMgr_BleSSDriver.o)
 .debug_frame   0x00000000       0x48 D:\program\CY8\PSoC Creator\3.2\PSoC Creator\psoc\content\cycomponentlibrary\CyComponentLibrary.cylib\BLE_v2_0\Library\gccCyBLEStack_BLE_SOC_PERIPHERAL.a(CyBleStackMgr_BleSSDriver.o)
 i.mintos_free  0x00000000        0x2 D:\program\CY8\PSoC Creator\3.2\PSoC Creator\psoc\content\cycomponentlibrary\CyComponentLibrary.cylib\BLE_v2_0\Library\gccCyBLEStack_BLE_SOC_PERIPHERAL.a(mint_os.o)
 i.os_reset_heap_pointer
                0x00000000        0x2 D:\program\CY8\PSoC Creator\3.2\PSoC Creator\psoc\content\cycomponentlibrary\CyComponentLibrary.cylib\BLE_v2_0\Library\gccCyBLEStack_BLE_SOC_PERIPHERAL.a(mint_os.o)
 i.OS_queue_mgmt_shutdown
                0x00000000        0x4 D:\program\CY8\PSoC Creator\3.2\PSoC Creator\psoc\content\cycomponentlibrary\CyComponentLibrary.cylib\BLE_v2_0\Library\gccCyBLEStack_BLE_SOC_PERIPHERAL.a(mint_os_queue.o)
 i.idle_func_handler1
                0x00000000        0x2 D:\program\CY8\PSoC Creator\3.2\PSoC Creator\psoc\content\cycomponentlibrary\CyComponentLibrary.cylib\BLE_v2_0\Library\gccCyBLEStack_BLE_SOC_PERIPHERAL.a(mint_os_task.o)
 i.mint_buf_mgmt_free
                0x00000000        0x2 D:\program\CY8\PSoC Creator\3.2\PSoC Creator\psoc\content\cycomponentlibrary\CyComponentLibrary.cylib\BLE_v2_0\Library\gccCyBLEStack_BLE_SOC_PERIPHERAL.a(mint_buf_mgmt.o)
 i.mint_buf_mgmt_get_free_heap
                0x00000000       0x1c D:\program\CY8\PSoC Creator\3.2\PSoC Creator\psoc\content\cycomponentlibrary\CyComponentLibrary.cylib\BLE_v2_0\Library\gccCyBLEStack_BLE_SOC_PERIPHERAL.a(mint_buf_mgmt.o)
 i.CyBleControllerIP_SetPingState
                0x00000000        0xc D:\program\CY8\PSoC Creator\3.2\PSoC Creator\psoc\content\cycomponentlibrary\CyComponentLibrary.cylib\BLE_v2_0\Library\gccCyBLEStack_BLE_SOC_PERIPHERAL.a(CyBleControllerIP_Interface.o)
 i.CyBleController_ClearWhiteList
                0x00000000       0x1a D:\program\CY8\PSoC Creator\3.2\PSoC Creator\psoc\content\cycomponentlibrary\CyComponentLibrary.cylib\BLE_v2_0\Library\gccCyBLEStack_BLE_SOC_PERIPHERAL.a(CyBleControllerIP_Interface.o)
 i.CyBleController_GetCurrentWhiteListCount
                0x00000000       0x24 D:\program\CY8\PSoC Creator\3.2\PSoC Creator\psoc\content\cycomponentlibrary\CyComponentLibrary.cylib\BLE_v2_0\Library\gccCyBLEStack_BLE_SOC_PERIPHERAL.a(CyBleControllerIP_Interface.o)
 i.CyBleController_GetDeviceAddress
                0x00000000       0x22 D:\program\CY8\PSoC Creator\3.2\PSoC Creator\psoc\content\cycomponentlibrary\CyComponentLibrary.cylib\BLE_v2_0\Library\gccCyBLEStack_BLE_SOC_PERIPHERAL.a(CyBleControllerIP_Interface.o)
 i.CyBleController_GetDevicesFromWhiteList
                0x00000000       0xac D:\program\CY8\PSoC Creator\3.2\PSoC Creator\psoc\content\cycomponentlibrary\CyComponentLibrary.cylib\BLE_v2_0\Library\gccCyBLEStack_BLE_SOC_PERIPHERAL.a(CyBleControllerIP_Interface.o)
 i.CyBleController_RemoveDeviceFromWhiteList
                0x00000000       0x38 D:\program\CY8\PSoC Creator\3.2\PSoC Creator\psoc\content\cycomponentlibrary\CyComponentLibrary.cylib\BLE_v2_0\Library\gccCyBLEStack_BLE_SOC_PERIPHERAL.a(CyBleControllerIP_Interface.o)
 i.CyBle_AesCcmDecrypt
                0x00000000       0x44 D:\program\CY8\PSoC Creator\3.2\PSoC Creator\psoc\content\cycomponentlibrary\CyComponentLibrary.cylib\BLE_v2_0\Library\gccCyBLEStack_BLE_SOC_PERIPHERAL.a(CyBleControllerIP_Interface.o)
 i.CyBle_AesCcmEncrypt
                0x00000000       0x3a D:\program\CY8\PSoC Creator\3.2\PSoC Creator\psoc\content\cycomponentlibrary\CyComponentLibrary.cylib\BLE_v2_0\Library\gccCyBLEStack_BLE_SOC_PERIPHERAL.a(CyBleControllerIP_Interface.o)
 i.CyBle_AesEncrypt
                0x00000000       0x5c D:\program\CY8\PSoC Creator\3.2\PSoC Creator\psoc\content\cycomponentlibrary\CyComponentLibrary.cylib\BLE_v2_0\Library\gccCyBLEStack_BLE_SOC_PERIPHERAL.a(CyBleControllerIP_Interface.o)
 i.CyBle_GapUpdateAdvData
                0x00000000       0x94 D:\program\CY8\PSoC Creator\3.2\PSoC Creator\psoc\content\cycomponentlibrary\CyComponentLibrary.cylib\BLE_v2_0\Library\gccCyBLEStack_BLE_SOC_PERIPHERAL.a(CyBleControllerIP_Interface.o)
 i.CyBle_GenerateRandomNumber
                0x00000000       0x1c D:\program\CY8\PSoC Creator\3.2\PSoC Creator\psoc\content\cycomponentlibrary\CyComponentLibrary.cylib\BLE_v2_0\Library\gccCyBLEStack_BLE_SOC_PERIPHERAL.a(CyBleControllerIP_Interface.o)
 i.CyBle_GetRssi
                0x00000000       0x22 D:\program\CY8\PSoC Creator\3.2\PSoC Creator\psoc\content\cycomponentlibrary\CyComponentLibrary.cylib\BLE_v2_0\Library\gccCyBLEStack_BLE_SOC_PERIPHERAL.a(CyBleControllerIP_Interface.o)
 i.CyBle_ReadAuthPayloadTimeout
                0x00000000       0x64 D:\program\CY8\PSoC Creator\3.2\PSoC Creator\psoc\content\cycomponentlibrary\CyComponentLibrary.cylib\BLE_v2_0\Library\gccCyBLEStack_BLE_SOC_PERIPHERAL.a(CyBleControllerIP_Interface.o)
 i.CyBle_SetCeLengthParam
                0x00000000       0x7c D:\program\CY8\PSoC Creator\3.2\PSoC Creator\psoc\content\cycomponentlibrary\CyComponentLibrary.cylib\BLE_v2_0\Library\gccCyBLEStack_BLE_SOC_PERIPHERAL.a(CyBleControllerIP_Interface.o)
 i.CyBle_WriteAuthPayloadTimeout
                0x00000000       0x84 D:\program\CY8\PSoC Creator\3.2\PSoC Creator\psoc\content\cycomponentlibrary\CyComponentLibrary.cylib\BLE_v2_0\Library\gccCyBLEStack_BLE_SOC_PERIPHERAL.a(CyBleControllerIP_Interface.o)
 i.CyBle_isFlashWriteAllowed
                0x00000000       0x34 D:\program\CY8\PSoC Creator\3.2\PSoC Creator\psoc\content\cycomponentlibrary\CyComponentLibrary.cylib\BLE_v2_0\Library\gccCyBLEStack_BLE_SOC_PERIPHERAL.a(CyBleControllerIP_Interface.o)
 i.ll_handle_set_host_channel_map
                0x00000000        0x4 D:\program\CY8\PSoC Creator\3.2\PSoC Creator\psoc\content\cycomponentlibrary\CyComponentLibrary.cylib\BLE_v2_0\Library\gccCyBLEStack_BLE_SOC_PERIPHERAL.a(ll.o)
 i.ll_is_packet_ready_for_transmission
                0x00000000        0x4 D:\program\CY8\PSoC Creator\3.2\PSoC Creator\psoc\content\cycomponentlibrary\CyComponentLibrary.cylib\BLE_v2_0\Library\gccCyBLEStack_BLE_SOC_PERIPHERAL.a(ll.o)
 .data          0x00000000        0x1 D:\program\CY8\PSoC Creator\3.2\PSoC Creator\psoc\content\cycomponentlibrary\CyComponentLibrary.cylib\BLE_v2_0\Library\gccCyBLEStack_BLE_SOC_PERIPHERAL.a(ll.o)
 i.ll_conn_is_channel_map_update_in_progress
                0x00000000       0x10 D:\program\CY8\PSoC Creator\3.2\PSoC Creator\psoc\content\cycomponentlibrary\CyComponentLibrary.cylib\BLE_v2_0\Library\gccCyBLEStack_BLE_SOC_PERIPHERAL.a(ll_connection.o)
 i.ll_conn_send_connection_update
                0x00000000        0x4 D:\program\CY8\PSoC Creator\3.2\PSoC Creator\psoc\content\cycomponentlibrary\CyComponentLibrary.cylib\BLE_v2_0\Library\gccCyBLEStack_BLE_SOC_PERIPHERAL.a(ll_connection.o)
 i.ll_decrement_rx_packet_count
                0x00000000        0x8 D:\program\CY8\PSoC Creator\3.2\PSoC Creator\psoc\content\cycomponentlibrary\CyComponentLibrary.cylib\BLE_v2_0\Library\gccCyBLEStack_BLE_SOC_PERIPHERAL.a(ll_connection.o)
 i.ll_fsm_handle_start_of_conn_interval
                0x00000000        0x2 D:\program\CY8\PSoC Creator\3.2\PSoC Creator\psoc\content\cycomponentlibrary\CyComponentLibrary.cylib\BLE_v2_0\Library\gccCyBLEStack_BLE_SOC_PERIPHERAL.a(ll_connection.o)
 i.ll_handle_ack_ind
                0x00000000       0x1c D:\program\CY8\PSoC Creator\3.2\PSoC Creator\psoc\content\cycomponentlibrary\CyComponentLibrary.cylib\BLE_v2_0\Library\gccCyBLEStack_BLE_SOC_PERIPHERAL.a(ll_connection.o)
 i.ll_handle_connection_ready_indication
                0x00000000        0x2 D:\program\CY8\PSoC Creator\3.2\PSoC Creator\psoc\content\cycomponentlibrary\CyComponentLibrary.cylib\BLE_v2_0\Library\gccCyBLEStack_BLE_SOC_PERIPHERAL.a(ll_connection.o)
 i.ll_pause_data_transfer
                0x00000000        0x8 D:\program\CY8\PSoC Creator\3.2\PSoC Creator\psoc\content\cycomponentlibrary\CyComponentLibrary.cylib\BLE_v2_0\Library\gccCyBLEStack_BLE_SOC_PERIPHERAL.a(ll_connection.o)
 i.ll_perform_feature_exchange
                0x00000000       0x44 D:\program\CY8\PSoC Creator\3.2\PSoC Creator\psoc\content\cycomponentlibrary\CyComponentLibrary.cylib\BLE_v2_0\Library\gccCyBLEStack_BLE_SOC_PERIPHERAL.a(ll_connection.o)
 i.ll_resume_data_transfer
                0x00000000        0x8 D:\program\CY8\PSoC Creator\3.2\PSoC Creator\psoc\content\cycomponentlibrary\CyComponentLibrary.cylib\BLE_v2_0\Library\gccCyBLEStack_BLE_SOC_PERIPHERAL.a(ll_connection.o)
 i.ll_retrieve_conn_initiation_in_progress
                0x00000000        0xa D:\program\CY8\PSoC Creator\3.2\PSoC Creator\psoc\content\cycomponentlibrary\CyComponentLibrary.cylib\BLE_v2_0\Library\gccCyBLEStack_BLE_SOC_PERIPHERAL.a(ll_connection.o)
 i.ll_store_conn_update_cmd_params
                0x00000000       0x1a D:\program\CY8\PSoC Creator\3.2\PSoC Creator\psoc\content\cycomponentlibrary\CyComponentLibrary.cylib\BLE_v2_0\Library\gccCyBLEStack_BLE_SOC_PERIPHERAL.a(ll_connection.o)
 __ARM_common_switch8
                0x00000000        0xc D:\program\CY8\PSoC Creator\3.2\PSoC Creator\psoc\content\cycomponentlibrary\CyComponentLibrary.cylib\BLE_v2_0\Library\gccCyBLEStack_BLE_SOC_PERIPHERAL.a(ll_connection.o)
 i.__ARM_common_switch8
                0x00000000       0x1a D:\program\CY8\PSoC Creator\3.2\PSoC Creator\psoc\content\cycomponentlibrary\CyComponentLibrary.cylib\BLE_v2_0\Library\gccCyBLEStack_BLE_SOC_PERIPHERAL.a(ll_connection.o)
 .debug_frame   0x00000000       0x48 D:\program\CY8\PSoC Creator\3.2\PSoC Creator\psoc\content\cycomponentlibrary\CyComponentLibrary.cylib\BLE_v2_0\Library\gccCyBLEStack_BLE_SOC_PERIPHERAL.a(ll_connection.o)
 i.llh_config_conn_as_master
                0x00000000       0x18 D:\program\CY8\PSoC Creator\3.2\PSoC Creator\psoc\content\cycomponentlibrary\CyComponentLibrary.cylib\BLE_v2_0\Library\gccCyBLEStack_BLE_SOC_PERIPHERAL.a(llh_api.o)
 i.llh_derive_instant
                0x00000000       0x1a D:\program\CY8\PSoC Creator\3.2\PSoC Creator\psoc\content\cycomponentlibrary\CyComponentLibrary.cylib\BLE_v2_0\Library\gccCyBLEStack_BLE_SOC_PERIPHERAL.a(llh_api.o)
 i.llh_get_current_ce_count
                0x00000000       0x14 D:\program\CY8\PSoC Creator\3.2\PSoC Creator\psoc\content\cycomponentlibrary\CyComponentLibrary.cylib\BLE_v2_0\Library\gccCyBLEStack_BLE_SOC_PERIPHERAL.a(llh_api.o)
 i.llh_program_init_params
                0x00000000       0x2e D:\program\CY8\PSoC Creator\3.2\PSoC Creator\psoc\content\cycomponentlibrary\CyComponentLibrary.cylib\BLE_v2_0\Library\gccCyBLEStack_BLE_SOC_PERIPHERAL.a(llh_api.o)
 i.llh_read_rssi_from_fifo
                0x00000000        0xa D:\program\CY8\PSoC Creator\3.2\PSoC Creator\psoc\content\cycomponentlibrary\CyComponentLibrary.cylib\BLE_v2_0\Library\gccCyBLEStack_BLE_SOC_PERIPHERAL.a(llh_api.o)
 i.llh_update_channel_map
                0x00000000       0x38 D:\program\CY8\PSoC Creator\3.2\PSoC Creator\psoc\content\cycomponentlibrary\CyComponentLibrary.cylib\BLE_v2_0\Library\gccCyBLEStack_BLE_SOC_PERIPHERAL.a(llh_api.o)
 i.ll_generate_le_rd_remote_used_feat_event
                0x00000000       0x26 D:\program\CY8\PSoC Creator\3.2\PSoC Creator\psoc\content\cycomponentlibrary\CyComponentLibrary.cylib\BLE_v2_0\Library\gccCyBLEStack_BLE_SOC_PERIPHERAL.a(ll_pdu.o)
 i.ll_get_conn_update_txn_info
                0x00000000       0x32 D:\program\CY8\PSoC Creator\3.2\PSoC Creator\psoc\content\cycomponentlibrary\CyComponentLibrary.cylib\BLE_v2_0\Library\gccCyBLEStack_BLE_SOC_PERIPHERAL.a(ll_pdu.o)
 i.ll_handle_failure_during_conn_update
                0x00000000       0x38 D:\program\CY8\PSoC Creator\3.2\PSoC Creator\psoc\content\cycomponentlibrary\CyComponentLibrary.cylib\BLE_v2_0\Library\gccCyBLEStack_BLE_SOC_PERIPHERAL.a(ll_pdu.o)
 __ARM_common_switch8
                0x00000000        0xc D:\program\CY8\PSoC Creator\3.2\PSoC Creator\psoc\content\cycomponentlibrary\CyComponentLibrary.cylib\BLE_v2_0\Library\gccCyBLEStack_BLE_SOC_PERIPHERAL.a(ll_tasks.o)
 i.__ARM_common_switch8
                0x00000000       0x1a D:\program\CY8\PSoC Creator\3.2\PSoC Creator\psoc\content\cycomponentlibrary\CyComponentLibrary.cylib\BLE_v2_0\Library\gccCyBLEStack_BLE_SOC_PERIPHERAL.a(ll_tasks.o)
 .debug_frame   0x00000000       0x48 D:\program\CY8\PSoC Creator\3.2\PSoC Creator\psoc\content\cycomponentlibrary\CyComponentLibrary.cylib\BLE_v2_0\Library\gccCyBLEStack_BLE_SOC_PERIPHERAL.a(ll_tasks.o)
 i.ll_decryption_aes_ccm_mode_appl
                0x00000000       0x30 D:\program\CY8\PSoC Creator\3.2\PSoC Creator\psoc\content\cycomponentlibrary\CyComponentLibrary.cylib\BLE_v2_0\Library\gccCyBLEStack_BLE_SOC_PERIPHERAL.a(ll_utils.o)
 i.ll_encryption_aes_ccm_mode_appl
                0x00000000       0x30 D:\program\CY8\PSoC Creator\3.2\PSoC Creator\psoc\content\cycomponentlibrary\CyComponentLibrary.cylib\BLE_v2_0\Library\gccCyBLEStack_BLE_SOC_PERIPHERAL.a(ll_utils.o)
 i.pf_btc_get_timestamp
                0x00000000        0xc D:\program\CY8\PSoC Creator\3.2\PSoC Creator\psoc\content\cycomponentlibrary\CyComponentLibrary.cylib\BLE_v2_0\Library\gccCyBLEStack_BLE_SOC_PERIPHERAL.a(ll_utils.o)
 i.llf_task_bt_shutdown
                0x00000000       0x54 D:\program\CY8\PSoC Creator\3.2\PSoC Creator\psoc\content\cycomponentlibrary\CyComponentLibrary.cylib\BLE_v2_0\Library\gccCyBLEStack_BLE_SOC_PERIPHERAL.a(llf_task.o)
 i.hci_generate_le_rd_remote_used_feat_event
                0x00000000       0x5a D:\program\CY8\PSoC Creator\3.2\PSoC Creator\psoc\content\cycomponentlibrary\CyComponentLibrary.cylib\BLE_v2_0\Library\gccCyBLEStack_BLE_SOC_PERIPHERAL.a(lec_hci_le_conn_commands.o)
 i.pf_hci_get_max_cmd_size
                0x00000000        0x4 D:\program\CY8\PSoC Creator\3.2\PSoC Creator\psoc\content\cycomponentlibrary\CyComponentLibrary.cylib\BLE_v2_0\Library\gccCyBLEStack_BLE_SOC_PERIPHERAL.a(hci_td.o)
 i.pf_hci_get_max_tx_acl_data_size
                0x00000000        0x4 D:\program\CY8\PSoC Creator\3.2\PSoC Creator\psoc\content\cycomponentlibrary\CyComponentLibrary.cylib\BLE_v2_0\Library\gccCyBLEStack_BLE_SOC_PERIPHERAL.a(hci_td.o)
 i.pf_hci_transport_free_buffer
                0x00000000       0x1a D:\program\CY8\PSoC Creator\3.2\PSoC Creator\psoc\content\cycomponentlibrary\CyComponentLibrary.cylib\BLE_v2_0\Library\gccCyBLEStack_BLE_SOC_PERIPHERAL.a(hci_td.o)
 i.CyBle_StartTimer
                0x00000000       0x34 D:\program\CY8\PSoC Creator\3.2\PSoC Creator\psoc\content\cycomponentlibrary\CyComponentLibrary.cylib\BLE_v2_0\Library\gccCyBLEStack_BLE_SOC_PERIPHERAL.a(host_main.o)
 i.CyBle_StopTimer
                0x00000000       0x28 D:\program\CY8\PSoC Creator\3.2\PSoC Creator\psoc\content\cycomponentlibrary\CyComponentLibrary.cylib\BLE_v2_0\Library\gccCyBLEStack_BLE_SOC_PERIPHERAL.a(host_main.o)
 i.CyBle_StoreAppData
                0x00000000       0x24 D:\program\CY8\PSoC Creator\3.2\PSoC Creator\psoc\content\cycomponentlibrary\CyComponentLibrary.cylib\BLE_v2_0\Library\gccCyBLEStack_BLE_SOC_PERIPHERAL.a(host_main.o)
 i.CyBle_StoreStackData
                0x00000000        0x8 D:\program\CY8\PSoC Creator\3.2\PSoC Creator\psoc\content\cycomponentlibrary\CyComponentLibrary.cylib\BLE_v2_0\Library\gccCyBLEStack_BLE_SOC_PERIPHERAL.a(host_main.o)
 i.CyBle_TimerExpiryHandler
                0x00000000       0x10 D:\program\CY8\PSoC Creator\3.2\PSoC Creator\psoc\content\cycomponentlibrary\CyComponentLibrary.cylib\BLE_v2_0\Library\gccCyBLEStack_BLE_SOC_PERIPHERAL.a(host_main.o)
 i.BT_att_access_mtu
                0x00000000       0x2c D:\program\CY8\PSoC Creator\3.2\PSoC Creator\psoc\content\cycomponentlibrary\CyComponentLibrary.cylib\BLE_v2_0\Library\gccCyBLEStack_BLE_SOC_PERIPHERAL.a(att_api.o)
 __ARM_common_switch8
                0x00000000        0xc D:\program\CY8\PSoC Creator\3.2\PSoC Creator\psoc\content\cycomponentlibrary\CyComponentLibrary.cylib\BLE_v2_0\Library\gccCyBLEStack_BLE_SOC_PERIPHERAL.a(att_api.o)
 i.__ARM_common_switch8
                0x00000000       0x1a D:\program\CY8\PSoC Creator\3.2\PSoC Creator\psoc\content\cycomponentlibrary\CyComponentLibrary.cylib\BLE_v2_0\Library\gccCyBLEStack_BLE_SOC_PERIPHERAL.a(att_api.o)
 .debug_frame   0x00000000       0x48 D:\program\CY8\PSoC Creator\3.2\PSoC Creator\psoc\content\cycomponentlibrary\CyComponentLibrary.cylib\BLE_v2_0\Library\gccCyBLEStack_BLE_SOC_PERIPHERAL.a(att_api.o)
 i.CyBle_L2capCbfcConnectReq
                0x00000000       0x22 D:\program\CY8\PSoC Creator\3.2\PSoC Creator\psoc\content\cycomponentlibrary\CyComponentLibrary.cylib\BLE_v2_0\Library\gccCyBLEStack_BLE_SOC_PERIPHERAL.a(l2cap.o)
 i.CyBle_L2capCbfcConnectRsp
                0x00000000       0x1e D:\program\CY8\PSoC Creator\3.2\PSoC Creator\psoc\content\cycomponentlibrary\CyComponentLibrary.cylib\BLE_v2_0\Library\gccCyBLEStack_BLE_SOC_PERIPHERAL.a(l2cap.o)
 i.CyBle_L2capCbfcRegisterPsm
                0x00000000       0x78 D:\program\CY8\PSoC Creator\3.2\PSoC Creator\psoc\content\cycomponentlibrary\CyComponentLibrary.cylib\BLE_v2_0\Library\gccCyBLEStack_BLE_SOC_PERIPHERAL.a(l2cap.o)
 i.CyBle_L2capCbfcSendFlowControlCredit
                0x00000000       0x16 D:\program\CY8\PSoC Creator\3.2\PSoC Creator\psoc\content\cycomponentlibrary\CyComponentLibrary.cylib\BLE_v2_0\Library\gccCyBLEStack_BLE_SOC_PERIPHERAL.a(l2cap.o)
 i.CyBle_L2capCbfcUnregisterPsm
                0x00000000       0x16 D:\program\CY8\PSoC Creator\3.2\PSoC Creator\psoc\content\cycomponentlibrary\CyComponentLibrary.cylib\BLE_v2_0\Library\gccCyBLEStack_BLE_SOC_PERIPHERAL.a(l2cap.o)
 i.CyBle_L2capChannelDataWrite
                0x00000000       0x22 D:\program\CY8\PSoC Creator\3.2\PSoC Creator\psoc\content\cycomponentlibrary\CyComponentLibrary.cylib\BLE_v2_0\Library\gccCyBLEStack_BLE_SOC_PERIPHERAL.a(l2cap.o)
 i.CyBle_L2capCheckErrCode
                0x00000000       0xb4 D:\program\CY8\PSoC Creator\3.2\PSoC Creator\psoc\content\cycomponentlibrary\CyComponentLibrary.cylib\BLE_v2_0\Library\gccCyBLEStack_BLE_SOC_PERIPHERAL.a(l2cap.o)
 i.CyBle_L2capConnectCnfCb
                0x00000000       0x34 D:\program\CY8\PSoC Creator\3.2\PSoC Creator\psoc\content\cycomponentlibrary\CyComponentLibrary.cylib\BLE_v2_0\Library\gccCyBLEStack_BLE_SOC_PERIPHERAL.a(l2cap.o)
 i.CyBle_L2capConnectIndCb
                0x00000000       0x34 D:\program\CY8\PSoC Creator\3.2\PSoC Creator\psoc\content\cycomponentlibrary\CyComponentLibrary.cylib\BLE_v2_0\Library\gccCyBLEStack_BLE_SOC_PERIPHERAL.a(l2cap.o)
 i.CyBle_L2capDataReadCb
                0x00000000       0x24 D:\program\CY8\PSoC Creator\3.2\PSoC Creator\psoc\content\cycomponentlibrary\CyComponentLibrary.cylib\BLE_v2_0\Library\gccCyBLEStack_BLE_SOC_PERIPHERAL.a(l2cap.o)
 i.CyBle_L2capDataWriteCb
                0x00000000       0x18 D:\program\CY8\PSoC Creator\3.2\PSoC Creator\psoc\content\cycomponentlibrary\CyComponentLibrary.cylib\BLE_v2_0\Library\gccCyBLEStack_BLE_SOC_PERIPHERAL.a(l2cap.o)
 i.CyBle_L2capDisconnectCnfCb
                0x00000000       0x14 D:\program\CY8\PSoC Creator\3.2\PSoC Creator\psoc\content\cycomponentlibrary\CyComponentLibrary.cylib\BLE_v2_0\Library\gccCyBLEStack_BLE_SOC_PERIPHERAL.a(l2cap.o)
 i.CyBle_L2capDisconnectIndCb
                0x00000000        0xe D:\program\CY8\PSoC Creator\3.2\PSoC Creator\psoc\content\cycomponentlibrary\CyComponentLibrary.cylib\BLE_v2_0\Library\gccCyBLEStack_BLE_SOC_PERIPHERAL.a(l2cap.o)
 i.CyBle_L2capDisconnectReq
                0x00000000       0x16 D:\program\CY8\PSoC Creator\3.2\PSoC Creator\psoc\content\cycomponentlibrary\CyComponentLibrary.cylib\BLE_v2_0\Library\gccCyBLEStack_BLE_SOC_PERIPHERAL.a(l2cap.o)
 i.CyBle_L2capLeConnectionParamUpdateRequest
                0x00000000       0x2e D:\program\CY8\PSoC Creator\3.2\PSoC Creator\psoc\content\cycomponentlibrary\CyComponentLibrary.cylib\BLE_v2_0\Library\gccCyBLEStack_BLE_SOC_PERIPHERAL.a(l2cap.o)
 i.CyBle_L2capRxCreditIndCb
                0x00000000       0x14 D:\program\CY8\PSoC Creator\3.2\PSoC Creator\psoc\content\cycomponentlibrary\CyComponentLibrary.cylib\BLE_v2_0\Library\gccCyBLEStack_BLE_SOC_PERIPHERAL.a(l2cap.o)
 i.CyBle_L2capSetConfig
                0x00000000       0x30 D:\program\CY8\PSoC Creator\3.2\PSoC Creator\psoc\content\cycomponentlibrary\CyComponentLibrary.cylib\BLE_v2_0\Library\gccCyBLEStack_BLE_SOC_PERIPHERAL.a(l2cap.o)
 i.CyBle_L2capTxCreditIndCb
                0x00000000       0x16 D:\program\CY8\PSoC Creator\3.2\PSoC Creator\psoc\content\cycomponentlibrary\CyComponentLibrary.cylib\BLE_v2_0\Library\gccCyBLEStack_BLE_SOC_PERIPHERAL.a(l2cap.o)
 __ARM_common_switch8
                0x00000000        0xc D:\program\CY8\PSoC Creator\3.2\PSoC Creator\psoc\content\cycomponentlibrary\CyComponentLibrary.cylib\BLE_v2_0\Library\gccCyBLEStack_BLE_SOC_PERIPHERAL.a(l2cap.o)
 i.__ARM_common_switch8
                0x00000000       0x1a D:\program\CY8\PSoC Creator\3.2\PSoC Creator\psoc\content\cycomponentlibrary\CyComponentLibrary.cylib\BLE_v2_0\Library\gccCyBLEStack_BLE_SOC_PERIPHERAL.a(l2cap.o)
 .debug_frame   0x00000000       0x48 D:\program\CY8\PSoC Creator\3.2\PSoC Creator\psoc\content\cycomponentlibrary\CyComponentLibrary.cylib\BLE_v2_0\Library\gccCyBLEStack_BLE_SOC_PERIPHERAL.a(l2cap.o)
 i.l2ca_disconnect_req
                0x00000000       0xb0 D:\program\CY8\PSoC Creator\3.2\PSoC Creator\psoc\content\cycomponentlibrary\CyComponentLibrary.cylib\BLE_v2_0\Library\gccCyBLEStack_BLE_SOC_PERIPHERAL.a(l2cap_disconnect.o)
 i.l2cap_cbfc_register_psm
                0x00000000       0x80 D:\program\CY8\PSoC Creator\3.2\PSoC Creator\psoc\content\cycomponentlibrary\CyComponentLibrary.cylib\BLE_v2_0\Library\gccCyBLEStack_BLE_SOC_PERIPHERAL.a(l2cap_init.o)
 i.l2cap_cbfc_unregister_psm
                0x00000000       0xc8 D:\program\CY8\PSoC Creator\3.2\PSoC Creator\psoc\content\cycomponentlibrary\CyComponentLibrary.cylib\BLE_v2_0\Library\gccCyBLEStack_BLE_SOC_PERIPHERAL.a(l2cap_init.o)
 i.l2cap_get_tx_queue_num_buffer
                0x00000000       0x1c D:\program\CY8\PSoC Creator\3.2\PSoC Creator\psoc\content\cycomponentlibrary\CyComponentLibrary.cylib\BLE_v2_0\Library\gccCyBLEStack_BLE_SOC_PERIPHERAL.a(l2cap_init.o)
 i.l2cap_set_tx_queue_flow_limits
                0x00000000       0x28 D:\program\CY8\PSoC Creator\3.2\PSoC Creator\psoc\content\cycomponentlibrary\CyComponentLibrary.cylib\BLE_v2_0\Library\gccCyBLEStack_BLE_SOC_PERIPHERAL.a(l2cap_init.o)
 i.BT_l2cap_le_connection_param_update_request
                0x00000000       0xa8 D:\program\CY8\PSoC Creator\3.2\PSoC Creator\psoc\content\cycomponentlibrary\CyComponentLibrary.cylib\BLE_v2_0\Library\gccCyBLEStack_BLE_SOC_PERIPHERAL.a(l2cap_le.o)
 i.l2ca_cbfc_connect_req
                0x00000000      0x180 D:\program\CY8\PSoC Creator\3.2\PSoC Creator\psoc\content\cycomponentlibrary\CyComponentLibrary.cylib\BLE_v2_0\Library\gccCyBLEStack_BLE_SOC_PERIPHERAL.a(l2cap_credit_mode.o)
 i.l2ca_cbfc_connect_rsp
                0x00000000       0xc4 D:\program\CY8\PSoC Creator\3.2\PSoC Creator\psoc\content\cycomponentlibrary\CyComponentLibrary.cylib\BLE_v2_0\Library\gccCyBLEStack_BLE_SOC_PERIPHERAL.a(l2cap_credit_mode.o)
 i.l2ca_cbfc_send_flow_control_credit
                0x00000000       0xb8 D:\program\CY8\PSoC Creator\3.2\PSoC Creator\psoc\content\cycomponentlibrary\CyComponentLibrary.cylib\BLE_v2_0\Library\gccCyBLEStack_BLE_SOC_PERIPHERAL.a(l2cap_credit_mode.o)
 i.l2ca_channel_data_write
                0x00000000      0x10c D:\program\CY8\PSoC Creator\3.2\PSoC Creator\psoc\content\cycomponentlibrary\CyComponentLibrary.cylib\BLE_v2_0\Library\gccCyBLEStack_BLE_SOC_PERIPHERAL.a(l2cap_credit_mode.o)
 i.l2ca_channel_data_write_bh
                0x00000000       0x20 D:\program\CY8\PSoC Creator\3.2\PSoC Creator\psoc\content\cycomponentlibrary\CyComponentLibrary.cylib\BLE_v2_0\Library\gccCyBLEStack_BLE_SOC_PERIPHERAL.a(l2cap_credit_mode.o)
 i.CyBle_GapAddDeviceToWhiteList
                0x00000000       0x4c D:\program\CY8\PSoC Creator\3.2\PSoC Creator\psoc\content\cycomponentlibrary\CyComponentLibrary.cylib\BLE_v2_0\Library\gccCyBLEStack_BLE_SOC_PERIPHERAL.a(gap.o)
 i.CyBle_GapAuthPassKeyReply
                0x00000000       0x2e D:\program\CY8\PSoC Creator\3.2\PSoC Creator\psoc\content\cycomponentlibrary\CyComponentLibrary.cylib\BLE_v2_0\Library\gccCyBLEStack_BLE_SOC_PERIPHERAL.a(gap.o)
 i.CyBle_GapAuthReq
                0x00000000       0x68 D:\program\CY8\PSoC Creator\3.2\PSoC Creator\psoc\content\cycomponentlibrary\CyComponentLibrary.cylib\BLE_v2_0\Library\gccCyBLEStack_BLE_SOC_PERIPHERAL.a(gap.o)
 i.CyBle_GapDisconnect
                0x00000000       0x30 D:\program\CY8\PSoC Creator\3.2\PSoC Creator\psoc\content\cycomponentlibrary\CyComponentLibrary.cylib\BLE_v2_0\Library\gccCyBLEStack_BLE_SOC_PERIPHERAL.a(gap.o)
 i.CyBle_GapGenerateDeviceAddress
                0x00000000       0xa6 D:\program\CY8\PSoC Creator\3.2\PSoC Creator\psoc\content\cycomponentlibrary\CyComponentLibrary.cylib\BLE_v2_0\Library\gccCyBLEStack_BLE_SOC_PERIPHERAL.a(gap.o)
 i.CyBle_GapGenerateKeys
                0x00000000       0x84 D:\program\CY8\PSoC Creator\3.2\PSoC Creator\psoc\content\cycomponentlibrary\CyComponentLibrary.cylib\BLE_v2_0\Library\gccCyBLEStack_BLE_SOC_PERIPHERAL.a(gap.o)
 i.CyBle_GapGetDevSecurityKeyInfo
                0x00000000       0x16 D:\program\CY8\PSoC Creator\3.2\PSoC Creator\psoc\content\cycomponentlibrary\CyComponentLibrary.cylib\BLE_v2_0\Library\gccCyBLEStack_BLE_SOC_PERIPHERAL.a(gap.o)
 i.CyBle_GapGetDevicesFromWhiteList
                0x00000000        0x8 D:\program\CY8\PSoC Creator\3.2\PSoC Creator\psoc\content\cycomponentlibrary\CyComponentLibrary.cylib\BLE_v2_0\Library\gccCyBLEStack_BLE_SOC_PERIPHERAL.a(gap.o)
 i.CyBle_GapGetKeyXchangeInfo
                0x00000000       0x18 D:\program\CY8\PSoC Creator\3.2\PSoC Creator\psoc\content\cycomponentlibrary\CyComponentLibrary.cylib\BLE_v2_0\Library\gccCyBLEStack_BLE_SOC_PERIPHERAL.a(gap.o)
 i.CyBle_GapGetPeerBdAddr
                0x00000000       0x22 D:\program\CY8\PSoC Creator\3.2\PSoC Creator\psoc\content\cycomponentlibrary\CyComponentLibrary.cylib\BLE_v2_0\Library\gccCyBLEStack_BLE_SOC_PERIPHERAL.a(gap.o)
 i.CyBle_GapGetPeerBdHandle
                0x00000000       0x22 D:\program\CY8\PSoC Creator\3.2\PSoC Creator\psoc\content\cycomponentlibrary\CyComponentLibrary.cylib\BLE_v2_0\Library\gccCyBLEStack_BLE_SOC_PERIPHERAL.a(gap.o)
 i.CyBle_GapGetPeerConnHandle
                0x00000000       0x2c D:\program\CY8\PSoC Creator\3.2\PSoC Creator\psoc\content\cycomponentlibrary\CyComponentLibrary.cylib\BLE_v2_0\Library\gccCyBLEStack_BLE_SOC_PERIPHERAL.a(gap.o)
 i.CyBle_GapGetPeerDevSecurity
                0x00000000       0x20 D:\program\CY8\PSoC Creator\3.2\PSoC Creator\psoc\content\cycomponentlibrary\CyComponentLibrary.cylib\BLE_v2_0\Library\gccCyBLEStack_BLE_SOC_PERIPHERAL.a(gap.o)
 i.CyBle_GapGetPeerDevSecurityKeyInfo
                0x00000000       0x18 D:\program\CY8\PSoC Creator\3.2\PSoC Creator\psoc\content\cycomponentlibrary\CyComponentLibrary.cylib\BLE_v2_0\Library\gccCyBLEStack_BLE_SOC_PERIPHERAL.a(gap.o)
 i.CyBle_GapRemoveDeviceFromWhiteList
                0x00000000       0x84 D:\program\CY8\PSoC Creator\3.2\PSoC Creator\psoc\content\cycomponentlibrary\CyComponentLibrary.cylib\BLE_v2_0\Library\gccCyBLEStack_BLE_SOC_PERIPHERAL.a(gap.o)
 i.CyBle_GapRemoveOldestDeviceFromBondedList
                0x00000000       0x36 D:\program\CY8\PSoC Creator\3.2\PSoC Creator\psoc\content\cycomponentlibrary\CyComponentLibrary.cylib\BLE_v2_0\Library\gccCyBLEStack_BLE_SOC_PERIPHERAL.a(gap.o)
 i.CyBle_GapSetOobData
                0x00000000       0x4a D:\program\CY8\PSoC Creator\3.2\PSoC Creator\psoc\content\cycomponentlibrary\CyComponentLibrary.cylib\BLE_v2_0\Library\gccCyBLEStack_BLE_SOC_PERIPHERAL.a(gap.o)
 i.CyBle_GapSetSecurityKeys
                0x00000000       0x1e D:\program\CY8\PSoC Creator\3.2\PSoC Creator\psoc\content\cycomponentlibrary\CyComponentLibrary.cylib\BLE_v2_0\Library\gccCyBLEStack_BLE_SOC_PERIPHERAL.a(gap.o)
 i.CyBle_GappExitDiscoveryMode
                0x00000000       0x28 D:\program\CY8\PSoC Creator\3.2\PSoC Creator\psoc\content\cycomponentlibrary\CyComponentLibrary.cylib\BLE_v2_0\Library\gccCyBLEStack_BLE_SOC_PERIPHERAL.a(gap.o)
 __ARM_common_switch8
                0x00000000        0xc D:\program\CY8\PSoC Creator\3.2\PSoC Creator\psoc\content\cycomponentlibrary\CyComponentLibrary.cylib\BLE_v2_0\Library\gccCyBLEStack_BLE_SOC_PERIPHERAL.a(gap.o)
 i.__ARM_common_switch8
                0x00000000       0x1a D:\program\CY8\PSoC Creator\3.2\PSoC Creator\psoc\content\cycomponentlibrary\CyComponentLibrary.cylib\BLE_v2_0\Library\gccCyBLEStack_BLE_SOC_PERIPHERAL.a(gap.o)
 .debug_frame   0x00000000       0x48 D:\program\CY8\PSoC Creator\3.2\PSoC Creator\psoc\content\cycomponentlibrary\CyComponentLibrary.cylib\BLE_v2_0\Library\gccCyBLEStack_BLE_SOC_PERIPHERAL.a(gap.o)
 i.CyBle_GattGetMtuSize
                0x00000000       0x18 D:\program\CY8\PSoC Creator\3.2\PSoC Creator\psoc\content\cycomponentlibrary\CyComponentLibrary.cylib\BLE_v2_0\Library\gccCyBLEStack_BLE_SOC_PERIPHERAL.a(gatt.o)
 __ARM_common_switch8
                0x00000000        0xc D:\program\CY8\PSoC Creator\3.2\PSoC Creator\psoc\content\cycomponentlibrary\CyComponentLibrary.cylib\BLE_v2_0\Library\gccCyBLEStack_BLE_SOC_PERIPHERAL.a(gatt.o)
 i.__ARM_common_switch8
                0x00000000       0x1a D:\program\CY8\PSoC Creator\3.2\PSoC Creator\psoc\content\cycomponentlibrary\CyComponentLibrary.cylib\BLE_v2_0\Library\gccCyBLEStack_BLE_SOC_PERIPHERAL.a(gatt.o)
 .debug_frame   0x00000000       0x48 D:\program\CY8\PSoC Creator\3.2\PSoC Creator\psoc\content\cycomponentlibrary\CyComponentLibrary.cylib\BLE_v2_0\Library\gccCyBLEStack_BLE_SOC_PERIPHERAL.a(gatt.o)
 i.CyBle_GattcConfirmation
                0x00000000        0xe D:\program\CY8\PSoC Creator\3.2\PSoC Creator\psoc\content\cycomponentlibrary\CyComponentLibrary.cylib\BLE_v2_0\Library\gccCyBLEStack_BLE_SOC_PERIPHERAL.a(gattClient.o)
 i.CyBle_GattcDiscoverAllCharacteristicDescriptors
                0x00000000       0x2c D:\program\CY8\PSoC Creator\3.2\PSoC Creator\psoc\content\cycomponentlibrary\CyComponentLibrary.cylib\BLE_v2_0\Library\gccCyBLEStack_BLE_SOC_PERIPHERAL.a(gattClient.o)
 i.CyBle_GattcDiscoverAllCharacteristics
                0x00000000       0x38 D:\program\CY8\PSoC Creator\3.2\PSoC Creator\psoc\content\cycomponentlibrary\CyComponentLibrary.cylib\BLE_v2_0\Library\gccCyBLEStack_BLE_SOC_PERIPHERAL.a(gattClient.o)
 i.CyBle_GattcDiscoverAllPrimaryServices
                0x00000000       0x30 D:\program\CY8\PSoC Creator\3.2\PSoC Creator\psoc\content\cycomponentlibrary\CyComponentLibrary.cylib\BLE_v2_0\Library\gccCyBLEStack_BLE_SOC_PERIPHERAL.a(gattClient.o)
 i.CyBle_GattcDiscoverCharacteristicByUuid
                0x00000000       0x68 D:\program\CY8\PSoC Creator\3.2\PSoC Creator\psoc\content\cycomponentlibrary\CyComponentLibrary.cylib\BLE_v2_0\Library\gccCyBLEStack_BLE_SOC_PERIPHERAL.a(gattClient.o)
 i.CyBle_GattcDiscoverPrimaryServiceByUuid
                0x00000000       0x38 D:\program\CY8\PSoC Creator\3.2\PSoC Creator\psoc\content\cycomponentlibrary\CyComponentLibrary.cylib\BLE_v2_0\Library\gccCyBLEStack_BLE_SOC_PERIPHERAL.a(gattClient.o)
 i.CyBle_GattcExchangeMtuReq
                0x00000000       0x20 D:\program\CY8\PSoC Creator\3.2\PSoC Creator\psoc\content\cycomponentlibrary\CyComponentLibrary.cylib\BLE_v2_0\Library\gccCyBLEStack_BLE_SOC_PERIPHERAL.a(gattClient.o)
 i.CyBle_GattcFindIncludedServices
                0x00000000       0x3c D:\program\CY8\PSoC Creator\3.2\PSoC Creator\psoc\content\cycomponentlibrary\CyComponentLibrary.cylib\BLE_v2_0\Library\gccCyBLEStack_BLE_SOC_PERIPHERAL.a(gattClient.o)
 i.CyBle_GattcReadByTypeReq
                0x00000000       0x4c D:\program\CY8\PSoC Creator\3.2\PSoC Creator\psoc\content\cycomponentlibrary\CyComponentLibrary.cylib\BLE_v2_0\Library\gccCyBLEStack_BLE_SOC_PERIPHERAL.a(gattClient.o)
 i.CyBle_GattcReadCharacteristicDescriptors
                0x00000000        0xe D:\program\CY8\PSoC Creator\3.2\PSoC Creator\psoc\content\cycomponentlibrary\CyComponentLibrary.cylib\BLE_v2_0\Library\gccCyBLEStack_BLE_SOC_PERIPHERAL.a(gattClient.o)
 i.CyBle_GattcReadCharacteristicValue
                0x00000000        0xe D:\program\CY8\PSoC Creator\3.2\PSoC Creator\psoc\content\cycomponentlibrary\CyComponentLibrary.cylib\BLE_v2_0\Library\gccCyBLEStack_BLE_SOC_PERIPHERAL.a(gattClient.o)
 i.CyBle_GattcReadLongCharacteristicDescriptors
                0x00000000       0x2c D:\program\CY8\PSoC Creator\3.2\PSoC Creator\psoc\content\cycomponentlibrary\CyComponentLibrary.cylib\BLE_v2_0\Library\gccCyBLEStack_BLE_SOC_PERIPHERAL.a(gattClient.o)
 i.CyBle_GattcReadLongCharacteristicValues
                0x00000000       0x2c D:\program\CY8\PSoC Creator\3.2\PSoC Creator\psoc\content\cycomponentlibrary\CyComponentLibrary.cylib\BLE_v2_0\Library\gccCyBLEStack_BLE_SOC_PERIPHERAL.a(gattClient.o)
 i.CyBle_GattcReadMultipleCharacteristicValues
                0x00000000       0x1a D:\program\CY8\PSoC Creator\3.2\PSoC Creator\psoc\content\cycomponentlibrary\CyComponentLibrary.cylib\BLE_v2_0\Library\gccCyBLEStack_BLE_SOC_PERIPHERAL.a(gattClient.o)
 i.CyBle_GattcReadUsingCharacteristicUuid
                0x00000000       0x40 D:\program\CY8\PSoC Creator\3.2\PSoC Creator\psoc\content\cycomponentlibrary\CyComponentLibrary.cylib\BLE_v2_0\Library\gccCyBLEStack_BLE_SOC_PERIPHERAL.a(gattClient.o)
 i.CyBle_GattcReliableWrites
                0x00000000       0x48 D:\program\CY8\PSoC Creator\3.2\PSoC Creator\psoc\content\cycomponentlibrary\CyComponentLibrary.cylib\BLE_v2_0\Library\gccCyBLEStack_BLE_SOC_PERIPHERAL.a(gattClient.o)
 i.CyBle_GattcSendExecuteWriteReq
                0x00000000        0xe D:\program\CY8\PSoC Creator\3.2\PSoC Creator\psoc\content\cycomponentlibrary\CyComponentLibrary.cylib\BLE_v2_0\Library\gccCyBLEStack_BLE_SOC_PERIPHERAL.a(gattClient.o)
 i.CyBle_GattcSignedWriteWithoutRsp
                0x00000000       0x74 D:\program\CY8\PSoC Creator\3.2\PSoC Creator\psoc\content\cycomponentlibrary\CyComponentLibrary.cylib\BLE_v2_0\Library\gccCyBLEStack_BLE_SOC_PERIPHERAL.a(gattClient.o)
 i.CyBle_GattcStopCmd
                0x00000000        0xc D:\program\CY8\PSoC Creator\3.2\PSoC Creator\psoc\content\cycomponentlibrary\CyComponentLibrary.cylib\BLE_v2_0\Library\gccCyBLEStack_BLE_SOC_PERIPHERAL.a(gattClient.o)
 i.CyBle_GattcWriteCharacteristicDescriptors
                0x00000000       0x14 D:\program\CY8\PSoC Creator\3.2\PSoC Creator\psoc\content\cycomponentlibrary\CyComponentLibrary.cylib\BLE_v2_0\Library\gccCyBLEStack_BLE_SOC_PERIPHERAL.a(gattClient.o)
 i.CyBle_GattcWriteCharacteristicValue
                0x00000000       0x14 D:\program\CY8\PSoC Creator\3.2\PSoC Creator\psoc\content\cycomponentlibrary\CyComponentLibrary.cylib\BLE_v2_0\Library\gccCyBLEStack_BLE_SOC_PERIPHERAL.a(gattClient.o)
 i.CyBle_GattcWriteLongCharacteristicDescriptors
                0x00000000       0x4c D:\program\CY8\PSoC Creator\3.2\PSoC Creator\psoc\content\cycomponentlibrary\CyComponentLibrary.cylib\BLE_v2_0\Library\gccCyBLEStack_BLE_SOC_PERIPHERAL.a(gattClient.o)
 i.CyBle_GattcWriteLongCharacteristicValues
                0x00000000       0x4c D:\program\CY8\PSoC Creator\3.2\PSoC Creator\psoc\content\cycomponentlibrary\CyComponentLibrary.cylib\BLE_v2_0\Library\gccCyBLEStack_BLE_SOC_PERIPHERAL.a(gattClient.o)
 i.CyBle_GattcWriteWithoutResponse
                0x00000000       0x14 D:\program\CY8\PSoC Creator\3.2\PSoC Creator\psoc\content\cycomponentlibrary\CyComponentLibrary.cylib\BLE_v2_0\Library\gccCyBLEStack_BLE_SOC_PERIPHERAL.a(gattClient.o)
 i.CyBle_GattsIndication
                0x00000000       0x16 D:\program\CY8\PSoC Creator\3.2\PSoC Creator\psoc\content\cycomponentlibrary\CyComponentLibrary.cylib\BLE_v2_0\Library\gccCyBLEStack_BLE_SOC_PERIPHERAL.a(gattServer.o)
 i.CyBle_GattsPrepWriteReqSupport
                0x00000000       0x1c D:\program\CY8\PSoC Creator\3.2\PSoC Creator\psoc\content\cycomponentlibrary\CyComponentLibrary.cylib\BLE_v2_0\Library\gccCyBLEStack_BLE_SOC_PERIPHERAL.a(gattServer.o)
 i.CyBle_GattsDisableAttribute
                0x00000000       0x6c D:\program\CY8\PSoC Creator\3.2\PSoC Creator\psoc\content\cycomponentlibrary\CyComponentLibrary.cylib\BLE_v2_0\Library\gccCyBLEStack_BLE_SOC_PERIPHERAL.a(gattDbHandler.o)
 i.CyBle_GattsEnableAttribute
                0x00000000       0x5c D:\program\CY8\PSoC Creator\3.2\PSoC Creator\psoc\content\cycomponentlibrary\CyComponentLibrary.cylib\BLE_v2_0\Library\gccCyBLEStack_BLE_SOC_PERIPHERAL.a(gattDbHandler.o)
 i.BT_hci_disconnect
                0x00000000       0x34 D:\program\CY8\PSoC Creator\3.2\PSoC Creator\psoc\content\cycomponentlibrary\CyComponentLibrary.cylib\BLE_v2_0\Library\gccCyBLEStack_BLE_SOC_PERIPHERAL.a(hci_link_control_api.o)
 i.hci_hardware_error_event
                0x00000000        0x8 D:\program\CY8\PSoC Creator\3.2\PSoC Creator\psoc\content\cycomponentlibrary\CyComponentLibrary.cylib\BLE_v2_0\Library\gccCyBLEStack_BLE_SOC_PERIPHERAL.a(hci_events.o)
 i.hci_transport_sync_lost_ind
                0x00000000        0x8 D:\program\CY8\PSoC Creator\3.2\PSoC Creator\psoc\content\cycomponentlibrary\CyComponentLibrary.cylib\BLE_v2_0\Library\gccCyBLEStack_BLE_SOC_PERIPHERAL.a(hci_init.o)
 i.BT_hci_le_connection_update
                0x00000000       0x88 D:\program\CY8\PSoC Creator\3.2\PSoC Creator\psoc\content\cycomponentlibrary\CyComponentLibrary.cylib\BLE_v2_0\Library\gccCyBLEStack_BLE_SOC_PERIPHERAL.a(hci_le_api.o)
 i.BT_smp_authenticate
                0x00000000       0x94 D:\program\CY8\PSoC Creator\3.2\PSoC Creator\psoc\content\cycomponentlibrary\CyComponentLibrary.cylib\BLE_v2_0\Library\gccCyBLEStack_BLE_SOC_PERIPHERAL.a(smp_api.o)
 i.BT_smp_get_device_keys
                0x00000000       0x60 D:\program\CY8\PSoC Creator\3.2\PSoC Creator\psoc\content\cycomponentlibrary\CyComponentLibrary.cylib\BLE_v2_0\Library\gccCyBLEStack_BLE_SOC_PERIPHERAL.a(smp_api.o)
 i.aes_cmac_init
                0x00000000        0xa D:\program\CY8\PSoC Creator\3.2\PSoC Creator\psoc\content\cycomponentlibrary\CyComponentLibrary.cylib\BLE_v2_0\Library\gccCyBLEStack_BLE_SOC_PERIPHERAL.a(aes_cmac.o)
 i.aes_cmac_init_pl
                0x00000000        0x2 D:\program\CY8\PSoC Creator\3.2\PSoC Creator\psoc\content\cycomponentlibrary\CyComponentLibrary.cylib\BLE_v2_0\Library\gccCyBLEStack_BLE_SOC_PERIPHERAL.a(aes_cmac_pl.o)
 i.BT_storage_update_db
                0x00000000       0x40 D:\program\CY8\PSoC Creator\3.2\PSoC Creator\psoc\content\cycomponentlibrary\CyComponentLibrary.cylib\BLE_v2_0\Library\gccCyBLEStack_BLE_SOC_PERIPHERAL.a(storage.o)
 i.storage_shutdown
                0x00000000        0x2 D:\program\CY8\PSoC Creator\3.2\PSoC Creator\psoc\content\cycomponentlibrary\CyComponentLibrary.cylib\BLE_v2_0\Library\gccCyBLEStack_BLE_SOC_PERIPHERAL.a(storage.o)
 i.BT_OSQCreate
                0x00000000        0x4 D:\program\CY8\PSoC Creator\3.2\PSoC Creator\psoc\content\cycomponentlibrary\CyComponentLibrary.cylib\BLE_v2_0\Library\gccCyBLEStack_BLE_SOC_PERIPHERAL.a(bt_os_common.o)
 i.BT_thread_attr_init
                0x00000000        0x4 D:\program\CY8\PSoC Creator\3.2\PSoC Creator\psoc\content\cycomponentlibrary\CyComponentLibrary.cylib\BLE_v2_0\Library\gccCyBLEStack_BLE_SOC_PERIPHERAL.a(bt_os_common.o)
 i.BT_thread_cond_init
                0x00000000        0x4 D:\program\CY8\PSoC Creator\3.2\PSoC Creator\psoc\content\cycomponentlibrary\CyComponentLibrary.cylib\BLE_v2_0\Library\gccCyBLEStack_BLE_SOC_PERIPHERAL.a(bt_os_common.o)
 i.BT_thread_cond_signal
                0x00000000        0x4 D:\program\CY8\PSoC Creator\3.2\PSoC Creator\psoc\content\cycomponentlibrary\CyComponentLibrary.cylib\BLE_v2_0\Library\gccCyBLEStack_BLE_SOC_PERIPHERAL.a(bt_os_common.o)
 i.BT_thread_cond_wait
                0x00000000        0x4 D:\program\CY8\PSoC Creator\3.2\PSoC Creator\psoc\content\cycomponentlibrary\CyComponentLibrary.cylib\BLE_v2_0\Library\gccCyBLEStack_BLE_SOC_PERIPHERAL.a(bt_os_common.o)
 i.BT_thread_mutex_init
                0x00000000        0x4 D:\program\CY8\PSoC Creator\3.2\PSoC Creator\psoc\content\cycomponentlibrary\CyComponentLibrary.cylib\BLE_v2_0\Library\gccCyBLEStack_BLE_SOC_PERIPHERAL.a(bt_os_common.o)
 i.BT_thread_mutex_lock
                0x00000000        0x4 D:\program\CY8\PSoC Creator\3.2\PSoC Creator\psoc\content\cycomponentlibrary\CyComponentLibrary.cylib\BLE_v2_0\Library\gccCyBLEStack_BLE_SOC_PERIPHERAL.a(bt_os_common.o)
 i.BT_thread_mutex_unlock
                0x00000000        0x4 D:\program\CY8\PSoC Creator\3.2\PSoC Creator\psoc\content\cycomponentlibrary\CyComponentLibrary.cylib\BLE_v2_0\Library\gccCyBLEStack_BLE_SOC_PERIPHERAL.a(bt_os_common.o)
 i.pl_timer_get_remaining_time
                0x00000000        0x8 D:\program\CY8\PSoC Creator\3.2\PSoC Creator\psoc\content\cycomponentlibrary\CyComponentLibrary.cylib\BLE_v2_0\Library\gccCyBLEStack_BLE_SOC_PERIPHERAL.a(BT_timer.o)
 i.pl_timer_start
                0x00000000        0x8 D:\program\CY8\PSoC Creator\3.2\PSoC Creator\psoc\content\cycomponentlibrary\CyComponentLibrary.cylib\BLE_v2_0\Library\gccCyBLEStack_BLE_SOC_PERIPHERAL.a(BT_timer.o)
 i.pl_timer_stop
                0x00000000        0x8 D:\program\CY8\PSoC Creator\3.2\PSoC Creator\psoc\content\cycomponentlibrary\CyComponentLibrary.cylib\BLE_v2_0\Library\gccCyBLEStack_BLE_SOC_PERIPHERAL.a(BT_timer.o)
 i.BleStackWriteToFlash
                0x00000000       0x6c D:\program\CY8\PSoC Creator\3.2\PSoC Creator\psoc\content\cycomponentlibrary\CyComponentLibrary.cylib\BLE_v2_0\Library\gccCyBLEStack_BLE_SOC_PERIPHERAL.a(storage_pl.o)
 i.pf_get_sp_ram_base_address
                0x00000000        0x8 D:\program\CY8\PSoC Creator\3.2\PSoC Creator\psoc\content\cycomponentlibrary\CyComponentLibrary.cylib\BLE_v2_0\Library\gccCyBLEStack_BLE_SOC_PERIPHERAL.a(storage_pl.o)
 i.pf_get_sp_storage_nvram_base_address
                0x00000000        0x8 D:\program\CY8\PSoC Creator\3.2\PSoC Creator\psoc\content\cycomponentlibrary\CyComponentLibrary.cylib\BLE_v2_0\Library\gccCyBLEStack_BLE_SOC_PERIPHERAL.a(storage_pl.o)
 i.le_reset_tasks
                0x00000000        0xa D:\program\CY8\PSoC Creator\3.2\PSoC Creator\psoc\content\cycomponentlibrary\CyComponentLibrary.cylib\BLE_v2_0\Library\gccCyBLEStack_BLE_SOC_PERIPHERAL.a(bt_fw_os_al.o)
 i.BT_smp_add_device_pl
                0x00000000       0x2c D:\program\CY8\PSoC Creator\3.2\PSoC Creator\psoc\content\cycomponentlibrary\CyComponentLibrary.cylib\BLE_v2_0\Library\gccCyBLEStack_BLE_SOC_PERIPHERAL.a(smp_pl.o)
 i.BT_smp_get_bd_address_pl
                0x00000000       0x10 D:\program\CY8\PSoC Creator\3.2\PSoC Creator\psoc\content\cycomponentlibrary\CyComponentLibrary.cylib\BLE_v2_0\Library\gccCyBLEStack_BLE_SOC_PERIPHERAL.a(smp_pl.o)
 i.BT_smp_get_device_key_info_pl
                0x00000000       0x58 D:\program\CY8\PSoC Creator\3.2\PSoC Creator\psoc\content\cycomponentlibrary\CyComponentLibrary.cylib\BLE_v2_0\Library\gccCyBLEStack_BLE_SOC_PERIPHERAL.a(smp_pl.o)
 i.BT_smp_get_oob_data_pl
                0x00000000       0x80 D:\program\CY8\PSoC Creator\3.2\PSoC Creator\psoc\content\cycomponentlibrary\CyComponentLibrary.cylib\BLE_v2_0\Library\gccCyBLEStack_BLE_SOC_PERIPHERAL.a(smp_pl.o)
 i.BT_smp_mark_device_untrusted_pl
                0x00000000       0x7c D:\program\CY8\PSoC Creator\3.2\PSoC Creator\psoc\content\cycomponentlibrary\CyComponentLibrary.cylib\BLE_v2_0\Library\gccCyBLEStack_BLE_SOC_PERIPHERAL.a(smp_pl.o)
 i.BT_smp_remove_device_pl
                0x00000000       0x2c D:\program\CY8\PSoC Creator\3.2\PSoC Creator\psoc\content\cycomponentlibrary\CyComponentLibrary.cylib\BLE_v2_0\Library\gccCyBLEStack_BLE_SOC_PERIPHERAL.a(smp_pl.o)
 i.BT_smp_set_key_distribution_flag_pl
                0x00000000        0xc D:\program\CY8\PSoC Creator\3.2\PSoC Creator\psoc\content\cycomponentlibrary\CyComponentLibrary.cylib\BLE_v2_0\Library\gccCyBLEStack_BLE_SOC_PERIPHERAL.a(smp_pl.o)
 i.BT_smp_set_key_info_pl
                0x00000000       0x50 D:\program\CY8\PSoC Creator\3.2\PSoC Creator\psoc\content\cycomponentlibrary\CyComponentLibrary.cylib\BLE_v2_0\Library\gccCyBLEStack_BLE_SOC_PERIPHERAL.a(smp_pl.o)
 i.BT_smp_set_oob_data_pl
                0x00000000       0x80 D:\program\CY8\PSoC Creator\3.2\PSoC Creator\psoc\content\cycomponentlibrary\CyComponentLibrary.cylib\BLE_v2_0\Library\gccCyBLEStack_BLE_SOC_PERIPHERAL.a(smp_pl.o)
 i.CyBle_GattsDbAuthorize
                0x00000000        0xc D:\program\CY8\PSoC Creator\3.2\PSoC Creator\psoc\content\cycomponentlibrary\CyComponentLibrary.cylib\BLE_v2_0\Library\gccCyBLEStack_BLE_SOC_PERIPHERAL.a(gattDbInternal.o)
 __ARM_common_switch8
                0x00000000        0xc D:\program\CY8\PSoC Creator\3.2\PSoC Creator\psoc\content\cycomponentlibrary\CyComponentLibrary.cylib\BLE_v2_0\Library\gccCyBLEStack_BLE_SOC_PERIPHERAL.a(hci_command_queue.o)
 i.__ARM_common_switch8
                0x00000000       0x1a D:\program\CY8\PSoC Creator\3.2\PSoC Creator\psoc\content\cycomponentlibrary\CyComponentLibrary.cylib\BLE_v2_0\Library\gccCyBLEStack_BLE_SOC_PERIPHERAL.a(hci_command_queue.o)
 .debug_frame   0x00000000       0x48 D:\program\CY8\PSoC Creator\3.2\PSoC Creator\psoc\content\cycomponentlibrary\CyComponentLibrary.cylib\BLE_v2_0\Library\gccCyBLEStack_BLE_SOC_PERIPHERAL.a(hci_command_queue.o)
 .text          0x00000000        0x0 .\CortexM0\ARM_GCC_484\Debug\BLE Lab 2.a(BLE_HAL_PVT.o)
 .data          0x00000000        0x0 .\CortexM0\ARM_GCC_484\Debug\BLE Lab 2.a(BLE_HAL_PVT.o)
 .bss           0x00000000        0x0 .\CortexM0\ARM_GCC_484\Debug\BLE Lab 2.a(BLE_HAL_PVT.o)
 .text.CyBLE_Nvram_Write
                0x00000000      0x19c .\CortexM0\ARM_GCC_484\Debug\BLE Lab 2.a(BLE_HAL_PVT.o)
 .text.CyBLE_Nvram_Erase
                0x00000000       0xc8 .\CortexM0\ARM_GCC_484\Debug\BLE Lab 2.a(BLE_HAL_PVT.o)
 .text.CyBLE_Bless_LlRegRead
                0x00000000       0x1c .\CortexM0\ARM_GCC_484\Debug\BLE Lab 2.a(BLE_HAL_PVT.o)
 .text.CyBLE_Bless_RfRegRead
                0x00000000       0x1c .\CortexM0\ARM_GCC_484\Debug\BLE Lab 2.a(BLE_HAL_PVT.o)
 .text          0x00000000        0x0 .\CortexM0\ARM_GCC_484\Debug\BLE Lab 2.a(BLE_bless_isr.o)
 .data          0x00000000        0x0 .\CortexM0\ARM_GCC_484\Debug\BLE Lab 2.a(BLE_bless_isr.o)
 .bss           0x00000000        0x0 .\CortexM0\ARM_GCC_484\Debug\BLE Lab 2.a(BLE_bless_isr.o)
 .text.BLE_bless_isr_Start
                0x00000000       0x24 .\CortexM0\ARM_GCC_484\Debug\BLE Lab 2.a(BLE_bless_isr.o)
 .text.BLE_bless_isr_Stop
                0x00000000       0x18 .\CortexM0\ARM_GCC_484\Debug\BLE Lab 2.a(BLE_bless_isr.o)
 .text.BLE_bless_isr_Interrupt
                0x00000000        0x8 .\CortexM0\ARM_GCC_484\Debug\BLE Lab 2.a(BLE_bless_isr.o)
 .text.BLE_bless_isr_GetVector
                0x00000000       0x14 .\CortexM0\ARM_GCC_484\Debug\BLE Lab 2.a(BLE_bless_isr.o)
 .text.BLE_bless_isr_GetPriority
                0x00000000       0x2c .\CortexM0\ARM_GCC_484\Debug\BLE Lab 2.a(BLE_bless_isr.o)
 .text.BLE_bless_isr_GetState
                0x00000000       0x20 .\CortexM0\ARM_GCC_484\Debug\BLE Lab 2.a(BLE_bless_isr.o)
 .text.BLE_bless_isr_SetPending
                0x00000000       0x14 .\CortexM0\ARM_GCC_484\Debug\BLE Lab 2.a(BLE_bless_isr.o)
 .text.BLE_bless_isr_ClearPending
                0x00000000       0x14 .\CortexM0\ARM_GCC_484\Debug\BLE Lab 2.a(BLE_bless_isr.o)
 .text          0x00000000        0x0 .\CortexM0\ARM_GCC_484\Debug\BLE Lab 2.a(CyFlash.o)
 .data          0x00000000        0x0 .\CortexM0\ARM_GCC_484\Debug\BLE Lab 2.a(CyFlash.o)
 .bss           0x00000000       0x14 .\CortexM0\ARM_GCC_484\Debug\BLE Lab 2.a(CyFlash.o)
 .text.CySysFlashWriteRow
                0x00000000      0x178 .\CortexM0\ARM_GCC_484\Debug\BLE Lab 2.a(CyFlash.o)
 .text.CySysFlashSetWaitCycles
                0x00000000       0x74 .\CortexM0\ARM_GCC_484\Debug\BLE Lab 2.a(CyFlash.o)
 .text.CySysFlashClockBackup
                0x00000000       0x60 .\CortexM0\ARM_GCC_484\Debug\BLE Lab 2.a(CyFlash.o)
 .text.CySysFlashClockConfig
                0x00000000       0x50 .\CortexM0\ARM_GCC_484\Debug\BLE Lab 2.a(CyFlash.o)
 .text.CySysFlashClockRestore
                0x00000000       0x60 .\CortexM0\ARM_GCC_484\Debug\BLE Lab 2.a(CyFlash.o)
 .text          0x00000000        0x0 .\CortexM0\ARM_GCC_484\Debug\BLE Lab 2.a(BLE_HAL_INT.o)
 .data          0x00000000        0x0 .\CortexM0\ARM_GCC_484\Debug\BLE Lab 2.a(BLE_HAL_INT.o)
 .bss           0x00000000        0x0 .\CortexM0\ARM_GCC_484\Debug\BLE Lab 2.a(BLE_HAL_INT.o)
 .data          0x00000000        0x0 d:/program/cy8/psoc creator/3.2/psoc creator/import/gnu/arm/4.8.4/bin/../lib/gcc/arm-none-eabi/4.8.4/armv6-m\libgcc.a(_udivsi3.o)
 .bss           0x00000000        0x0 d:/program/cy8/psoc creator/3.2/psoc creator/import/gnu/arm/4.8.4/bin/../lib/gcc/arm-none-eabi/4.8.4/armv6-m\libgcc.a(_udivsi3.o)
 .data          0x00000000        0x0 d:/program/cy8/psoc creator/3.2/psoc creator/import/gnu/arm/4.8.4/bin/../lib/gcc/arm-none-eabi/4.8.4/armv6-m\libgcc.a(_divsi3.o)
 .bss           0x00000000        0x0 d:/program/cy8/psoc creator/3.2/psoc creator/import/gnu/arm/4.8.4/bin/../lib/gcc/arm-none-eabi/4.8.4/armv6-m\libgcc.a(_divsi3.o)
 .data          0x00000000        0x0 d:/program/cy8/psoc creator/3.2/psoc creator/import/gnu/arm/4.8.4/bin/../lib/gcc/arm-none-eabi/4.8.4/armv6-m\libgcc.a(_dvmd_tls.o)
 .bss           0x00000000        0x0 d:/program/cy8/psoc creator/3.2/psoc creator/import/gnu/arm/4.8.4/bin/../lib/gcc/arm-none-eabi/4.8.4/armv6-m\libgcc.a(_dvmd_tls.o)
 .text          0x00000000       0x48 d:/program/cy8/psoc creator/3.2/psoc creator/import/gnu/arm/4.8.4/bin/../lib/gcc/arm-none-eabi/4.8.4/armv6-m\libgcc.a(_aeabi_ldivmod.o)
 .data          0x00000000        0x0 d:/program/cy8/psoc creator/3.2/psoc creator/import/gnu/arm/4.8.4/bin/../lib/gcc/arm-none-eabi/4.8.4/armv6-m\libgcc.a(_aeabi_ldivmod.o)
 .bss           0x00000000        0x0 d:/program/cy8/psoc creator/3.2/psoc creator/import/gnu/arm/4.8.4/bin/../lib/gcc/arm-none-eabi/4.8.4/armv6-m\libgcc.a(_aeabi_ldivmod.o)
 .text          0x00000000       0x44 d:/program/cy8/psoc creator/3.2/psoc creator/import/gnu/arm/4.8.4/bin/../lib/gcc/arm-none-eabi/4.8.4/armv6-m\libgcc.a(_muldi3.o)
 .data          0x00000000        0x0 d:/program/cy8/psoc creator/3.2/psoc creator/import/gnu/arm/4.8.4/bin/../lib/gcc/arm-none-eabi/4.8.4/armv6-m\libgcc.a(_muldi3.o)
 .bss           0x00000000        0x0 d:/program/cy8/psoc creator/3.2/psoc creator/import/gnu/arm/4.8.4/bin/../lib/gcc/arm-none-eabi/4.8.4/armv6-m\libgcc.a(_muldi3.o)
 .text          0x00000000       0x6c d:/program/cy8/psoc creator/3.2/psoc creator/import/gnu/arm/4.8.4/bin/../lib/gcc/arm-none-eabi/4.8.4/armv6-m\libgcc.a(bpabi.o)
 .data          0x00000000        0x0 d:/program/cy8/psoc creator/3.2/psoc creator/import/gnu/arm/4.8.4/bin/../lib/gcc/arm-none-eabi/4.8.4/armv6-m\libgcc.a(bpabi.o)
 .bss           0x00000000        0x0 d:/program/cy8/psoc creator/3.2/psoc creator/import/gnu/arm/4.8.4/bin/../lib/gcc/arm-none-eabi/4.8.4/armv6-m\libgcc.a(bpabi.o)
 .text          0x00000000      0x24c d:/program/cy8/psoc creator/3.2/psoc creator/import/gnu/arm/4.8.4/bin/../lib/gcc/arm-none-eabi/4.8.4/armv6-m\libgcc.a(divsf3.o)
 .data          0x00000000        0x0 d:/program/cy8/psoc creator/3.2/psoc creator/import/gnu/arm/4.8.4/bin/../lib/gcc/arm-none-eabi/4.8.4/armv6-m\libgcc.a(divsf3.o)
 .bss           0x00000000        0x0 d:/program/cy8/psoc creator/3.2/psoc creator/import/gnu/arm/4.8.4/bin/../lib/gcc/arm-none-eabi/4.8.4/armv6-m\libgcc.a(divsf3.o)
 .rodata        0x00000000       0x40 d:/program/cy8/psoc creator/3.2/psoc creator/import/gnu/arm/4.8.4/bin/../lib/gcc/arm-none-eabi/4.8.4/armv6-m\libgcc.a(divsf3.o)
 .text          0x00000000      0x254 d:/program/cy8/psoc creator/3.2/psoc creator/import/gnu/arm/4.8.4/bin/../lib/gcc/arm-none-eabi/4.8.4/armv6-m\libgcc.a(mulsf3.o)
 .data          0x00000000        0x0 d:/program/cy8/psoc creator/3.2/psoc creator/import/gnu/arm/4.8.4/bin/../lib/gcc/arm-none-eabi/4.8.4/armv6-m\libgcc.a(mulsf3.o)
 .bss           0x00000000        0x0 d:/program/cy8/psoc creator/3.2/psoc creator/import/gnu/arm/4.8.4/bin/../lib/gcc/arm-none-eabi/4.8.4/armv6-m\libgcc.a(mulsf3.o)
 .rodata        0x00000000       0x40 d:/program/cy8/psoc creator/3.2/psoc creator/import/gnu/arm/4.8.4/bin/../lib/gcc/arm-none-eabi/4.8.4/armv6-m\libgcc.a(mulsf3.o)
 .text          0x00000000       0xb8 d:/program/cy8/psoc creator/3.2/psoc creator/import/gnu/arm/4.8.4/bin/../lib/gcc/arm-none-eabi/4.8.4/armv6-m\libgcc.a(floatsisf.o)
 .data          0x00000000        0x0 d:/program/cy8/psoc creator/3.2/psoc creator/import/gnu/arm/4.8.4/bin/../lib/gcc/arm-none-eabi/4.8.4/armv6-m\libgcc.a(floatsisf.o)
 .bss           0x00000000        0x0 d:/program/cy8/psoc creator/3.2/psoc creator/import/gnu/arm/4.8.4/bin/../lib/gcc/arm-none-eabi/4.8.4/armv6-m\libgcc.a(floatsisf.o)
 .text          0x00000000       0x3c d:/program/cy8/psoc creator/3.2/psoc creator/import/gnu/arm/4.8.4/bin/../lib/gcc/arm-none-eabi/4.8.4/armv6-m\libgcc.a(_clzsi2.o)
 .data          0x00000000        0x0 d:/program/cy8/psoc creator/3.2/psoc creator/import/gnu/arm/4.8.4/bin/../lib/gcc/arm-none-eabi/4.8.4/armv6-m\libgcc.a(_clzsi2.o)
 .bss           0x00000000        0x0 d:/program/cy8/psoc creator/3.2/psoc creator/import/gnu/arm/4.8.4/bin/../lib/gcc/arm-none-eabi/4.8.4/armv6-m\libgcc.a(_clzsi2.o)
 .text          0x00000000      0x3b8 d:/program/cy8/psoc creator/3.2/psoc creator/import/gnu/arm/4.8.4/bin/../lib/gcc/arm-none-eabi/4.8.4/armv6-m\libgcc.a(_divdi3.o)
 .data          0x00000000        0x0 d:/program/cy8/psoc creator/3.2/psoc creator/import/gnu/arm/4.8.4/bin/../lib/gcc/arm-none-eabi/4.8.4/armv6-m\libgcc.a(_divdi3.o)
 .bss           0x00000000        0x0 d:/program/cy8/psoc creator/3.2/psoc creator/import/gnu/arm/4.8.4/bin/../lib/gcc/arm-none-eabi/4.8.4/armv6-m\libgcc.a(_divdi3.o)
 .ARM.extab     0x00000000        0x0 d:/program/cy8/psoc creator/3.2/psoc creator/import/gnu/arm/4.8.4/bin/../lib/gcc/arm-none-eabi/4.8.4/armv6-m\libgcc.a(_divdi3.o)
 .ARM.exidx     0x00000000        0x8 d:/program/cy8/psoc creator/3.2/psoc creator/import/gnu/arm/4.8.4/bin/../lib/gcc/arm-none-eabi/4.8.4/armv6-m\libgcc.a(_divdi3.o)
 .text          0x00000000      0x384 d:/program/cy8/psoc creator/3.2/psoc creator/import/gnu/arm/4.8.4/bin/../lib/gcc/arm-none-eabi/4.8.4/armv6-m\libgcc.a(_udivdi3.o)
 .data          0x00000000        0x0 d:/program/cy8/psoc creator/3.2/psoc creator/import/gnu/arm/4.8.4/bin/../lib/gcc/arm-none-eabi/4.8.4/armv6-m\libgcc.a(_udivdi3.o)
 .bss           0x00000000        0x0 d:/program/cy8/psoc creator/3.2/psoc creator/import/gnu/arm/4.8.4/bin/../lib/gcc/arm-none-eabi/4.8.4/armv6-m\libgcc.a(_udivdi3.o)
 .ARM.extab     0x00000000        0x0 d:/program/cy8/psoc creator/3.2/psoc creator/import/gnu/arm/4.8.4/bin/../lib/gcc/arm-none-eabi/4.8.4/armv6-m\libgcc.a(_udivdi3.o)
 .ARM.exidx     0x00000000        0x8 d:/program/cy8/psoc creator/3.2/psoc creator/import/gnu/arm/4.8.4/bin/../lib/gcc/arm-none-eabi/4.8.4/armv6-m\libgcc.a(_udivdi3.o)
 .text          0x00000000        0x0 d:/program/cy8/psoc creator/3.2/psoc creator/import/gnu/arm/4.8.4/bin/../lib/gcc/arm-none-eabi/4.8.4/../../../../arm-none-eabi/lib/armv6-m\libg_s.a(lib_a-errno.o)
 .data          0x00000000        0x0 d:/program/cy8/psoc creator/3.2/psoc creator/import/gnu/arm/4.8.4/bin/../lib/gcc/arm-none-eabi/4.8.4/../../../../arm-none-eabi/lib/armv6-m\libg_s.a(lib_a-errno.o)
 .bss           0x00000000        0x0 d:/program/cy8/psoc creator/3.2/psoc creator/import/gnu/arm/4.8.4/bin/../lib/gcc/arm-none-eabi/4.8.4/../../../../arm-none-eabi/lib/armv6-m\libg_s.a(lib_a-errno.o)
 .text.__errno  0x00000000        0xc d:/program/cy8/psoc creator/3.2/psoc creator/import/gnu/arm/4.8.4/bin/../lib/gcc/arm-none-eabi/4.8.4/../../../../arm-none-eabi/lib/armv6-m\libg_s.a(lib_a-errno.o)
 .text          0x00000000        0x0 d:/program/cy8/psoc creator/3.2/psoc creator/import/gnu/arm/4.8.4/bin/../lib/gcc/arm-none-eabi/4.8.4/../../../../arm-none-eabi/lib/armv6-m\libg_s.a(lib_a-exit.o)
 .data          0x00000000        0x0 d:/program/cy8/psoc creator/3.2/psoc creator/import/gnu/arm/4.8.4/bin/../lib/gcc/arm-none-eabi/4.8.4/../../../../arm-none-eabi/lib/armv6-m\libg_s.a(lib_a-exit.o)
 .bss           0x00000000        0x0 d:/program/cy8/psoc creator/3.2/psoc creator/import/gnu/arm/4.8.4/bin/../lib/gcc/arm-none-eabi/4.8.4/../../../../arm-none-eabi/lib/armv6-m\libg_s.a(lib_a-exit.o)
 .text.exit     0x00000000       0x2c d:/program/cy8/psoc creator/3.2/psoc creator/import/gnu/arm/4.8.4/bin/../lib/gcc/arm-none-eabi/4.8.4/../../../../arm-none-eabi/lib/armv6-m\libg_s.a(lib_a-exit.o)
 .text          0x00000000        0x0 d:/program/cy8/psoc creator/3.2/psoc creator/import/gnu/arm/4.8.4/bin/../lib/gcc/arm-none-eabi/4.8.4/../../../../arm-none-eabi/lib/armv6-m\libg_s.a(lib_a-impure.o)
 .data          0x00000000        0x0 d:/program/cy8/psoc creator/3.2/psoc creator/import/gnu/arm/4.8.4/bin/../lib/gcc/arm-none-eabi/4.8.4/../../../../arm-none-eabi/lib/armv6-m\libg_s.a(lib_a-impure.o)
 .bss           0x00000000        0x0 d:/program/cy8/psoc creator/3.2/psoc creator/import/gnu/arm/4.8.4/bin/../lib/gcc/arm-none-eabi/4.8.4/../../../../arm-none-eabi/lib/armv6-m\libg_s.a(lib_a-impure.o)
 .data.impure_data
                0x00000000       0x60 d:/program/cy8/psoc creator/3.2/psoc creator/import/gnu/arm/4.8.4/bin/../lib/gcc/arm-none-eabi/4.8.4/../../../../arm-none-eabi/lib/armv6-m\libg_s.a(lib_a-impure.o)
 .data._impure_ptr
                0x00000000        0x4 d:/program/cy8/psoc creator/3.2/psoc creator/import/gnu/arm/4.8.4/bin/../lib/gcc/arm-none-eabi/4.8.4/../../../../arm-none-eabi/lib/armv6-m\libg_s.a(lib_a-impure.o)
 .rodata.str1.1
                0x00000000        0x2 d:/program/cy8/psoc creator/3.2/psoc creator/import/gnu/arm/4.8.4/bin/../lib/gcc/arm-none-eabi/4.8.4/../../../../arm-none-eabi/lib/armv6-m\libg_s.a(lib_a-impure.o)
 .rodata._global_impure_ptr
                0x00000000        0x4 d:/program/cy8/psoc creator/3.2/psoc creator/import/gnu/arm/4.8.4/bin/../lib/gcc/arm-none-eabi/4.8.4/../../../../arm-none-eabi/lib/armv6-m\libg_s.a(lib_a-impure.o)
 .text          0x00000000        0x0 d:/program/cy8/psoc creator/3.2/psoc creator/import/gnu/arm/4.8.4/bin/../lib/gcc/arm-none-eabi/4.8.4/../../../../arm-none-eabi/lib/armv6-m\libg_s.a(lib_a-init.o)
 .data          0x00000000        0x0 d:/program/cy8/psoc creator/3.2/psoc creator/import/gnu/arm/4.8.4/bin/../lib/gcc/arm-none-eabi/4.8.4/../../../../arm-none-eabi/lib/armv6-m\libg_s.a(lib_a-init.o)
 .bss           0x00000000        0x0 d:/program/cy8/psoc creator/3.2/psoc creator/import/gnu/arm/4.8.4/bin/../lib/gcc/arm-none-eabi/4.8.4/../../../../arm-none-eabi/lib/armv6-m\libg_s.a(lib_a-init.o)
 .text          0x00000000        0x0 d:/program/cy8/psoc creator/3.2/psoc creator/import/gnu/arm/4.8.4/bin/../lib/gcc/arm-none-eabi/4.8.4/../../../../arm-none-eabi/lib/armv6-m\libg_s.a(lib_a-memcmp.o)
 .data          0x00000000        0x0 d:/program/cy8/psoc creator/3.2/psoc creator/import/gnu/arm/4.8.4/bin/../lib/gcc/arm-none-eabi/4.8.4/../../../../arm-none-eabi/lib/armv6-m\libg_s.a(lib_a-memcmp.o)
 .bss           0x00000000        0x0 d:/program/cy8/psoc creator/3.2/psoc creator/import/gnu/arm/4.8.4/bin/../lib/gcc/arm-none-eabi/4.8.4/../../../../arm-none-eabi/lib/armv6-m\libg_s.a(lib_a-memcmp.o)
 .text          0x00000000        0x0 d:/program/cy8/psoc creator/3.2/psoc creator/import/gnu/arm/4.8.4/bin/../lib/gcc/arm-none-eabi/4.8.4/../../../../arm-none-eabi/lib/armv6-m\libg_s.a(lib_a-memcpy-stub.o)
 .data          0x00000000        0x0 d:/program/cy8/psoc creator/3.2/psoc creator/import/gnu/arm/4.8.4/bin/../lib/gcc/arm-none-eabi/4.8.4/../../../../arm-none-eabi/lib/armv6-m\libg_s.a(lib_a-memcpy-stub.o)
 .bss           0x00000000        0x0 d:/program/cy8/psoc creator/3.2/psoc creator/import/gnu/arm/4.8.4/bin/../lib/gcc/arm-none-eabi/4.8.4/../../../../arm-none-eabi/lib/armv6-m\libg_s.a(lib_a-memcpy-stub.o)
 .text          0x00000000        0x0 d:/program/cy8/psoc creator/3.2/psoc creator/import/gnu/arm/4.8.4/bin/../lib/gcc/arm-none-eabi/4.8.4/../../../../arm-none-eabi/lib/armv6-m\libg_s.a(lib_a-memset.o)
 .data          0x00000000        0x0 d:/program/cy8/psoc creator/3.2/psoc creator/import/gnu/arm/4.8.4/bin/../lib/gcc/arm-none-eabi/4.8.4/../../../../arm-none-eabi/lib/armv6-m\libg_s.a(lib_a-memset.o)
 .bss           0x00000000        0x0 d:/program/cy8/psoc creator/3.2/psoc creator/import/gnu/arm/4.8.4/bin/../lib/gcc/arm-none-eabi/4.8.4/../../../../arm-none-eabi/lib/armv6-m\libg_s.a(lib_a-memset.o)
 .text          0x00000000        0x0 d:/program/cy8/psoc creator/3.2/psoc creator/import/gnu/arm/4.8.4/bin/../lib/gcc/arm-none-eabi/4.8.4/armv6-m/crtend.o
 .data          0x00000000        0x0 d:/program/cy8/psoc creator/3.2/psoc creator/import/gnu/arm/4.8.4/bin/../lib/gcc/arm-none-eabi/4.8.4/armv6-m/crtend.o
 .bss           0x00000000        0x0 d:/program/cy8/psoc creator/3.2/psoc creator/import/gnu/arm/4.8.4/bin/../lib/gcc/arm-none-eabi/4.8.4/armv6-m/crtend.o
 .text          0x00000000        0x0 d:/program/cy8/psoc creator/3.2/psoc creator/import/gnu/arm/4.8.4/bin/../lib/gcc/arm-none-eabi/4.8.4/armv6-m/crtn.o
 .data          0x00000000        0x0 d:/program/cy8/psoc creator/3.2/psoc creator/import/gnu/arm/4.8.4/bin/../lib/gcc/arm-none-eabi/4.8.4/armv6-m/crtn.o
 .bss           0x00000000        0x0 d:/program/cy8/psoc creator/3.2/psoc creator/import/gnu/arm/4.8.4/bin/../lib/gcc/arm-none-eabi/4.8.4/armv6-m/crtn.o

Memory Configuration

Name             Origin             Length             Attributes
rom              0x00000000         0x00020000         xr
ram              0x20000000         0x00004000         xrw
*default*        0x00000000         0xffffffff

Linker script and memory map

LOAD d:/program/cy8/psoc creator/3.2/psoc creator/import/gnu/arm/4.8.4/bin/../lib/gcc/arm-none-eabi/4.8.4/armv6-m/crti.o
LOAD d:/program/cy8/psoc creator/3.2/psoc creator/import/gnu/arm/4.8.4/bin/../lib/gcc/arm-none-eabi/4.8.4/armv6-m/crtbegin.o
LOAD d:/program/cy8/psoc creator/3.2/psoc creator/import/gnu/arm/4.8.4/bin/../lib/gcc/arm-none-eabi/4.8.4/../../../../arm-none-eabi/lib/armv6-m/crt0.o
START GROUP
LOAD .\CortexM0\ARM_GCC_484\Debug\main.o
LOAD .\CortexM0\ARM_GCC_484\Debug\HeartRateProcessing.o
LOAD .\CortexM0\ARM_GCC_484\Debug\BleProcessing.o
LOAD .\CortexM0\ARM_GCC_484\Debug\WatchdogTimer.o
LOAD .\CortexM0\ARM_GCC_484\Debug\cymetadata.o
LOAD .\CortexM0\ARM_GCC_484\Debug\Cm0Start.o
LOAD .\CortexM0\ARM_GCC_484\Debug\BLE Lab 2.a
LOAD D:\program\CY8\PSoC Creator\3.2\PSoC Creator\psoc\content\cycomponentlibrary\CyComponentLibrary.cylib\BLE_v2_0\Library\gccCyBLEStack_BLE_SOC_PERIPHERAL.a
LOAD D:\program\CY8\PSoC Creator\3.2\PSoC Creator\psoc\content\cycomponentlibrary\CyComponentLibrary.cylib\CortexM0\ARM_GCC_484\Debug\CyComponentLibrary.a
END GROUP
START GROUP
LOAD d:/program/cy8/psoc creator/3.2/psoc creator/import/gnu/arm/4.8.4/bin/../lib/gcc/arm-none-eabi/4.8.4/armv6-m\libgcc.a
LOAD d:/program/cy8/psoc creator/3.2/psoc creator/import/gnu/arm/4.8.4/bin/../lib/gcc/arm-none-eabi/4.8.4/../../../../arm-none-eabi/lib/armv6-m\libg_s.a
LOAD d:/program/cy8/psoc creator/3.2/psoc creator/import/gnu/arm/4.8.4/bin/../lib/gcc/arm-none-eabi/4.8.4/../../../../arm-none-eabi/lib/armv6-m\libc_s.a
END GROUP
START GROUP
LOAD d:/program/cy8/psoc creator/3.2/psoc creator/import/gnu/arm/4.8.4/bin/../lib/gcc/arm-none-eabi/4.8.4/armv6-m\libgcc.a
LOAD d:/program/cy8/psoc creator/3.2/psoc creator/import/gnu/arm/4.8.4/bin/../lib/gcc/arm-none-eabi/4.8.4/../../../../arm-none-eabi/lib/armv6-m\libc_s.a
END GROUP
LOAD d:/program/cy8/psoc creator/3.2/psoc creator/import/gnu/arm/4.8.4/bin/../lib/gcc/arm-none-eabi/4.8.4/armv6-m/crtend.o
LOAD d:/program/cy8/psoc creator/3.2/psoc creator/import/gnu/arm/4.8.4/bin/../lib/gcc/arm-none-eabi/4.8.4/armv6-m/crtn.o
START GROUP
LOAD d:/program/cy8/psoc creator/3.2/psoc creator/import/gnu/arm/4.8.4/bin/../lib/gcc/arm-none-eabi/4.8.4/armv6-m\libgcc.a
LOAD d:/program/cy8/psoc creator/3.2/psoc creator/import/gnu/arm/4.8.4/bin/../lib/gcc/arm-none-eabi/4.8.4/../../../../arm-none-eabi/lib/armv6-m\libc.a
LOAD d:/program/cy8/psoc creator/3.2/psoc creator/import/gnu/arm/4.8.4/bin/../lib/gcc/arm-none-eabi/4.8.4/../../../../arm-none-eabi/lib/armv6-m\libnosys.a
END GROUP
                0x00000000                CY_APPL_ORIGIN = 0x0
                0x00000080                CY_FLASH_ROW_SIZE = 0x80
                0x00000001                CY_APPL_NUM = 0x1
                0x00000040                CY_METADATA_SIZE = 0x40
                0x20001de0                PROVIDE (__cy_heap_start, _end)
                0x00000001                PROVIDE (__cy_region_num, ((__cy_regions_end - __cy_regions) / 0x10))
                0x20004000                PROVIDE (__cy_stack, (ORIGIN (ram) + 0x4000))
                0x20003c00                PROVIDE (__cy_heap_end, (__cy_stack - 0x400))

.cybootloader   0x00000000        0x0
 *(.cybootloader)
                0x00000000                appl1_start = CY_APPL_ORIGIN?CY_APPL_ORIGIN:ALIGN (CY_FLASH_ROW_SIZE)
                0x0000ff80                appl2_start = (appl1_start + ALIGN ((((0x20000 - appl1_start) - (0x2 * CY_FLASH_ROW_SIZE)) / 0x2), CY_FLASH_ROW_SIZE))
                0x00000000                appl_start = (CY_APPL_NUM == 0x1)?appl1_start:appl2_start

.text           0x00000000     0x2568
 CREATE_OBJECT_SYMBOLS
                0x00000000                PROVIDE (__cy_interrupt_vector, RomVectors)
 *(.romvectors)
 .romvectors    0x00000000       0x10 .\CortexM0\ARM_GCC_484\Debug\Cm0Start.o
                0x00000000                RomVectors
                0x00000001                ASSERT ((. != __cy_interrupt_vector), No interrupt vector)
                0x00000001                ASSERT (CY_APPL_ORIGIN?(SIZEOF (.cybootloader) <= CY_APPL_ORIGIN):0x1, Wrong image location)
                0x00000010                PROVIDE (__cy_reset, Reset)
 *(.text.Reset)
 .text.Reset    0x00000010        0x8 .\CortexM0\ARM_GCC_484\Debug\Cm0Start.o
                0x00000010                Reset
                0x00000001                ASSERT ((. != __cy_reset), No reset code)
 *(.psocinit)
 .psocinit      0x00000018      0x230 .\CortexM0\ARM_GCC_484\Debug\BLE Lab 2.a(cyfitter_cfg.o)
                0x000000e4                cyfitter_cfg
                0x00000248                . = MAX (., 0x100)
 *(.text .text.* .gnu.linkonce.t.*)
 .text          0x00000248       0x60 d:/program/cy8/psoc creator/3.2/psoc creator/import/gnu/arm/4.8.4/bin/../lib/gcc/arm-none-eabi/4.8.4/armv6-m/crtbegin.o
 .text.InitializeSystem
                0x000002a8       0x3c .\CortexM0\ARM_GCC_484\Debug\main.o
 .text.main     0x000002e4       0xf0 .\CortexM0\ARM_GCC_484\Debug\main.o
                0x000002e4                main
 .text.ProcessHeartRateSignal
                0x000003d4       0xb0 .\CortexM0\ARM_GCC_484\Debug\HeartRateProcessing.o
                0x000003d4                ProcessHeartRateSignal
 .text.SendHeartRateOverBLE
                0x00000484       0x58 .\CortexM0\ARM_GCC_484\Debug\BleProcessing.o
                0x00000484                SendHeartRateOverBLE
 .text.HrsEventHandler
                0x000004dc       0x38 .\CortexM0\ARM_GCC_484\Debug\BleProcessing.o
                0x000004dc                HrsEventHandler
 .text.GeneralEventHandler
                0x00000514       0x88 .\CortexM0\ARM_GCC_484\Debug\BleProcessing.o
                0x00000514                GeneralEventHandler
 .text.WatchdogTimer_Isr
                0x0000059c       0x20 .\CortexM0\ARM_GCC_484\Debug\WatchdogTimer.o
                0x0000059c                WatchdogTimer_Isr
 .text.WatchdogTimer_Start
                0x000005bc       0x48 .\CortexM0\ARM_GCC_484\Debug\WatchdogTimer.o
                0x000005bc                WatchdogTimer_Start
 .text.WatchdogTimer_GetTimestamp
                0x00000604       0x14 .\CortexM0\ARM_GCC_484\Debug\WatchdogTimer.o
                0x00000604                WatchdogTimer_GetTimestamp
 .text.IntDefaultHandler
                0x00000618        0x8 .\CortexM0\ARM_GCC_484\Debug\Cm0Start.o
                0x00000618                IntDefaultHandler
 .text.Start_c  0x00000620       0x98 .\CortexM0\ARM_GCC_484\Debug\Cm0Start.o
                0x00000620                Start_c
 .text.initialize_psoc
                0x000006b8       0x70 .\CortexM0\ARM_GCC_484\Debug\Cm0Start.o
                0x000006b8                initialize_psoc
 .text.CYMEMZERO
                0x00000728       0x20 .\CortexM0\ARM_GCC_484\Debug\BLE Lab 2.a(cyfitter_cfg.o)
 .text.cfg_write_bytes32
                0x00000748       0x80 .\CortexM0\ARM_GCC_484\Debug\BLE Lab 2.a(cyfitter_cfg.o)
 .text.AnalogSetDefault
                0x000007c8       0x60 .\CortexM0\ARM_GCC_484\Debug\BLE Lab 2.a(cyfitter_cfg.o)
 .text.SetAnalogRoutingPumps
                0x00000828       0x40 .\CortexM0\ARM_GCC_484\Debug\BLE Lab 2.a(cyfitter_cfg.o)
                0x00000828                SetAnalogRoutingPumps
 .text.SW2_Switch_ClearInterrupt
                0x00000868       0x30 .\CortexM0\ARM_GCC_484\Debug\BLE Lab 2.a(SW2_Switch.o)
                0x00000868                SW2_Switch_ClearInterrupt
 .text.Wakeup_ISR_Start
                0x00000898       0x24 .\CortexM0\ARM_GCC_484\Debug\BLE Lab 2.a(Wakeup_ISR.o)
                0x00000898                Wakeup_ISR_Start
 .text.Wakeup_ISR_Interrupt
                0x000008bc        0x8 .\CortexM0\ARM_GCC_484\Debug\BLE Lab 2.a(Wakeup_ISR.o)
                0x000008bc                Wakeup_ISR_Interrupt
 .text.Wakeup_ISR_SetVector
                0x000008c4       0x18 .\CortexM0\ARM_GCC_484\Debug\BLE Lab 2.a(Wakeup_ISR.o)
                0x000008c4                Wakeup_ISR_SetVector
 .text.Wakeup_ISR_SetPriority
                0x000008dc       0x50 .\CortexM0\ARM_GCC_484\Debug\BLE Lab 2.a(Wakeup_ISR.o)
                0x000008dc                Wakeup_ISR_SetPriority
 .text.Wakeup_ISR_Enable
                0x0000092c       0x14 .\CortexM0\ARM_GCC_484\Debug\BLE Lab 2.a(Wakeup_ISR.o)
                0x0000092c                Wakeup_ISR_Enable
 .text.Wakeup_ISR_Disable
                0x00000940       0x14 .\CortexM0\ARM_GCC_484\Debug\BLE Lab 2.a(Wakeup_ISR.o)
                0x00000940                Wakeup_ISR_Disable
 .text.Led_Advertising_Green_Write
                0x00000954       0x4c .\CortexM0\ARM_GCC_484\Debug\BLE Lab 2.a(Led_Advertising_Green.o)
                0x00000954                Led_Advertising_Green_Write
 .text.Led_Advertising_Green_SetDriveMode
                0x000009a0       0x30 .\CortexM0\ARM_GCC_484\Debug\BLE Lab 2.a(Led_Advertising_Green.o)
                0x000009a0                Led_Advertising_Green_SetDriveMode
 .text.Led_Connected_Blue_Write
                0x000009d0       0x48 .\CortexM0\ARM_GCC_484\Debug\BLE Lab 2.a(Led_Connected_Blue.o)
                0x000009d0                Led_Connected_Blue_Write
 .text.Led_Connected_Blue_SetDriveMode
                0x00000a18       0x30 .\CortexM0\ARM_GCC_484\Debug\BLE Lab 2.a(Led_Connected_Blue.o)
                0x00000a18                Led_Connected_Blue_SetDriveMode
 .text.CyBle_HrsInit
                0x00000a48        0x8 .\CortexM0\ARM_GCC_484\Debug\BLE Lab 2.a(BLE_hrs.o)
                0x00000a48                CyBle_HrsInit
 .text.CyBle_HrsRegisterAttrCallback
                0x00000a50       0x18 .\CortexM0\ARM_GCC_484\Debug\BLE Lab 2.a(BLE_hrs.o)
                0x00000a50                CyBle_HrsRegisterAttrCallback
 .text.CyBle_HrssGetCharacteristicValue
                0x00000a68       0x9c .\CortexM0\ARM_GCC_484\Debug\BLE Lab 2.a(BLE_hrs.o)
                0x00000a68                CyBle_HrssGetCharacteristicValue
 .text.CyBle_HrssSendNotification
                0x00000b04       0xdc .\CortexM0\ARM_GCC_484\Debug\BLE Lab 2.a(BLE_hrs.o)
                0x00000b04                CyBle_HrssSendNotification
 .text.CyBle_HrssWriteEventHandler
                0x00000be0      0x118 .\CortexM0\ARM_GCC_484\Debug\BLE Lab 2.a(BLE_hrs.o)
                0x00000be0                CyBle_HrssWriteEventHandler
 .text.CyBle_Init
                0x00000cf8       0x2c .\CortexM0\ARM_GCC_484\Debug\BLE Lab 2.a(BLE.o)
                0x00000cf8                CyBle_Init
 .text.CyBle_ServiceInit
                0x00000d24       0x10 .\CortexM0\ARM_GCC_484\Debug\BLE Lab 2.a(BLE.o)
                0x00000d24                CyBle_ServiceInit
 .text.CyBle_Start
                0x00000d34       0xb0 .\CortexM0\ARM_GCC_484\Debug\BLE Lab 2.a(BLE.o)
                0x00000d34                CyBle_Start
 .text.CyBle_Stop
                0x00000de4       0x18 .\CortexM0\ARM_GCC_484\Debug\BLE Lab 2.a(BLE.o)
                0x00000de4                CyBle_Stop
 .text.CyBle_GappStartAdvertisement
                0x00000dfc       0xd4 .\CortexM0\ARM_GCC_484\Debug\BLE Lab 2.a(BLE.o)
                0x00000dfc                CyBle_GappStartAdvertisement
 .text.CyBle_ChangeAdDeviceAddress
                0x00000ed0       0x60 .\CortexM0\ARM_GCC_484\Debug\BLE Lab 2.a(BLE.o)
                0x00000ed0                CyBle_ChangeAdDeviceAddress
 .text.CyBle_Get16ByPtr
                0x00000f30       0x24 .\CortexM0\ARM_GCC_484\Debug\BLE Lab 2.a(BLE.o)
                0x00000f30                CyBle_Get16ByPtr
 .text.CyBle_GattsWriteEventHandler
                0x00000f54       0xa0 .\CortexM0\ARM_GCC_484\Debug\BLE Lab 2.a(BLE_gatt.o)
                0x00000f54                CyBle_GattsWriteEventHandler
 .text.CyBle_WriteReqHandler
                0x00000ff4       0x98 .\CortexM0\ARM_GCC_484\Debug\BLE Lab 2.a(BLE_eventHandler.o)
 .text.CyBle_ValueConfirmation
                0x0000108c       0x10 .\CortexM0\ARM_GCC_484\Debug\BLE Lab 2.a(BLE_eventHandler.o)
 .text.CyBle_GattDisconnectEventHandler
                0x0000109c       0x18 .\CortexM0\ARM_GCC_484\Debug\BLE Lab 2.a(BLE_eventHandler.o)
 .text.CyBle_TimeOutEventHandler
                0x000010b4       0x10 .\CortexM0\ARM_GCC_484\Debug\BLE Lab 2.a(BLE_eventHandler.o)
 .text.CyBle_GattConnectReqHandler
                0x000010c4        0x8 .\CortexM0\ARM_GCC_484\Debug\BLE Lab 2.a(BLE_eventHandler.o)
 .text.CyBle_IsDeviceAddressValid
                0x000010cc       0x60 .\CortexM0\ARM_GCC_484\Debug\BLE Lab 2.a(BLE_eventHandler.o)
 .text.CyBle_L2Cap_ConnParamUpdateRspEventHandler
                0x0000112c       0x14 .\CortexM0\ARM_GCC_484\Debug\BLE Lab 2.a(BLE_eventHandler.o)
 .text.CyBle_GapConnUpdateCompleteEventHandler
                0x00001140       0x10 .\CortexM0\ARM_GCC_484\Debug\BLE Lab 2.a(BLE_eventHandler.o)
 .text.CyBle_EventHandler
                0x00001150      0x2bc .\CortexM0\ARM_GCC_484\Debug\BLE Lab 2.a(BLE_eventHandler.o)
                0x00001150                CyBle_EventHandler
 .text.CyBle_DisInit
                0x0000140c        0x8 .\CortexM0\ARM_GCC_484\Debug\BLE Lab 2.a(BLE_dis.o)
                0x0000140c                CyBle_DisInit
 .text.Opamp_Init
                0x00001414       0x34 .\CortexM0\ARM_GCC_484\Debug\BLE Lab 2.a(Opamp.o)
                0x00001414                Opamp_Init
 .text.Opamp_Enable
                0x00001448       0x24 .\CortexM0\ARM_GCC_484\Debug\BLE Lab 2.a(Opamp.o)
                0x00001448                Opamp_Enable
 .text.Opamp_Start
                0x0000146c       0x24 .\CortexM0\ARM_GCC_484\Debug\BLE Lab 2.a(Opamp.o)
                0x0000146c                Opamp_Start
 .text.Opamp_Stop
                0x00001490       0x1c .\CortexM0\ARM_GCC_484\Debug\BLE Lab 2.a(Opamp.o)
                0x00001490                Opamp_Stop
 .text.Opamp_Sleep
                0x000014ac       0x2c .\CortexM0\ARM_GCC_484\Debug\BLE Lab 2.a(Opamp_PM.o)
                0x000014ac                Opamp_Sleep
 .text.Opamp_Wakeup
                0x000014d8       0x18 .\CortexM0\ARM_GCC_484\Debug\BLE Lab 2.a(Opamp_PM.o)
                0x000014d8                Opamp_Wakeup
 .text.ADC_Start
                0x000014f0       0x24 .\CortexM0\ARM_GCC_484\Debug\BLE Lab 2.a(ADC.o)
                0x000014f0                ADC_Start
 .text.ADC_Init
                0x00001514      0x1c4 .\CortexM0\ARM_GCC_484\Debug\BLE Lab 2.a(ADC.o)
                0x00001514                ADC_Init
 .text.ADC_Enable
                0x000016d8       0x38 .\CortexM0\ARM_GCC_484\Debug\BLE Lab 2.a(ADC.o)
                0x000016d8                ADC_Enable
 .text.ADC_Stop
                0x00001710       0x18 .\CortexM0\ARM_GCC_484\Debug\BLE Lab 2.a(ADC.o)
                0x00001710                ADC_Stop
 .text.ADC_StartConvert
                0x00001728       0x14 .\CortexM0\ARM_GCC_484\Debug\BLE Lab 2.a(ADC.o)
                0x00001728                ADC_StartConvert
 .text.ADC_StopConvert
                0x0000173c        0x8 .\CortexM0\ARM_GCC_484\Debug\BLE Lab 2.a(ADC.o)
                0x0000173c                ADC_StopConvert
 .text.ADC_IsEndConversion
                0x00001744       0x48 .\CortexM0\ARM_GCC_484\Debug\BLE Lab 2.a(ADC.o)
                0x00001744                ADC_IsEndConversion
 .text.ADC_GetResult16
                0x0000178c       0x44 .\CortexM0\ARM_GCC_484\Debug\BLE Lab 2.a(ADC.o)
                0x0000178c                ADC_GetResult16
 .text.ADC_Sleep
                0x000017d0       0x84 .\CortexM0\ARM_GCC_484\Debug\BLE Lab 2.a(ADC_PM.o)
                0x000017d0                ADC_Sleep
 .text.ADC_Wakeup
                0x00001854       0x58 .\CortexM0\ARM_GCC_484\Debug\BLE Lab 2.a(ADC_PM.o)
                0x00001854                ADC_Wakeup
 .text.ADC_ISR  0x000018ac       0x1c .\CortexM0\ARM_GCC_484\Debug\BLE Lab 2.a(ADC_INT.o)
                0x000018ac                ADC_ISR
 .text          0x000018c8       0x20 .\CortexM0\ARM_GCC_484\Debug\BLE Lab 2.a(CyBootAsmGnu.o)
                0x000018c8                CyDelayCycles
                0x000018da                CyEnterCriticalSection
                0x000018e2                CyExitCriticalSection
 .text.CySysClkWriteSysclkDiv
                0x000018e8       0x44 .\CortexM0\ARM_GCC_484\Debug\BLE Lab 2.a(CyLib.o)
                0x000018e8                CySysClkWriteSysclkDiv
 .text.CySysClkWriteImoFreq
                0x0000192c       0x98 .\CortexM0\ARM_GCC_484\Debug\BLE Lab 2.a(CyLib.o)
                0x0000192c                CySysClkWriteImoFreq
 .text.CySysClkEcoStart
                0x000019c4       0x74 .\CortexM0\ARM_GCC_484\Debug\BLE Lab 2.a(CyLib.o)
                0x000019c4                CySysClkEcoStart
 .text.CySysClkEcoReadStatus
                0x00001a38       0x18 .\CortexM0\ARM_GCC_484\Debug\BLE Lab 2.a(CyLib.o)
                0x00001a38                CySysClkEcoReadStatus
 .text.CyIntSetVector
                0x00001a50       0x4c .\CortexM0\ARM_GCC_484\Debug\BLE Lab 2.a(CyLib.o)
                0x00001a50                CyIntSetVector
 .text.CyIntSetPriority
                0x00001a9c       0xa8 .\CortexM0\ARM_GCC_484\Debug\BLE Lab 2.a(CyLib.o)
                0x00001a9c                CyIntSetPriority
 .text.CyIntEnable
                0x00001b44       0x2c .\CortexM0\ARM_GCC_484\Debug\BLE Lab 2.a(CyLib.o)
                0x00001b44                CyIntEnable
 .text.CyHalt   0x00001b70       0x14 .\CortexM0\ARM_GCC_484\Debug\BLE Lab 2.a(CyLib.o)
                0x00001b70                CyHalt
 .text.CyDelay  0x00001b84       0x48 .\CortexM0\ARM_GCC_484\Debug\BLE Lab 2.a(CyLib.o)
                0x00001b84                CyDelay
 .text.CyDelayUs
                0x00001bcc       0x28 .\CortexM0\ARM_GCC_484\Debug\BLE Lab 2.a(CyLib.o)
                0x00001bcc                CyDelayUs
 .text.CySysPmSleep
                0x00001bf4       0x34 .\CortexM0\ARM_GCC_484\Debug\BLE Lab 2.a(cyPm.o)
                0x00001bf4                CySysPmSleep
 .text.CySysPmDeepSleep
                0x00001c28       0x6c .\CortexM0\ARM_GCC_484\Debug\BLE Lab 2.a(cyPm.o)
                0x00001c28                CySysPmDeepSleep
 .text.CySysPmHibernate
                0x00001c94       0x6c .\CortexM0\ARM_GCC_484\Debug\BLE Lab 2.a(cyPm.o)
                0x00001c94                CySysPmHibernate
 .text.CySysClkWcoSetHighPowerMode
                0x00001d00       0x48 .\CortexM0\ARM_GCC_484\Debug\BLE Lab 2.a(CyLFClk.o)
 .text.CySysClkWcoSetLowPowerMode
                0x00001d48       0x48 .\CortexM0\ARM_GCC_484\Debug\BLE Lab 2.a(CyLFClk.o)
 .text.CySysClkWcoStart
                0x00001d90       0x20 .\CortexM0\ARM_GCC_484\Debug\BLE Lab 2.a(CyLFClk.o)
                0x00001d90                CySysClkWcoStart
 .text.CySysClkWcoSetPowerMode
                0x00001db0       0x40 .\CortexM0\ARM_GCC_484\Debug\BLE Lab 2.a(CyLFClk.o)
                0x00001db0                CySysClkWcoSetPowerMode
 .text.CySysWdtLock
                0x00001df0       0x34 .\CortexM0\ARM_GCC_484\Debug\BLE Lab 2.a(CyLFClk.o)
                0x00001df0                CySysWdtLock
 .text.CySysWdtLocked
                0x00001e24       0x20 .\CortexM0\ARM_GCC_484\Debug\BLE Lab 2.a(CyLFClk.o)
 .text.CySysWdtUnlock
                0x00001e44       0x4c .\CortexM0\ARM_GCC_484\Debug\BLE Lab 2.a(CyLFClk.o)
                0x00001e44                CySysWdtUnlock
 .text.CySysWdtGetEnabledStatus
                0x00001e90       0x30 .\CortexM0\ARM_GCC_484\Debug\BLE Lab 2.a(CyLFClk.o)
                0x00001e90                CySysWdtGetEnabledStatus
 .text.CySysWdtSetMode
                0x00001ec0       0x60 .\CortexM0\ARM_GCC_484\Debug\BLE Lab 2.a(CyLFClk.o)
                0x00001ec0                CySysWdtSetMode
 .text.CySysWdtSetClearOnMatch
                0x00001f20       0x70 .\CortexM0\ARM_GCC_484\Debug\BLE Lab 2.a(CyLFClk.o)
                0x00001f20                CySysWdtSetClearOnMatch
 .text.CySysWdtEnable
                0x00001f90       0x64 .\CortexM0\ARM_GCC_484\Debug\BLE Lab 2.a(CyLFClk.o)
                0x00001f90                CySysWdtEnable
 .text.CySysWdtSetMatch
                0x00001ff4       0x90 .\CortexM0\ARM_GCC_484\Debug\BLE Lab 2.a(CyLFClk.o)
                0x00001ff4                CySysWdtSetMatch
 .text.CySysWdtClearInterrupt
                0x00002084       0x70 .\CortexM0\ARM_GCC_484\Debug\BLE Lab 2.a(CyLFClk.o)
                0x00002084                CySysWdtClearInterrupt
 .text.CyBLE_Bless_LlRegWrite
                0x000020f4       0x1c .\CortexM0\ARM_GCC_484\Debug\BLE Lab 2.a(BLE_HAL_PVT.o)
                0x000020f4                CyBLE_Bless_LlRegWrite
 .text.CyBLE_Bless_RfRegWrite
                0x00002110       0x1c .\CortexM0\ARM_GCC_484\Debug\BLE Lab 2.a(BLE_HAL_PVT.o)
                0x00002110                CyBLE_Bless_RfRegWrite
 .text.CyBLE_BlessDeviceConfig
                0x0000212c      0x110 .\CortexM0\ARM_GCC_484\Debug\BLE Lab 2.a(BLE_HAL_PVT.o)
                0x0000212c                CyBLE_BlessDeviceConfig
 .text.CyBleHal_DelayUs
                0x0000223c       0x1c .\CortexM0\ARM_GCC_484\Debug\BLE Lab 2.a(BLE_HAL_PVT.o)
                0x0000223c                CyBleHal_DelayUs
 .text.CyBleHal_DelayMs
                0x00002258       0x18 .\CortexM0\ARM_GCC_484\Debug\BLE Lab 2.a(BLE_HAL_PVT.o)
                0x00002258                CyBleHal_DelayMs
 .text.CyBleHal_EnableGlobalInterrupts
                0x00002270        0xc .\CortexM0\ARM_GCC_484\Debug\BLE Lab 2.a(BLE_HAL_PVT.o)
                0x00002270                CyBleHal_EnableGlobalInterrupts
 .text.CyBleHal_DisableGlobalInterrupts
                0x0000227c        0xc .\CortexM0\ARM_GCC_484\Debug\BLE Lab 2.a(BLE_HAL_PVT.o)
                0x0000227c                CyBleHal_DisableGlobalInterrupts
 .text.CyBle_HalInit
                0x00002288       0x20 .\CortexM0\ARM_GCC_484\Debug\BLE Lab 2.a(BLE_HAL_PVT.o)
                0x00002288                CyBle_HalInit
 .text.CYBLE_BlessStart
                0x000022a8       0x14 .\CortexM0\ARM_GCC_484\Debug\BLE Lab 2.a(BLE_HAL_PVT.o)
                0x000022a8                CYBLE_BlessStart
 .text.BLE_bless_isr_StartEx
                0x000022bc       0x24 .\CortexM0\ARM_GCC_484\Debug\BLE Lab 2.a(BLE_bless_isr.o)
                0x000022bc                BLE_bless_isr_StartEx
 .text.BLE_bless_isr_SetVector
                0x000022e0       0x18 .\CortexM0\ARM_GCC_484\Debug\BLE Lab 2.a(BLE_bless_isr.o)
                0x000022e0                BLE_bless_isr_SetVector
 .text.BLE_bless_isr_SetPriority
                0x000022f8       0x50 .\CortexM0\ARM_GCC_484\Debug\BLE Lab 2.a(BLE_bless_isr.o)
                0x000022f8                BLE_bless_isr_SetPriority
 .text.BLE_bless_isr_Enable
                0x00002348       0x14 .\CortexM0\ARM_GCC_484\Debug\BLE Lab 2.a(BLE_bless_isr.o)
                0x00002348                BLE_bless_isr_Enable
 .text.BLE_bless_isr_Disable
                0x0000235c       0x14 .\CortexM0\ARM_GCC_484\Debug\BLE Lab 2.a(BLE_bless_isr.o)
                0x0000235c                BLE_bless_isr_Disable
 .text.CyBLE_Bless_Interrupt
                0x00002370        0xc .\CortexM0\ARM_GCC_484\Debug\BLE Lab 2.a(BLE_HAL_INT.o)
                0x00002370                CyBLE_Bless_Interrupt
 .text          0x0000237c       0x9c d:/program/cy8/psoc creator/3.2/psoc creator/import/gnu/arm/4.8.4/bin/../lib/gcc/arm-none-eabi/4.8.4/armv6-m\libgcc.a(_udivsi3.o)
                0x0000237c                __aeabi_uidiv
                0x0000237c                __udivsi3
                0x00002404                __aeabi_uidivmod
 .text          0x00002418       0xc0 d:/program/cy8/psoc creator/3.2/psoc creator/import/gnu/arm/4.8.4/bin/../lib/gcc/arm-none-eabi/4.8.4/armv6-m\libgcc.a(_divsi3.o)
                0x00002418                __divsi3
                0x00002418                __aeabi_idiv
                0x000024c4                __aeabi_idivmod
 .text          0x000024d8        0x4 d:/program/cy8/psoc creator/3.2/psoc creator/import/gnu/arm/4.8.4/bin/../lib/gcc/arm-none-eabi/4.8.4/armv6-m\libgcc.a(_dvmd_tls.o)
                0x000024d8                __aeabi_idiv0
                0x000024d8                __aeabi_ldiv0
 .text.__libc_init_array
                0x000024dc       0x4c d:/program/cy8/psoc creator/3.2/psoc creator/import/gnu/arm/4.8.4/bin/../lib/gcc/arm-none-eabi/4.8.4/../../../../arm-none-eabi/lib/armv6-m\libg_s.a(lib_a-init.o)
                0x000024dc                __libc_init_array
 .text.memcmp   0x00002528       0x1e d:/program/cy8/psoc creator/3.2/psoc creator/import/gnu/arm/4.8.4/bin/../lib/gcc/arm-none-eabi/4.8.4/../../../../arm-none-eabi/lib/armv6-m\libg_s.a(lib_a-memcmp.o)
                0x00002528                memcmp
 .text.memcpy   0x00002546       0x12 d:/program/cy8/psoc creator/3.2/psoc creator/import/gnu/arm/4.8.4/bin/../lib/gcc/arm-none-eabi/4.8.4/../../../../arm-none-eabi/lib/armv6-m\libg_s.a(lib_a-memcpy-stub.o)
                0x00002546                memcpy
 .text.memset   0x00002558       0x10 d:/program/cy8/psoc creator/3.2/psoc creator/import/gnu/arm/4.8.4/bin/../lib/gcc/arm-none-eabi/4.8.4/../../../../arm-none-eabi/lib/armv6-m\libg_s.a(lib_a-memset.o)
                0x00002558                memset
 *(.plt)
 *(.gnu.warning)
 *(.glue_7t)
 .glue_7t       0x00000000        0x0 linker stubs
 *(.glue_7)
 .glue_7        0x00000000        0x0 linker stubs
 *(.vfp11_veneer)
 .vfp11_veneer  0x00000000        0x0 linker stubs
 *(.bootloader)
 *(.ARM.extab* .gnu.linkonce.armextab.*)
 *(.gcc_except_table)

.v4_bx          0x00002568        0x0
 .v4_bx         0x00000000        0x0 linker stubs

.iplt           0x00002568        0x0
 .iplt          0x00000000        0x0 d:/program/cy8/psoc creator/3.2/psoc creator/import/gnu/arm/4.8.4/bin/../lib/gcc/arm-none-eabi/4.8.4/armv6-m/crtbegin.o

i.CyBle_EnterLPM
                0x00002568        0x8
 i.CyBle_EnterLPM
                0x00002568        0x8 D:\program\CY8\PSoC Creator\3.2\PSoC Creator\psoc\content\cycomponentlibrary\CyComponentLibrary.cylib\BLE_v2_0\Library\gccCyBLEStack_BLE_SOC_PERIPHERAL.a(CyBle.o)
                0x00002568                CyBle_EnterLPM

i.CyBle_ExitLPM
                0x00002570        0x8
 i.CyBle_ExitLPM
                0x00002570        0x8 D:\program\CY8\PSoC Creator\3.2\PSoC Creator\psoc\content\cycomponentlibrary\CyComponentLibrary.cylib\BLE_v2_0\Library\gccCyBLEStack_BLE_SOC_PERIPHERAL.a(CyBle.o)
                0x00002570                CyBle_ExitLPM

i.CyBle_ProcessEvents
                0x00002578        0x8
 i.CyBle_ProcessEvents
                0x00002578        0x8 D:\program\CY8\PSoC Creator\3.2\PSoC Creator\psoc\content\cycomponentlibrary\CyComponentLibrary.cylib\BLE_v2_0\Library\gccCyBLEStack_BLE_SOC_PERIPHERAL.a(CyBle.o)
                0x00002578                CyBle_ProcessEvents

i.CyBle_SetDeviceAddress
                0x00002580       0x24
 i.CyBle_SetDeviceAddress
                0x00002580       0x24 D:\program\CY8\PSoC Creator\3.2\PSoC Creator\psoc\content\cycomponentlibrary\CyComponentLibrary.cylib\BLE_v2_0\Library\gccCyBLEStack_BLE_SOC_PERIPHERAL.a(CyBle.o)
                0x00002580                CyBle_SetDeviceAddress

i.CyBle_Shutdown
                0x000025a4       0x24
 i.CyBle_Shutdown
                0x000025a4       0x24 D:\program\CY8\PSoC Creator\3.2\PSoC Creator\psoc\content\cycomponentlibrary\CyComponentLibrary.cylib\BLE_v2_0\Library\gccCyBLEStack_BLE_SOC_PERIPHERAL.a(CyBle.o)
                0x000025a4                CyBle_Shutdown

i.CyBle_StackInit
                0x000025c8       0x80
 i.CyBle_StackInit
                0x000025c8       0x80 D:\program\CY8\PSoC Creator\3.2\PSoC Creator\psoc\content\cycomponentlibrary\CyComponentLibrary.cylib\BLE_v2_0\Library\gccCyBLEStack_BLE_SOC_PERIPHERAL.a(CyBle.o)
                0x000025c8                CyBle_StackInit

i.CyBleStackMgr_Init
                0x00002648       0xb4
 i.CyBleStackMgr_Init
                0x00002648       0xb4 D:\program\CY8\PSoC Creator\3.2\PSoC Creator\psoc\content\cycomponentlibrary\CyComponentLibrary.cylib\BLE_v2_0\Library\gccCyBLEStack_BLE_SOC_PERIPHERAL.a(CyBleStackMgrIP_Interface.o)
                0x00002648                CyBleStackMgr_Init

i.CyBleStackMgr_ProcessBleEvents
                0x000026fc       0x14
 i.CyBleStackMgr_ProcessBleEvents
                0x000026fc       0x14 D:\program\CY8\PSoC Creator\3.2\PSoC Creator\psoc\content\cycomponentlibrary\CyComponentLibrary.cylib\BLE_v2_0\Library\gccCyBLEStack_BLE_SOC_PERIPHERAL.a(CyBleStackMgrIP_Interface.o)
                0x000026fc                CyBleStackMgr_ProcessBleEvents

i.CyBleStackMgr_Reset
                0x00002710       0x34
 i.CyBleStackMgr_Reset
                0x00002710       0x34 D:\program\CY8\PSoC Creator\3.2\PSoC Creator\psoc\content\cycomponentlibrary\CyComponentLibrary.cylib\BLE_v2_0\Library\gccCyBLEStack_BLE_SOC_PERIPHERAL.a(CyBleStackMgrIP_Interface.o)
                0x00002710                CyBleStackMgr_Reset

i.CyBleStackMgr_Shutdown
                0x00002744       0x24
 i.CyBleStackMgr_Shutdown
                0x00002744       0x24 D:\program\CY8\PSoC Creator\3.2\PSoC Creator\psoc\content\cycomponentlibrary\CyComponentLibrary.cylib\BLE_v2_0\Library\gccCyBLEStack_BLE_SOC_PERIPHERAL.a(CyBleStackMgrIP_Interface.o)
                0x00002744                CyBleStackMgr_Shutdown

i.CyBle_GetHeapMemory
                0x00002768       0x28
 i.CyBle_GetHeapMemory
                0x00002768       0x28 D:\program\CY8\PSoC Creator\3.2\PSoC Creator\psoc\content\cycomponentlibrary\CyComponentLibrary.cylib\BLE_v2_0\Library\gccCyBLEStack_BLE_SOC_PERIPHERAL.a(CyBleStackMgrIP_Interface.o)
                0x00002768                CyBle_GetHeapMemory

i.CyBle_GetNumAppBufferPools
                0x00002790        0xc
 i.CyBle_GetNumAppBufferPools
                0x00002790        0xc D:\program\CY8\PSoC Creator\3.2\PSoC Creator\psoc\content\cycomponentlibrary\CyComponentLibrary.cylib\BLE_v2_0\Library\gccCyBLEStack_BLE_SOC_PERIPHERAL.a(CyBleStackMgrIP_Interface.o)
                0x00002790                CyBle_GetNumAppBufferPools

i.CyBle_GetReservedPoolInfo
                0x0000279c       0x3c
 i.CyBle_GetReservedPoolInfo
                0x0000279c       0x3c D:\program\CY8\PSoC Creator\3.2\PSoC Creator\psoc\content\cycomponentlibrary\CyComponentLibrary.cylib\BLE_v2_0\Library\gccCyBLEStack_BLE_SOC_PERIPHERAL.a(CyBleStackMgrIP_Interface.o)
                0x0000279c                CyBle_GetReservedPoolInfo

i.CyBle_HostStackBufferPoolInit
                0x000027d8       0x7c
 i.CyBle_HostStackBufferPoolInit
                0x000027d8       0x7c D:\program\CY8\PSoC Creator\3.2\PSoC Creator\psoc\content\cycomponentlibrary\CyComponentLibrary.cylib\BLE_v2_0\Library\gccCyBLEStack_BLE_SOC_PERIPHERAL.a(CyBleStackMgrIP_Interface.o)

i.ble_stack_idle_task_callback
                0x00002854        0x2
 i.ble_stack_idle_task_callback
                0x00002854        0x2 D:\program\CY8\PSoC Creator\3.2\PSoC Creator\psoc\content\cycomponentlibrary\CyComponentLibrary.cylib\BLE_v2_0\Library\gccCyBLEStack_BLE_SOC_PERIPHERAL.a(CyBleStackMgrIP_Interface.o)
                0x00002854                ble_stack_idle_task_callback

i.BT_OSFreeBuf  0x00002858       0x20
 i.BT_OSFreeBuf
                0x00002858       0x20 D:\program\CY8\PSoC Creator\3.2\PSoC Creator\psoc\content\cycomponentlibrary\CyComponentLibrary.cylib\BLE_v2_0\Library\gccCyBLEStack_BLE_SOC_PERIPHERAL.a(BT_os.o)
                0x00002858                BT_OSFreeBuf

i.BT_OSGetBuF   0x00002878       0x30
 i.BT_OSGetBuF  0x00002878       0x30 D:\program\CY8\PSoC Creator\3.2\PSoC Creator\psoc\content\cycomponentlibrary\CyComponentLibrary.cylib\BLE_v2_0\Library\gccCyBLEStack_BLE_SOC_PERIPHERAL.a(BT_os.o)
                0x00002878                BT_OSGetBuF

i.BT_OSMemCreate
                0x000028a8       0x3c
 i.BT_OSMemCreate
                0x000028a8       0x3c D:\program\CY8\PSoC Creator\3.2\PSoC Creator\psoc\content\cycomponentlibrary\CyComponentLibrary.cylib\BLE_v2_0\Library\gccCyBLEStack_BLE_SOC_PERIPHERAL.a(BT_os.o)
                0x000028a8                BT_OSMemCreate

i.BT_alloc_mem_ext
                0x000028e4       0x40
 i.BT_alloc_mem_ext
                0x000028e4       0x40 D:\program\CY8\PSoC Creator\3.2\PSoC Creator\psoc\content\cycomponentlibrary\CyComponentLibrary.cylib\BLE_v2_0\Library\gccCyBLEStack_BLE_SOC_PERIPHERAL.a(BT_os.o)
                0x000028e4                BT_alloc_mem_ext

i.BT_buff_alloc_from_cfg_pool_ext
                0x00002924       0x18
 i.BT_buff_alloc_from_cfg_pool_ext
                0x00002924       0x18 D:\program\CY8\PSoC Creator\3.2\PSoC Creator\psoc\content\cycomponentlibrary\CyComponentLibrary.cylib\BLE_v2_0\Library\gccCyBLEStack_BLE_SOC_PERIPHERAL.a(BT_os.o)
                0x00002924                BT_buff_alloc_from_cfg_pool_ext

i.BT_free_mem   0x0000293c        0xc
 i.BT_free_mem  0x0000293c        0xc D:\program\CY8\PSoC Creator\3.2\PSoC Creator\psoc\content\cycomponentlibrary\CyComponentLibrary.cylib\BLE_v2_0\Library\gccCyBLEStack_BLE_SOC_PERIPHERAL.a(BT_os.o)
                0x0000293c                BT_free_mem

i.bt_stack_create_buffer_pool
                0x00002948       0x30
 i.bt_stack_create_buffer_pool
                0x00002948       0x30 D:\program\CY8\PSoC Creator\3.2\PSoC Creator\psoc\content\cycomponentlibrary\CyComponentLibrary.cylib\BLE_v2_0\Library\gccCyBLEStack_BLE_SOC_PERIPHERAL.a(BT_os.o)
                0x00002948                bt_stack_create_buffer_pool

i.bt_stack_reset_buffer_pool
                0x00002978       0x28
 i.bt_stack_reset_buffer_pool
                0x00002978       0x28 D:\program\CY8\PSoC Creator\3.2\PSoC Creator\psoc\content\cycomponentlibrary\CyComponentLibrary.cylib\BLE_v2_0\Library\gccCyBLEStack_BLE_SOC_PERIPHERAL.a(BT_os.o)
                0x00002978                bt_stack_reset_buffer_pool

i.CyBle_CheckBleStackTaskStatus
                0x000029a0        0x4
 i.CyBle_CheckBleStackTaskStatus
                0x000029a0        0x4 D:\program\CY8\PSoC Creator\3.2\PSoC Creator\psoc\content\cycomponentlibrary\CyComponentLibrary.cylib\BLE_v2_0\Library\gccCyBLEStack_BLE_SOC_PERIPHERAL.a(CyBleStackMgr_StackTaskHandler.o)
                0x000029a0                CyBle_CheckBleStackTaskStatus

i.CyBle_CreateBleStackTask
                0x000029a4       0x2c
 i.CyBle_CreateBleStackTask
                0x000029a4       0x2c D:\program\CY8\PSoC Creator\3.2\PSoC Creator\psoc\content\cycomponentlibrary\CyComponentLibrary.cylib\BLE_v2_0\Library\gccCyBLEStack_BLE_SOC_PERIPHERAL.a(CyBleStackMgr_StackTaskHandler.o)
                0x000029a4                CyBle_CreateBleStackTask

i.CyBle_SignalBleStackTask
                0x000029d0       0x50
 i.CyBle_SignalBleStackTask
                0x000029d0       0x50 D:\program\CY8\PSoC Creator\3.2\PSoC Creator\psoc\content\cycomponentlibrary\CyComponentLibrary.cylib\BLE_v2_0\Library\gccCyBLEStack_BLE_SOC_PERIPHERAL.a(CyBleStackMgr_StackTaskHandler.o)
                0x000029d0                CyBle_SignalBleStackTask

i.CyBle_StackTaskHandler
                0x00002a20       0x5c
 i.CyBle_StackTaskHandler
                0x00002a20       0x5c D:\program\CY8\PSoC Creator\3.2\PSoC Creator\psoc\content\cycomponentlibrary\CyComponentLibrary.cylib\BLE_v2_0\Library\gccCyBLEStack_BLE_SOC_PERIPHERAL.a(CyBleStackMgr_StackTaskHandler.o)
                0x00002a20                CyBle_StackTaskHandler

i.__ARM_common_switch8
                0x00002a7c       0x1a
 i.__ARM_common_switch8
                0x00002a7c       0x1a D:\program\CY8\PSoC Creator\3.2\PSoC Creator\psoc\content\cycomponentlibrary\CyComponentLibrary.cylib\BLE_v2_0\Library\gccCyBLEStack_BLE_SOC_PERIPHERAL.a(CyBleStackMgr_StackTaskHandler.o)
                0x00002a7c                __ARM_common_switch8

i.hci_soft_transport_notify_data_received
                0x00002a98        0xc
 i.hci_soft_transport_notify_data_received
                0x00002a98        0xc D:\program\CY8\PSoC Creator\3.2\PSoC Creator\psoc\content\cycomponentlibrary\CyComponentLibrary.cylib\BLE_v2_0\Library\gccCyBLEStack_BLE_SOC_PERIPHERAL.a(transport_sf.o)
                0x00002a98                hci_soft_transport_notify_data_received

i.hci_soft_transport_rx_data
                0x00002aa4       0x40
 i.hci_soft_transport_rx_data
                0x00002aa4       0x40 D:\program\CY8\PSoC Creator\3.2\PSoC Creator\psoc\content\cycomponentlibrary\CyComponentLibrary.cylib\BLE_v2_0\Library\gccCyBLEStack_BLE_SOC_PERIPHERAL.a(transport_sf.o)
                0x00002aa4                hci_soft_transport_rx_data

i.hci_transport_bt_init
                0x00002ae4        0x2
 i.hci_transport_bt_init
                0x00002ae4        0x2 D:\program\CY8\PSoC Creator\3.2\PSoC Creator\psoc\content\cycomponentlibrary\CyComponentLibrary.cylib\BLE_v2_0\Library\gccCyBLEStack_BLE_SOC_PERIPHERAL.a(transport_sf.o)
                0x00002ae4                hci_transport_bt_init

i.hci_transport_bt_shutdown
                0x00002ae6        0x2
 i.hci_transport_bt_shutdown
                0x00002ae6        0x2 D:\program\CY8\PSoC Creator\3.2\PSoC Creator\psoc\content\cycomponentlibrary\CyComponentLibrary.cylib\BLE_v2_0\Library\gccCyBLEStack_BLE_SOC_PERIPHERAL.a(transport_sf.o)
                0x00002ae6                hci_transport_bt_shutdown

i.hci_transport_init
                0x00002ae8       0x10
 i.hci_transport_init
                0x00002ae8       0x10 D:\program\CY8\PSoC Creator\3.2\PSoC Creator\psoc\content\cycomponentlibrary\CyComponentLibrary.cylib\BLE_v2_0\Library\gccCyBLEStack_BLE_SOC_PERIPHERAL.a(transport_sf.o)
                0x00002ae8                hci_transport_init

i.hci_transport_write_data
                0x00002af8       0xd4
 i.hci_transport_write_data
                0x00002af8       0xd4 D:\program\CY8\PSoC Creator\3.2\PSoC Creator\psoc\content\cycomponentlibrary\CyComponentLibrary.cylib\BLE_v2_0\Library\gccCyBLEStack_BLE_SOC_PERIPHERAL.a(transport_sf.o)
                0x00002af8                hci_transport_write_data

i.pf_hci_soft_transport_write
                0x00002bcc       0x44
 i.pf_hci_soft_transport_write
                0x00002bcc       0x44 D:\program\CY8\PSoC Creator\3.2\PSoC Creator\psoc\content\cycomponentlibrary\CyComponentLibrary.cylib\BLE_v2_0\Library\gccCyBLEStack_BLE_SOC_PERIPHERAL.a(transport_sf.o)
                0x00002bcc                pf_hci_soft_transport_write

i.pf_soft_hci_transport_init
                0x00002c10        0xc
 i.pf_soft_hci_transport_init
                0x00002c10        0xc D:\program\CY8\PSoC Creator\3.2\PSoC Creator\psoc\content\cycomponentlibrary\CyComponentLibrary.cylib\BLE_v2_0\Library\gccCyBLEStack_BLE_SOC_PERIPHERAL.a(transport_sf.o)
                0x00002c10                pf_soft_hci_transport_init

i.CyBleStackMgr_GetTime
                0x00002c1c       0x14
 i.CyBleStackMgr_GetTime
                0x00002c1c       0x14 D:\program\CY8\PSoC Creator\3.2\PSoC Creator\psoc\content\cycomponentlibrary\CyComponentLibrary.cylib\BLE_v2_0\Library\gccCyBLEStack_BLE_SOC_PERIPHERAL.a(CyBleStackMgr_PSoCHal.o)
                0x00002c1c                CyBleStackMgr_GetTime

i.CyBleStackMgr_HalInit
                0x00002c30       0x24
 i.CyBleStackMgr_HalInit
                0x00002c30       0x24 D:\program\CY8\PSoC Creator\3.2\PSoC Creator\psoc\content\cycomponentlibrary\CyComponentLibrary.cylib\BLE_v2_0\Library\gccCyBLEStack_BLE_SOC_PERIPHERAL.a(CyBleStackMgr_PSoCHal.o)
                0x00002c30                CyBleStackMgr_HalInit

i.CyBleStackMgr_HalIntrEnable
                0x00002c54        0x8
 i.CyBleStackMgr_HalIntrEnable
                0x00002c54        0x8 D:\program\CY8\PSoC Creator\3.2\PSoC Creator\psoc\content\cycomponentlibrary\CyComponentLibrary.cylib\BLE_v2_0\Library\gccCyBLEStack_BLE_SOC_PERIPHERAL.a(CyBleStackMgr_PSoCHal.o)
                0x00002c54                CyBleStackMgr_HalIntrEnable

i.CyBleStackMgr_HalReset
                0x00002c5c        0x4
 i.CyBleStackMgr_HalReset
                0x00002c5c        0x4 D:\program\CY8\PSoC Creator\3.2\PSoC Creator\psoc\content\cycomponentlibrary\CyComponentLibrary.cylib\BLE_v2_0\Library\gccCyBLEStack_BLE_SOC_PERIPHERAL.a(CyBleStackMgr_PSoCHal.o)
                0x00002c5c                CyBleStackMgr_HalReset

i.CyBleStackMgr_HandleLinkLayerTick
                0x00002c60       0x5c
 i.CyBleStackMgr_HandleLinkLayerTick
                0x00002c60       0x5c D:\program\CY8\PSoC Creator\3.2\PSoC Creator\psoc\content\cycomponentlibrary\CyComponentLibrary.cylib\BLE_v2_0\Library\gccCyBLEStack_BLE_SOC_PERIPHERAL.a(CyBleStackMgr_PSoCHal.o)
                0x00002c60                CyBleStackMgr_HandleLinkLayerTick

i.CyBleStackMgr_HciPortInit
                0x00002cbc        0xc
 i.CyBleStackMgr_HciPortInit
                0x00002cbc        0xc D:\program\CY8\PSoC Creator\3.2\PSoC Creator\psoc\content\cycomponentlibrary\CyComponentLibrary.cylib\BLE_v2_0\Library\gccCyBLEStack_BLE_SOC_PERIPHERAL.a(CyBleStackMgr_PSoCHal.o)
                0x00002cbc                CyBleStackMgr_HciPortInit

i.CyBleStackMgr_HciPortReset
                0x00002cc8        0x2
 i.CyBleStackMgr_HciPortReset
                0x00002cc8        0x2 D:\program\CY8\PSoC Creator\3.2\PSoC Creator\psoc\content\cycomponentlibrary\CyComponentLibrary.cylib\BLE_v2_0\Library\gccCyBLEStack_BLE_SOC_PERIPHERAL.a(CyBleStackMgr_PSoCHal.o)
                0x00002cc8                CyBleStackMgr_HciPortReset

i.CyBleStackMgr_HciPortWrite
                0x00002cca        0x8
 i.CyBleStackMgr_HciPortWrite
                0x00002cca        0x8 D:\program\CY8\PSoC Creator\3.2\PSoC Creator\psoc\content\cycomponentlibrary\CyComponentLibrary.cylib\BLE_v2_0\Library\gccCyBLEStack_BLE_SOC_PERIPHERAL.a(CyBleStackMgr_PSoCHal.o)
                0x00002cca                CyBleStackMgr_HciPortWrite

i.CyBleStackMgr_ResetLinkLayerTimerEntity
                0x00002cd4       0x14
 i.CyBleStackMgr_ResetLinkLayerTimerEntity
                0x00002cd4       0x14 D:\program\CY8\PSoC Creator\3.2\PSoC Creator\psoc\content\cycomponentlibrary\CyComponentLibrary.cylib\BLE_v2_0\Library\gccCyBLEStack_BLE_SOC_PERIPHERAL.a(CyBleStackMgr_PSoCHal.o)
                0x00002cd4                CyBleStackMgr_ResetLinkLayerTimerEntity

i.CyBleStackMgr_TimerStart
                0x00002ce8       0x2c
 i.CyBleStackMgr_TimerStart
                0x00002ce8       0x2c D:\program\CY8\PSoC Creator\3.2\PSoC Creator\psoc\content\cycomponentlibrary\CyComponentLibrary.cylib\BLE_v2_0\Library\gccCyBLEStack_BLE_SOC_PERIPHERAL.a(CyBleStackMgr_PSoCHal.o)
                0x00002ce8                CyBleStackMgr_TimerStart

i.CyBleStackMgr_TimerStop
                0x00002d14       0x18
 i.CyBleStackMgr_TimerStop
                0x00002d14       0x18 D:\program\CY8\PSoC Creator\3.2\PSoC Creator\psoc\content\cycomponentlibrary\CyComponentLibrary.cylib\BLE_v2_0\Library\gccCyBLEStack_BLE_SOC_PERIPHERAL.a(CyBleStackMgr_PSoCHal.o)
                0x00002d14                CyBleStackMgr_TimerStop

i.CyBleStackMgr_isTimerRunning
                0x00002d2c       0x10
 i.CyBleStackMgr_isTimerRunning
                0x00002d2c       0x10 D:\program\CY8\PSoC Creator\3.2\PSoC Creator\psoc\content\cycomponentlibrary\CyComponentLibrary.cylib\BLE_v2_0\Library\gccCyBLEStack_BLE_SOC_PERIPHERAL.a(CyBleStackMgr_PSoCHal.o)
                0x00002d2c                CyBleStackMgr_isTimerRunning

i.CyBleAtlantisRadioInit
                0x00002d3c      0x150
 i.CyBleAtlantisRadioInit
                0x00002d3c      0x150 D:\program\CY8\PSoC Creator\3.2\PSoC Creator\psoc\content\cycomponentlibrary\CyComponentLibrary.cylib\BLE_v2_0\Library\gccCyBLEStack_BLE_SOC_PERIPHERAL.a(CyBleStackMgr_BleSSDriver.o)

i.CyBleStackMgr_BleSSFifoRead
                0x00002e8c       0x38
 i.CyBleStackMgr_BleSSFifoRead
                0x00002e8c       0x38 D:\program\CY8\PSoC Creator\3.2\PSoC Creator\psoc\content\cycomponentlibrary\CyComponentLibrary.cylib\BLE_v2_0\Library\gccCyBLEStack_BLE_SOC_PERIPHERAL.a(CyBleStackMgr_BleSSDriver.o)
                0x00002e8c                CyBleStackMgr_BleSSFifoRead

i.CyBleStackMgr_BleSSFifoWrite
                0x00002ec4       0x30
 i.CyBleStackMgr_BleSSFifoWrite
                0x00002ec4       0x30 D:\program\CY8\PSoC Creator\3.2\PSoC Creator\psoc\content\cycomponentlibrary\CyComponentLibrary.cylib\BLE_v2_0\Library\gccCyBLEStack_BLE_SOC_PERIPHERAL.a(CyBleStackMgr_BleSSDriver.o)
                0x00002ec4                CyBleStackMgr_BleSSFifoWrite

i.CyBleStackMgr_BleSSInit
                0x00002ef4       0x50
 i.CyBleStackMgr_BleSSInit
                0x00002ef4       0x50 D:\program\CY8\PSoC Creator\3.2\PSoC Creator\psoc\content\cycomponentlibrary\CyComponentLibrary.cylib\BLE_v2_0\Library\gccCyBLEStack_BLE_SOC_PERIPHERAL.a(CyBleStackMgr_BleSSDriver.o)
                0x00002ef4                CyBleStackMgr_BleSSInit

i.CyBleStackMgr_BleSSMemRead
                0x00002f44       0x26
 i.CyBleStackMgr_BleSSMemRead
                0x00002f44       0x26 D:\program\CY8\PSoC Creator\3.2\PSoC Creator\psoc\content\cycomponentlibrary\CyComponentLibrary.cylib\BLE_v2_0\Library\gccCyBLEStack_BLE_SOC_PERIPHERAL.a(CyBleStackMgr_BleSSDriver.o)
                0x00002f44                CyBleStackMgr_BleSSMemRead

i.CyBleStackMgr_BleSSMemWrite
                0x00002f6c       0x34
 i.CyBleStackMgr_BleSSMemWrite
                0x00002f6c       0x34 D:\program\CY8\PSoC Creator\3.2\PSoC Creator\psoc\content\cycomponentlibrary\CyComponentLibrary.cylib\BLE_v2_0\Library\gccCyBLEStack_BLE_SOC_PERIPHERAL.a(CyBleStackMgr_BleSSDriver.o)
                0x00002f6c                CyBleStackMgr_BleSSMemWrite

i.CyBleStackMgr_BleSSRegRead
                0x00002fa0        0xc
 i.CyBleStackMgr_BleSSRegRead
                0x00002fa0        0xc D:\program\CY8\PSoC Creator\3.2\PSoC Creator\psoc\content\cycomponentlibrary\CyComponentLibrary.cylib\BLE_v2_0\Library\gccCyBLEStack_BLE_SOC_PERIPHERAL.a(CyBleStackMgr_BleSSDriver.o)
                0x00002fa0                CyBleStackMgr_BleSSRegRead

i.CyBleStackMgr_BleSSRegWrite
                0x00002fac        0xc
 i.CyBleStackMgr_BleSSRegWrite
                0x00002fac        0xc D:\program\CY8\PSoC Creator\3.2\PSoC Creator\psoc\content\cycomponentlibrary\CyComponentLibrary.cylib\BLE_v2_0\Library\gccCyBLEStack_BLE_SOC_PERIPHERAL.a(CyBleStackMgr_BleSSDriver.o)
                0x00002fac                CyBleStackMgr_BleSSRegWrite

i.CyBleStackMgr_BleSSReset
                0x00002fb8       0x38
 i.CyBleStackMgr_BleSSReset
                0x00002fb8       0x38 D:\program\CY8\PSoC Creator\3.2\PSoC Creator\psoc\content\cycomponentlibrary\CyComponentLibrary.cylib\BLE_v2_0\Library\gccCyBLEStack_BLE_SOC_PERIPHERAL.a(CyBleStackMgr_BleSSDriver.o)
                0x00002fb8                CyBleStackMgr_BleSSReset

i.CyBleStackMgr_BleSSShutdown
                0x00002ff0       0x24
 i.CyBleStackMgr_BleSSShutdown
                0x00002ff0       0x24 D:\program\CY8\PSoC Creator\3.2\PSoC Creator\psoc\content\cycomponentlibrary\CyComponentLibrary.cylib\BLE_v2_0\Library\gccCyBLEStack_BLE_SOC_PERIPHERAL.a(CyBleStackMgr_BleSSDriver.o)
                0x00002ff0                CyBleStackMgr_BleSSShutdown

i.CyBleStackMgr_GenericIface
                0x00003014       0x3c
 i.CyBleStackMgr_GenericIface
                0x00003014       0x3c D:\program\CY8\PSoC Creator\3.2\PSoC Creator\psoc\content\cycomponentlibrary\CyComponentLibrary.cylib\BLE_v2_0\Library\gccCyBLEStack_BLE_SOC_PERIPHERAL.a(CyBleStackMgr_BleSSDriver.o)
                0x00003014                CyBleStackMgr_GenericIface

i.CyBleStackMgr_HandleBleSSIntr
                0x00003050       0x90
 i.CyBleStackMgr_HandleBleSSIntr
                0x00003050       0x90 D:\program\CY8\PSoC Creator\3.2\PSoC Creator\psoc\content\cycomponentlibrary\CyComponentLibrary.cylib\BLE_v2_0\Library\gccCyBLEStack_BLE_SOC_PERIPHERAL.a(CyBleStackMgr_BleSSDriver.o)
                0x00003050                CyBleStackMgr_HandleBleSSIntr

i.CyBleStackMgr_SetClockParam
                0x000030e0       0xb4
 i.CyBleStackMgr_SetClockParam
                0x000030e0       0xb4 D:\program\CY8\PSoC Creator\3.2\PSoC Creator\psoc\content\cycomponentlibrary\CyComponentLibrary.cylib\BLE_v2_0\Library\gccCyBLEStack_BLE_SOC_PERIPHERAL.a(CyBleStackMgr_BleSSDriver.o)

i.CyBleStackMgr_isXtalCpuClkSource
                0x00003194       0x18
 i.CyBleStackMgr_isXtalCpuClkSource
                0x00003194       0x18 D:\program\CY8\PSoC Creator\3.2\PSoC Creator\psoc\content\cycomponentlibrary\CyComponentLibrary.cylib\BLE_v2_0\Library\gccCyBLEStack_BLE_SOC_PERIPHERAL.a(CyBleStackMgr_BleSSDriver.o)
                0x00003194                CyBleStackMgr_isXtalCpuClkSource

i.CyBle_EnterDsmMode
                0x000031ac       0x3c
 i.CyBle_EnterDsmMode
                0x000031ac       0x3c D:\program\CY8\PSoC Creator\3.2\PSoC Creator\psoc\content\cycomponentlibrary\CyComponentLibrary.cylib\BLE_v2_0\Library\gccCyBLEStack_BLE_SOC_PERIPHERAL.a(CyBleStackMgr_BleSSDriver.o)
                0x000031ac                CyBle_EnterDsmMode

i.CyBle_ExitDsmMode
                0x000031e8       0x2c
 i.CyBle_ExitDsmMode
                0x000031e8       0x2c D:\program\CY8\PSoC Creator\3.2\PSoC Creator\psoc\content\cycomponentlibrary\CyComponentLibrary.cylib\BLE_v2_0\Library\gccCyBLEStack_BLE_SOC_PERIPHERAL.a(CyBleStackMgr_BleSSDriver.o)
                0x000031e8                CyBle_ExitDsmMode

i.CyBle_GetBleSsOperationalMode
                0x00003214        0xc
 i.CyBle_GetBleSsOperationalMode
                0x00003214        0xc D:\program\CY8\PSoC Creator\3.2\PSoC Creator\psoc\content\cycomponentlibrary\CyComponentLibrary.cylib\BLE_v2_0\Library\gccCyBLEStack_BLE_SOC_PERIPHERAL.a(CyBleStackMgr_BleSSDriver.o)
                0x00003214                CyBle_GetBleSsOperationalMode

i.CyBle_GetEventCloseState
                0x00003220       0x10
 i.CyBle_GetEventCloseState
                0x00003220       0x10 D:\program\CY8\PSoC Creator\3.2\PSoC Creator\psoc\content\cycomponentlibrary\CyComponentLibrary.cylib\BLE_v2_0\Library\gccCyBLEStack_BLE_SOC_PERIPHERAL.a(CyBleStackMgr_BleSSDriver.o)
                0x00003220                CyBle_GetEventCloseState

i.CyBle_GetLpMode
                0x00003230       0x26
 i.CyBle_GetLpMode
                0x00003230       0x26 D:\program\CY8\PSoC Creator\3.2\PSoC Creator\psoc\content\cycomponentlibrary\CyComponentLibrary.cylib\BLE_v2_0\Library\gccCyBLEStack_BLE_SOC_PERIPHERAL.a(CyBleStackMgr_BleSSDriver.o)
                0x00003230                CyBle_GetLpMode

i.CyBle_GetTxGainMode
                0x00003258       0x2c
 i.CyBle_GetTxGainMode
                0x00003258       0x2c D:\program\CY8\PSoC Creator\3.2\PSoC Creator\psoc\content\cycomponentlibrary\CyComponentLibrary.cylib\BLE_v2_0\Library\gccCyBLEStack_BLE_SOC_PERIPHERAL.a(CyBleStackMgr_BleSSDriver.o)
                0x00003258                CyBle_GetTxGainMode

i.CyBle_SetAutoWakeUp
                0x00003284        0xc
 i.CyBle_SetAutoWakeUp
                0x00003284        0xc D:\program\CY8\PSoC Creator\3.2\PSoC Creator\psoc\content\cycomponentlibrary\CyComponentLibrary.cylib\BLE_v2_0\Library\gccCyBLEStack_BLE_SOC_PERIPHERAL.a(CyBleStackMgr_BleSSDriver.o)
                0x00003284                CyBle_SetAutoWakeUp

i.CyBle_SetBleSsOperationalMode
                0x00003290       0x20
 i.CyBle_SetBleSsOperationalMode
                0x00003290       0x20 D:\program\CY8\PSoC Creator\3.2\PSoC Creator\psoc\content\cycomponentlibrary\CyComponentLibrary.cylib\BLE_v2_0\Library\gccCyBLEStack_BLE_SOC_PERIPHERAL.a(CyBleStackMgr_BleSSDriver.o)
                0x00003290                CyBle_SetBleSsOperationalMode

i.CyBle_SetEventCloseState
                0x000032b0        0xc
 i.CyBle_SetEventCloseState
                0x000032b0        0xc D:\program\CY8\PSoC Creator\3.2\PSoC Creator\psoc\content\cycomponentlibrary\CyComponentLibrary.cylib\BLE_v2_0\Library\gccCyBLEStack_BLE_SOC_PERIPHERAL.a(CyBleStackMgr_BleSSDriver.o)
                0x000032b0                CyBle_SetEventCloseState

i.CyBle_SetRxGainMode
                0x000032bc       0x20
 i.CyBle_SetRxGainMode
                0x000032bc       0x20 D:\program\CY8\PSoC Creator\3.2\PSoC Creator\psoc\content\cycomponentlibrary\CyComponentLibrary.cylib\BLE_v2_0\Library\gccCyBLEStack_BLE_SOC_PERIPHERAL.a(CyBleStackMgr_BleSSDriver.o)
                0x000032bc                CyBle_SetRxGainMode

i.CyBle_SetTxGainMode
                0x000032dc       0x38
 i.CyBle_SetTxGainMode
                0x000032dc       0x38 D:\program\CY8\PSoC Creator\3.2\PSoC Creator\psoc\content\cycomponentlibrary\CyComponentLibrary.cylib\BLE_v2_0\Library\gccCyBLEStack_BLE_SOC_PERIPHERAL.a(CyBleStackMgr_BleSSDriver.o)
                0x000032dc                CyBle_SetTxGainMode

i.pf_rf_get_abs_rssi
                0x00003314       0x24
 i.pf_rf_get_abs_rssi
                0x00003314       0x24 D:\program\CY8\PSoC Creator\3.2\PSoC Creator\psoc\content\cycomponentlibrary\CyComponentLibrary.cylib\BLE_v2_0\Library\gccCyBLEStack_BLE_SOC_PERIPHERAL.a(CyBleStackMgr_BleSSDriver.o)
                0x00003314                pf_rf_get_abs_rssi

i.OS_init       0x00003338       0x64
 i.OS_init      0x00003338       0x64 D:\program\CY8\PSoC Creator\3.2\PSoC Creator\psoc\content\cycomponentlibrary\CyComponentLibrary.cylib\BLE_v2_0\Library\gccCyBLEStack_BLE_SOC_PERIPHERAL.a(mint_os.o)
                0x00003338                OS_init

i.OS_shutdown   0x0000339c        0x4
 i.OS_shutdown  0x0000339c        0x4 D:\program\CY8\PSoC Creator\3.2\PSoC Creator\psoc\content\cycomponentlibrary\CyComponentLibrary.cylib\BLE_v2_0\Library\gccCyBLEStack_BLE_SOC_PERIPHERAL.a(mint_os.o)
                0x0000339c                OS_shutdown

i.mintos_malloc
                0x000033a0       0x34
 i.mintos_malloc
                0x000033a0       0x34 D:\program\CY8\PSoC Creator\3.2\PSoC Creator\psoc\content\cycomponentlibrary\CyComponentLibrary.cylib\BLE_v2_0\Library\gccCyBLEStack_BLE_SOC_PERIPHERAL.a(mint_os.o)
                0x000033a0                mintos_malloc

i.OS_create_queue
                0x000033d4       0x64
 i.OS_create_queue
                0x000033d4       0x64 D:\program\CY8\PSoC Creator\3.2\PSoC Creator\psoc\content\cycomponentlibrary\CyComponentLibrary.cylib\BLE_v2_0\Library\gccCyBLEStack_BLE_SOC_PERIPHERAL.a(mint_os_queue.o)
                0x000033d4                OS_create_queue

i.OS_enqueue_item
                0x00003438       0x8c
 i.OS_enqueue_item
                0x00003438       0x8c D:\program\CY8\PSoC Creator\3.2\PSoC Creator\psoc\content\cycomponentlibrary\CyComponentLibrary.cylib\BLE_v2_0\Library\gccCyBLEStack_BLE_SOC_PERIPHERAL.a(mint_os_queue.o)
                0x00003438                OS_enqueue_item

i.OS_queue_get_num_of_items
                0x000034c4       0x28
 i.OS_queue_get_num_of_items
                0x000034c4       0x28 D:\program\CY8\PSoC Creator\3.2\PSoC Creator\psoc\content\cycomponentlibrary\CyComponentLibrary.cylib\BLE_v2_0\Library\gccCyBLEStack_BLE_SOC_PERIPHERAL.a(mint_os_queue.o)
                0x000034c4                OS_queue_get_num_of_items

i.OS_queue_mgmt_init
                0x000034ec       0x40
 i.OS_queue_mgmt_init
                0x000034ec       0x40 D:\program\CY8\PSoC Creator\3.2\PSoC Creator\psoc\content\cycomponentlibrary\CyComponentLibrary.cylib\BLE_v2_0\Library\gccCyBLEStack_BLE_SOC_PERIPHERAL.a(mint_os_queue.o)
                0x000034ec                OS_queue_mgmt_init

i.OS_remove_item
                0x0000352c       0xa0
 i.OS_remove_item
                0x0000352c       0xa0 D:\program\CY8\PSoC Creator\3.2\PSoC Creator\psoc\content\cycomponentlibrary\CyComponentLibrary.cylib\BLE_v2_0\Library\gccCyBLEStack_BLE_SOC_PERIPHERAL.a(mint_os_queue.o)
                0x0000352c                OS_remove_item

i.OS_create_task
                0x000035cc       0x88
 i.OS_create_task
                0x000035cc       0x88 D:\program\CY8\PSoC Creator\3.2\PSoC Creator\psoc\content\cycomponentlibrary\CyComponentLibrary.cylib\BLE_v2_0\Library\gccCyBLEStack_BLE_SOC_PERIPHERAL.a(mint_os_task.o)
                0x000035cc                OS_create_task

i.OS_isr_send_signal_to_task
                0x00003654        0xc
 i.OS_isr_send_signal_to_task
                0x00003654        0xc D:\program\CY8\PSoC Creator\3.2\PSoC Creator\psoc\content\cycomponentlibrary\CyComponentLibrary.cylib\BLE_v2_0\Library\gccCyBLEStack_BLE_SOC_PERIPHERAL.a(mint_os_task.o)
                0x00003654                OS_isr_send_signal_to_task

i.OS_scheduler  0x00003660       0x64
 i.OS_scheduler
                0x00003660       0x64 D:\program\CY8\PSoC Creator\3.2\PSoC Creator\psoc\content\cycomponentlibrary\CyComponentLibrary.cylib\BLE_v2_0\Library\gccCyBLEStack_BLE_SOC_PERIPHERAL.a(mint_os_task.o)
                0x00003660                OS_scheduler

i.OS_send_signal_to_task
                0x000036c4        0xc
 i.OS_send_signal_to_task
                0x000036c4        0xc D:\program\CY8\PSoC Creator\3.2\PSoC Creator\psoc\content\cycomponentlibrary\CyComponentLibrary.cylib\BLE_v2_0\Library\gccCyBLEStack_BLE_SOC_PERIPHERAL.a(mint_os_task.o)
                0x000036c4                OS_send_signal_to_task

i.OS_send_signal_to_task_context
                0x000036d0       0x3c
 i.OS_send_signal_to_task_context
                0x000036d0       0x3c D:\program\CY8\PSoC Creator\3.2\PSoC Creator\psoc\content\cycomponentlibrary\CyComponentLibrary.cylib\BLE_v2_0\Library\gccCyBLEStack_BLE_SOC_PERIPHERAL.a(mint_os_task.o)

i.OS_task_mgmt_init
                0x0000370c       0x50
 i.OS_task_mgmt_init
                0x0000370c       0x50 D:\program\CY8\PSoC Creator\3.2\PSoC Creator\psoc\content\cycomponentlibrary\CyComponentLibrary.cylib\BLE_v2_0\Library\gccCyBLEStack_BLE_SOC_PERIPHERAL.a(mint_os_task.o)
                0x0000370c                OS_task_mgmt_init

i.mint_buf_mgmt_allocate_buffer
                0x0000375c       0x4c
 i.mint_buf_mgmt_allocate_buffer
                0x0000375c       0x4c D:\program\CY8\PSoC Creator\3.2\PSoC Creator\psoc\content\cycomponentlibrary\CyComponentLibrary.cylib\BLE_v2_0\Library\gccCyBLEStack_BLE_SOC_PERIPHERAL.a(mint_buf_mgmt.o)
                0x0000375c                mint_buf_mgmt_allocate_buffer

i.mint_buf_mgmt_create_pool
                0x000037a8       0xd0
 i.mint_buf_mgmt_create_pool
                0x000037a8       0xd0 D:\program\CY8\PSoC Creator\3.2\PSoC Creator\psoc\content\cycomponentlibrary\CyComponentLibrary.cylib\BLE_v2_0\Library\gccCyBLEStack_BLE_SOC_PERIPHERAL.a(mint_buf_mgmt.o)
                0x000037a8                mint_buf_mgmt_create_pool

i.mint_buf_mgmt_free_buffer
                0x00003878       0xa4
 i.mint_buf_mgmt_free_buffer
                0x00003878       0xa4 D:\program\CY8\PSoC Creator\3.2\PSoC Creator\psoc\content\cycomponentlibrary\CyComponentLibrary.cylib\BLE_v2_0\Library\gccCyBLEStack_BLE_SOC_PERIPHERAL.a(mint_buf_mgmt.o)
                0x00003878                mint_buf_mgmt_free_buffer

i.mint_buf_mgmt_init
                0x0000391c       0x44
 i.mint_buf_mgmt_init
                0x0000391c       0x44 D:\program\CY8\PSoC Creator\3.2\PSoC Creator\psoc\content\cycomponentlibrary\CyComponentLibrary.cylib\BLE_v2_0\Library\gccCyBLEStack_BLE_SOC_PERIPHERAL.a(mint_buf_mgmt.o)
                0x0000391c                mint_buf_mgmt_init

i.mint_buf_mgmt_malloc
                0x00003960       0x2c
 i.mint_buf_mgmt_malloc
                0x00003960       0x2c D:\program\CY8\PSoC Creator\3.2\PSoC Creator\psoc\content\cycomponentlibrary\CyComponentLibrary.cylib\BLE_v2_0\Library\gccCyBLEStack_BLE_SOC_PERIPHERAL.a(mint_buf_mgmt.o)
                0x00003960                mint_buf_mgmt_malloc

i.mint_buf_mgmt_pl_init
                0x0000398c       0x40
 i.mint_buf_mgmt_pl_init
                0x0000398c       0x40 D:\program\CY8\PSoC Creator\3.2\PSoC Creator\psoc\content\cycomponentlibrary\CyComponentLibrary.cylib\BLE_v2_0\Library\gccCyBLEStack_BLE_SOC_PERIPHERAL.a(mint_buf_mgmt.o)
                0x0000398c                mint_buf_mgmt_pl_init

i.mint_buf_mgmt_reset_pool
                0x000039cc       0x70
 i.mint_buf_mgmt_reset_pool
                0x000039cc       0x70 D:\program\CY8\PSoC Creator\3.2\PSoC Creator\psoc\content\cycomponentlibrary\CyComponentLibrary.cylib\BLE_v2_0\Library\gccCyBLEStack_BLE_SOC_PERIPHERAL.a(mint_buf_mgmt.o)
                0x000039cc                mint_buf_mgmt_reset_pool

i.mint_buf_mgmt_stack_init
                0x00003a3c       0x24
 i.mint_buf_mgmt_stack_init
                0x00003a3c       0x24 D:\program\CY8\PSoC Creator\3.2\PSoC Creator\psoc\content\cycomponentlibrary\CyComponentLibrary.cylib\BLE_v2_0\Library\gccCyBLEStack_BLE_SOC_PERIPHERAL.a(mint_buf_mgmt.o)
                0x00003a3c                mint_buf_mgmt_stack_init

i.mint_buf_mgmt_stack_pop
                0x00003a60       0x36
 i.mint_buf_mgmt_stack_pop
                0x00003a60       0x36 D:\program\CY8\PSoC Creator\3.2\PSoC Creator\psoc\content\cycomponentlibrary\CyComponentLibrary.cylib\BLE_v2_0\Library\gccCyBLEStack_BLE_SOC_PERIPHERAL.a(mint_buf_mgmt.o)
                0x00003a60                mint_buf_mgmt_stack_pop

i.mint_buf_mgmt_stack_push
                0x00003a96       0x36
 i.mint_buf_mgmt_stack_push
                0x00003a96       0x36 D:\program\CY8\PSoC Creator\3.2\PSoC Creator\psoc\content\cycomponentlibrary\CyComponentLibrary.cylib\BLE_v2_0\Library\gccCyBLEStack_BLE_SOC_PERIPHERAL.a(mint_buf_mgmt.o)
                0x00003a96                mint_buf_mgmt_stack_push

i.mint_buf_mgmt_stack_reset
                0x00003acc       0x1e
 i.mint_buf_mgmt_stack_reset
                0x00003acc       0x1e D:\program\CY8\PSoC Creator\3.2\PSoC Creator\psoc\content\cycomponentlibrary\CyComponentLibrary.cylib\BLE_v2_0\Library\gccCyBLEStack_BLE_SOC_PERIPHERAL.a(mint_buf_mgmt.o)
                0x00003acc                mint_buf_mgmt_stack_reset

i.mint_buf_mgmt_stack_search_item
                0x00003aea       0x30
 i.mint_buf_mgmt_stack_search_item
                0x00003aea       0x30 D:\program\CY8\PSoC Creator\3.2\PSoC Creator\psoc\content\cycomponentlibrary\CyComponentLibrary.cylib\BLE_v2_0\Library\gccCyBLEStack_BLE_SOC_PERIPHERAL.a(mint_buf_mgmt.o)
                0x00003aea                mint_buf_mgmt_stack_search_item

i.CyBleControllerIP_GetPingState
                0x00003b1c        0xc
 i.CyBleControllerIP_GetPingState
                0x00003b1c        0xc D:\program\CY8\PSoC Creator\3.2\PSoC Creator\psoc\content\cycomponentlibrary\CyComponentLibrary.cylib\BLE_v2_0\Library\gccCyBLEStack_BLE_SOC_PERIPHERAL.a(CyBleControllerIP_Interface.o)
                0x00003b1c                CyBleControllerIP_GetPingState

i.CyBleController_AddDeviceToWhiteList
                0x00003b28       0x40
 i.CyBleController_AddDeviceToWhiteList
                0x00003b28       0x40 D:\program\CY8\PSoC Creator\3.2\PSoC Creator\psoc\content\cycomponentlibrary\CyComponentLibrary.cylib\BLE_v2_0\Library\gccCyBLEStack_BLE_SOC_PERIPHERAL.a(CyBleControllerIP_Interface.o)
                0x00003b28                CyBleController_AddDeviceToWhiteList

i.CyBleController_EnterLowPowerMode
                0x00003b68       0x2c
 i.CyBleController_EnterLowPowerMode
                0x00003b68       0x2c D:\program\CY8\PSoC Creator\3.2\PSoC Creator\psoc\content\cycomponentlibrary\CyComponentLibrary.cylib\BLE_v2_0\Library\gccCyBLEStack_BLE_SOC_PERIPHERAL.a(CyBleControllerIP_Interface.o)
                0x00003b68                CyBleController_EnterLowPowerMode

i.CyBleController_ExitLowPowerMode
                0x00003b94       0x10
 i.CyBleController_ExitLowPowerMode
                0x00003b94       0x10 D:\program\CY8\PSoC Creator\3.2\PSoC Creator\psoc\content\cycomponentlibrary\CyComponentLibrary.cylib\BLE_v2_0\Library\gccCyBLEStack_BLE_SOC_PERIPHERAL.a(CyBleControllerIP_Interface.o)
                0x00003b94                CyBleController_ExitLowPowerMode

i.CyBleController_Init
                0x00003ba4       0x32
 i.CyBleController_Init
                0x00003ba4       0x32 D:\program\CY8\PSoC Creator\3.2\PSoC Creator\psoc\content\cycomponentlibrary\CyComponentLibrary.cylib\BLE_v2_0\Library\gccCyBLEStack_BLE_SOC_PERIPHERAL.a(CyBleControllerIP_Interface.o)
                0x00003ba4                CyBleController_Init

i.CyBleController_Reset
                0x00003bd6        0x4
 i.CyBleController_Reset
                0x00003bd6        0x4 D:\program\CY8\PSoC Creator\3.2\PSoC Creator\psoc\content\cycomponentlibrary\CyComponentLibrary.cylib\BLE_v2_0\Library\gccCyBLEStack_BLE_SOC_PERIPHERAL.a(CyBleControllerIP_Interface.o)
                0x00003bd6                CyBleController_Reset

i.CyBleController_SetDeviceAddress
                0x00003bda       0x2e
 i.CyBleController_SetDeviceAddress
                0x00003bda       0x2e D:\program\CY8\PSoC Creator\3.2\PSoC Creator\psoc\content\cycomponentlibrary\CyComponentLibrary.cylib\BLE_v2_0\Library\gccCyBLEStack_BLE_SOC_PERIPHERAL.a(CyBleControllerIP_Interface.o)
                0x00003bda                CyBleController_SetDeviceAddress

i.CyBle_GetBleSsState
                0x00003c08       0x10
 i.CyBle_GetBleSsState
                0x00003c08       0x10 D:\program\CY8\PSoC Creator\3.2\PSoC Creator\psoc\content\cycomponentlibrary\CyComponentLibrary.cylib\BLE_v2_0\Library\gccCyBLEStack_BLE_SOC_PERIPHERAL.a(CyBleControllerIP_Interface.o)
                0x00003c08                CyBle_GetBleSsState

i.CyBle_GetTxPowerLevel
                0x00003c18       0x4e
 i.CyBle_GetTxPowerLevel
                0x00003c18       0x4e D:\program\CY8\PSoC Creator\3.2\PSoC Creator\psoc\content\cycomponentlibrary\CyComponentLibrary.cylib\BLE_v2_0\Library\gccCyBLEStack_BLE_SOC_PERIPHERAL.a(CyBleControllerIP_Interface.o)
                0x00003c18                CyBle_GetTxPowerLevel

i.CyBle_SetTxPowerLevel
                0x00003c66       0x56
 i.CyBle_SetTxPowerLevel
                0x00003c66       0x56 D:\program\CY8\PSoC Creator\3.2\PSoC Creator\psoc\content\cycomponentlibrary\CyComponentLibrary.cylib\BLE_v2_0\Library\gccCyBLEStack_BLE_SOC_PERIPHERAL.a(CyBleControllerIP_Interface.o)
                0x00003c66                CyBle_SetTxPowerLevel

i.ll_check_and_mark_packet_ready_for_transmission
                0x00003cbc       0x28
 i.ll_check_and_mark_packet_ready_for_transmission
                0x00003cbc       0x28 D:\program\CY8\PSoC Creator\3.2\PSoC Creator\psoc\content\cycomponentlibrary\CyComponentLibrary.cylib\BLE_v2_0\Library\gccCyBLEStack_BLE_SOC_PERIPHERAL.a(ll.o)
                0x00003cbc                ll_check_and_mark_packet_ready_for_transmission

i.ll_cleanup_pending_data_pdu
                0x00003ce4       0x38
 i.ll_cleanup_pending_data_pdu
                0x00003ce4       0x38 D:\program\CY8\PSoC Creator\3.2\PSoC Creator\psoc\content\cycomponentlibrary\CyComponentLibrary.cylib\BLE_v2_0\Library\gccCyBLEStack_BLE_SOC_PERIPHERAL.a(ll.o)
                0x00003ce4                ll_cleanup_pending_data_pdu

i.ll_enter_dsm_mode
                0x00003d1c      0x1a4
 i.ll_enter_dsm_mode
                0x00003d1c      0x1a4 D:\program\CY8\PSoC Creator\3.2\PSoC Creator\psoc\content\cycomponentlibrary\CyComponentLibrary.cylib\BLE_v2_0\Library\gccCyBLEStack_BLE_SOC_PERIPHERAL.a(ll.o)
                0x00003d1c                ll_enter_dsm_mode

i.ll_enter_hibernate_mode
                0x00003ec0       0x28
 i.ll_enter_hibernate_mode
                0x00003ec0       0x28 D:\program\CY8\PSoC Creator\3.2\PSoC Creator\psoc\content\cycomponentlibrary\CyComponentLibrary.cylib\BLE_v2_0\Library\gccCyBLEStack_BLE_SOC_PERIPHERAL.a(ll.o)
                0x00003ec0                ll_enter_hibernate_mode

i.ll_enter_sm_mode
                0x00003ee8       0x60
 i.ll_enter_sm_mode
                0x00003ee8       0x60 D:\program\CY8\PSoC Creator\3.2\PSoC Creator\psoc\content\cycomponentlibrary\CyComponentLibrary.cylib\BLE_v2_0\Library\gccCyBLEStack_BLE_SOC_PERIPHERAL.a(ll.o)
                0x00003ee8                ll_enter_sm_mode

i.ll_exit_low_power_mode
                0x00003f48       0xac
 i.ll_exit_low_power_mode
                0x00003f48       0xac D:\program\CY8\PSoC Creator\3.2\PSoC Creator\psoc\content\cycomponentlibrary\CyComponentLibrary.cylib\BLE_v2_0\Library\gccCyBLEStack_BLE_SOC_PERIPHERAL.a(ll.o)
                0x00003f48                ll_exit_low_power_mode

i.ll_get_ack_status
                0x00003ff4       0x3c
 i.ll_get_ack_status
                0x00003ff4       0x3c D:\program\CY8\PSoC Creator\3.2\PSoC Creator\psoc\content\cycomponentlibrary\CyComponentLibrary.cylib\BLE_v2_0\Library\gccCyBLEStack_BLE_SOC_PERIPHERAL.a(ll.o)
                0x00003ff4                ll_get_ack_status

i.ll_get_ack_status_for_all_connections
                0x00004030       0x34
 i.ll_get_ack_status_for_all_connections
                0x00004030       0x34 D:\program\CY8\PSoC Creator\3.2\PSoC Creator\psoc\content\cycomponentlibrary\CyComponentLibrary.cylib\BLE_v2_0\Library\gccCyBLEStack_BLE_SOC_PERIPHERAL.a(ll.o)
                0x00004030                ll_get_ack_status_for_all_connections

i.ll_get_adv_ch_tx_power
                0x00004064       0x20
 i.ll_get_adv_ch_tx_power
                0x00004064       0x20 D:\program\CY8\PSoC Creator\3.2\PSoC Creator\psoc\content\cycomponentlibrary\CyComponentLibrary.cylib\BLE_v2_0\Library\gccCyBLEStack_BLE_SOC_PERIPHERAL.a(ll.o)
                0x00004064                ll_get_adv_ch_tx_power

i.ll_get_data_channel_map
                0x00004084       0x24
 i.ll_get_data_channel_map
                0x00004084       0x24 D:\program\CY8\PSoC Creator\3.2\PSoC Creator\psoc\content\cycomponentlibrary\CyComponentLibrary.cylib\BLE_v2_0\Library\gccCyBLEStack_BLE_SOC_PERIPHERAL.a(ll.o)
                0x00004084                ll_get_data_channel_map

i.ll_get_max_white_list_size
                0x000040a8        0xc
 i.ll_get_max_white_list_size
                0x000040a8        0xc D:\program\CY8\PSoC Creator\3.2\PSoC Creator\psoc\content\cycomponentlibrary\CyComponentLibrary.cylib\BLE_v2_0\Library\gccCyBLEStack_BLE_SOC_PERIPHERAL.a(ll.o)
                0x000040a8                ll_get_max_white_list_size

i.ll_get_my_role
                0x000040b4        0xc
 i.ll_get_my_role
                0x000040b4        0xc D:\program\CY8\PSoC Creator\3.2\PSoC Creator\psoc\content\cycomponentlibrary\CyComponentLibrary.cylib\BLE_v2_0\Library\gccCyBLEStack_BLE_SOC_PERIPHERAL.a(ll.o)
                0x000040b4                ll_get_my_role

i.ll_get_next_available_fifo_for_data_pdu
                0x000040c0        0x8
 i.ll_get_next_available_fifo_for_data_pdu
                0x000040c0        0x8 D:\program\CY8\PSoC Creator\3.2\PSoC Creator\psoc\content\cycomponentlibrary\CyComponentLibrary.cylib\BLE_v2_0\Library\gccCyBLEStack_BLE_SOC_PERIPHERAL.a(ll.o)
                0x000040c0                ll_get_next_available_fifo_for_data_pdu

i.ll_get_next_available_fifo_for_ll_pdu
                0x000040c8       0x24
 i.ll_get_next_available_fifo_for_ll_pdu
                0x000040c8       0x24 D:\program\CY8\PSoC Creator\3.2\PSoC Creator\psoc\content\cycomponentlibrary\CyComponentLibrary.cylib\BLE_v2_0\Library\gccCyBLEStack_BLE_SOC_PERIPHERAL.a(ll.o)
                0x000040c8                ll_get_next_available_fifo_for_ll_pdu

i.ll_get_rssi_value
                0x000040ec       0x26
 i.ll_get_rssi_value
                0x000040ec       0x26 D:\program\CY8\PSoC Creator\3.2\PSoC Creator\psoc\content\cycomponentlibrary\CyComponentLibrary.cylib\BLE_v2_0\Library\gccCyBLEStack_BLE_SOC_PERIPHERAL.a(ll.o)
                0x000040ec                ll_get_rssi_value

i.ll_get_transmit_power_level
                0x00004114       0x2c
 i.ll_get_transmit_power_level
                0x00004114       0x2c D:\program\CY8\PSoC Creator\3.2\PSoC Creator\psoc\content\cycomponentlibrary\CyComponentLibrary.cylib\BLE_v2_0\Library\gccCyBLEStack_BLE_SOC_PERIPHERAL.a(ll.o)
                0x00004114                ll_get_transmit_power_level

i.ll_handle_ack_received
                0x00004140       0x74
 i.ll_handle_ack_received
                0x00004140       0x74 D:\program\CY8\PSoC Creator\3.2\PSoC Creator\psoc\content\cycomponentlibrary\CyComponentLibrary.cylib\BLE_v2_0\Library\gccCyBLEStack_BLE_SOC_PERIPHERAL.a(ll.o)
                0x00004140                ll_handle_ack_received

i.ll_handle_add_device_in_whitelist
                0x000041b4       0x3a
 i.ll_handle_add_device_in_whitelist
                0x000041b4       0x3a D:\program\CY8\PSoC Creator\3.2\PSoC Creator\psoc\content\cycomponentlibrary\CyComponentLibrary.cylib\BLE_v2_0\Library\gccCyBLEStack_BLE_SOC_PERIPHERAL.a(ll.o)
                0x000041b4                ll_handle_add_device_in_whitelist

i.ll_handle_clear_whitelist
                0x000041ee       0x16
 i.ll_handle_clear_whitelist
                0x000041ee       0x16 D:\program\CY8\PSoC Creator\3.2\PSoC Creator\psoc\content\cycomponentlibrary\CyComponentLibrary.cylib\BLE_v2_0\Library\gccCyBLEStack_BLE_SOC_PERIPHERAL.a(ll.o)
                0x000041ee                ll_handle_clear_whitelist

i.ll_handle_encrypt_host_data
                0x00004204       0x36
 i.ll_handle_encrypt_host_data
                0x00004204       0x36 D:\program\CY8\PSoC Creator\3.2\PSoC Creator\psoc\content\cycomponentlibrary\CyComponentLibrary.cylib\BLE_v2_0\Library\gccCyBLEStack_BLE_SOC_PERIPHERAL.a(ll.o)
                0x00004204                ll_handle_encrypt_host_data

i.ll_handle_host_data_packet
                0x0000423a       0x54
 i.ll_handle_host_data_packet
                0x0000423a       0x54 D:\program\CY8\PSoC Creator\3.2\PSoC Creator\psoc\content\cycomponentlibrary\CyComponentLibrary.cylib\BLE_v2_0\Library\gccCyBLEStack_BLE_SOC_PERIPHERAL.a(ll.o)
                0x0000423a                ll_handle_host_data_packet

i.ll_handle_read_host_channel_map
                0x0000428e        0x4
 i.ll_handle_read_host_channel_map
                0x0000428e        0x4 D:\program\CY8\PSoC Creator\3.2\PSoC Creator\psoc\content\cycomponentlibrary\CyComponentLibrary.cylib\BLE_v2_0\Library\gccCyBLEStack_BLE_SOC_PERIPHERAL.a(ll.o)
                0x0000428e                ll_handle_read_host_channel_map

i.ll_handle_remove_device_in_whitelist
                0x00004292       0x2a
 i.ll_handle_remove_device_in_whitelist
                0x00004292       0x2a D:\program\CY8\PSoC Creator\3.2\PSoC Creator\psoc\content\cycomponentlibrary\CyComponentLibrary.cylib\BLE_v2_0\Library\gccCyBLEStack_BLE_SOC_PERIPHERAL.a(ll.o)
                0x00004292                ll_handle_remove_device_in_whitelist

i.ll_handle_reset
                0x000042bc        0xe
 i.ll_handle_reset
                0x000042bc        0xe D:\program\CY8\PSoC Creator\3.2\PSoC Creator\psoc\content\cycomponentlibrary\CyComponentLibrary.cylib\BLE_v2_0\Library\gccCyBLEStack_BLE_SOC_PERIPHERAL.a(ll.o)
                0x000042bc                ll_handle_reset

i.ll_handle_set_random_address
                0x000042ca       0x36
 i.ll_handle_set_random_address
                0x000042ca       0x36 D:\program\CY8\PSoC Creator\3.2\PSoC Creator\psoc\content\cycomponentlibrary\CyComponentLibrary.cylib\BLE_v2_0\Library\gccCyBLEStack_BLE_SOC_PERIPHERAL.a(ll.o)
                0x000042ca                ll_handle_set_random_address

i.ll_init       0x00004300       0x18
 i.ll_init      0x00004300       0x18 D:\program\CY8\PSoC Creator\3.2\PSoC Creator\psoc\content\cycomponentlibrary\CyComponentLibrary.cylib\BLE_v2_0\Library\gccCyBLEStack_BLE_SOC_PERIPHERAL.a(ll.o)
                0x00004300                ll_init

i.ll_initialize_device_attributes
                0x00004318       0x4c
 i.ll_initialize_device_attributes
                0x00004318       0x4c D:\program\CY8\PSoC Creator\3.2\PSoC Creator\psoc\content\cycomponentlibrary\CyComponentLibrary.cylib\BLE_v2_0\Library\gccCyBLEStack_BLE_SOC_PERIPHERAL.a(ll.o)
                0x00004318                ll_initialize_device_attributes

i.ll_is_pkt_pending
                0x00004364       0x2a
 i.ll_is_pkt_pending
                0x00004364       0x2a D:\program\CY8\PSoC Creator\3.2\PSoC Creator\psoc\content\cycomponentlibrary\CyComponentLibrary.cylib\BLE_v2_0\Library\gccCyBLEStack_BLE_SOC_PERIPHERAL.a(ll.o)
                0x00004364                ll_is_pkt_pending

i.ll_is_sent_pkt_pending
                0x0000438e       0x1a
 i.ll_is_sent_pkt_pending
                0x0000438e       0x1a D:\program\CY8\PSoC Creator\3.2\PSoC Creator\psoc\content\cycomponentlibrary\CyComponentLibrary.cylib\BLE_v2_0\Library\gccCyBLEStack_BLE_SOC_PERIPHERAL.a(ll.o)
                0x0000438e                ll_is_sent_pkt_pending

i.ll_isr_exit_low_power_mode
                0x000043a8       0x16
 i.ll_isr_exit_low_power_mode
                0x000043a8       0x16 D:\program\CY8\PSoC Creator\3.2\PSoC Creator\psoc\content\cycomponentlibrary\CyComponentLibrary.cylib\BLE_v2_0\Library\gccCyBLEStack_BLE_SOC_PERIPHERAL.a(ll.o)
                0x000043a8                ll_isr_exit_low_power_mode

i.ll_load_host_data_packet
                0x000043be       0x4a
 i.ll_load_host_data_packet
                0x000043be       0x4a D:\program\CY8\PSoC Creator\3.2\PSoC Creator\psoc\content\cycomponentlibrary\CyComponentLibrary.cylib\BLE_v2_0\Library\gccCyBLEStack_BLE_SOC_PERIPHERAL.a(ll.o)
                0x000043be                ll_load_host_data_packet

i.ll_load_packet_to_fifo
                0x00004408       0x6e
 i.ll_load_packet_to_fifo
                0x00004408       0x6e D:\program\CY8\PSoC Creator\3.2\PSoC Creator\psoc\content\cycomponentlibrary\CyComponentLibrary.cylib\BLE_v2_0\Library\gccCyBLEStack_BLE_SOC_PERIPHERAL.a(ll.o)
                0x00004408                ll_load_packet_to_fifo

i.ll_process_acks
                0x00004476       0x3c
 i.ll_process_acks
                0x00004476       0x3c D:\program\CY8\PSoC Creator\3.2\PSoC Creator\psoc\content\cycomponentlibrary\CyComponentLibrary.cylib\BLE_v2_0\Library\gccCyBLEStack_BLE_SOC_PERIPHERAL.a(ll.o)
                0x00004476                ll_process_acks

i.ll_reset      0x000044b2       0x12
 i.ll_reset     0x000044b2       0x12 D:\program\CY8\PSoC Creator\3.2\PSoC Creator\psoc\content\cycomponentlibrary\CyComponentLibrary.cylib\BLE_v2_0\Library\gccCyBLEStack_BLE_SOC_PERIPHERAL.a(ll.o)
                0x000044b2                ll_reset

i.ll_update_active_features
                0x000044c4       0x58
 i.ll_update_active_features
                0x000044c4       0x58 D:\program\CY8\PSoC Creator\3.2\PSoC Creator\psoc\content\cycomponentlibrary\CyComponentLibrary.cylib\BLE_v2_0\Library\gccCyBLEStack_BLE_SOC_PERIPHERAL.a(ll.o)
                0x000044c4                ll_update_active_features

i.ll_update_device_fsm
                0x0000451c        0x8
 i.ll_update_device_fsm
                0x0000451c        0x8 D:\program\CY8\PSoC Creator\3.2\PSoC Creator\psoc\content\cycomponentlibrary\CyComponentLibrary.cylib\BLE_v2_0\Library\gccCyBLEStack_BLE_SOC_PERIPHERAL.a(ll.o)
                0x0000451c                ll_update_device_fsm

i.pf_le_start_timer
                0x00004524       0x16
 i.pf_le_start_timer
                0x00004524       0x16 D:\program\CY8\PSoC Creator\3.2\PSoC Creator\psoc\content\cycomponentlibrary\CyComponentLibrary.cylib\BLE_v2_0\Library\gccCyBLEStack_BLE_SOC_PERIPHERAL.a(ll.o)
                0x00004524                pf_le_start_timer

i.pf_le_stop_timer
                0x0000453a       0x12
 i.pf_le_stop_timer
                0x0000453a       0x12 D:\program\CY8\PSoC Creator\3.2\PSoC Creator\psoc\content\cycomponentlibrary\CyComponentLibrary.cylib\BLE_v2_0\Library\gccCyBLEStack_BLE_SOC_PERIPHERAL.a(ll.o)
                0x0000453a                pf_le_stop_timer

i.CyBleControllerIP_TuneAdvEventInterPktSlots
                0x0000454c       0x44
 i.CyBleControllerIP_TuneAdvEventInterPktSlots
                0x0000454c       0x44 D:\program\CY8\PSoC Creator\3.2\PSoC Creator\psoc\content\cycomponentlibrary\CyComponentLibrary.cylib\BLE_v2_0\Library\gccCyBLEStack_BLE_SOC_PERIPHERAL.a(ll_advertiser.o)
                0x0000454c                CyBleControllerIP_TuneAdvEventInterPktSlots

i.ll_adv_is_configured_connection_adv
                0x00004590       0x1e
 i.ll_adv_is_configured_connection_adv
                0x00004590       0x1e D:\program\CY8\PSoC Creator\3.2\PSoC Creator\psoc\content\cycomponentlibrary\CyComponentLibrary.cylib\BLE_v2_0\Library\gccCyBLEStack_BLE_SOC_PERIPHERAL.a(ll_advertiser.o)
                0x00004590                ll_adv_is_configured_connection_adv

i.ll_check_random_address_in_use_by_advertiser
                0x000045ae       0x10
 i.ll_check_random_address_in_use_by_advertiser
                0x000045ae       0x10 D:\program\CY8\PSoC Creator\3.2\PSoC Creator\psoc\content\cycomponentlibrary\CyComponentLibrary.cylib\BLE_v2_0\Library\gccCyBLEStack_BLE_SOC_PERIPHERAL.a(ll_advertiser.o)
                0x000045ae                ll_check_random_address_in_use_by_advertiser

i.ll_check_whitelist_in_use_by_advertiser
                0x000045be       0x10
 i.ll_check_whitelist_in_use_by_advertiser
                0x000045be       0x10 D:\program\CY8\PSoC Creator\3.2\PSoC Creator\psoc\content\cycomponentlibrary\CyComponentLibrary.cylib\BLE_v2_0\Library\gccCyBLEStack_BLE_SOC_PERIPHERAL.a(ll_advertiser.o)
                0x000045be                ll_check_whitelist_in_use_by_advertiser

i.ll_get_adv_status
                0x000045ce        0xc
 i.ll_get_adv_status
                0x000045ce        0xc D:\program\CY8\PSoC Creator\3.2\PSoC Creator\psoc\content\cycomponentlibrary\CyComponentLibrary.cylib\BLE_v2_0\Library\gccCyBLEStack_BLE_SOC_PERIPHERAL.a(ll_advertiser.o)
                0x000045ce                ll_get_adv_status

i.ll_get_adv_type
                0x000045da       0x16
 i.ll_get_adv_type
                0x000045da       0x16 D:\program\CY8\PSoC Creator\3.2\PSoC Creator\psoc\content\cycomponentlibrary\CyComponentLibrary.cylib\BLE_v2_0\Library\gccCyBLEStack_BLE_SOC_PERIPHERAL.a(ll_advertiser.o)
                0x000045da                ll_get_adv_type

i.ll_handle_adv_intr
                0x000045f0       0x50
 i.ll_handle_adv_intr
                0x000045f0       0x50 D:\program\CY8\PSoC Creator\3.2\PSoC Creator\psoc\content\cycomponentlibrary\CyComponentLibrary.cylib\BLE_v2_0\Library\gccCyBLEStack_BLE_SOC_PERIPHERAL.a(ll_advertiser.o)
                0x000045f0                ll_handle_adv_intr

i.ll_handle_set_adv_data
                0x00004640       0x14
 i.ll_handle_set_adv_data
                0x00004640       0x14 D:\program\CY8\PSoC Creator\3.2\PSoC Creator\psoc\content\cycomponentlibrary\CyComponentLibrary.cylib\BLE_v2_0\Library\gccCyBLEStack_BLE_SOC_PERIPHERAL.a(ll_advertiser.o)
                0x00004640                ll_handle_set_adv_data

i.ll_handle_set_adv_parameters
                0x00004654       0x84
 i.ll_handle_set_adv_parameters
                0x00004654       0x84 D:\program\CY8\PSoC Creator\3.2\PSoC Creator\psoc\content\cycomponentlibrary\CyComponentLibrary.cylib\BLE_v2_0\Library\gccCyBLEStack_BLE_SOC_PERIPHERAL.a(ll_advertiser.o)
                0x00004654                ll_handle_set_adv_parameters

i.ll_handle_set_advertise_enable
                0x000046d8       0x70
 i.ll_handle_set_advertise_enable
                0x000046d8       0x70 D:\program\CY8\PSoC Creator\3.2\PSoC Creator\psoc\content\cycomponentlibrary\CyComponentLibrary.cylib\BLE_v2_0\Library\gccCyBLEStack_BLE_SOC_PERIPHERAL.a(ll_advertiser.o)
                0x000046d8                ll_handle_set_advertise_enable

i.ll_handle_set_scan_resp_data
                0x00004748       0x14
 i.ll_handle_set_scan_resp_data
                0x00004748       0x14 D:\program\CY8\PSoC Creator\3.2\PSoC Creator\psoc\content\cycomponentlibrary\CyComponentLibrary.cylib\BLE_v2_0\Library\gccCyBLEStack_BLE_SOC_PERIPHERAL.a(ll_advertiser.o)
                0x00004748                ll_handle_set_scan_resp_data

i.ll_init_advertiser
                0x0000475c       0x68
 i.ll_init_advertiser
                0x0000475c       0x68 D:\program\CY8\PSoC Creator\3.2\PSoC Creator\psoc\content\cycomponentlibrary\CyComponentLibrary.cylib\BLE_v2_0\Library\gccCyBLEStack_BLE_SOC_PERIPHERAL.a(ll_advertiser.o)
                0x0000475c                ll_init_advertiser

i.is_le_connection_handle
                0x000047c4       0x28
 i.is_le_connection_handle
                0x000047c4       0x28 D:\program\CY8\PSoC Creator\3.2\PSoC Creator\psoc\content\cycomponentlibrary\CyComponentLibrary.cylib\BLE_v2_0\Library\gccCyBLEStack_BLE_SOC_PERIPHERAL.a(ll_connection.o)
                0x000047c4                is_le_connection_handle

i.le_assign_connection_handle
                0x000047ec       0x28
 i.le_assign_connection_handle
                0x000047ec       0x28 D:\program\CY8\PSoC Creator\3.2\PSoC Creator\psoc\content\cycomponentlibrary\CyComponentLibrary.cylib\BLE_v2_0\Library\gccCyBLEStack_BLE_SOC_PERIPHERAL.a(ll_connection.o)
                0x000047ec                le_assign_connection_handle

i.le_get_connection_index
                0x00004814        0x6
 i.le_get_connection_index
                0x00004814        0x6 D:\program\CY8\PSoC Creator\3.2\PSoC Creator\psoc\content\cycomponentlibrary\CyComponentLibrary.cylib\BLE_v2_0\Library\gccCyBLEStack_BLE_SOC_PERIPHERAL.a(ll_connection.o)
                0x00004814                le_get_connection_index

i.ll_allocate_connection
                0x0000481c       0x44
 i.ll_allocate_connection
                0x0000481c       0x44 D:\program\CY8\PSoC Creator\3.2\PSoC Creator\psoc\content\cycomponentlibrary\CyComponentLibrary.cylib\BLE_v2_0\Library\gccCyBLEStack_BLE_SOC_PERIPHERAL.a(ll_connection.o)
                0x0000481c                ll_allocate_connection

i.ll_calculate_and_program_def_win_widen_drift
                0x00004860       0x14
 i.ll_calculate_and_program_def_win_widen_drift
                0x00004860       0x14 D:\program\CY8\PSoC Creator\3.2\PSoC Creator\psoc\content\cycomponentlibrary\CyComponentLibrary.cylib\BLE_v2_0\Library\gccCyBLEStack_BLE_SOC_PERIPHERAL.a(ll_connection.o)
                0x00004860                ll_calculate_and_program_def_win_widen_drift

i.ll_calculate_drift
                0x00004874       0x2c
 i.ll_calculate_drift
                0x00004874       0x2c D:\program\CY8\PSoC Creator\3.2\PSoC Creator\psoc\content\cycomponentlibrary\CyComponentLibrary.cylib\BLE_v2_0\Library\gccCyBLEStack_BLE_SOC_PERIPHERAL.a(ll_connection.o)
                0x00004874                ll_calculate_drift

i.ll_check_and_decrypt_ll_pdu
                0x000048a0       0x68
 i.ll_check_and_decrypt_ll_pdu
                0x000048a0       0x68 D:\program\CY8\PSoC Creator\3.2\PSoC Creator\psoc\content\cycomponentlibrary\CyComponentLibrary.cylib\BLE_v2_0\Library\gccCyBLEStack_BLE_SOC_PERIPHERAL.a(ll_connection.o)
                0x000048a0                ll_check_and_decrypt_ll_pdu

i.ll_check_and_decrypt_packet
                0x00004908       0x6a
 i.ll_check_and_decrypt_packet
                0x00004908       0x6a D:\program\CY8\PSoC Creator\3.2\PSoC Creator\psoc\content\cycomponentlibrary\CyComponentLibrary.cylib\BLE_v2_0\Library\gccCyBLEStack_BLE_SOC_PERIPHERAL.a(ll_connection.o)
                0x00004908                ll_check_and_decrypt_packet

i.ll_check_and_encrypt_ll_pdu
                0x00004972       0x72
 i.ll_check_and_encrypt_ll_pdu
                0x00004972       0x72 D:\program\CY8\PSoC Creator\3.2\PSoC Creator\psoc\content\cycomponentlibrary\CyComponentLibrary.cylib\BLE_v2_0\Library\gccCyBLEStack_BLE_SOC_PERIPHERAL.a(ll_connection.o)
                0x00004972                ll_check_and_encrypt_ll_pdu

i.ll_check_and_encrypt_packet
                0x000049e4       0x8a
 i.ll_check_and_encrypt_packet
                0x000049e4       0x8a D:\program\CY8\PSoC Creator\3.2\PSoC Creator\psoc\content\cycomponentlibrary\CyComponentLibrary.cylib\BLE_v2_0\Library\gccCyBLEStack_BLE_SOC_PERIPHERAL.a(ll_connection.o)
                0x000049e4                ll_check_and_encrypt_packet

i.ll_check_for_allowing_incoming_connection_update
                0x00004a6e       0x42
 i.ll_check_for_allowing_incoming_connection_update
                0x00004a6e       0x42 D:\program\CY8\PSoC Creator\3.2\PSoC Creator\psoc\content\cycomponentlibrary\CyComponentLibrary.cylib\BLE_v2_0\Library\gccCyBLEStack_BLE_SOC_PERIPHERAL.a(ll_connection.o)
                0x00004a6e                ll_check_for_allowing_incoming_connection_update

i.ll_check_if_pdu_is_loaded_to_hardware
                0x00004ab0       0x1c
 i.ll_check_if_pdu_is_loaded_to_hardware
                0x00004ab0       0x1c D:\program\CY8\PSoC Creator\3.2\PSoC Creator\psoc\content\cycomponentlibrary\CyComponentLibrary.cylib\BLE_v2_0\Library\gccCyBLEStack_BLE_SOC_PERIPHERAL.a(ll_connection.o)
                0x00004ab0                ll_check_if_pdu_is_loaded_to_hardware

i.ll_check_random_address_in_use_by_initiator
                0x00004acc       0x30
 i.ll_check_random_address_in_use_by_initiator
                0x00004acc       0x30 D:\program\CY8\PSoC Creator\3.2\PSoC Creator\psoc\content\cycomponentlibrary\CyComponentLibrary.cylib\BLE_v2_0\Library\gccCyBLEStack_BLE_SOC_PERIPHERAL.a(ll_connection.o)
                0x00004acc                ll_check_random_address_in_use_by_initiator

i.ll_check_white_list_in_use_by_initiator
                0x00004afc       0x30
 i.ll_check_white_list_in_use_by_initiator
                0x00004afc       0x30 D:\program\CY8\PSoC Creator\3.2\PSoC Creator\psoc\content\cycomponentlibrary\CyComponentLibrary.cylib\BLE_v2_0\Library\gccCyBLEStack_BLE_SOC_PERIPHERAL.a(ll_connection.o)
                0x00004afc                ll_check_white_list_in_use_by_initiator

i.ll_conn_free_enc_txn_buffer
                0x00004b2c       0x16
 i.ll_conn_free_enc_txn_buffer
                0x00004b2c       0x16 D:\program\CY8\PSoC Creator\3.2\PSoC Creator\psoc\content\cycomponentlibrary\CyComponentLibrary.cylib\BLE_v2_0\Library\gccCyBLEStack_BLE_SOC_PERIPHERAL.a(ll_connection.o)
                0x00004b2c                ll_conn_free_enc_txn_buffer

i.ll_conn_fsm_update_channel_state
                0x00004b42        0x6
 i.ll_conn_fsm_update_channel_state
                0x00004b42        0x6 D:\program\CY8\PSoC Creator\3.2\PSoC Creator\psoc\content\cycomponentlibrary\CyComponentLibrary.cylib\BLE_v2_0\Library\gccCyBLEStack_BLE_SOC_PERIPHERAL.a(ll_connection.o)
                0x00004b42                ll_conn_fsm_update_channel_state

i.ll_conn_fsm_update_conn_update_state
                0x00004b48        0x6
 i.ll_conn_fsm_update_conn_update_state
                0x00004b48        0x6 D:\program\CY8\PSoC Creator\3.2\PSoC Creator\psoc\content\cycomponentlibrary\CyComponentLibrary.cylib\BLE_v2_0\Library\gccCyBLEStack_BLE_SOC_PERIPHERAL.a(ll_connection.o)
                0x00004b48                ll_conn_fsm_update_conn_update_state

i.ll_conn_fsm_update_enc_state
                0x00004b4e        0x6
 i.ll_conn_fsm_update_enc_state
                0x00004b4e        0x6 D:\program\CY8\PSoC Creator\3.2\PSoC Creator\psoc\content\cycomponentlibrary\CyComponentLibrary.cylib\BLE_v2_0\Library\gccCyBLEStack_BLE_SOC_PERIPHERAL.a(ll_connection.o)
                0x00004b4e                ll_conn_fsm_update_enc_state

i.ll_conn_fsm_update_state
                0x00004b54        0x4
 i.ll_conn_fsm_update_state
                0x00004b54        0x4 D:\program\CY8\PSoC Creator\3.2\PSoC Creator\psoc\content\cycomponentlibrary\CyComponentLibrary.cylib\BLE_v2_0\Library\gccCyBLEStack_BLE_SOC_PERIPHERAL.a(ll_connection.o)
                0x00004b54                ll_conn_fsm_update_state

i.ll_conn_handle_data_pdu_from_host_when_data_paused
                0x00004b58        0x8
 i.ll_conn_handle_data_pdu_from_host_when_data_paused
                0x00004b58        0x8 D:\program\CY8\PSoC Creator\3.2\PSoC Creator\psoc\content\cycomponentlibrary\CyComponentLibrary.cylib\BLE_v2_0\Library\gccCyBLEStack_BLE_SOC_PERIPHERAL.a(ll_connection.o)
                0x00004b58                ll_conn_handle_data_pdu_from_host_when_data_paused

i.ll_conn_handle_direct_adv_timeout
                0x00004b60       0x2a
 i.ll_conn_handle_direct_adv_timeout
                0x00004b60       0x2a D:\program\CY8\PSoC Creator\3.2\PSoC Creator\psoc\content\cycomponentlibrary\CyComponentLibrary.cylib\BLE_v2_0\Library\gccCyBLEStack_BLE_SOC_PERIPHERAL.a(ll_connection.o)
                0x00004b60                ll_conn_handle_direct_adv_timeout

i.ll_conn_handle_ping_timer_expired_interrupt
                0x00004b8c       0x1c
 i.ll_conn_handle_ping_timer_expired_interrupt
                0x00004b8c       0x1c D:\program\CY8\PSoC Creator\3.2\PSoC Creator\psoc\content\cycomponentlibrary\CyComponentLibrary.cylib\BLE_v2_0\Library\gccCyBLEStack_BLE_SOC_PERIPHERAL.a(ll_connection.o)
                0x00004b8c                ll_conn_handle_ping_timer_expired_interrupt

i.ll_conn_handle_ping_timer_nearly_expired_interrupt
                0x00004ba8       0x20
 i.ll_conn_handle_ping_timer_nearly_expired_interrupt
                0x00004ba8       0x20 D:\program\CY8\PSoC Creator\3.2\PSoC Creator\psoc\content\cycomponentlibrary\CyComponentLibrary.cylib\BLE_v2_0\Library\gccCyBLEStack_BLE_SOC_PERIPHERAL.a(ll_connection.o)
                0x00004ba8                ll_conn_handle_ping_timer_nearly_expired_interrupt

i.ll_conn_handle_stop_connectable_adv
                0x00004bc8       0x12
 i.ll_conn_handle_stop_connectable_adv
                0x00004bc8       0x12 D:\program\CY8\PSoC Creator\3.2\PSoC Creator\psoc\content\cycomponentlibrary\CyComponentLibrary.cylib\BLE_v2_0\Library\gccCyBLEStack_BLE_SOC_PERIPHERAL.a(ll_connection.o)
                0x00004bc8                ll_conn_handle_stop_connectable_adv

i.ll_conn_process_pending_transactions
                0x00004bda        0x4
 i.ll_conn_process_pending_transactions
                0x00004bda        0x4 D:\program\CY8\PSoC Creator\3.2\PSoC Creator\psoc\content\cycomponentlibrary\CyComponentLibrary.cylib\BLE_v2_0\Library\gccCyBLEStack_BLE_SOC_PERIPHERAL.a(ll_connection.o)
                0x00004bda                ll_conn_process_pending_transactions

i.ll_conn_program_authenticated_payload_timer
                0x00004be0       0x50
 i.ll_conn_program_authenticated_payload_timer
                0x00004be0       0x50 D:\program\CY8\PSoC Creator\3.2\PSoC Creator\psoc\content\cycomponentlibrary\CyComponentLibrary.cylib\BLE_v2_0\Library\gccCyBLEStack_BLE_SOC_PERIPHERAL.a(ll_connection.o)
                0x00004be0                ll_conn_program_authenticated_payload_timer

i.ll_conn_read_data_pdu_from_hardware
                0x00004c30       0x14
 i.ll_conn_read_data_pdu_from_hardware
                0x00004c30       0x14 D:\program\CY8\PSoC Creator\3.2\PSoC Creator\psoc\content\cycomponentlibrary\CyComponentLibrary.cylib\BLE_v2_0\Library\gccCyBLEStack_BLE_SOC_PERIPHERAL.a(ll_connection.o)
                0x00004c30                ll_conn_read_data_pdu_from_hardware

i.ll_conn_send_ping_req_pdu
                0x00004c44       0x40
 i.ll_conn_send_ping_req_pdu
                0x00004c44       0x40 D:\program\CY8\PSoC Creator\3.2\PSoC Creator\psoc\content\cycomponentlibrary\CyComponentLibrary.cylib\BLE_v2_0\Library\gccCyBLEStack_BLE_SOC_PERIPHERAL.a(ll_connection.o)
                0x00004c44                ll_conn_send_ping_req_pdu

i.ll_conn_store_pending_tx_pdu
                0x00004c84       0x1a
 i.ll_conn_store_pending_tx_pdu
                0x00004c84       0x1a D:\program\CY8\PSoC Creator\3.2\PSoC Creator\psoc\content\cycomponentlibrary\CyComponentLibrary.cylib\BLE_v2_0\Library\gccCyBLEStack_BLE_SOC_PERIPHERAL.a(ll_connection.o)
                0x00004c84                ll_conn_store_pending_tx_pdu

i.ll_conn_update_rssi
                0x00004c9e       0x16
 i.ll_conn_update_rssi
                0x00004c9e       0x16 D:\program\CY8\PSoC Creator\3.2\PSoC Creator\psoc\content\cycomponentlibrary\CyComponentLibrary.cylib\BLE_v2_0\Library\gccCyBLEStack_BLE_SOC_PERIPHERAL.a(ll_connection.o)
                0x00004c9e                ll_conn_update_rssi

i.ll_convert_hci_llid_to_ll_llid_host_to_controller
                0x00004cb4        0x8
 i.ll_convert_hci_llid_to_ll_llid_host_to_controller
                0x00004cb4        0x8 D:\program\CY8\PSoC Creator\3.2\PSoC Creator\psoc\content\cycomponentlibrary\CyComponentLibrary.cylib\BLE_v2_0\Library\gccCyBLEStack_BLE_SOC_PERIPHERAL.a(ll_connection.o)
                0x00004cb4                ll_convert_hci_llid_to_ll_llid_host_to_controller

i.ll_convert_ll_llid_to_hci_llid_controller_to_host
                0x00004cbc        0x2
 i.ll_convert_ll_llid_to_hci_llid_controller_to_host
                0x00004cbc        0x2 D:\program\CY8\PSoC Creator\3.2\PSoC Creator\psoc\content\cycomponentlibrary\CyComponentLibrary.cylib\BLE_v2_0\Library\gccCyBLEStack_BLE_SOC_PERIPHERAL.a(ll_connection.o)
                0x00004cbc                ll_convert_ll_llid_to_hci_llid_controller_to_host

i.ll_decode_and_program_connect_req
                0x00004cc0       0xec
 i.ll_decode_and_program_connect_req
                0x00004cc0       0xec D:\program\CY8\PSoC Creator\3.2\PSoC Creator\psoc\content\cycomponentlibrary\CyComponentLibrary.cylib\BLE_v2_0\Library\gccCyBLEStack_BLE_SOC_PERIPHERAL.a(ll_connection.o)
                0x00004cc0                ll_decode_and_program_connect_req

i.ll_enc_fsm_derive_session_key
                0x00004dac       0x46
 i.ll_enc_fsm_derive_session_key
                0x00004dac       0x46 D:\program\CY8\PSoC Creator\3.2\PSoC Creator\psoc\content\cycomponentlibrary\CyComponentLibrary.cylib\BLE_v2_0\Library\gccCyBLEStack_BLE_SOC_PERIPHERAL.a(ll_connection.o)
                0x00004dac                ll_enc_fsm_derive_session_key

i.ll_enc_handle_enc_complete
                0x00004df2       0x68
 i.ll_enc_handle_enc_complete
                0x00004df2       0x68 D:\program\CY8\PSoC Creator\3.2\PSoC Creator\psoc\content\cycomponentlibrary\CyComponentLibrary.cylib\BLE_v2_0\Library\gccCyBLEStack_BLE_SOC_PERIPHERAL.a(ll_connection.o)
                0x00004df2                ll_enc_handle_enc_complete

i.ll_enc_handle_enc_failure
                0x00004e5c       0xa4
 i.ll_enc_handle_enc_failure
                0x00004e5c       0xa4 D:\program\CY8\PSoC Creator\3.2\PSoC Creator\psoc\content\cycomponentlibrary\CyComponentLibrary.cylib\BLE_v2_0\Library\gccCyBLEStack_BLE_SOC_PERIPHERAL.a(ll_connection.o)
                0x00004e5c                ll_enc_handle_enc_failure

i.ll_enc_handle_ll_reject_pdu_cb
                0x00004f00       0x24
 i.ll_enc_handle_ll_reject_pdu_cb
                0x00004f00       0x24 D:\program\CY8\PSoC Creator\3.2\PSoC Creator\psoc\content\cycomponentlibrary\CyComponentLibrary.cylib\BLE_v2_0\Library\gccCyBLEStack_BLE_SOC_PERIPHERAL.a(ll_connection.o)
                0x00004f00                ll_enc_handle_ll_reject_pdu_cb

i.ll_enc_handle_ll_terminate_pdu
                0x00004f24       0x16
 i.ll_enc_handle_ll_terminate_pdu
                0x00004f24       0x16 D:\program\CY8\PSoC Creator\3.2\PSoC Creator\psoc\content\cycomponentlibrary\CyComponentLibrary.cylib\BLE_v2_0\Library\gccCyBLEStack_BLE_SOC_PERIPHERAL.a(ll_connection.o)
                0x00004f24                ll_enc_handle_ll_terminate_pdu

i.ll_enc_handle_ll_unknown_resp_pdu_cb
                0x00004f3a       0x24
 i.ll_enc_handle_ll_unknown_resp_pdu_cb
                0x00004f3a       0x24 D:\program\CY8\PSoC Creator\3.2\PSoC Creator\psoc\content\cycomponentlibrary\CyComponentLibrary.cylib\BLE_v2_0\Library\gccCyBLEStack_BLE_SOC_PERIPHERAL.a(ll_connection.o)
                0x00004f3a                ll_enc_handle_ll_unknown_resp_pdu_cb

i.ll_enc_handle_slave_await_to_start_cb
                0x00004f60       0x80
 i.ll_enc_handle_slave_await_to_start_cb
                0x00004f60       0x80 D:\program\CY8\PSoC Creator\3.2\PSoC Creator\psoc\content\cycomponentlibrary\CyComponentLibrary.cylib\BLE_v2_0\Library\gccCyBLEStack_BLE_SOC_PERIPHERAL.a(ll_connection.o)
                0x00004f60                ll_enc_handle_slave_await_to_start_cb

i.ll_enc_handle_slave_enc_resp_ack_cb
                0x00004fe0       0x28
 i.ll_enc_handle_slave_enc_resp_ack_cb
                0x00004fe0       0x28 D:\program\CY8\PSoC Creator\3.2\PSoC Creator\psoc\content\cycomponentlibrary\CyComponentLibrary.cylib\BLE_v2_0\Library\gccCyBLEStack_BLE_SOC_PERIPHERAL.a(ll_connection.o)
                0x00004fe0                ll_enc_handle_slave_enc_resp_ack_cb

i.ll_enc_handle_slave_ltk_neg_reply_cb
                0x00005008       0x60
 i.ll_enc_handle_slave_ltk_neg_reply_cb
                0x00005008       0x60 D:\program\CY8\PSoC Creator\3.2\PSoC Creator\psoc\content\cycomponentlibrary\CyComponentLibrary.cylib\BLE_v2_0\Library\gccCyBLEStack_BLE_SOC_PERIPHERAL.a(ll_connection.o)
                0x00005008                ll_enc_handle_slave_ltk_neg_reply_cb

i.ll_enc_handle_slave_pause_enc_req_cb
                0x00005068       0x46
 i.ll_enc_handle_slave_pause_enc_req_cb
                0x00005068       0x46 D:\program\CY8\PSoC Creator\3.2\PSoC Creator\psoc\content\cycomponentlibrary\CyComponentLibrary.cylib\BLE_v2_0\Library\gccCyBLEStack_BLE_SOC_PERIPHERAL.a(ll_connection.o)
                0x00005068                ll_enc_handle_slave_pause_enc_req_cb

i.ll_enc_handle_slave_pause_enc_resp_cb
                0x000050ae       0x10
 i.ll_enc_handle_slave_pause_enc_resp_cb
                0x000050ae       0x10 D:\program\CY8\PSoC Creator\3.2\PSoC Creator\psoc\content\cycomponentlibrary\CyComponentLibrary.cylib\BLE_v2_0\Library\gccCyBLEStack_BLE_SOC_PERIPHERAL.a(ll_connection.o)
                0x000050ae                ll_enc_handle_slave_pause_enc_resp_cb

i.ll_enc_handle_slave_reject_ind_ack_cb
                0x000050be       0x22
 i.ll_enc_handle_slave_reject_ind_ack_cb
                0x000050be       0x22 D:\program\CY8\PSoC Creator\3.2\PSoC Creator\psoc\content\cycomponentlibrary\CyComponentLibrary.cylib\BLE_v2_0\Library\gccCyBLEStack_BLE_SOC_PERIPHERAL.a(ll_connection.o)
                0x000050be                ll_enc_handle_slave_reject_ind_ack_cb

i.ll_enc_handle_slave_start_enc_resp_ack_cb
                0x000050e0        0x8
 i.ll_enc_handle_slave_start_enc_resp_ack_cb
                0x000050e0        0x8 D:\program\CY8\PSoC Creator\3.2\PSoC Creator\psoc\content\cycomponentlibrary\CyComponentLibrary.cylib\BLE_v2_0\Library\gccCyBLEStack_BLE_SOC_PERIPHERAL.a(ll_connection.o)
                0x000050e0                ll_enc_handle_slave_start_enc_resp_ack_cb

i.ll_enc_handle_slave_start_enc_resp_cb
                0x000050e8       0x34
 i.ll_enc_handle_slave_start_enc_resp_cb
                0x000050e8       0x34 D:\program\CY8\PSoC Creator\3.2\PSoC Creator\psoc\content\cycomponentlibrary\CyComponentLibrary.cylib\BLE_v2_0\Library\gccCyBLEStack_BLE_SOC_PERIPHERAL.a(ll_connection.o)
                0x000050e8                ll_enc_handle_slave_start_enc_resp_cb

i.ll_enc_send_start_encryption_request
                0x0000511c       0x38
 i.ll_enc_send_start_encryption_request
                0x0000511c       0x38 D:\program\CY8\PSoC Creator\3.2\PSoC Creator\psoc\content\cycomponentlibrary\CyComponentLibrary.cylib\BLE_v2_0\Library\gccCyBLEStack_BLE_SOC_PERIPHERAL.a(ll_connection.o)
                0x0000511c                ll_enc_send_start_encryption_request

i.ll_extract_pdu_opcode
                0x00005154        0x4
 i.ll_extract_pdu_opcode
                0x00005154        0x4 D:\program\CY8\PSoC Creator\3.2\PSoC Creator\psoc\content\cycomponentlibrary\CyComponentLibrary.cylib\BLE_v2_0\Library\gccCyBLEStack_BLE_SOC_PERIPHERAL.a(ll_connection.o)
                0x00005154                ll_extract_pdu_opcode

i.ll_fsm_handle_conn_established_ind
                0x00005158       0x7c
 i.ll_fsm_handle_conn_established_ind
                0x00005158       0x7c D:\program\CY8\PSoC Creator\3.2\PSoC Creator\psoc\content\cycomponentlibrary\CyComponentLibrary.cylib\BLE_v2_0\Library\gccCyBLEStack_BLE_SOC_PERIPHERAL.a(ll_connection.o)
                0x00005158                ll_fsm_handle_conn_established_ind

i.ll_fsm_handle_conn_failure_ind
                0x000051d4        0xc
 i.ll_fsm_handle_conn_failure_ind
                0x000051d4        0xc D:\program\CY8\PSoC Creator\3.2\PSoC Creator\psoc\content\cycomponentlibrary\CyComponentLibrary.cylib\BLE_v2_0\Library\gccCyBLEStack_BLE_SOC_PERIPHERAL.a(ll_connection.o)
                0x000051d4                ll_fsm_handle_conn_failure_ind

i.ll_fsm_handle_disconnecting_state
                0x000051e0       0x16
 i.ll_fsm_handle_disconnecting_state
                0x000051e0       0x16 D:\program\CY8\PSoC Creator\3.2\PSoC Creator\psoc\content\cycomponentlibrary\CyComponentLibrary.cylib\BLE_v2_0\Library\gccCyBLEStack_BLE_SOC_PERIPHERAL.a(ll_connection.o)
                0x000051e0                ll_fsm_handle_disconnecting_state

i.ll_fsm_handle_end_of_conn_interval
                0x000051f8       0x30
 i.ll_fsm_handle_end_of_conn_interval
                0x000051f8       0x30 D:\program\CY8\PSoC Creator\3.2\PSoC Creator\psoc\content\cycomponentlibrary\CyComponentLibrary.cylib\BLE_v2_0\Library\gccCyBLEStack_BLE_SOC_PERIPHERAL.a(ll_connection.o)
                0x000051f8                ll_fsm_handle_end_of_conn_interval

i.ll_fsm_handle_pdu_response_timeout
                0x00005228       0x20
 i.ll_fsm_handle_pdu_response_timeout
                0x00005228       0x20 D:\program\CY8\PSoC Creator\3.2\PSoC Creator\psoc\content\cycomponentlibrary\CyComponentLibrary.cylib\BLE_v2_0\Library\gccCyBLEStack_BLE_SOC_PERIPHERAL.a(ll_connection.o)
                0x00005228                ll_fsm_handle_pdu_response_timeout

i.ll_fsm_handle_sup_timeout_ind
                0x00005248       0x22
 i.ll_fsm_handle_sup_timeout_ind
                0x00005248       0x22 D:\program\CY8\PSoC Creator\3.2\PSoC Creator\psoc\content\cycomponentlibrary\CyComponentLibrary.cylib\BLE_v2_0\Library\gccCyBLEStack_BLE_SOC_PERIPHERAL.a(ll_connection.o)
                0x00005248                ll_fsm_handle_sup_timeout_ind

i.ll_fsm_move_to_disconnected_state
                0x0000526a       0x94
 i.ll_fsm_move_to_disconnected_state
                0x0000526a       0x94 D:\program\CY8\PSoC Creator\3.2\PSoC Creator\psoc\content\cycomponentlibrary\CyComponentLibrary.cylib\BLE_v2_0\Library\gccCyBLEStack_BLE_SOC_PERIPHERAL.a(ll_connection.o)
                0x0000526a                ll_fsm_move_to_disconnected_state

i.ll_generate_connection_complete
                0x000052fe       0x62
 i.ll_generate_connection_complete
                0x000052fe       0x62 D:\program\CY8\PSoC Creator\3.2\PSoC Creator\psoc\content\cycomponentlibrary\CyComponentLibrary.cylib\BLE_v2_0\Library\gccCyBLEStack_BLE_SOC_PERIPHERAL.a(ll_connection.o)
                0x000052fe                ll_generate_connection_complete

i.ll_generate_disconnection_complete
                0x00005360        0xe
 i.ll_generate_disconnection_complete
                0x00005360        0xe D:\program\CY8\PSoC Creator\3.2\PSoC Creator\psoc\content\cycomponentlibrary\CyComponentLibrary.cylib\BLE_v2_0\Library\gccCyBLEStack_BLE_SOC_PERIPHERAL.a(ll_connection.o)
                0x00005360                ll_generate_disconnection_complete

i.ll_generate_random_number
                0x0000536e        0x8
 i.ll_generate_random_number
                0x0000536e        0x8 D:\program\CY8\PSoC Creator\3.2\PSoC Creator\psoc\content\cycomponentlibrary\CyComponentLibrary.cylib\BLE_v2_0\Library\gccCyBLEStack_BLE_SOC_PERIPHERAL.a(ll_connection.o)
                0x0000536e                ll_generate_random_number

i.ll_get_connection_entity
                0x00005378       0x24
 i.ll_get_connection_entity
                0x00005378       0x24 D:\program\CY8\PSoC Creator\3.2\PSoC Creator\psoc\content\cycomponentlibrary\CyComponentLibrary.cylib\BLE_v2_0\Library\gccCyBLEStack_BLE_SOC_PERIPHERAL.a(ll_connection.o)
                0x00005378                ll_get_connection_entity

i.ll_get_enc_txn_info
                0x0000539c       0x1e
 i.ll_get_enc_txn_info
                0x0000539c       0x1e D:\program\CY8\PSoC Creator\3.2\PSoC Creator\psoc\content\cycomponentlibrary\CyComponentLibrary.cylib\BLE_v2_0\Library\gccCyBLEStack_BLE_SOC_PERIPHERAL.a(ll_connection.o)
                0x0000539c                ll_get_enc_txn_info

i.ll_get_next_pdu_tx_fifo_index
                0x000053bc       0x28
 i.ll_get_next_pdu_tx_fifo_index
                0x000053bc       0x28 D:\program\CY8\PSoC Creator\3.2\PSoC Creator\psoc\content\cycomponentlibrary\CyComponentLibrary.cylib\BLE_v2_0\Library\gccCyBLEStack_BLE_SOC_PERIPHERAL.a(ll_connection.o)
                0x000053bc                ll_get_next_pdu_tx_fifo_index

i.ll_handle_ack_for_pause_tx_data
                0x000053e4       0x38
 i.ll_handle_ack_for_pause_tx_data
                0x000053e4       0x38 D:\program\CY8\PSoC Creator\3.2\PSoC Creator\psoc\content\cycomponentlibrary\CyComponentLibrary.cylib\BLE_v2_0\Library\gccCyBLEStack_BLE_SOC_PERIPHERAL.a(ll_connection.o)
                0x000053e4                ll_handle_ack_for_pause_tx_data

i.ll_handle_acl_tx_complete
                0x0000541c       0x44
 i.ll_handle_acl_tx_complete
                0x0000541c       0x44 D:\program\CY8\PSoC Creator\3.2\PSoC Creator\psoc\content\cycomponentlibrary\CyComponentLibrary.cylib\BLE_v2_0\Library\gccCyBLEStack_BLE_SOC_PERIPHERAL.a(ll_connection.o)
                0x0000541c                ll_handle_acl_tx_complete

i.ll_handle_conn_created_ind
                0x00005460        0x2
 i.ll_handle_conn_created_ind
                0x00005460        0x2 D:\program\CY8\PSoC Creator\3.2\PSoC Creator\psoc\content\cycomponentlibrary\CyComponentLibrary.cylib\BLE_v2_0\Library\gccCyBLEStack_BLE_SOC_PERIPHERAL.a(ll_connection.o)
                0x00005460                ll_handle_conn_created_ind

i.ll_handle_conn_established_ind
                0x00005462        0x2
 i.ll_handle_conn_established_ind
                0x00005462        0x2 D:\program\CY8\PSoC Creator\3.2\PSoC Creator\psoc\content\cycomponentlibrary\CyComponentLibrary.cylib\BLE_v2_0\Library\gccCyBLEStack_BLE_SOC_PERIPHERAL.a(ll_connection.o)
                0x00005462                ll_handle_conn_established_ind

i.ll_handle_conn_failed_indication
                0x00005464       0x30
 i.ll_handle_conn_failed_indication
                0x00005464       0x30 D:\program\CY8\PSoC Creator\3.2\PSoC Creator\psoc\content\cycomponentlibrary\CyComponentLibrary.cylib\BLE_v2_0\Library\gccCyBLEStack_BLE_SOC_PERIPHERAL.a(ll_connection.o)
                0x00005464                ll_handle_conn_failed_indication

i.ll_handle_conn_interrupt
                0x00005494       0x94
 i.ll_handle_conn_interrupt
                0x00005494       0x94 D:\program\CY8\PSoC Creator\3.2\PSoC Creator\psoc\content\cycomponentlibrary\CyComponentLibrary.cylib\BLE_v2_0\Library\gccCyBLEStack_BLE_SOC_PERIPHERAL.a(ll_connection.o)
                0x00005494                ll_handle_conn_interrupt

i.ll_handle_conn_update_ind
                0x00005528       0x98
 i.ll_handle_conn_update_ind
                0x00005528       0x98 D:\program\CY8\PSoC Creator\3.2\PSoC Creator\psoc\content\cycomponentlibrary\CyComponentLibrary.cylib\BLE_v2_0\Library\gccCyBLEStack_BLE_SOC_PERIPHERAL.a(ll_connection.o)
                0x00005528                ll_handle_conn_update_ind

i.ll_handle_data_pdu_ack_received
                0x000055c0       0x54
 i.ll_handle_data_pdu_ack_received
                0x000055c0       0x54 D:\program\CY8\PSoC Creator\3.2\PSoC Creator\psoc\content\cycomponentlibrary\CyComponentLibrary.cylib\BLE_v2_0\Library\gccCyBLEStack_BLE_SOC_PERIPHERAL.a(ll_connection.o)
                0x000055c0                ll_handle_data_pdu_ack_received

i.ll_handle_disconnect_cmd
                0x00005614       0x54
 i.ll_handle_disconnect_cmd
                0x00005614       0x54 D:\program\CY8\PSoC Creator\3.2\PSoC Creator\psoc\content\cycomponentlibrary\CyComponentLibrary.cylib\BLE_v2_0\Library\gccCyBLEStack_BLE_SOC_PERIPHERAL.a(ll_connection.o)
                0x00005614                ll_handle_disconnect_cmd

i.ll_handle_incoming_data_packet
                0x00005668       0x1c
 i.ll_handle_incoming_data_packet
                0x00005668       0x1c D:\program\CY8\PSoC Creator\3.2\PSoC Creator\psoc\content\cycomponentlibrary\CyComponentLibrary.cylib\BLE_v2_0\Library\gccCyBLEStack_BLE_SOC_PERIPHERAL.a(ll_connection.o)
                0x00005668                ll_handle_incoming_data_packet

i.ll_handle_incoming_packet
                0x00005684       0x6c
 i.ll_handle_incoming_packet
                0x00005684       0x6c D:\program\CY8\PSoC Creator\3.2\PSoC Creator\psoc\content\cycomponentlibrary\CyComponentLibrary.cylib\BLE_v2_0\Library\gccCyBLEStack_BLE_SOC_PERIPHERAL.a(ll_connection.o)
                0x00005684                ll_handle_incoming_packet

i.ll_handle_ltk_negative_reply
                0x000056f0       0x34
 i.ll_handle_ltk_negative_reply
                0x000056f0       0x34 D:\program\CY8\PSoC Creator\3.2\PSoC Creator\psoc\content\cycomponentlibrary\CyComponentLibrary.cylib\BLE_v2_0\Library\gccCyBLEStack_BLE_SOC_PERIPHERAL.a(ll_connection.o)
                0x000056f0                ll_handle_ltk_negative_reply

i.ll_handle_ltk_req_reply
                0x00005724       0x56
 i.ll_handle_ltk_req_reply
                0x00005724       0x56 D:\program\CY8\PSoC Creator\3.2\PSoC Creator\psoc\content\cycomponentlibrary\CyComponentLibrary.cylib\BLE_v2_0\Library\gccCyBLEStack_BLE_SOC_PERIPHERAL.a(ll_connection.o)
                0x00005724                ll_handle_ltk_req_reply

i.ll_handle_read_authenticated_payload_timeout_cmd
                0x0000577c       0x44
 i.ll_handle_read_authenticated_payload_timeout_cmd
                0x0000577c       0x44 D:\program\CY8\PSoC Creator\3.2\PSoC Creator\psoc\content\cycomponentlibrary\CyComponentLibrary.cylib\BLE_v2_0\Library\gccCyBLEStack_BLE_SOC_PERIPHERAL.a(ll_connection.o)
                0x0000577c                ll_handle_read_authenticated_payload_timeout_cmd

i.ll_handle_remote_version_cmd
                0x000057c0       0xb0
 i.ll_handle_remote_version_cmd
                0x000057c0       0xb0 D:\program\CY8\PSoC Creator\3.2\PSoC Creator\psoc\content\cycomponentlibrary\CyComponentLibrary.cylib\BLE_v2_0\Library\gccCyBLEStack_BLE_SOC_PERIPHERAL.a(ll_connection.o)
                0x000057c0                ll_handle_remote_version_cmd

i.ll_handle_rx_ind
                0x00005870       0x1e
 i.ll_handle_rx_ind
                0x00005870       0x1e D:\program\CY8\PSoC Creator\3.2\PSoC Creator\psoc\content\cycomponentlibrary\CyComponentLibrary.cylib\BLE_v2_0\Library\gccCyBLEStack_BLE_SOC_PERIPHERAL.a(ll_connection.o)
                0x00005870                ll_handle_rx_ind

i.ll_handle_slave_conn_created_ind
                0x00005890       0x5c
 i.ll_handle_slave_conn_created_ind
                0x00005890       0x5c D:\program\CY8\PSoC Creator\3.2\PSoC Creator\psoc\content\cycomponentlibrary\CyComponentLibrary.cylib\BLE_v2_0\Library\gccCyBLEStack_BLE_SOC_PERIPHERAL.a(ll_connection.o)
                0x00005890                ll_handle_slave_conn_created_ind

i.ll_handle_update_channel_map_ind
                0x000058ec       0x38
 i.ll_handle_update_channel_map_ind
                0x000058ec       0x38 D:\program\CY8\PSoC Creator\3.2\PSoC Creator\psoc\content\cycomponentlibrary\CyComponentLibrary.cylib\BLE_v2_0\Library\gccCyBLEStack_BLE_SOC_PERIPHERAL.a(ll_connection.o)
                0x000058ec                ll_handle_update_channel_map_ind

i.ll_handle_write_authenticated_payload_timeout_cmd
                0x00005924       0x68
 i.ll_handle_write_authenticated_payload_timeout_cmd
                0x00005924       0x68 D:\program\CY8\PSoC Creator\3.2\PSoC Creator\psoc\content\cycomponentlibrary\CyComponentLibrary.cylib\BLE_v2_0\Library\gccCyBLEStack_BLE_SOC_PERIPHERAL.a(ll_connection.o)
                0x00005924                ll_handle_write_authenticated_payload_timeout_cmd

i.ll_increment_rx_packet_counter
                0x0000598c       0x14
 i.ll_increment_rx_packet_counter
                0x0000598c       0x14 D:\program\CY8\PSoC Creator\3.2\PSoC Creator\psoc\content\cycomponentlibrary\CyComponentLibrary.cylib\BLE_v2_0\Library\gccCyBLEStack_BLE_SOC_PERIPHERAL.a(ll_connection.o)
                0x0000598c                ll_increment_rx_packet_counter

i.ll_increment_tx_packet_counter
                0x000059a0       0x14
 i.ll_increment_tx_packet_counter
                0x000059a0       0x14 D:\program\CY8\PSoC Creator\3.2\PSoC Creator\psoc\content\cycomponentlibrary\CyComponentLibrary.cylib\BLE_v2_0\Library\gccCyBLEStack_BLE_SOC_PERIPHERAL.a(ll_connection.o)
                0x000059a0                ll_increment_tx_packet_counter

i.ll_init_connection
                0x000059b4       0x60
 i.ll_init_connection
                0x000059b4       0x60 D:\program\CY8\PSoC Creator\3.2\PSoC Creator\psoc\content\cycomponentlibrary\CyComponentLibrary.cylib\BLE_v2_0\Library\gccCyBLEStack_BLE_SOC_PERIPHERAL.a(ll_connection.o)
                0x000059b4                ll_init_connection

i.ll_init_link_for_encryption
                0x00005a14       0x12
 i.ll_init_link_for_encryption
                0x00005a14       0x12 D:\program\CY8\PSoC Creator\3.2\PSoC Creator\psoc\content\cycomponentlibrary\CyComponentLibrary.cylib\BLE_v2_0\Library\gccCyBLEStack_BLE_SOC_PERIPHERAL.a(ll_connection.o)
                0x00005a14                ll_init_link_for_encryption

i.ll_is_conn_created
                0x00005a26       0x16
 i.ll_is_conn_created
                0x00005a26       0x16 D:\program\CY8\PSoC Creator\3.2\PSoC Creator\psoc\content\cycomponentlibrary\CyComponentLibrary.cylib\BLE_v2_0\Library\gccCyBLEStack_BLE_SOC_PERIPHERAL.a(ll_connection.o)
                0x00005a26                ll_is_conn_created

i.ll_is_data_paused
                0x00005a3c        0xc
 i.ll_is_data_paused
                0x00005a3c        0xc D:\program\CY8\PSoC Creator\3.2\PSoC Creator\psoc\content\cycomponentlibrary\CyComponentLibrary.cylib\BLE_v2_0\Library\gccCyBLEStack_BLE_SOC_PERIPHERAL.a(ll_connection.o)
                0x00005a3c                ll_is_data_paused

i.ll_is_encryption_in_progress
                0x00005a48       0x1c
 i.ll_is_encryption_in_progress
                0x00005a48       0x1c D:\program\CY8\PSoC Creator\3.2\PSoC Creator\psoc\content\cycomponentlibrary\CyComponentLibrary.cylib\BLE_v2_0\Library\gccCyBLEStack_BLE_SOC_PERIPHERAL.a(ll_connection.o)
                0x00005a48                ll_is_encryption_in_progress

i.ll_is_pending_tx_packets
                0x00005a64       0x10
 i.ll_is_pending_tx_packets
                0x00005a64       0x10 D:\program\CY8\PSoC Creator\3.2\PSoC Creator\psoc\content\cycomponentlibrary\CyComponentLibrary.cylib\BLE_v2_0\Library\gccCyBLEStack_BLE_SOC_PERIPHERAL.a(ll_connection.o)
                0x00005a64                ll_is_pending_tx_packets

i.ll_packet_rx_callback
                0x00005a74       0x1a
 i.ll_packet_rx_callback
                0x00005a74       0x1a D:\program\CY8\PSoC Creator\3.2\PSoC Creator\psoc\content\cycomponentlibrary\CyComponentLibrary.cylib\BLE_v2_0\Library\gccCyBLEStack_BLE_SOC_PERIPHERAL.a(ll_connection.o)
                0x00005a74                ll_packet_rx_callback

i.ll_pause_data_tx_fifo_index
                0x00005a90       0x6c
 i.ll_pause_data_tx_fifo_index
                0x00005a90       0x6c D:\program\CY8\PSoC Creator\3.2\PSoC Creator\psoc\content\cycomponentlibrary\CyComponentLibrary.cylib\BLE_v2_0\Library\gccCyBLEStack_BLE_SOC_PERIPHERAL.a(ll_connection.o)
                0x00005a90                ll_pause_data_tx_fifo_index

i.ll_process_pending_transactions
                0x00005afc        0xe
 i.ll_process_pending_transactions
                0x00005afc        0xe D:\program\CY8\PSoC Creator\3.2\PSoC Creator\psoc\content\cycomponentlibrary\CyComponentLibrary.cylib\BLE_v2_0\Library\gccCyBLEStack_BLE_SOC_PERIPHERAL.a(ll_connection.o)
                0x00005afc                ll_process_pending_transactions

i.ll_process_rx_packet
                0x00005b0c      0x168
 i.ll_process_rx_packet
                0x00005b0c      0x168 D:\program\CY8\PSoC Creator\3.2\PSoC Creator\psoc\content\cycomponentlibrary\CyComponentLibrary.cylib\BLE_v2_0\Library\gccCyBLEStack_BLE_SOC_PERIPHERAL.a(ll_connection.o)
                0x00005b0c                ll_process_rx_packet

i.ll_release_conn_direct_index
                0x00005c74       0x18
 i.ll_release_conn_direct_index
                0x00005c74       0x18 D:\program\CY8\PSoC Creator\3.2\PSoC Creator\psoc\content\cycomponentlibrary\CyComponentLibrary.cylib\BLE_v2_0\Library\gccCyBLEStack_BLE_SOC_PERIPHERAL.a(ll_connection.o)
                0x00005c74                ll_release_conn_direct_index

i.ll_resume_data_tx_fifo_index
                0x00005c8c       0x98
 i.ll_resume_data_tx_fifo_index
                0x00005c8c       0x98 D:\program\CY8\PSoC Creator\3.2\PSoC Creator\psoc\content\cycomponentlibrary\CyComponentLibrary.cylib\BLE_v2_0\Library\gccCyBLEStack_BLE_SOC_PERIPHERAL.a(ll_connection.o)
                0x00005c8c                ll_resume_data_tx_fifo_index

i.ll_retrieve_conneciton_in_state
                0x00005d24       0x2c
 i.ll_retrieve_conneciton_in_state
                0x00005d24       0x2c D:\program\CY8\PSoC Creator\3.2\PSoC Creator\psoc\content\cycomponentlibrary\CyComponentLibrary.cylib\BLE_v2_0\Library\gccCyBLEStack_BLE_SOC_PERIPHERAL.a(ll_connection.o)
                0x00005d24                ll_retrieve_conneciton_in_state

i.ll_retrieve_connectable_adv_conneciton
                0x00005d50        0xa
 i.ll_retrieve_connectable_adv_conneciton
                0x00005d50        0xa D:\program\CY8\PSoC Creator\3.2\PSoC Creator\psoc\content\cycomponentlibrary\CyComponentLibrary.cylib\BLE_v2_0\Library\gccCyBLEStack_BLE_SOC_PERIPHERAL.a(ll_connection.o)
                0x00005d50                ll_retrieve_connectable_adv_conneciton

i.ll_send_ltk_req_event_to_host
                0x00005d5a       0x1e
 i.ll_send_ltk_req_event_to_host
                0x00005d5a       0x1e D:\program\CY8\PSoC Creator\3.2\PSoC Creator\psoc\content\cycomponentlibrary\CyComponentLibrary.cylib\BLE_v2_0\Library\gccCyBLEStack_BLE_SOC_PERIPHERAL.a(ll_connection.o)
                0x00005d5a                ll_send_ltk_req_event_to_host

i.ll_send_pdu   0x00005d78       0xd4
 i.ll_send_pdu  0x00005d78       0xd4 D:\program\CY8\PSoC Creator\3.2\PSoC Creator\psoc\content\cycomponentlibrary\CyComponentLibrary.cylib\BLE_v2_0\Library\gccCyBLEStack_BLE_SOC_PERIPHERAL.a(ll_connection.o)
                0x00005d78                ll_send_pdu

i.ll_update_md_bit
                0x00005e4c       0x34
 i.ll_update_md_bit
                0x00005e4c       0x34 D:\program\CY8\PSoC Creator\3.2\PSoC Creator\psoc\content\cycomponentlibrary\CyComponentLibrary.cylib\BLE_v2_0\Library\gccCyBLEStack_BLE_SOC_PERIPHERAL.a(ll_connection.o)
                0x00005e4c                ll_update_md_bit

i.ll_update_quick_transmit
                0x00005e80       0x3c
 i.ll_update_quick_transmit
                0x00005e80       0x3c D:\program\CY8\PSoC Creator\3.2\PSoC Creator\psoc\content\cycomponentlibrary\CyComponentLibrary.cylib\BLE_v2_0\Library\gccCyBLEStack_BLE_SOC_PERIPHERAL.a(ll_connection.o)
                0x00005e80                ll_update_quick_transmit

i.ll_clear_interrupt
                0x00005ebc       0x24
 i.ll_clear_interrupt
                0x00005ebc       0x24 D:\program\CY8\PSoC Creator\3.2\PSoC Creator\psoc\content\cycomponentlibrary\CyComponentLibrary.cylib\BLE_v2_0\Library\gccCyBLEStack_BLE_SOC_PERIPHERAL.a(llh_api.o)
                0x00005ebc                ll_clear_interrupt

i.ll_clear_interrupt_type
                0x00005ee0        0xc
 i.ll_clear_interrupt_type
                0x00005ee0        0xc D:\program\CY8\PSoC Creator\3.2\PSoC Creator\psoc\content\cycomponentlibrary\CyComponentLibrary.cylib\BLE_v2_0\Library\gccCyBLEStack_BLE_SOC_PERIPHERAL.a(llh_api.o)
                0x00005ee0                ll_clear_interrupt_type

i.ll_disable_interrupt
                0x00005eec       0x30
 i.ll_disable_interrupt
                0x00005eec       0x30 D:\program\CY8\PSoC Creator\3.2\PSoC Creator\psoc\content\cycomponentlibrary\CyComponentLibrary.cylib\BLE_v2_0\Library\gccCyBLEStack_BLE_SOC_PERIPHERAL.a(llh_api.o)
                0x00005eec                ll_disable_interrupt

i.ll_disable_interrupt_type
                0x00005f1c       0x20
 i.ll_disable_interrupt_type
                0x00005f1c       0x20 D:\program\CY8\PSoC Creator\3.2\PSoC Creator\psoc\content\cycomponentlibrary\CyComponentLibrary.cylib\BLE_v2_0\Library\gccCyBLEStack_BLE_SOC_PERIPHERAL.a(llh_api.o)
                0x00005f1c                ll_disable_interrupt_type

i.ll_enable_interrupt
                0x00005f3c       0x38
 i.ll_enable_interrupt
                0x00005f3c       0x38 D:\program\CY8\PSoC Creator\3.2\PSoC Creator\psoc\content\cycomponentlibrary\CyComponentLibrary.cylib\BLE_v2_0\Library\gccCyBLEStack_BLE_SOC_PERIPHERAL.a(llh_api.o)
                0x00005f3c                ll_enable_interrupt

i.ll_enable_interrupt_type
                0x00005f74       0x20
 i.ll_enable_interrupt_type
                0x00005f74       0x20 D:\program\CY8\PSoC Creator\3.2\PSoC Creator\psoc\content\cycomponentlibrary\CyComponentLibrary.cylib\BLE_v2_0\Library\gccCyBLEStack_BLE_SOC_PERIPHERAL.a(llh_api.o)
                0x00005f74                ll_enable_interrupt_type

i.llh_add_device_in_whitelist
                0x00005f94       0x5e
 i.llh_add_device_in_whitelist
                0x00005f94       0x5e D:\program\CY8\PSoC Creator\3.2\PSoC Creator\psoc\content\cycomponentlibrary\CyComponentLibrary.cylib\BLE_v2_0\Library\gccCyBLEStack_BLE_SOC_PERIPHERAL.a(llh_api.o)
                0x00005f94                llh_add_device_in_whitelist

i.llh_calculate_instant
                0x00005ff2        0x6
 i.llh_calculate_instant
                0x00005ff2        0x6 D:\program\CY8\PSoC Creator\3.2\PSoC Creator\psoc\content\cycomponentlibrary\CyComponentLibrary.cylib\BLE_v2_0\Library\gccCyBLEStack_BLE_SOC_PERIPHERAL.a(llh_api.o)
                0x00005ff2                llh_calculate_instant

i.llh_ccm_config_mic_params
                0x00005ff8       0x14
 i.llh_ccm_config_mic_params
                0x00005ff8       0x14 D:\program\CY8\PSoC Creator\3.2\PSoC Creator\psoc\content\cycomponentlibrary\CyComponentLibrary.cylib\BLE_v2_0\Library\gccCyBLEStack_BLE_SOC_PERIPHERAL.a(llh_api.o)
                0x00005ff8                llh_ccm_config_mic_params

i.llh_ccm_load_initialization_vector
                0x0000600c       0x4c
 i.llh_ccm_load_initialization_vector
                0x0000600c       0x4c D:\program\CY8\PSoC Creator\3.2\PSoC Creator\psoc\content\cycomponentlibrary\CyComponentLibrary.cylib\BLE_v2_0\Library\gccCyBLEStack_BLE_SOC_PERIPHERAL.a(llh_api.o)
                0x0000600c                llh_ccm_load_initialization_vector

i.llh_ccm_load_pkt_counter
                0x00006058       0x28
 i.llh_ccm_load_pkt_counter
                0x00006058       0x28 D:\program\CY8\PSoC Creator\3.2\PSoC Creator\psoc\content\cycomponentlibrary\CyComponentLibrary.cylib\BLE_v2_0\Library\gccCyBLEStack_BLE_SOC_PERIPHERAL.a(llh_api.o)
                0x00006058                llh_ccm_load_pkt_counter

i.llh_cleanup_adv_scan_resp_data
                0x00006080       0x16
 i.llh_cleanup_adv_scan_resp_data
                0x00006080       0x16 D:\program\CY8\PSoC Creator\3.2\PSoC Creator\psoc\content\cycomponentlibrary\CyComponentLibrary.cylib\BLE_v2_0\Library\gccCyBLEStack_BLE_SOC_PERIPHERAL.a(llh_api.o)
                0x00006080                llh_cleanup_adv_scan_resp_data

i.llh_clear_ack
                0x00006096       0x18
 i.llh_clear_ack
                0x00006096       0x18 D:\program\CY8\PSoC Creator\3.2\PSoC Creator\psoc\content\cycomponentlibrary\CyComponentLibrary.cylib\BLE_v2_0\Library\gccCyBLEStack_BLE_SOC_PERIPHERAL.a(llh_api.o)
                0x00006096                llh_clear_ack

i.llh_clear_exit_sm
                0x000060ae        0x2
 i.llh_clear_exit_sm
                0x000060ae        0x2 D:\program\CY8\PSoC Creator\3.2\PSoC Creator\psoc\content\cycomponentlibrary\CyComponentLibrary.cylib\BLE_v2_0\Library\gccCyBLEStack_BLE_SOC_PERIPHERAL.a(llh_api.o)
                0x000060ae                llh_clear_exit_sm

i.llh_clear_fifo_descriptor
                0x000060b0       0x1a
 i.llh_clear_fifo_descriptor
                0x000060b0       0x1a D:\program\CY8\PSoC Creator\3.2\PSoC Creator\psoc\content\cycomponentlibrary\CyComponentLibrary.cylib\BLE_v2_0\Library\gccCyBLEStack_BLE_SOC_PERIPHERAL.a(llh_api.o)
                0x000060b0                llh_clear_fifo_descriptor

i.llh_clear_pkt
                0x000060ca       0x14
 i.llh_clear_pkt
                0x000060ca       0x14 D:\program\CY8\PSoC Creator\3.2\PSoC Creator\psoc\content\cycomponentlibrary\CyComponentLibrary.cylib\BLE_v2_0\Library\gccCyBLEStack_BLE_SOC_PERIPHERAL.a(llh_api.o)
                0x000060ca                llh_clear_pkt

i.llh_clear_sent_status
                0x000060de       0x18
 i.llh_clear_sent_status
                0x000060de       0x18 D:\program\CY8\PSoC Creator\3.2\PSoC Creator\psoc\content\cycomponentlibrary\CyComponentLibrary.cylib\BLE_v2_0\Library\gccCyBLEStack_BLE_SOC_PERIPHERAL.a(llh_api.o)
                0x000060de                llh_clear_sent_status

i.llh_config_conn_as_slave
                0x000060f6       0x18
 i.llh_config_conn_as_slave
                0x000060f6       0x18 D:\program\CY8\PSoC Creator\3.2\PSoC Creator\psoc\content\cycomponentlibrary\CyComponentLibrary.cylib\BLE_v2_0\Library\gccCyBLEStack_BLE_SOC_PERIPHERAL.a(llh_api.o)
                0x000060f6                llh_config_conn_as_slave

i.llh_config_wkup_instant
                0x0000610e        0xc
 i.llh_config_wkup_instant
                0x0000610e        0xc D:\program\CY8\PSoC Creator\3.2\PSoC Creator\psoc\content\cycomponentlibrary\CyComponentLibrary.cylib\BLE_v2_0\Library\gccCyBLEStack_BLE_SOC_PERIPHERAL.a(llh_api.o)
                0x0000610e                llh_config_wkup_instant

i.llh_decrement_rx_packet_count
                0x0000611a        0xe
 i.llh_decrement_rx_packet_count
                0x0000611a        0xe D:\program\CY8\PSoC Creator\3.2\PSoC Creator\psoc\content\cycomponentlibrary\CyComponentLibrary.cylib\BLE_v2_0\Library\gccCyBLEStack_BLE_SOC_PERIPHERAL.a(llh_api.o)
                0x0000611a                llh_decrement_rx_packet_count

i.llh_enable_authenticated_timer
                0x00006128       0x40
 i.llh_enable_authenticated_timer
                0x00006128       0x40 D:\program\CY8\PSoC Creator\3.2\PSoC Creator\psoc\content\cycomponentlibrary\CyComponentLibrary.cylib\BLE_v2_0\Library\gccCyBLEStack_BLE_SOC_PERIPHERAL.a(llh_api.o)
                0x00006128                llh_enable_authenticated_timer

i.llh_enc_clk_off
                0x00006168        0xc
 i.llh_enc_clk_off
                0x00006168        0xc D:\program\CY8\PSoC Creator\3.2\PSoC Creator\psoc\content\cycomponentlibrary\CyComponentLibrary.cylib\BLE_v2_0\Library\gccCyBLEStack_BLE_SOC_PERIPHERAL.a(llh_api.o)
                0x00006168                llh_enc_clk_off

i.llh_enc_clk_on
                0x00006174        0xc
 i.llh_enc_clk_on
                0x00006174        0xc D:\program\CY8\PSoC Creator\3.2\PSoC Creator\psoc\content\cycomponentlibrary\CyComponentLibrary.cylib\BLE_v2_0\Library\gccCyBLEStack_BLE_SOC_PERIPHERAL.a(llh_api.o)
                0x00006174                llh_enc_clk_on

i.llh_enter_critical_section
                0x00006180       0x14
 i.llh_enter_critical_section
                0x00006180       0x14 D:\program\CY8\PSoC Creator\3.2\PSoC Creator\psoc\content\cycomponentlibrary\CyComponentLibrary.cylib\BLE_v2_0\Library\gccCyBLEStack_BLE_SOC_PERIPHERAL.a(llh_api.o)
                0x00006180                llh_enter_critical_section

i.llh_enter_dsm
                0x00006194        0xc
 i.llh_enter_dsm
                0x00006194        0xc D:\program\CY8\PSoC Creator\3.2\PSoC Creator\psoc\content\cycomponentlibrary\CyComponentLibrary.cylib\BLE_v2_0\Library\gccCyBLEStack_BLE_SOC_PERIPHERAL.a(llh_api.o)
                0x00006194                llh_enter_dsm

i.llh_enter_sm  0x000061a0       0x2c
 i.llh_enter_sm
                0x000061a0       0x2c D:\program\CY8\PSoC Creator\3.2\PSoC Creator\psoc\content\cycomponentlibrary\CyComponentLibrary.cylib\BLE_v2_0\Library\gccCyBLEStack_BLE_SOC_PERIPHERAL.a(llh_api.o)
                0x000061a0                llh_enter_sm

i.llh_exit_critical_section
                0x000061cc       0x10
 i.llh_exit_critical_section
                0x000061cc       0x10 D:\program\CY8\PSoC Creator\3.2\PSoC Creator\psoc\content\cycomponentlibrary\CyComponentLibrary.cylib\BLE_v2_0\Library\gccCyBLEStack_BLE_SOC_PERIPHERAL.a(llh_api.o)
                0x000061cc                llh_exit_critical_section

i.llh_exit_dsm  0x000061dc        0x8
 i.llh_exit_dsm
                0x000061dc        0x8 D:\program\CY8\PSoC Creator\3.2\PSoC Creator\psoc\content\cycomponentlibrary\CyComponentLibrary.cylib\BLE_v2_0\Library\gccCyBLEStack_BLE_SOC_PERIPHERAL.a(llh_api.o)
                0x000061dc                llh_exit_dsm

i.llh_exit_sm   0x000061e4        0xc
 i.llh_exit_sm  0x000061e4        0xc D:\program\CY8\PSoC Creator\3.2\PSoC Creator\psoc\content\cycomponentlibrary\CyComponentLibrary.cylib\BLE_v2_0\Library\gccCyBLEStack_BLE_SOC_PERIPHERAL.a(llh_api.o)
                0x000061e4                llh_exit_sm

i.llh_get_abs_distance_to_instant
                0x000061f0       0x14
 i.llh_get_abs_distance_to_instant
                0x000061f0       0x14 D:\program\CY8\PSoC Creator\3.2\PSoC Creator\psoc\content\cycomponentlibrary\CyComponentLibrary.cylib\BLE_v2_0\Library\gccCyBLEStack_BLE_SOC_PERIPHERAL.a(llh_api.o)
                0x000061f0                llh_get_abs_distance_to_instant

i.llh_get_adv_connection_index
                0x00006204       0x12
 i.llh_get_adv_connection_index
                0x00006204       0x12 D:\program\CY8\PSoC Creator\3.2\PSoC Creator\psoc\content\cycomponentlibrary\CyComponentLibrary.cylib\BLE_v2_0\Library\gccCyBLEStack_BLE_SOC_PERIPHERAL.a(llh_api.o)
                0x00006204                llh_get_adv_connection_index

i.llh_get_ce_index
                0x00006216        0xc
 i.llh_get_ce_index
                0x00006216        0xc D:\program\CY8\PSoC Creator\3.2\PSoC Creator\psoc\content\cycomponentlibrary\CyComponentLibrary.cylib\BLE_v2_0\Library\gccCyBLEStack_BLE_SOC_PERIPHERAL.a(llh_api.o)
                0x00006216                llh_get_ce_index

i.llh_get_conn_params
                0x00006222       0x42
 i.llh_get_conn_params
                0x00006222       0x42 D:\program\CY8\PSoC Creator\3.2\PSoC Creator\psoc\content\cycomponentlibrary\CyComponentLibrary.cylib\BLE_v2_0\Library\gccCyBLEStack_BLE_SOC_PERIPHERAL.a(llh_api.o)
                0x00006222                llh_get_conn_params

i.llh_get_current_instant_clk
                0x00006264        0xa
 i.llh_get_current_instant_clk
                0x00006264        0xa D:\program\CY8\PSoC Creator\3.2\PSoC Creator\psoc\content\cycomponentlibrary\CyComponentLibrary.cylib\BLE_v2_0\Library\gccCyBLEStack_BLE_SOC_PERIPHERAL.a(llh_api.o)
                0x00006264                llh_get_current_instant_clk

i.llh_get_device_address
                0x0000626e       0x50
 i.llh_get_device_address
                0x0000626e       0x50 D:\program\CY8\PSoC Creator\3.2\PSoC Creator\psoc\content\cycomponentlibrary\CyComponentLibrary.cylib\BLE_v2_0\Library\gccCyBLEStack_BLE_SOC_PERIPHERAL.a(llh_api.o)
                0x0000626e                llh_get_device_address

i.llh_get_distance_to_instant
                0x000062c0       0x10
 i.llh_get_distance_to_instant
                0x000062c0       0x10 D:\program\CY8\PSoC Creator\3.2\PSoC Creator\psoc\content\cycomponentlibrary\CyComponentLibrary.cylib\BLE_v2_0\Library\gccCyBLEStack_BLE_SOC_PERIPHERAL.a(llh_api.o)
                0x000062c0                llh_get_distance_to_instant

i.llh_get_distance_to_instant_with_max_limit
                0x000062d0       0x14
 i.llh_get_distance_to_instant_with_max_limit
                0x000062d0       0x14 D:\program\CY8\PSoC Creator\3.2\PSoC Creator\psoc\content\cycomponentlibrary\CyComponentLibrary.cylib\BLE_v2_0\Library\gccCyBLEStack_BLE_SOC_PERIPHERAL.a(llh_api.o)
                0x000062d0                llh_get_distance_to_instant_with_max_limit

i.llh_get_lmp_pdu_rsp_instant
                0x000062e4       0x18
 i.llh_get_lmp_pdu_rsp_instant
                0x000062e4       0x18 D:\program\CY8\PSoC Creator\3.2\PSoC Creator\psoc\content\cycomponentlibrary\CyComponentLibrary.cylib\BLE_v2_0\Library\gccCyBLEStack_BLE_SOC_PERIPHERAL.a(llh_api.o)
                0x000062e4                llh_get_lmp_pdu_rsp_instant

i.llh_get_next_adv_instant
                0x000062fc        0xa
 i.llh_get_next_adv_instant
                0x000062fc        0xa D:\program\CY8\PSoC Creator\3.2\PSoC Creator\psoc\content\cycomponentlibrary\CyComponentLibrary.cylib\BLE_v2_0\Library\gccCyBLEStack_BLE_SOC_PERIPHERAL.a(llh_api.o)
                0x000062fc                llh_get_next_adv_instant

i.llh_get_next_connection_instant
                0x00006306       0x14
 i.llh_get_next_connection_instant
                0x00006306       0x14 D:\program\CY8\PSoC Creator\3.2\PSoC Creator\psoc\content\cycomponentlibrary\CyComponentLibrary.cylib\BLE_v2_0\Library\gccCyBLEStack_BLE_SOC_PERIPHERAL.a(llh_api.o)
                0x00006306                llh_get_next_connection_instant

i.llh_get_peer_address
                0x0000631a       0x2e
 i.llh_get_peer_address
                0x0000631a       0x2e D:\program\CY8\PSoC Creator\3.2\PSoC Creator\psoc\content\cycomponentlibrary\CyComponentLibrary.cylib\BLE_v2_0\Library\gccCyBLEStack_BLE_SOC_PERIPHERAL.a(llh_api.o)
                0x0000631a                llh_get_peer_address

i.llh_get_peer_address_type
                0x00006348       0x20
 i.llh_get_peer_address_type
                0x00006348       0x20 D:\program\CY8\PSoC Creator\3.2\PSoC Creator\psoc\content\cycomponentlibrary\CyComponentLibrary.cylib\BLE_v2_0\Library\gccCyBLEStack_BLE_SOC_PERIPHERAL.a(llh_api.o)
                0x00006348                llh_get_peer_address_type

i.llh_get_ping_timer_next_exp
                0x00006368       0x18
 i.llh_get_ping_timer_next_exp
                0x00006368       0x18 D:\program\CY8\PSoC Creator\3.2\PSoC Creator\psoc\content\cycomponentlibrary\CyComponentLibrary.cylib\BLE_v2_0\Library\gccCyBLEStack_BLE_SOC_PERIPHERAL.a(llh_api.o)
                0x00006368                llh_get_ping_timer_next_exp

i.llh_get_rx_fifo_address
                0x00006380        0x6
 i.llh_get_rx_fifo_address
                0x00006380        0x6 D:\program\CY8\PSoC Creator\3.2\PSoC Creator\psoc\content\cycomponentlibrary\CyComponentLibrary.cylib\BLE_v2_0\Library\gccCyBLEStack_BLE_SOC_PERIPHERAL.a(llh_api.o)
                0x00006380                llh_get_rx_fifo_address

i.llh_get_supervision_timer_instant
                0x00006388       0x18
 i.llh_get_supervision_timer_instant
                0x00006388       0x18 D:\program\CY8\PSoC Creator\3.2\PSoC Creator\psoc\content\cycomponentlibrary\CyComponentLibrary.cylib\BLE_v2_0\Library\gccCyBLEStack_BLE_SOC_PERIPHERAL.a(llh_api.o)
                0x00006388                llh_get_supervision_timer_instant

i.llh_get_tx_fifo_address
                0x000063a0       0x16
 i.llh_get_tx_fifo_address
                0x000063a0       0x16 D:\program\CY8\PSoC Creator\3.2\PSoC Creator\psoc\content\cycomponentlibrary\CyComponentLibrary.cylib\BLE_v2_0\Library\gccCyBLEStack_BLE_SOC_PERIPHERAL.a(llh_api.o)
                0x000063a0                llh_get_tx_fifo_address

i.llh_handle_slave_conn_created_ind
                0x000063b8       0x24
 i.llh_handle_slave_conn_created_ind
                0x000063b8       0x24 D:\program\CY8\PSoC Creator\3.2\PSoC Creator\psoc\content\cycomponentlibrary\CyComponentLibrary.cylib\BLE_v2_0\Library\gccCyBLEStack_BLE_SOC_PERIPHERAL.a(llh_api.o)
                0x000063b8                llh_handle_slave_conn_created_ind

i.llh_initialize_tx_fifo_index
                0x000063dc       0x2c
 i.llh_initialize_tx_fifo_index
                0x000063dc       0x2c D:\program\CY8\PSoC Creator\3.2\PSoC Creator\psoc\content\cycomponentlibrary\CyComponentLibrary.cylib\BLE_v2_0\Library\gccCyBLEStack_BLE_SOC_PERIPHERAL.a(llh_api.o)
                0x000063dc                llh_initialize_tx_fifo_index

i.llh_is_conn_instant_passed
                0x00006408       0x1e
 i.llh_is_conn_instant_passed
                0x00006408       0x1e D:\program\CY8\PSoC Creator\3.2\PSoC Creator\psoc\content\cycomponentlibrary\CyComponentLibrary.cylib\BLE_v2_0\Library\gccCyBLEStack_BLE_SOC_PERIPHERAL.a(llh_api.o)
                0x00006408                llh_is_conn_instant_passed

i.llh_is_instant_passed
                0x00006428       0x2c
 i.llh_is_instant_passed
                0x00006428       0x2c D:\program\CY8\PSoC Creator\3.2\PSoC Creator\psoc\content\cycomponentlibrary\CyComponentLibrary.cylib\BLE_v2_0\Library\gccCyBLEStack_BLE_SOC_PERIPHERAL.a(llh_api.o)
                0x00006428                llh_is_instant_passed

i.llh_is_llh_inactive
                0x00006454        0xe
 i.llh_is_llh_inactive
                0x00006454        0xe D:\program\CY8\PSoC Creator\3.2\PSoC Creator\psoc\content\cycomponentlibrary\CyComponentLibrary.cylib\BLE_v2_0\Library\gccCyBLEStack_BLE_SOC_PERIPHERAL.a(llh_api.o)
                0x00006454                llh_is_llh_inactive

i.llh_is_ping_timer_next_exp_valid
                0x00006464       0x14
 i.llh_is_ping_timer_next_exp_valid
                0x00006464       0x14 D:\program\CY8\PSoC Creator\3.2\PSoC Creator\psoc\content\cycomponentlibrary\CyComponentLibrary.cylib\BLE_v2_0\Library\gccCyBLEStack_BLE_SOC_PERIPHERAL.a(llh_api.o)
                0x00006464                llh_is_ping_timer_next_exp_valid

i.llh_load_channel_map
                0x00006478       0x48
 i.llh_load_channel_map
                0x00006478       0x48 D:\program\CY8\PSoC Creator\3.2\PSoC Creator\psoc\content\cycomponentlibrary\CyComponentLibrary.cylib\BLE_v2_0\Library\gccCyBLEStack_BLE_SOC_PERIPHERAL.a(llh_api.o)
                0x00006478                llh_load_channel_map

i.llh_load_data_to_connection_fifo
                0x000064c0       0x28
 i.llh_load_data_to_connection_fifo
                0x000064c0       0x28 D:\program\CY8\PSoC Creator\3.2\PSoC Creator\psoc\content\cycomponentlibrary\CyComponentLibrary.cylib\BLE_v2_0\Library\gccCyBLEStack_BLE_SOC_PERIPHERAL.a(llh_api.o)
                0x000064c0                llh_load_data_to_connection_fifo

i.llh_load_encryption_engine_input
                0x000064e8       0x22
 i.llh_load_encryption_engine_input
                0x000064e8       0x22 D:\program\CY8\PSoC Creator\3.2\PSoC Creator\psoc\content\cycomponentlibrary\CyComponentLibrary.cylib\BLE_v2_0\Library\gccCyBLEStack_BLE_SOC_PERIPHERAL.a(llh_api.o)
                0x000064e8                llh_load_encryption_engine_input

i.llh_load_encryption_key
                0x0000650a       0x1a
 i.llh_load_encryption_key
                0x0000650a       0x1a D:\program\CY8\PSoC Creator\3.2\PSoC Creator\psoc\content\cycomponentlibrary\CyComponentLibrary.cylib\BLE_v2_0\Library\gccCyBLEStack_BLE_SOC_PERIPHERAL.a(llh_api.o)
                0x0000650a                llh_load_encryption_key

i.llh_load_mic_input
                0x00006524       0x28
 i.llh_load_mic_input
                0x00006524       0x28 D:\program\CY8\PSoC Creator\3.2\PSoC Creator\psoc\content\cycomponentlibrary\CyComponentLibrary.cylib\BLE_v2_0\Library\gccCyBLEStack_BLE_SOC_PERIPHERAL.a(llh_api.o)
                0x00006524                llh_load_mic_input

i.llh_mark_packet_for_transmission
                0x0000654c       0x1c
 i.llh_mark_packet_for_transmission
                0x0000654c       0x1c D:\program\CY8\PSoC Creator\3.2\PSoC Creator\psoc\content\cycomponentlibrary\CyComponentLibrary.cylib\BLE_v2_0\Library\gccCyBLEStack_BLE_SOC_PERIPHERAL.a(llh_api.o)
                0x0000654c                llh_mark_packet_for_transmission

i.llh_pause_tx_fifo_index
                0x00006568       0x2a
 i.llh_pause_tx_fifo_index
                0x00006568       0x2a D:\program\CY8\PSoC Creator\3.2\PSoC Creator\psoc\content\cycomponentlibrary\CyComponentLibrary.cylib\BLE_v2_0\Library\gccCyBLEStack_BLE_SOC_PERIPHERAL.a(llh_api.o)
                0x00006568                llh_pause_tx_fifo_index

i.llh_process_encryption_engine_cmd
                0x00006592       0x56
 i.llh_process_encryption_engine_cmd
                0x00006592       0x56 D:\program\CY8\PSoC Creator\3.2\PSoC Creator\psoc\content\cycomponentlibrary\CyComponentLibrary.cylib\BLE_v2_0\Library\gccCyBLEStack_BLE_SOC_PERIPHERAL.a(llh_api.o)
                0x00006592                llh_process_encryption_engine_cmd

i.llh_program_authenticated_timer
                0x000065e8       0x3c
 i.llh_program_authenticated_timer
                0x000065e8       0x3c D:\program\CY8\PSoC Creator\3.2\PSoC Creator\psoc\content\cycomponentlibrary\CyComponentLibrary.cylib\BLE_v2_0\Library\gccCyBLEStack_BLE_SOC_PERIPHERAL.a(llh_api.o)
                0x000065e8                llh_program_authenticated_timer

i.llh_program_channel_map_instant
                0x00006624       0x24
 i.llh_program_channel_map_instant
                0x00006624       0x24 D:\program\CY8\PSoC Creator\3.2\PSoC Creator\psoc\content\cycomponentlibrary\CyComponentLibrary.cylib\BLE_v2_0\Library\gccCyBLEStack_BLE_SOC_PERIPHERAL.a(llh_api.o)
                0x00006624                llh_program_channel_map_instant

i.llh_program_connection_update_instant
                0x00006648       0x26
 i.llh_program_connection_update_instant
                0x00006648       0x26 D:\program\CY8\PSoC Creator\3.2\PSoC Creator\psoc\content\cycomponentlibrary\CyComponentLibrary.cylib\BLE_v2_0\Library\gccCyBLEStack_BLE_SOC_PERIPHERAL.a(llh_api.o)
                0x00006648                llh_program_connection_update_instant

i.llh_program_window_widen_interval
                0x00006670       0x1c
 i.llh_program_window_widen_interval
                0x00006670       0x1c D:\program\CY8\PSoC Creator\3.2\PSoC Creator\psoc\content\cycomponentlibrary\CyComponentLibrary.cylib\BLE_v2_0\Library\gccCyBLEStack_BLE_SOC_PERIPHERAL.a(llh_api.o)
                0x00006670                llh_program_window_widen_interval

i.llh_program_window_widen_winoffset
                0x0000668c       0x1c
 i.llh_program_window_widen_winoffset
                0x0000668c       0x1c D:\program\CY8\PSoC Creator\3.2\PSoC Creator\psoc\content\cycomponentlibrary\CyComponentLibrary.cylib\BLE_v2_0\Library\gccCyBLEStack_BLE_SOC_PERIPHERAL.a(llh_api.o)
                0x0000668c                llh_program_window_widen_winoffset

i.llh_read_channel_map
                0x000066a8       0x3c
 i.llh_read_channel_map
                0x000066a8       0x3c D:\program\CY8\PSoC Creator\3.2\PSoC Creator\psoc\content\cycomponentlibrary\CyComponentLibrary.cylib\BLE_v2_0\Library\gccCyBLEStack_BLE_SOC_PERIPHERAL.a(llh_api.o)
                0x000066a8                llh_read_channel_map

i.llh_read_encryption_engine_output
                0x000066e4       0x1c
 i.llh_read_encryption_engine_output
                0x000066e4       0x1c D:\program\CY8\PSoC Creator\3.2\PSoC Creator\psoc\content\cycomponentlibrary\CyComponentLibrary.cylib\BLE_v2_0\Library\gccCyBLEStack_BLE_SOC_PERIPHERAL.a(llh_api.o)
                0x000066e4                llh_read_encryption_engine_output

i.llh_read_mic_output
                0x00006700       0x28
 i.llh_read_mic_output
                0x00006700       0x28 D:\program\CY8\PSoC Creator\3.2\PSoC Creator\psoc\content\cycomponentlibrary\CyComponentLibrary.cylib\BLE_v2_0\Library\gccCyBLEStack_BLE_SOC_PERIPHERAL.a(llh_api.o)
                0x00006700                llh_read_mic_output

i.llh_remove_device_from_white_list
                0x00006728       0x12
 i.llh_remove_device_from_white_list
                0x00006728       0x12 D:\program\CY8\PSoC Creator\3.2\PSoC Creator\psoc\content\cycomponentlibrary\CyComponentLibrary.cylib\BLE_v2_0\Library\gccCyBLEStack_BLE_SOC_PERIPHERAL.a(llh_api.o)
                0x00006728                llh_remove_device_from_white_list

i.llh_reset     0x0000673c      0x110
 i.llh_reset    0x0000673c      0x110 D:\program\CY8\PSoC Creator\3.2\PSoC Creator\psoc\content\cycomponentlibrary\CyComponentLibrary.cylib\BLE_v2_0\Library\gccCyBLEStack_BLE_SOC_PERIPHERAL.a(llh_api.o)
                0x0000673c                llh_reset

i.llh_reset_whitelist
                0x0000684c       0x1c
 i.llh_reset_whitelist
                0x0000684c       0x1c D:\program\CY8\PSoC Creator\3.2\PSoC Creator\psoc\content\cycomponentlibrary\CyComponentLibrary.cylib\BLE_v2_0\Library\gccCyBLEStack_BLE_SOC_PERIPHERAL.a(llh_api.o)
                0x0000684c                llh_reset_whitelist

i.llh_resume_data_transfer
                0x00006868       0x34
 i.llh_resume_data_transfer
                0x00006868       0x34 D:\program\CY8\PSoC Creator\3.2\PSoC Creator\psoc\content\cycomponentlibrary\CyComponentLibrary.cylib\BLE_v2_0\Library\gccCyBLEStack_BLE_SOC_PERIPHERAL.a(llh_api.o)
                0x00006868                llh_resume_data_transfer

i.llh_search_whitelist_for_dup_entry
                0x0000689c       0xa8
 i.llh_search_whitelist_for_dup_entry
                0x0000689c       0xa8 D:\program\CY8\PSoC Creator\3.2\PSoC Creator\psoc\content\cycomponentlibrary\CyComponentLibrary.cylib\BLE_v2_0\Library\gccCyBLEStack_BLE_SOC_PERIPHERAL.a(llh_api.o)
                0x0000689c                llh_search_whitelist_for_dup_entry

i.llh_search_whitelist_for_free_index
                0x00006944       0x30
 i.llh_search_whitelist_for_free_index
                0x00006944       0x30 D:\program\CY8\PSoC Creator\3.2\PSoC Creator\psoc\content\cycomponentlibrary\CyComponentLibrary.cylib\BLE_v2_0\Library\gccCyBLEStack_BLE_SOC_PERIPHERAL.a(llh_api.o)
                0x00006944                llh_search_whitelist_for_free_index

i.llh_set_adv_connection_index
                0x00006974       0x1e
 i.llh_set_adv_connection_index
                0x00006974       0x1e D:\program\CY8\PSoC Creator\3.2\PSoC Creator\psoc\content\cycomponentlibrary\CyComponentLibrary.cylib\BLE_v2_0\Library\gccCyBLEStack_BLE_SOC_PERIPHERAL.a(llh_api.o)
                0x00006974                llh_set_adv_connection_index

i.llh_set_adv_data
                0x00006992       0x1c
 i.llh_set_adv_data
                0x00006992       0x1c D:\program\CY8\PSoC Creator\3.2\PSoC Creator\psoc\content\cycomponentlibrary\CyComponentLibrary.cylib\BLE_v2_0\Library\gccCyBLEStack_BLE_SOC_PERIPHERAL.a(llh_api.o)
                0x00006992                llh_set_adv_data

i.llh_set_adv_parameters
                0x000069b0       0x48
 i.llh_set_adv_parameters
                0x000069b0       0x48 D:\program\CY8\PSoC Creator\3.2\PSoC Creator\psoc\content\cycomponentlibrary\CyComponentLibrary.cylib\BLE_v2_0\Library\gccCyBLEStack_BLE_SOC_PERIPHERAL.a(llh_api.o)
                0x000069b0                llh_set_adv_parameters

i.llh_set_advertise_disable
                0x000069f8       0x12
 i.llh_set_advertise_disable
                0x000069f8       0x12 D:\program\CY8\PSoC Creator\3.2\PSoC Creator\psoc\content\cycomponentlibrary\CyComponentLibrary.cylib\BLE_v2_0\Library\gccCyBLEStack_BLE_SOC_PERIPHERAL.a(llh_api.o)
                0x000069f8                llh_set_advertise_disable

i.llh_set_advertise_enable
                0x00006a0a       0x12
 i.llh_set_advertise_enable
                0x00006a0a       0x12 D:\program\CY8\PSoC Creator\3.2\PSoC Creator\psoc\content\cycomponentlibrary\CyComponentLibrary.cylib\BLE_v2_0\Library\gccCyBLEStack_BLE_SOC_PERIPHERAL.a(llh_api.o)
                0x00006a0a                llh_set_advertise_enable

i.llh_set_ce_length
                0x00006a1c       0x18
 i.llh_set_ce_length
                0x00006a1c       0x18 D:\program\CY8\PSoC Creator\3.2\PSoC Creator\psoc\content\cycomponentlibrary\CyComponentLibrary.cylib\BLE_v2_0\Library\gccCyBLEStack_BLE_SOC_PERIPHERAL.a(llh_api.o)
                0x00006a1c                llh_set_ce_length

i.llh_set_conn_update_parameters
                0x00006a34       0x3c
 i.llh_set_conn_update_parameters
                0x00006a34       0x3c D:\program\CY8\PSoC Creator\3.2\PSoC Creator\psoc\content\cycomponentlibrary\CyComponentLibrary.cylib\BLE_v2_0\Library\gccCyBLEStack_BLE_SOC_PERIPHERAL.a(llh_api.o)
                0x00006a34                llh_set_conn_update_parameters

i.llh_set_conn_window_parameters
                0x00006a70       0x20
 i.llh_set_conn_window_parameters
                0x00006a70       0x20 D:\program\CY8\PSoC Creator\3.2\PSoC Creator\psoc\content\cycomponentlibrary\CyComponentLibrary.cylib\BLE_v2_0\Library\gccCyBLEStack_BLE_SOC_PERIPHERAL.a(llh_api.o)
                0x00006a70                llh_set_conn_window_parameters

i.llh_set_device_address
                0x00006a90       0x36
 i.llh_set_device_address
                0x00006a90       0x36 D:\program\CY8\PSoC Creator\3.2\PSoC Creator\psoc\content\cycomponentlibrary\CyComponentLibrary.cylib\BLE_v2_0\Library\gccCyBLEStack_BLE_SOC_PERIPHERAL.a(llh_api.o)
                0x00006a90                llh_set_device_address

i.llh_set_llh_quick_tx_feature_config
                0x00006ac6       0x2a
 i.llh_set_llh_quick_tx_feature_config
                0x00006ac6       0x2a D:\program\CY8\PSoC Creator\3.2\PSoC Creator\psoc\content\cycomponentlibrary\CyComponentLibrary.cylib\BLE_v2_0\Library\gccCyBLEStack_BLE_SOC_PERIPHERAL.a(llh_api.o)
                0x00006ac6                llh_set_llh_quick_tx_feature_config

i.llh_set_peer_address
                0x00006af0       0x30
 i.llh_set_peer_address
                0x00006af0       0x30 D:\program\CY8\PSoC Creator\3.2\PSoC Creator\psoc\content\cycomponentlibrary\CyComponentLibrary.cylib\BLE_v2_0\Library\gccCyBLEStack_BLE_SOC_PERIPHERAL.a(llh_api.o)
                0x00006af0                llh_set_peer_address

i.llh_set_random_address
                0x00006b20       0x30
 i.llh_set_random_address
                0x00006b20       0x30 D:\program\CY8\PSoC Creator\3.2\PSoC Creator\psoc\content\cycomponentlibrary\CyComponentLibrary.cylib\BLE_v2_0\Library\gccCyBLEStack_BLE_SOC_PERIPHERAL.a(llh_api.o)
                0x00006b20                llh_set_random_address

i.llh_set_scan_resp_data
                0x00006b50       0x1c
 i.llh_set_scan_resp_data
                0x00006b50       0x1c D:\program\CY8\PSoC Creator\3.2\PSoC Creator\psoc\content\cycomponentlibrary\CyComponentLibrary.cylib\BLE_v2_0\Library\gccCyBLEStack_BLE_SOC_PERIPHERAL.a(llh_api.o)
                0x00006b50                llh_set_scan_resp_data

i.llh_set_sl_connection_interval
                0x00006b6c       0x1c
 i.llh_set_sl_connection_interval
                0x00006b6c       0x1c D:\program\CY8\PSoC Creator\3.2\PSoC Creator\psoc\content\cycomponentlibrary\CyComponentLibrary.cylib\BLE_v2_0\Library\gccCyBLEStack_BLE_SOC_PERIPHERAL.a(llh_api.o)
                0x00006b6c                llh_set_sl_connection_interval

i.llh_set_su_to
                0x00006b88       0x18
 i.llh_set_su_to
                0x00006b88       0x18 D:\program\CY8\PSoC Creator\3.2\PSoC Creator\psoc\content\cycomponentlibrary\CyComponentLibrary.cylib\BLE_v2_0\Library\gccCyBLEStack_BLE_SOC_PERIPHERAL.a(llh_api.o)
                0x00006b88                llh_set_su_to

i.llh_start_pdu_rsp_timer
                0x00006ba0       0x30
 i.llh_start_pdu_rsp_timer
                0x00006ba0       0x30 D:\program\CY8\PSoC Creator\3.2\PSoC Creator\psoc\content\cycomponentlibrary\CyComponentLibrary.cylib\BLE_v2_0\Library\gccCyBLEStack_BLE_SOC_PERIPHERAL.a(llh_api.o)
                0x00006ba0                llh_start_pdu_rsp_timer

i.llh_stop_pdu_rsp_timer
                0x00006bd0       0x18
 i.llh_stop_pdu_rsp_timer
                0x00006bd0       0x18 D:\program\CY8\PSoC Creator\3.2\PSoC Creator\psoc\content\cycomponentlibrary\CyComponentLibrary.cylib\BLE_v2_0\Library\gccCyBLEStack_BLE_SOC_PERIPHERAL.a(llh_api.o)
                0x00006bd0                llh_stop_pdu_rsp_timer

i.llh_terminate_connection
                0x00006be8       0x18
 i.llh_terminate_connection
                0x00006be8       0x18 D:\program\CY8\PSoC Creator\3.2\PSoC Creator\psoc\content\cycomponentlibrary\CyComponentLibrary.cylib\BLE_v2_0\Library\gccCyBLEStack_BLE_SOC_PERIPHERAL.a(llh_api.o)
                0x00006be8                llh_terminate_connection

i.llh_terminate_connection_after_tx
                0x00006c00       0x18
 i.llh_terminate_connection_after_tx
                0x00006c00       0x18 D:\program\CY8\PSoC Creator\3.2\PSoC Creator\psoc\content\cycomponentlibrary\CyComponentLibrary.cylib\BLE_v2_0\Library\gccCyBLEStack_BLE_SOC_PERIPHERAL.a(llh_api.o)
                0x00006c00                llh_terminate_connection_after_tx

i.llh_update_data_descriptor
                0x00006c18       0x38
 i.llh_update_data_descriptor
                0x00006c18       0x38 D:\program\CY8\PSoC Creator\3.2\PSoC Creator\psoc\content\cycomponentlibrary\CyComponentLibrary.cylib\BLE_v2_0\Library\gccCyBLEStack_BLE_SOC_PERIPHERAL.a(llh_api.o)
                0x00006c18                llh_update_data_descriptor

i.llh_update_dsm_offset_slots
                0x00006c50       0x1c
 i.llh_update_dsm_offset_slots
                0x00006c50       0x1c D:\program\CY8\PSoC Creator\3.2\PSoC Creator\psoc\content\cycomponentlibrary\CyComponentLibrary.cylib\BLE_v2_0\Library\gccCyBLEStack_BLE_SOC_PERIPHERAL.a(llh_api.o)
                0x00006c50                llh_update_dsm_offset_slots

i.llh_update_md_bit
                0x00006c6c       0x26
 i.llh_update_md_bit
                0x00006c6c       0x26 D:\program\CY8\PSoC Creator\3.2\PSoC Creator\psoc\content\cycomponentlibrary\CyComponentLibrary.cylib\BLE_v2_0\Library\gccCyBLEStack_BLE_SOC_PERIPHERAL.a(llh_api.o)
                0x00006c6c                llh_update_md_bit

i.llh_update_sl_dsm_feature
                0x00006c92       0x24
 i.llh_update_sl_dsm_feature
                0x00006c92       0x24 D:\program\CY8\PSoC Creator\3.2\PSoC Creator\psoc\content\cycomponentlibrary\CyComponentLibrary.cylib\BLE_v2_0\Library\gccCyBLEStack_BLE_SOC_PERIPHERAL.a(llh_api.o)
                0x00006c92                llh_update_sl_dsm_feature

i.llh_update_slave_latency
                0x00006cb6       0x36
 i.llh_update_slave_latency
                0x00006cb6       0x36 D:\program\CY8\PSoC Creator\3.2\PSoC Creator\psoc\content\cycomponentlibrary\CyComponentLibrary.cylib\BLE_v2_0\Library\gccCyBLEStack_BLE_SOC_PERIPHERAL.a(llh_api.o)
                0x00006cb6                llh_update_slave_latency

i.le_set_register_bit
                0x00006cec       0x16
 i.le_set_register_bit
                0x00006cec       0x16 D:\program\CY8\PSoC Creator\3.2\PSoC Creator\psoc\content\cycomponentlibrary\CyComponentLibrary.cylib\BLE_v2_0\Library\gccCyBLEStack_BLE_SOC_PERIPHERAL.a(llh_utils.o)
                0x00006cec                le_set_register_bit

i.le_write_register_field
                0x00006d02       0x30
 i.le_write_register_field
                0x00006d02       0x30 D:\program\CY8\PSoC Creator\3.2\PSoC Creator\psoc\content\cycomponentlibrary\CyComponentLibrary.cylib\BLE_v2_0\Library\gccCyBLEStack_BLE_SOC_PERIPHERAL.a(llh_utils.o)
                0x00006d02                le_write_register_field

i.llh_extract_llid_from_fifo_descriptor
                0x00006d34       0x10
 i.llh_extract_llid_from_fifo_descriptor
                0x00006d34       0x10 D:\program\CY8\PSoC Creator\3.2\PSoC Creator\psoc\content\cycomponentlibrary\CyComponentLibrary.cylib\BLE_v2_0\Library\gccCyBLEStack_BLE_SOC_PERIPHERAL.a(llh_utils.o)
                0x00006d34                llh_extract_llid_from_fifo_descriptor

i.llh_get_ack_status
                0x00006d44       0x14
 i.llh_get_ack_status
                0x00006d44       0x14 D:\program\CY8\PSoC Creator\3.2\PSoC Creator\psoc\content\cycomponentlibrary\CyComponentLibrary.cylib\BLE_v2_0\Library\gccCyBLEStack_BLE_SOC_PERIPHERAL.a(llh_utils.o)
                0x00006d44                llh_get_ack_status

i.llh_get_data_descriptor_address
                0x00006d58        0x8
 i.llh_get_data_descriptor_address
                0x00006d58        0x8 D:\program\CY8\PSoC Creator\3.2\PSoC Creator\psoc\content\cycomponentlibrary\CyComponentLibrary.cylib\BLE_v2_0\Library\gccCyBLEStack_BLE_SOC_PERIPHERAL.a(llh_utils.o)
                0x00006d58                llh_get_data_descriptor_address

i.llh_get_transmitted_opcode
                0x00006d60       0x14
 i.llh_get_transmitted_opcode
                0x00006d60       0x14 D:\program\CY8\PSoC Creator\3.2\PSoC Creator\psoc\content\cycomponentlibrary\CyComponentLibrary.cylib\BLE_v2_0\Library\gccCyBLEStack_BLE_SOC_PERIPHERAL.a(llh_utils.o)
                0x00006d60                llh_get_transmitted_opcode

i.llh_get_tx_sent_status
                0x00006d74       0x14
 i.llh_get_tx_sent_status
                0x00006d74       0x14 D:\program\CY8\PSoC Creator\3.2\PSoC Creator\psoc\content\cycomponentlibrary\CyComponentLibrary.cylib\BLE_v2_0\Library\gccCyBLEStack_BLE_SOC_PERIPHERAL.a(llh_utils.o)
                0x00006d74                llh_get_tx_sent_status

i.llh_read_opcode_of_acked_ll_pdu
                0x00006d88        0xe
 i.llh_read_opcode_of_acked_ll_pdu
                0x00006d88        0xe D:\program\CY8\PSoC Creator\3.2\PSoC Creator\psoc\content\cycomponentlibrary\CyComponentLibrary.cylib\BLE_v2_0\Library\gccCyBLEStack_BLE_SOC_PERIPHERAL.a(llh_utils.o)
                0x00006d88                llh_read_opcode_of_acked_ll_pdu

i.ll_allocate_send_unknown_rsp_pdu
                0x00006d96       0x20
 i.ll_allocate_send_unknown_rsp_pdu
                0x00006d96       0x20 D:\program\CY8\PSoC Creator\3.2\PSoC Creator\psoc\content\cycomponentlibrary\CyComponentLibrary.cylib\BLE_v2_0\Library\gccCyBLEStack_BLE_SOC_PERIPHERAL.a(ll_pdu.o)
                0x00006d96                ll_allocate_send_unknown_rsp_pdu

i.ll_configure_connection_for_disconnect
                0x00006db6       0x16
 i.ll_configure_connection_for_disconnect
                0x00006db6       0x16 D:\program\CY8\PSoC Creator\3.2\PSoC Creator\psoc\content\cycomponentlibrary\CyComponentLibrary.cylib\BLE_v2_0\Library\gccCyBLEStack_BLE_SOC_PERIPHERAL.a(ll_pdu.o)

i.ll_conn_dequeue_pending_pdu
                0x00006dcc       0x24
 i.ll_conn_dequeue_pending_pdu
                0x00006dcc       0x24 D:\program\CY8\PSoC Creator\3.2\PSoC Creator\psoc\content\cycomponentlibrary\CyComponentLibrary.cylib\BLE_v2_0\Library\gccCyBLEStack_BLE_SOC_PERIPHERAL.a(ll_pdu.o)
                0x00006dcc                ll_conn_dequeue_pending_pdu

i.ll_conn_enqueue_pending_pdu
                0x00006df0       0x24
 i.ll_conn_enqueue_pending_pdu
                0x00006df0       0x24 D:\program\CY8\PSoC Creator\3.2\PSoC Creator\psoc\content\cycomponentlibrary\CyComponentLibrary.cylib\BLE_v2_0\Library\gccCyBLEStack_BLE_SOC_PERIPHERAL.a(ll_pdu.o)
                0x00006df0                ll_conn_enqueue_pending_pdu

i.ll_conn_init_pending_pdu
                0x00006e14        0x8
 i.ll_conn_init_pending_pdu
                0x00006e14        0x8 D:\program\CY8\PSoC Creator\3.2\PSoC Creator\psoc\content\cycomponentlibrary\CyComponentLibrary.cylib\BLE_v2_0\Library\gccCyBLEStack_BLE_SOC_PERIPHERAL.a(ll_pdu.o)
                0x00006e14                ll_conn_init_pending_pdu

i.ll_conn_is_available_pending_pdu
                0x00006e1c        0xe
 i.ll_conn_is_available_pending_pdu
                0x00006e1c        0xe D:\program\CY8\PSoC Creator\3.2\PSoC Creator\psoc\content\cycomponentlibrary\CyComponentLibrary.cylib\BLE_v2_0\Library\gccCyBLEStack_BLE_SOC_PERIPHERAL.a(ll_pdu.o)
                0x00006e1c                ll_conn_is_available_pending_pdu

i.ll_generate_update_complete_event
                0x00006e2a       0x30
 i.ll_generate_update_complete_event
                0x00006e2a       0x30 D:\program\CY8\PSoC Creator\3.2\PSoC Creator\psoc\content\cycomponentlibrary\CyComponentLibrary.cylib\BLE_v2_0\Library\gccCyBLEStack_BLE_SOC_PERIPHERAL.a(ll_pdu.o)
                0x00006e2a                ll_generate_update_complete_event

i.ll_handle_ack_for_sending_pending_pdu
                0x00006e5c       0x2c
 i.ll_handle_ack_for_sending_pending_pdu
                0x00006e5c       0x2c D:\program\CY8\PSoC Creator\3.2\PSoC Creator\psoc\content\cycomponentlibrary\CyComponentLibrary.cylib\BLE_v2_0\Library\gccCyBLEStack_BLE_SOC_PERIPHERAL.a(ll_pdu.o)
                0x00006e5c                ll_handle_ack_for_sending_pending_pdu

i.ll_handle_channel_update_pdu
                0x00006e88       0x62
 i.ll_handle_channel_update_pdu
                0x00006e88       0x62 D:\program\CY8\PSoC Creator\3.2\PSoC Creator\psoc\content\cycomponentlibrary\CyComponentLibrary.cylib\BLE_v2_0\Library\gccCyBLEStack_BLE_SOC_PERIPHERAL.a(ll_pdu.o)
                0x00006e88                ll_handle_channel_update_pdu

i.ll_handle_conn_update_pdu
                0x00006eea       0xa0
 i.ll_handle_conn_update_pdu
                0x00006eea       0xa0 D:\program\CY8\PSoC Creator\3.2\PSoC Creator\psoc\content\cycomponentlibrary\CyComponentLibrary.cylib\BLE_v2_0\Library\gccCyBLEStack_BLE_SOC_PERIPHERAL.a(ll_pdu.o)
                0x00006eea                ll_handle_conn_update_pdu

i.ll_handle_encryption_request_pdu
                0x00006f8c       0xb8
 i.ll_handle_encryption_request_pdu
                0x00006f8c       0xb8 D:\program\CY8\PSoC Creator\3.2\PSoC Creator\psoc\content\cycomponentlibrary\CyComponentLibrary.cylib\BLE_v2_0\Library\gccCyBLEStack_BLE_SOC_PERIPHERAL.a(ll_pdu.o)
                0x00006f8c                ll_handle_encryption_request_pdu

i.ll_handle_encryption_response_pdu_ack
                0x00007044        0x8
 i.ll_handle_encryption_response_pdu_ack
                0x00007044        0x8 D:\program\CY8\PSoC Creator\3.2\PSoC Creator\psoc\content\cycomponentlibrary\CyComponentLibrary.cylib\BLE_v2_0\Library\gccCyBLEStack_BLE_SOC_PERIPHERAL.a(ll_pdu.o)
                0x00007044                ll_handle_encryption_response_pdu_ack

i.ll_handle_feature_request_pdu
                0x0000704c       0x60
 i.ll_handle_feature_request_pdu
                0x0000704c       0x60 D:\program\CY8\PSoC Creator\3.2\PSoC Creator\psoc\content\cycomponentlibrary\CyComponentLibrary.cylib\BLE_v2_0\Library\gccCyBLEStack_BLE_SOC_PERIPHERAL.a(ll_pdu.o)
                0x0000704c                ll_handle_feature_request_pdu

i.ll_handle_feature_response_pdu_ack
                0x000070ac        0x2
 i.ll_handle_feature_response_pdu_ack
                0x000070ac        0x2 D:\program\CY8\PSoC Creator\3.2\PSoC Creator\psoc\content\cycomponentlibrary\CyComponentLibrary.cylib\BLE_v2_0\Library\gccCyBLEStack_BLE_SOC_PERIPHERAL.a(ll_pdu.o)
                0x000070ac                ll_handle_feature_response_pdu_ack

i.ll_handle_incoming_ll_pdu
                0x000070b0       0x40
 i.ll_handle_incoming_ll_pdu
                0x000070b0       0x40 D:\program\CY8\PSoC Creator\3.2\PSoC Creator\psoc\content\cycomponentlibrary\CyComponentLibrary.cylib\BLE_v2_0\Library\gccCyBLEStack_BLE_SOC_PERIPHERAL.a(ll_pdu.o)
                0x000070b0                ll_handle_incoming_ll_pdu

i.ll_handle_ll_pdu_ack_received
                0x000070f0       0x48
 i.ll_handle_ll_pdu_ack_received
                0x000070f0       0x48 D:\program\CY8\PSoC Creator\3.2\PSoC Creator\psoc\content\cycomponentlibrary\CyComponentLibrary.cylib\BLE_v2_0\Library\gccCyBLEStack_BLE_SOC_PERIPHERAL.a(ll_pdu.o)
                0x000070f0                ll_handle_ll_pdu_ack_received

i.ll_handle_pause_encryption_request_pdu
                0x00007138       0x18
 i.ll_handle_pause_encryption_request_pdu
                0x00007138       0x18 D:\program\CY8\PSoC Creator\3.2\PSoC Creator\psoc\content\cycomponentlibrary\CyComponentLibrary.cylib\BLE_v2_0\Library\gccCyBLEStack_BLE_SOC_PERIPHERAL.a(ll_pdu.o)
                0x00007138                ll_handle_pause_encryption_request_pdu

i.ll_handle_pause_encryption_response_pdu
                0x00007150       0x10
 i.ll_handle_pause_encryption_response_pdu
                0x00007150       0x10 D:\program\CY8\PSoC Creator\3.2\PSoC Creator\psoc\content\cycomponentlibrary\CyComponentLibrary.cylib\BLE_v2_0\Library\gccCyBLEStack_BLE_SOC_PERIPHERAL.a(ll_pdu.o)
                0x00007150                ll_handle_pause_encryption_response_pdu

i.ll_handle_pause_encryption_response_pdu_ack
                0x00007160       0x10
 i.ll_handle_pause_encryption_response_pdu_ack
                0x00007160       0x10 D:\program\CY8\PSoC Creator\3.2\PSoC Creator\psoc\content\cycomponentlibrary\CyComponentLibrary.cylib\BLE_v2_0\Library\gccCyBLEStack_BLE_SOC_PERIPHERAL.a(ll_pdu.o)
                0x00007160                ll_handle_pause_encryption_response_pdu_ack

i.ll_handle_ping_req_pdu
                0x00007170       0x44
 i.ll_handle_ping_req_pdu
                0x00007170       0x44 D:\program\CY8\PSoC Creator\3.2\PSoC Creator\psoc\content\cycomponentlibrary\CyComponentLibrary.cylib\BLE_v2_0\Library\gccCyBLEStack_BLE_SOC_PERIPHERAL.a(ll_pdu.o)
                0x00007170                ll_handle_ping_req_pdu

i.ll_handle_ping_rsp_pdu
                0x000071b4        0xa
 i.ll_handle_ping_rsp_pdu
                0x000071b4        0xa D:\program\CY8\PSoC Creator\3.2\PSoC Creator\psoc\content\cycomponentlibrary\CyComponentLibrary.cylib\BLE_v2_0\Library\gccCyBLEStack_BLE_SOC_PERIPHERAL.a(ll_pdu.o)
                0x000071b4                ll_handle_ping_rsp_pdu

i.ll_handle_reject_indication_pdu
                0x000071be        0xa
 i.ll_handle_reject_indication_pdu
                0x000071be        0xa D:\program\CY8\PSoC Creator\3.2\PSoC Creator\psoc\content\cycomponentlibrary\CyComponentLibrary.cylib\BLE_v2_0\Library\gccCyBLEStack_BLE_SOC_PERIPHERAL.a(ll_pdu.o)
                0x000071be                ll_handle_reject_indication_pdu

i.ll_handle_reject_indication_pdu_ack
                0x000071c8        0x8
 i.ll_handle_reject_indication_pdu_ack
                0x000071c8        0x8 D:\program\CY8\PSoC Creator\3.2\PSoC Creator\psoc\content\cycomponentlibrary\CyComponentLibrary.cylib\BLE_v2_0\Library\gccCyBLEStack_BLE_SOC_PERIPHERAL.a(ll_pdu.o)
                0x000071c8                ll_handle_reject_indication_pdu_ack

i.ll_handle_start_encryption_request_pdu_ack
                0x000071d0        0x8
 i.ll_handle_start_encryption_request_pdu_ack
                0x000071d0        0x8 D:\program\CY8\PSoC Creator\3.2\PSoC Creator\psoc\content\cycomponentlibrary\CyComponentLibrary.cylib\BLE_v2_0\Library\gccCyBLEStack_BLE_SOC_PERIPHERAL.a(ll_pdu.o)
                0x000071d0                ll_handle_start_encryption_request_pdu_ack

i.ll_handle_start_encryption_response_pdu
                0x000071d8       0x10
 i.ll_handle_start_encryption_response_pdu
                0x000071d8       0x10 D:\program\CY8\PSoC Creator\3.2\PSoC Creator\psoc\content\cycomponentlibrary\CyComponentLibrary.cylib\BLE_v2_0\Library\gccCyBLEStack_BLE_SOC_PERIPHERAL.a(ll_pdu.o)
                0x000071d8                ll_handle_start_encryption_response_pdu

i.ll_handle_start_encryption_response_pdu_ack
                0x000071e8       0x10
 i.ll_handle_start_encryption_response_pdu_ack
                0x000071e8       0x10 D:\program\CY8\PSoC Creator\3.2\PSoC Creator\psoc\content\cycomponentlibrary\CyComponentLibrary.cylib\BLE_v2_0\Library\gccCyBLEStack_BLE_SOC_PERIPHERAL.a(ll_pdu.o)
                0x000071e8                ll_handle_start_encryption_response_pdu_ack

i.ll_handle_terminate_pdu
                0x000071f8       0x4c
 i.ll_handle_terminate_pdu
                0x000071f8       0x4c D:\program\CY8\PSoC Creator\3.2\PSoC Creator\psoc\content\cycomponentlibrary\CyComponentLibrary.cylib\BLE_v2_0\Library\gccCyBLEStack_BLE_SOC_PERIPHERAL.a(ll_pdu.o)
                0x000071f8                ll_handle_terminate_pdu

i.ll_handle_terminate_request_pdu_ack
                0x00007244       0x1e
 i.ll_handle_terminate_request_pdu_ack
                0x00007244       0x1e D:\program\CY8\PSoC Creator\3.2\PSoC Creator\psoc\content\cycomponentlibrary\CyComponentLibrary.cylib\BLE_v2_0\Library\gccCyBLEStack_BLE_SOC_PERIPHERAL.a(ll_pdu.o)
                0x00007244                ll_handle_terminate_request_pdu_ack

i.ll_handle_unknown_pdu
                0x00007262       0x1e
 i.ll_handle_unknown_pdu
                0x00007262       0x1e D:\program\CY8\PSoC Creator\3.2\PSoC Creator\psoc\content\cycomponentlibrary\CyComponentLibrary.cylib\BLE_v2_0\Library\gccCyBLEStack_BLE_SOC_PERIPHERAL.a(ll_pdu.o)
                0x00007262                ll_handle_unknown_pdu

i.ll_handle_unknown_response_pdu
                0x00007280       0x22
 i.ll_handle_unknown_response_pdu
                0x00007280       0x22 D:\program\CY8\PSoC Creator\3.2\PSoC Creator\psoc\content\cycomponentlibrary\CyComponentLibrary.cylib\BLE_v2_0\Library\gccCyBLEStack_BLE_SOC_PERIPHERAL.a(ll_pdu.o)
                0x00007280                ll_handle_unknown_response_pdu

i.ll_handle_unknown_response_pdu_ack
                0x000072a2        0x2
 i.ll_handle_unknown_response_pdu_ack
                0x000072a2        0x2 D:\program\CY8\PSoC Creator\3.2\PSoC Creator\psoc\content\cycomponentlibrary\CyComponentLibrary.cylib\BLE_v2_0\Library\gccCyBLEStack_BLE_SOC_PERIPHERAL.a(ll_pdu.o)
                0x000072a2                ll_handle_unknown_response_pdu_ack

i.ll_handle_version_indication_pdu
                0x000072a4       0x80
 i.ll_handle_version_indication_pdu
                0x000072a4       0x80 D:\program\CY8\PSoC Creator\3.2\PSoC Creator\psoc\content\cycomponentlibrary\CyComponentLibrary.cylib\BLE_v2_0\Library\gccCyBLEStack_BLE_SOC_PERIPHERAL.a(ll_pdu.o)
                0x000072a4                ll_handle_version_indication_pdu

i.ll_handle_version_indication_pdu_ack
                0x00007324        0x2
 i.ll_handle_version_indication_pdu_ack
                0x00007324        0x2 D:\program\CY8\PSoC Creator\3.2\PSoC Creator\psoc\content\cycomponentlibrary\CyComponentLibrary.cylib\BLE_v2_0\Library\gccCyBLEStack_BLE_SOC_PERIPHERAL.a(ll_pdu.o)
                0x00007324                ll_handle_version_indication_pdu_ack

i.ll_log_pdu    0x00007326        0x2
 i.ll_log_pdu   0x00007326        0x2 D:\program\CY8\PSoC Creator\3.2\PSoC Creator\psoc\content\cycomponentlibrary\CyComponentLibrary.cylib\BLE_v2_0\Library\gccCyBLEStack_BLE_SOC_PERIPHERAL.a(ll_pdu.o)
                0x00007326                ll_log_pdu

i.ll_program_channel_map_update
                0x00007328       0x28
 i.ll_program_channel_map_update
                0x00007328       0x28 D:\program\CY8\PSoC Creator\3.2\PSoC Creator\psoc\content\cycomponentlibrary\CyComponentLibrary.cylib\BLE_v2_0\Library\gccCyBLEStack_BLE_SOC_PERIPHERAL.a(ll_pdu.o)
                0x00007328                ll_program_channel_map_update

i.ll_send_encryption_response_pdu
                0x00007350       0x34
 i.ll_send_encryption_response_pdu
                0x00007350       0x34 D:\program\CY8\PSoC Creator\3.2\PSoC Creator\psoc\content\cycomponentlibrary\CyComponentLibrary.cylib\BLE_v2_0\Library\gccCyBLEStack_BLE_SOC_PERIPHERAL.a(ll_pdu.o)
                0x00007350                ll_send_encryption_response_pdu

i.ll_send_feature_response_pdu
                0x00007384       0x30
 i.ll_send_feature_response_pdu
                0x00007384       0x30 D:\program\CY8\PSoC Creator\3.2\PSoC Creator\psoc\content\cycomponentlibrary\CyComponentLibrary.cylib\BLE_v2_0\Library\gccCyBLEStack_BLE_SOC_PERIPHERAL.a(ll_pdu.o)
                0x00007384                ll_send_feature_response_pdu

i.ll_send_pause_encryption_response_pdu
                0x000073b4       0x16
 i.ll_send_pause_encryption_response_pdu
                0x000073b4       0x16 D:\program\CY8\PSoC Creator\3.2\PSoC Creator\psoc\content\cycomponentlibrary\CyComponentLibrary.cylib\BLE_v2_0\Library\gccCyBLEStack_BLE_SOC_PERIPHERAL.a(ll_pdu.o)
                0x000073b4                ll_send_pause_encryption_response_pdu

i.ll_send_pending_pdu
                0x000073cc       0x64
 i.ll_send_pending_pdu
                0x000073cc       0x64 D:\program\CY8\PSoC Creator\3.2\PSoC Creator\psoc\content\cycomponentlibrary\CyComponentLibrary.cylib\BLE_v2_0\Library\gccCyBLEStack_BLE_SOC_PERIPHERAL.a(ll_pdu.o)
                0x000073cc                ll_send_pending_pdu

i.ll_send_ping_req_pdu
                0x00007430       0x18
 i.ll_send_ping_req_pdu
                0x00007430       0x18 D:\program\CY8\PSoC Creator\3.2\PSoC Creator\psoc\content\cycomponentlibrary\CyComponentLibrary.cylib\BLE_v2_0\Library\gccCyBLEStack_BLE_SOC_PERIPHERAL.a(ll_pdu.o)
                0x00007430                ll_send_ping_req_pdu

i.ll_send_ping_rsp_pdu
                0x00007448       0x18
 i.ll_send_ping_rsp_pdu
                0x00007448       0x18 D:\program\CY8\PSoC Creator\3.2\PSoC Creator\psoc\content\cycomponentlibrary\CyComponentLibrary.cylib\BLE_v2_0\Library\gccCyBLEStack_BLE_SOC_PERIPHERAL.a(ll_pdu.o)
                0x00007448                ll_send_ping_rsp_pdu

i.ll_send_reject_indication_pdu
                0x00007460       0x2c
 i.ll_send_reject_indication_pdu
                0x00007460       0x2c D:\program\CY8\PSoC Creator\3.2\PSoC Creator\psoc\content\cycomponentlibrary\CyComponentLibrary.cylib\BLE_v2_0\Library\gccCyBLEStack_BLE_SOC_PERIPHERAL.a(ll_pdu.o)
                0x00007460                ll_send_reject_indication_pdu

i.ll_send_start_encryption_request_pdu
                0x0000748c       0x16
 i.ll_send_start_encryption_request_pdu
                0x0000748c       0x16 D:\program\CY8\PSoC Creator\3.2\PSoC Creator\psoc\content\cycomponentlibrary\CyComponentLibrary.cylib\BLE_v2_0\Library\gccCyBLEStack_BLE_SOC_PERIPHERAL.a(ll_pdu.o)
                0x0000748c                ll_send_start_encryption_request_pdu

i.ll_send_start_encryption_response_pdu
                0x000074a2       0x16
 i.ll_send_start_encryption_response_pdu
                0x000074a2       0x16 D:\program\CY8\PSoC Creator\3.2\PSoC Creator\psoc\content\cycomponentlibrary\CyComponentLibrary.cylib\BLE_v2_0\Library\gccCyBLEStack_BLE_SOC_PERIPHERAL.a(ll_pdu.o)
                0x000074a2                ll_send_start_encryption_response_pdu

i.ll_send_terminate_pdu
                0x000074b8       0x38
 i.ll_send_terminate_pdu
                0x000074b8       0x38 D:\program\CY8\PSoC Creator\3.2\PSoC Creator\psoc\content\cycomponentlibrary\CyComponentLibrary.cylib\BLE_v2_0\Library\gccCyBLEStack_BLE_SOC_PERIPHERAL.a(ll_pdu.o)
                0x000074b8                ll_send_terminate_pdu

i.ll_send_unknown_response_pdu
                0x000074f0       0x1a
 i.ll_send_unknown_response_pdu
                0x000074f0       0x1a D:\program\CY8\PSoC Creator\3.2\PSoC Creator\psoc\content\cycomponentlibrary\CyComponentLibrary.cylib\BLE_v2_0\Library\gccCyBLEStack_BLE_SOC_PERIPHERAL.a(ll_pdu.o)
                0x000074f0                ll_send_unknown_response_pdu

i.ll_send_version_indication_pdu
                0x0000750c       0x34
 i.ll_send_version_indication_pdu
                0x0000750c       0x34 D:\program\CY8\PSoC Creator\3.2\PSoC Creator\psoc\content\cycomponentlibrary\CyComponentLibrary.cylib\BLE_v2_0\Library\gccCyBLEStack_BLE_SOC_PERIPHERAL.a(ll_pdu.o)
                0x0000750c                ll_send_version_indication_pdu

i.ll_update_connection_update_parameters
                0x00007540       0x8c
 i.ll_update_connection_update_parameters
                0x00007540       0x8c D:\program\CY8\PSoC Creator\3.2\PSoC Creator\psoc\content\cycomponentlibrary\CyComponentLibrary.cylib\BLE_v2_0\Library\gccCyBLEStack_BLE_SOC_PERIPHERAL.a(ll_pdu.o)

i.ll_derive_adv_interval
                0x000075cc        0x8
 i.ll_derive_adv_interval
                0x000075cc        0x8 D:\program\CY8\PSoC Creator\3.2\PSoC Creator\psoc\content\cycomponentlibrary\CyComponentLibrary.cylib\BLE_v2_0\Library\gccCyBLEStack_BLE_SOC_PERIPHERAL.a(ll_policies.o)
                0x000075cc                ll_derive_adv_interval

i.ll_derive_ce_length_for_slave
                0x000075d4       0x3c
 i.ll_derive_ce_length_for_slave
                0x000075d4       0x3c D:\program\CY8\PSoC Creator\3.2\PSoC Creator\psoc\content\cycomponentlibrary\CyComponentLibrary.cylib\BLE_v2_0\Library\gccCyBLEStack_BLE_SOC_PERIPHERAL.a(ll_policies.o)
                0x000075d4                ll_derive_ce_length_for_slave

i.ll_derive_params
                0x00007610        0x6
 i.ll_derive_params
                0x00007610        0x6 D:\program\CY8\PSoC Creator\3.2\PSoC Creator\psoc\content\cycomponentlibrary\CyComponentLibrary.cylib\BLE_v2_0\Library\gccCyBLEStack_BLE_SOC_PERIPHERAL.a(ll_policies.o)
                0x00007610                ll_derive_params

i.ll_decode_interrupt_type
                0x00007616       0x1c
 i.ll_decode_interrupt_type
                0x00007616       0x1c D:\program\CY8\PSoC Creator\3.2\PSoC Creator\psoc\content\cycomponentlibrary\CyComponentLibrary.cylib\BLE_v2_0\Library\gccCyBLEStack_BLE_SOC_PERIPHERAL.a(ll_tasks.o)
                0x00007616                ll_decode_interrupt_type

i.ll_task_handler
                0x00007632       0x60
 i.ll_task_handler
                0x00007632       0x60 D:\program\CY8\PSoC Creator\3.2\PSoC Creator\psoc\content\cycomponentlibrary\CyComponentLibrary.cylib\BLE_v2_0\Library\gccCyBLEStack_BLE_SOC_PERIPHERAL.a(ll_tasks.o)
                0x00007632                ll_task_handler

i.llh_isr_handler
                0x00007694      0x1f4
 i.llh_isr_handler
                0x00007694      0x1f4 D:\program\CY8\PSoC Creator\3.2\PSoC Creator\psoc\content\cycomponentlibrary\CyComponentLibrary.cylib\BLE_v2_0\Library\gccCyBLEStack_BLE_SOC_PERIPHERAL.a(ll_tasks.o)
                0x00007694                llh_isr_handler

i.ll_ccm_load_inputs
                0x00007888       0x4e
 i.ll_ccm_load_inputs
                0x00007888       0x4e D:\program\CY8\PSoC Creator\3.2\PSoC Creator\psoc\content\cycomponentlibrary\CyComponentLibrary.cylib\BLE_v2_0\Library\gccCyBLEStack_BLE_SOC_PERIPHERAL.a(ll_utils.o)
                0x00007888                ll_ccm_load_inputs

i.ll_check_random_address_in_use
                0x000078d8       0x1c
 i.ll_check_random_address_in_use
                0x000078d8       0x1c D:\program\CY8\PSoC Creator\3.2\PSoC Creator\psoc\content\cycomponentlibrary\CyComponentLibrary.cylib\BLE_v2_0\Library\gccCyBLEStack_BLE_SOC_PERIPHERAL.a(ll_utils.o)
                0x000078d8                ll_check_random_address_in_use

i.ll_check_white_list_in_use
                0x000078f4       0x1c
 i.ll_check_white_list_in_use
                0x000078f4       0x1c D:\program\CY8\PSoC Creator\3.2\PSoC Creator\psoc\content\cycomponentlibrary\CyComponentLibrary.cylib\BLE_v2_0\Library\gccCyBLEStack_BLE_SOC_PERIPHERAL.a(ll_utils.o)
                0x000078f4                ll_check_white_list_in_use

i.ll_decryption_aes_ccm_mode
                0x00007910       0x3c
 i.ll_decryption_aes_ccm_mode
                0x00007910       0x3c D:\program\CY8\PSoC Creator\3.2\PSoC Creator\psoc\content\cycomponentlibrary\CyComponentLibrary.cylib\BLE_v2_0\Library\gccCyBLEStack_BLE_SOC_PERIPHERAL.a(ll_utils.o)
                0x00007910                ll_decryption_aes_ccm_mode

i.ll_encrypt    0x0000794c       0x28
 i.ll_encrypt   0x0000794c       0x28 D:\program\CY8\PSoC Creator\3.2\PSoC Creator\psoc\content\cycomponentlibrary\CyComponentLibrary.cylib\BLE_v2_0\Library\gccCyBLEStack_BLE_SOC_PERIPHERAL.a(ll_utils.o)
                0x0000794c                ll_encrypt

i.ll_encryption_aes_ccm_mode
                0x00007974       0x36
 i.ll_encryption_aes_ccm_mode
                0x00007974       0x36 D:\program\CY8\PSoC Creator\3.2\PSoC Creator\psoc\content\cycomponentlibrary\CyComponentLibrary.cylib\BLE_v2_0\Library\gccCyBLEStack_BLE_SOC_PERIPHERAL.a(ll_utils.o)
                0x00007974                ll_encryption_aes_ccm_mode

i.ll_get_event_param_buffer
                0x000079ac        0x8
 i.ll_get_event_param_buffer
                0x000079ac        0x8 D:\program\CY8\PSoC Creator\3.2\PSoC Creator\psoc\content\cycomponentlibrary\CyComponentLibrary.cylib\BLE_v2_0\Library\gccCyBLEStack_BLE_SOC_PERIPHERAL.a(ll_utils.o)
                0x000079ac                ll_get_event_param_buffer

i.ll_get_local_sca
                0x000079b4       0x12
 i.ll_get_local_sca
                0x000079b4       0x12 D:\program\CY8\PSoC Creator\3.2\PSoC Creator\psoc\content\cycomponentlibrary\CyComponentLibrary.cylib\BLE_v2_0\Library\gccCyBLEStack_BLE_SOC_PERIPHERAL.a(ll_utils.o)
                0x000079b4                ll_get_local_sca

i.ll_get_nearest_instant
                0x000079c8      0x170
 i.ll_get_nearest_instant
                0x000079c8      0x170 D:\program\CY8\PSoC Creator\3.2\PSoC Creator\psoc\content\cycomponentlibrary\CyComponentLibrary.cylib\BLE_v2_0\Library\gccCyBLEStack_BLE_SOC_PERIPHERAL.a(ll_utils.o)
                0x000079c8                ll_get_nearest_instant

i.ll_init_lfsr  0x00007b38       0x34
 i.ll_init_lfsr
                0x00007b38       0x34 D:\program\CY8\PSoC Creator\3.2\PSoC Creator\psoc\content\cycomponentlibrary\CyComponentLibrary.cylib\BLE_v2_0\Library\gccCyBLEStack_BLE_SOC_PERIPHERAL.a(ll_utils.o)
                0x00007b38                ll_init_lfsr

i.ll_pack_ccm_nonce
                0x00007b6c       0x36
 i.ll_pack_ccm_nonce
                0x00007b6c       0x36 D:\program\CY8\PSoC Creator\3.2\PSoC Creator\psoc\content\cycomponentlibrary\CyComponentLibrary.cylib\BLE_v2_0\Library\gccCyBLEStack_BLE_SOC_PERIPHERAL.a(ll_utils.o)
                0x00007b6c                ll_pack_ccm_nonce

i.ll_unpack_ccm_nonce
                0x00007ba2       0x4a
 i.ll_unpack_ccm_nonce
                0x00007ba2       0x4a D:\program\CY8\PSoC Creator\3.2\PSoC Creator\psoc\content\cycomponentlibrary\CyComponentLibrary.cylib\BLE_v2_0\Library\gccCyBLEStack_BLE_SOC_PERIPHERAL.a(ll_utils.o)
                0x00007ba2                ll_unpack_ccm_nonce

i.pf_get_lfsr_random_number
                0x00007bec       0x2c
 i.pf_get_lfsr_random_number
                0x00007bec       0x2c D:\program\CY8\PSoC Creator\3.2\PSoC Creator\psoc\content\cycomponentlibrary\CyComponentLibrary.cylib\BLE_v2_0\Library\gccCyBLEStack_BLE_SOC_PERIPHERAL.a(ll_utils.o)
                0x00007bec                pf_get_lfsr_random_number

i.isBleControllerLLFTFree
                0x00007c18       0x14
 i.isBleControllerLLFTFree
                0x00007c18       0x14 D:\program\CY8\PSoC Creator\3.2\PSoC Creator\psoc\content\cycomponentlibrary\CyComponentLibrary.cylib\BLE_v2_0\Library\gccCyBLEStack_BLE_SOC_PERIPHERAL.a(llf_task.o)
                0x00007c18                isBleControllerLLFTFree

i.isr_llf_task_enqueue
                0x00007c2c        0xa
 i.isr_llf_task_enqueue
                0x00007c2c        0xa D:\program\CY8\PSoC Creator\3.2\PSoC Creator\psoc\content\cycomponentlibrary\CyComponentLibrary.cylib\BLE_v2_0\Library\gccCyBLEStack_BLE_SOC_PERIPHERAL.a(llf_task.o)
                0x00007c2c                isr_llf_task_enqueue

i.llf_task_bt_init
                0x00007c38       0x1c
 i.llf_task_bt_init
                0x00007c38       0x1c D:\program\CY8\PSoC Creator\3.2\PSoC Creator\psoc\content\cycomponentlibrary\CyComponentLibrary.cylib\BLE_v2_0\Library\gccCyBLEStack_BLE_SOC_PERIPHERAL.a(llf_task.o)
                0x00007c38                llf_task_bt_init

i.llf_task_enqueue
                0x00007c54        0xa
 i.llf_task_enqueue
                0x00007c54        0xa D:\program\CY8\PSoC Creator\3.2\PSoC Creator\psoc\content\cycomponentlibrary\CyComponentLibrary.cylib\BLE_v2_0\Library\gccCyBLEStack_BLE_SOC_PERIPHERAL.a(llf_task.o)
                0x00007c54                llf_task_enqueue

i.llf_task_enqueue_msg
                0x00007c60       0x8c
 i.llf_task_enqueue_msg
                0x00007c60       0x8c D:\program\CY8\PSoC Creator\3.2\PSoC Creator\psoc\content\cycomponentlibrary\CyComponentLibrary.cylib\BLE_v2_0\Library\gccCyBLEStack_BLE_SOC_PERIPHERAL.a(llf_task.o)

i.llf_task_init
                0x00007cec       0x5c
 i.llf_task_init
                0x00007cec       0x5c D:\program\CY8\PSoC Creator\3.2\PSoC Creator\psoc\content\cycomponentlibrary\CyComponentLibrary.cylib\BLE_v2_0\Library\gccCyBLEStack_BLE_SOC_PERIPHERAL.a(llf_task.o)
                0x00007cec                llf_task_init

i.llf_task_start_routine
                0x00007d48       0x50
 i.llf_task_start_routine
                0x00007d48       0x50 D:\program\CY8\PSoC Creator\3.2\PSoC Creator\psoc\content\cycomponentlibrary\CyComponentLibrary.cylib\BLE_v2_0\Library\gccCyBLEStack_BLE_SOC_PERIPHERAL.a(llf_task.o)
                0x00007d48                llf_task_start_routine

i.llft_service_queue
                0x00007d98       0x88
 i.llft_service_queue
                0x00007d98       0x88 D:\program\CY8\PSoC Creator\3.2\PSoC Creator\psoc\content\cycomponentlibrary\CyComponentLibrary.cylib\BLE_v2_0\Library\gccCyBLEStack_BLE_SOC_PERIPHERAL.a(llf_task.o)
                0x00007d98                llft_service_queue

i.hci_le_generate_command_complete_event
                0x00007e20       0x14
 i.hci_le_generate_command_complete_event
                0x00007e20       0x14 D:\program\CY8\PSoC Creator\3.2\PSoC Creator\psoc\content\cycomponentlibrary\CyComponentLibrary.cylib\BLE_v2_0\Library\gccCyBLEStack_BLE_SOC_PERIPHERAL.a(lec_hci_le.o)
                0x00007e20                hci_le_generate_command_complete_event

i.hci_le_generate_event
                0x00007e34       0x22
 i.hci_le_generate_event
                0x00007e34       0x22 D:\program\CY8\PSoC Creator\3.2\PSoC Creator\psoc\content\cycomponentlibrary\CyComponentLibrary.cylib\BLE_v2_0\Library\gccCyBLEStack_BLE_SOC_PERIPHERAL.a(lec_hci_le.o)
                0x00007e34                hci_le_generate_event

i.lec_get_expected_cmd_param_length
                0x00007e56       0x14
 i.lec_get_expected_cmd_param_length
                0x00007e56       0x14 D:\program\CY8\PSoC Creator\3.2\PSoC Creator\psoc\content\cycomponentlibrary\CyComponentLibrary.cylib\BLE_v2_0\Library\gccCyBLEStack_BLE_SOC_PERIPHERAL.a(lec_hci_le.o)
                0x00007e56                lec_get_expected_cmd_param_length

i.lec_hci_handle_command_pkts
                0x00007e6c       0xa0
 i.lec_hci_handle_command_pkts
                0x00007e6c       0xa0 D:\program\CY8\PSoC Creator\3.2\PSoC Creator\psoc\content\cycomponentlibrary\CyComponentLibrary.cylib\BLE_v2_0\Library\gccCyBLEStack_BLE_SOC_PERIPHERAL.a(lec_hci_le.o)
                0x00007e6c                lec_hci_handle_command_pkts

i.lec_hci_handle_commands
                0x00007f0c       0x7c
 i.lec_hci_handle_commands
                0x00007f0c       0x7c D:\program\CY8\PSoC Creator\3.2\PSoC Creator\psoc\content\cycomponentlibrary\CyComponentLibrary.cylib\BLE_v2_0\Library\gccCyBLEStack_BLE_SOC_PERIPHERAL.a(lec_hci_le.o)
                0x00007f0c                lec_hci_handle_commands

i.ll_hci_get_num_commands_pkts
                0x00007f88        0xc
 i.ll_hci_get_num_commands_pkts
                0x00007f88        0xc D:\program\CY8\PSoC Creator\3.2\PSoC Creator\psoc\content\cycomponentlibrary\CyComponentLibrary.cylib\BLE_v2_0\Library\gccCyBLEStack_BLE_SOC_PERIPHERAL.a(lec_hci_le.o)
                0x00007f88                ll_hci_get_num_commands_pkts

i.hci_le_generate_command_status_event
                0x00007f94       0x3c
 i.hci_le_generate_command_status_event
                0x00007f94       0x3c D:\program\CY8\PSoC Creator\3.2\PSoC Creator\psoc\content\cycomponentlibrary\CyComponentLibrary.cylib\BLE_v2_0\Library\gccCyBLEStack_BLE_SOC_PERIPHERAL.a(lec_hci_le_commands.o)
                0x00007f94                hci_le_generate_command_status_event

i.lec_generate_le_command_complete_event
                0x00007fd0      0x144
 i.lec_generate_le_command_complete_event
                0x00007fd0      0x144 D:\program\CY8\PSoC Creator\3.2\PSoC Creator\psoc\content\cycomponentlibrary\CyComponentLibrary.cylib\BLE_v2_0\Library\gccCyBLEStack_BLE_SOC_PERIPHERAL.a(lec_hci_le_commands.o)
                0x00007fd0                lec_generate_le_command_complete_event

i.lec_get_expected_le_cmd_param_length
                0x00008114       0x1c
 i.lec_get_expected_le_cmd_param_length
                0x00008114       0x1c D:\program\CY8\PSoC Creator\3.2\PSoC Creator\psoc\content\cycomponentlibrary\CyComponentLibrary.cylib\BLE_v2_0\Library\gccCyBLEStack_BLE_SOC_PERIPHERAL.a(lec_hci_le_commands.o)
                0x00008114                lec_get_expected_le_cmd_param_length

i.lec_hci_convert_le_command_params
                0x00008130       0x18
 i.lec_hci_convert_le_command_params
                0x00008130       0x18 D:\program\CY8\PSoC Creator\3.2\PSoC Creator\psoc\content\cycomponentlibrary\CyComponentLibrary.cylib\BLE_v2_0\Library\gccCyBLEStack_BLE_SOC_PERIPHERAL.a(lec_hci_le_commands.o)
                0x00008130                lec_hci_convert_le_command_params

i.lec_hci_fill_command_complete_header
                0x00008148       0x1c
 i.lec_hci_fill_command_complete_header
                0x00008148       0x1c D:\program\CY8\PSoC Creator\3.2\PSoC Creator\psoc\content\cycomponentlibrary\CyComponentLibrary.cylib\BLE_v2_0\Library\gccCyBLEStack_BLE_SOC_PERIPHERAL.a(lec_hci_le_commands.o)
                0x00008148                lec_hci_fill_command_complete_header

i.lec_hci_handle_le_command
                0x00008164       0x38
 i.lec_hci_handle_le_command
                0x00008164       0x38 D:\program\CY8\PSoC Creator\3.2\PSoC Creator\psoc\content\cycomponentlibrary\CyComponentLibrary.cylib\BLE_v2_0\Library\gccCyBLEStack_BLE_SOC_PERIPHERAL.a(lec_hci_le_commands.o)
                0x00008164                lec_hci_handle_le_command

i.hci_le_set_supported_commands
                0x0000819c       0x68
 i.hci_le_set_supported_commands
                0x0000819c       0x68 D:\program\CY8\PSoC Creator\3.2\PSoC Creator\psoc\content\cycomponentlibrary\CyComponentLibrary.cylib\BLE_v2_0\Library\gccCyBLEStack_BLE_SOC_PERIPHERAL.a(lec_hci_le_common_commands.o)
                0x0000819c                hci_le_set_supported_commands

i.lec_hci_handle_add_to_white_list_command
                0x00008204        0x8
 i.lec_hci_handle_add_to_white_list_command
                0x00008204        0x8 D:\program\CY8\PSoC Creator\3.2\PSoC Creator\psoc\content\cycomponentlibrary\CyComponentLibrary.cylib\BLE_v2_0\Library\gccCyBLEStack_BLE_SOC_PERIPHERAL.a(lec_hci_le_common_commands.o)
                0x00008204                lec_hci_handle_add_to_white_list_command

i.lec_hci_handle_clear_white_list_command
                0x0000820c        0x8
 i.lec_hci_handle_clear_white_list_command
                0x0000820c        0x8 D:\program\CY8\PSoC Creator\3.2\PSoC Creator\psoc\content\cycomponentlibrary\CyComponentLibrary.cylib\BLE_v2_0\Library\gccCyBLEStack_BLE_SOC_PERIPHERAL.a(lec_hci_le_common_commands.o)
                0x0000820c                lec_hci_handle_clear_white_list_command

i.lec_hci_handle_le_default_command
                0x00008214        0x4
 i.lec_hci_handle_le_default_command
                0x00008214        0x4 D:\program\CY8\PSoC Creator\3.2\PSoC Creator\psoc\content\cycomponentlibrary\CyComponentLibrary.cylib\BLE_v2_0\Library\gccCyBLEStack_BLE_SOC_PERIPHERAL.a(lec_hci_le_common_commands.o)
                0x00008214                lec_hci_handle_le_default_command

i.lec_hci_handle_le_unknown_hci_command
                0x00008218        0x4
 i.lec_hci_handle_le_unknown_hci_command
                0x00008218        0x4 D:\program\CY8\PSoC Creator\3.2\PSoC Creator\psoc\content\cycomponentlibrary\CyComponentLibrary.cylib\BLE_v2_0\Library\gccCyBLEStack_BLE_SOC_PERIPHERAL.a(lec_hci_le_common_commands.o)
                0x00008218                lec_hci_handle_le_unknown_hci_command

i.lec_hci_handle_read_channel_map_command
                0x0000821c        0x8
 i.lec_hci_handle_read_channel_map_command
                0x0000821c        0x8 D:\program\CY8\PSoC Creator\3.2\PSoC Creator\psoc\content\cycomponentlibrary\CyComponentLibrary.cylib\BLE_v2_0\Library\gccCyBLEStack_BLE_SOC_PERIPHERAL.a(lec_hci_le_common_commands.o)
                0x0000821c                lec_hci_handle_read_channel_map_command

i.lec_hci_handle_read_white_list_size_command
                0x00008224        0x4
 i.lec_hci_handle_read_white_list_size_command
                0x00008224        0x4 D:\program\CY8\PSoC Creator\3.2\PSoC Creator\psoc\content\cycomponentlibrary\CyComponentLibrary.cylib\BLE_v2_0\Library\gccCyBLEStack_BLE_SOC_PERIPHERAL.a(lec_hci_le_common_commands.o)
                0x00008224                lec_hci_handle_read_white_list_size_command

i.lec_hci_handle_rem_dev_from_white_list_command
                0x00008228        0x8
 i.lec_hci_handle_rem_dev_from_white_list_command
                0x00008228        0x8 D:\program\CY8\PSoC Creator\3.2\PSoC Creator\psoc\content\cycomponentlibrary\CyComponentLibrary.cylib\BLE_v2_0\Library\gccCyBLEStack_BLE_SOC_PERIPHERAL.a(lec_hci_le_common_commands.o)
                0x00008228                lec_hci_handle_rem_dev_from_white_list_command

i.lec_hci_handle_set_event_mask_command
                0x00008230       0x10
 i.lec_hci_handle_set_event_mask_command
                0x00008230       0x10 D:\program\CY8\PSoC Creator\3.2\PSoC Creator\psoc\content\cycomponentlibrary\CyComponentLibrary.cylib\BLE_v2_0\Library\gccCyBLEStack_BLE_SOC_PERIPHERAL.a(lec_hci_le_common_commands.o)
                0x00008230                lec_hci_handle_set_event_mask_command

i.lec_hci_handle_set_random_address_command
                0x00008240        0x8
 i.lec_hci_handle_set_random_address_command
                0x00008240        0x8 D:\program\CY8\PSoC Creator\3.2\PSoC Creator\psoc\content\cycomponentlibrary\CyComponentLibrary.cylib\BLE_v2_0\Library\gccCyBLEStack_BLE_SOC_PERIPHERAL.a(lec_hci_le_common_commands.o)
                0x00008240                lec_hci_handle_set_random_address_command

i.hci_generate_le_conn_update_complete_event
                0x00008248       0x5a
 i.hci_generate_le_conn_update_complete_event
                0x00008248       0x5a D:\program\CY8\PSoC Creator\3.2\PSoC Creator\psoc\content\cycomponentlibrary\CyComponentLibrary.cylib\BLE_v2_0\Library\gccCyBLEStack_BLE_SOC_PERIPHERAL.a(lec_hci_le_conn_commands.o)
                0x00008248                hci_generate_le_conn_update_complete_event

i.hci_generate_le_connection_complete_event
                0x000082a2       0x76
 i.hci_generate_le_connection_complete_event
                0x000082a2       0x76 D:\program\CY8\PSoC Creator\3.2\PSoC Creator\psoc\content\cycomponentlibrary\CyComponentLibrary.cylib\BLE_v2_0\Library\gccCyBLEStack_BLE_SOC_PERIPHERAL.a(lec_hci_le_conn_commands.o)
                0x000082a2                hci_generate_le_connection_complete_event

i.hci_generate_le_encryption_change_event
                0x00008318       0x38
 i.hci_generate_le_encryption_change_event
                0x00008318       0x38 D:\program\CY8\PSoC Creator\3.2\PSoC Creator\psoc\content\cycomponentlibrary\CyComponentLibrary.cylib\BLE_v2_0\Library\gccCyBLEStack_BLE_SOC_PERIPHERAL.a(lec_hci_le_conn_commands.o)
                0x00008318                hci_generate_le_encryption_change_event

i.hci_generate_le_encryption_key_refresh_event
                0x00008350       0x34
 i.hci_generate_le_encryption_key_refresh_event
                0x00008350       0x34 D:\program\CY8\PSoC Creator\3.2\PSoC Creator\psoc\content\cycomponentlibrary\CyComponentLibrary.cylib\BLE_v2_0\Library\gccCyBLEStack_BLE_SOC_PERIPHERAL.a(lec_hci_le_conn_commands.o)
                0x00008350                hci_generate_le_encryption_key_refresh_event

i.hci_generate_le_long_term_key_req_event
                0x00008384       0x4e
 i.hci_generate_le_long_term_key_req_event
                0x00008384       0x4e D:\program\CY8\PSoC Creator\3.2\PSoC Creator\psoc\content\cycomponentlibrary\CyComponentLibrary.cylib\BLE_v2_0\Library\gccCyBLEStack_BLE_SOC_PERIPHERAL.a(lec_hci_le_conn_commands.o)
                0x00008384                hci_generate_le_long_term_key_req_event

i.hci_generate_le_no_of_completed_events
                0x000083d2       0x3e
 i.hci_generate_le_no_of_completed_events
                0x000083d2       0x3e D:\program\CY8\PSoC Creator\3.2\PSoC Creator\psoc\content\cycomponentlibrary\CyComponentLibrary.cylib\BLE_v2_0\Library\gccCyBLEStack_BLE_SOC_PERIPHERAL.a(lec_hci_le_conn_commands.o)
                0x000083d2                hci_generate_le_no_of_completed_events

i.hci_generate_le_remote_version_information_complete_event
                0x00008410       0x50
 i.hci_generate_le_remote_version_information_complete_event
                0x00008410       0x50 D:\program\CY8\PSoC Creator\3.2\PSoC Creator\psoc\content\cycomponentlibrary\CyComponentLibrary.cylib\BLE_v2_0\Library\gccCyBLEStack_BLE_SOC_PERIPHERAL.a(lec_hci_le_conn_commands.o)
                0x00008410                hci_generate_le_remote_version_information_complete_event

i.hci_le_generate_authenticated_payload_timeout_expired_event
                0x00008460       0x30
 i.hci_le_generate_authenticated_payload_timeout_expired_event
                0x00008460       0x30 D:\program\CY8\PSoC Creator\3.2\PSoC Creator\psoc\content\cycomponentlibrary\CyComponentLibrary.cylib\BLE_v2_0\Library\gccCyBLEStack_BLE_SOC_PERIPHERAL.a(lec_hci_le_conn_commands.o)
                0x00008460                hci_le_generate_authenticated_payload_timeout_expired_event

i.hci_le_generate_disconnection_complete_event
                0x00008490       0x38
 i.hci_le_generate_disconnection_complete_event
                0x00008490       0x38 D:\program\CY8\PSoC Creator\3.2\PSoC Creator\psoc\content\cycomponentlibrary\CyComponentLibrary.cylib\BLE_v2_0\Library\gccCyBLEStack_BLE_SOC_PERIPHERAL.a(lec_hci_le_conn_commands.o)
                0x00008490                hci_le_generate_disconnection_complete_event

i.hci_le_generate_read_authenticated_payload_timeout_cmd_complete_event
                0x000084c8       0x50
 i.hci_le_generate_read_authenticated_payload_timeout_cmd_complete_event
                0x000084c8       0x50 D:\program\CY8\PSoC Creator\3.2\PSoC Creator\psoc\content\cycomponentlibrary\CyComponentLibrary.cylib\BLE_v2_0\Library\gccCyBLEStack_BLE_SOC_PERIPHERAL.a(lec_hci_le_conn_commands.o)
                0x000084c8                hci_le_generate_read_authenticated_payload_timeout_cmd_complete_event

i.hci_le_generate_write_authenticated_payload_timeout_cmd_complete_event
                0x00008518       0x40
 i.hci_le_generate_write_authenticated_payload_timeout_cmd_complete_event
                0x00008518       0x40 D:\program\CY8\PSoC Creator\3.2\PSoC Creator\psoc\content\cycomponentlibrary\CyComponentLibrary.cylib\BLE_v2_0\Library\gccCyBLEStack_BLE_SOC_PERIPHERAL.a(lec_hci_le_conn_commands.o)
                0x00008518                hci_le_generate_write_authenticated_payload_timeout_cmd_complete_event

i.lec_hci_handle_longterm_key_req_neg_reply_command
                0x00008558        0x8
 i.lec_hci_handle_longterm_key_req_neg_reply_command
                0x00008558        0x8 D:\program\CY8\PSoC Creator\3.2\PSoC Creator\psoc\content\cycomponentlibrary\CyComponentLibrary.cylib\BLE_v2_0\Library\gccCyBLEStack_BLE_SOC_PERIPHERAL.a(lec_hci_le_conn_commands.o)
                0x00008558                lec_hci_handle_longterm_key_req_neg_reply_command

i.lec_hci_handle_longterm_key_req_reply_command
                0x00008560        0x8
 i.lec_hci_handle_longterm_key_req_reply_command
                0x00008560        0x8 D:\program\CY8\PSoC Creator\3.2\PSoC Creator\psoc\content\cycomponentlibrary\CyComponentLibrary.cylib\BLE_v2_0\Library\gccCyBLEStack_BLE_SOC_PERIPHERAL.a(lec_hci_le_conn_commands.o)
                0x00008560                lec_hci_handle_longterm_key_req_reply_command

i.hci_le_generate_encrypt_cmd_complete_event
                0x00008568       0x44
 i.hci_le_generate_encrypt_cmd_complete_event
                0x00008568       0x44 D:\program\CY8\PSoC Creator\3.2\PSoC Creator\psoc\content\cycomponentlibrary\CyComponentLibrary.cylib\BLE_v2_0\Library\gccCyBLEStack_BLE_SOC_PERIPHERAL.a(lec_hci_le_encryption_commands.o)
                0x00008568                hci_le_generate_encrypt_cmd_complete_event

i.lec_hci_handle_encrypt_command
                0x000085ac        0x8
 i.lec_hci_handle_encrypt_command
                0x000085ac        0x8 D:\program\CY8\PSoC Creator\3.2\PSoC Creator\psoc\content\cycomponentlibrary\CyComponentLibrary.cylib\BLE_v2_0\Library\gccCyBLEStack_BLE_SOC_PERIPHERAL.a(lec_hci_le_encryption_commands.o)
                0x000085ac                lec_hci_handle_encrypt_command

i.hci_alloc_event_buffer
                0x000085b4        0xe
 i.hci_alloc_event_buffer
                0x000085b4        0xe D:\program\CY8\PSoC Creator\3.2\PSoC Creator\psoc\content\cycomponentlibrary\CyComponentLibrary.cylib\BLE_v2_0\Library\gccCyBLEStack_BLE_SOC_PERIPHERAL.a(lec_hci_le_utils.o)
                0x000085b4                hci_alloc_event_buffer

i.hci_free_event_buffer
                0x000085c2        0x8
 i.hci_free_event_buffer
                0x000085c2        0x8 D:\program\CY8\PSoC Creator\3.2\PSoC Creator\psoc\content\cycomponentlibrary\CyComponentLibrary.cylib\BLE_v2_0\Library\gccCyBLEStack_BLE_SOC_PERIPHERAL.a(lec_hci_le_utils.o)
                0x000085c2                hci_free_event_buffer

i.hci_le_handle_data_to_host
                0x000085cc       0x68
 i.hci_le_handle_data_to_host
                0x000085cc       0x68 D:\program\CY8\PSoC Creator\3.2\PSoC Creator\psoc\content\cycomponentlibrary\CyComponentLibrary.cylib\BLE_v2_0\Library\gccCyBLEStack_BLE_SOC_PERIPHERAL.a(lec_hci_le_utils.o)
                0x000085cc                hci_le_handle_data_to_host

i.hci_le_handle_data_tx_completed
                0x00008634       0x5c
 i.hci_le_handle_data_tx_completed
                0x00008634       0x5c D:\program\CY8\PSoC Creator\3.2\PSoC Creator\psoc\content\cycomponentlibrary\CyComponentLibrary.cylib\BLE_v2_0\Library\gccCyBLEStack_BLE_SOC_PERIPHERAL.a(lec_hci_le_utils.o)
                0x00008634                hci_le_handle_data_tx_completed

i.hci_le_initialize_data
                0x00008690       0x28
 i.hci_le_initialize_data
                0x00008690       0x28 D:\program\CY8\PSoC Creator\3.2\PSoC Creator\psoc\content\cycomponentlibrary\CyComponentLibrary.cylib\BLE_v2_0\Library\gccCyBLEStack_BLE_SOC_PERIPHERAL.a(lec_hci_le_utils.o)
                0x00008690                hci_le_initialize_data

i.hci_le_module_reset
                0x000086b8        0xa
 i.hci_le_module_reset
                0x000086b8        0xa D:\program\CY8\PSoC Creator\3.2\PSoC Creator\psoc\content\cycomponentlibrary\CyComponentLibrary.cylib\BLE_v2_0\Library\gccCyBLEStack_BLE_SOC_PERIPHERAL.a(lec_hci_le_utils.o)
                0x000086b8                hci_le_module_reset

i.hci_le_pass_event_through_event_mask
                0x000086c4       0x74
 i.hci_le_pass_event_through_event_mask
                0x000086c4       0x74 D:\program\CY8\PSoC Creator\3.2\PSoC Creator\psoc\content\cycomponentlibrary\CyComponentLibrary.cylib\BLE_v2_0\Library\gccCyBLEStack_BLE_SOC_PERIPHERAL.a(lec_hci_le_utils.o)
                0x000086c4                hci_le_pass_event_through_event_mask

i.lec_hci_convert_add_dev_whitelist_command
                0x00008738       0x16
 i.lec_hci_convert_add_dev_whitelist_command
                0x00008738       0x16 D:\program\CY8\PSoC Creator\3.2\PSoC Creator\psoc\content\cycomponentlibrary\CyComponentLibrary.cylib\BLE_v2_0\Library\gccCyBLEStack_BLE_SOC_PERIPHERAL.a(lec_hci_param_converter.o)
                0x00008738                lec_hci_convert_add_dev_whitelist_command

i.lec_hci_convert_br_edr_set_event_mask_command
                0x0000874e       0x10
 i.lec_hci_convert_br_edr_set_event_mask_command
                0x0000874e       0x10 D:\program\CY8\PSoC Creator\3.2\PSoC Creator\psoc\content\cycomponentlibrary\CyComponentLibrary.cylib\BLE_v2_0\Library\gccCyBLEStack_BLE_SOC_PERIPHERAL.a(lec_hci_param_converter.o)
                0x0000874e                lec_hci_convert_br_edr_set_event_mask_command

i.lec_hci_convert_connection_update_command
                0x0000875e        0x2
 i.lec_hci_convert_connection_update_command
                0x0000875e        0x2 D:\program\CY8\PSoC Creator\3.2\PSoC Creator\psoc\content\cycomponentlibrary\CyComponentLibrary.cylib\BLE_v2_0\Library\gccCyBLEStack_BLE_SOC_PERIPHERAL.a(lec_hci_param_converter.o)
                0x0000875e                lec_hci_convert_connection_update_command

i.lec_hci_convert_create_connection_command
                0x00008760        0x2
 i.lec_hci_convert_create_connection_command
                0x00008760        0x2 D:\program\CY8\PSoC Creator\3.2\PSoC Creator\psoc\content\cycomponentlibrary\CyComponentLibrary.cylib\BLE_v2_0\Library\gccCyBLEStack_BLE_SOC_PERIPHERAL.a(lec_hci_param_converter.o)
                0x00008760                lec_hci_convert_create_connection_command

i.lec_hci_convert_default_command
                0x00008762        0x2
 i.lec_hci_convert_default_command
                0x00008762        0x2 D:\program\CY8\PSoC Creator\3.2\PSoC Creator\psoc\content\cycomponentlibrary\CyComponentLibrary.cylib\BLE_v2_0\Library\gccCyBLEStack_BLE_SOC_PERIPHERAL.a(lec_hci_param_converter.o)
                0x00008762                lec_hci_convert_default_command

i.lec_hci_convert_disconnect_command
                0x00008764       0x12
 i.lec_hci_convert_disconnect_command
                0x00008764       0x12 D:\program\CY8\PSoC Creator\3.2\PSoC Creator\psoc\content\cycomponentlibrary\CyComponentLibrary.cylib\BLE_v2_0\Library\gccCyBLEStack_BLE_SOC_PERIPHERAL.a(lec_hci_param_converter.o)
                0x00008764                lec_hci_convert_disconnect_command

i.lec_hci_convert_encrypt_command
                0x00008776       0x1e
 i.lec_hci_convert_encrypt_command
                0x00008776       0x1e D:\program\CY8\PSoC Creator\3.2\PSoC Creator\psoc\content\cycomponentlibrary\CyComponentLibrary.cylib\BLE_v2_0\Library\gccCyBLEStack_BLE_SOC_PERIPHERAL.a(lec_hci_param_converter.o)
                0x00008776                lec_hci_convert_encrypt_command

i.lec_hci_convert_long_term_key_req_neg_reply_command
                0x00008794        0xe
 i.lec_hci_convert_long_term_key_req_neg_reply_command
                0x00008794        0xe D:\program\CY8\PSoC Creator\3.2\PSoC Creator\psoc\content\cycomponentlibrary\CyComponentLibrary.cylib\BLE_v2_0\Library\gccCyBLEStack_BLE_SOC_PERIPHERAL.a(lec_hci_param_converter.o)
                0x00008794                lec_hci_convert_long_term_key_req_neg_reply_command

i.lec_hci_convert_long_term_key_req_reply_command
                0x000087a2       0x1e
 i.lec_hci_convert_long_term_key_req_reply_command
                0x000087a2       0x1e D:\program\CY8\PSoC Creator\3.2\PSoC Creator\psoc\content\cycomponentlibrary\CyComponentLibrary.cylib\BLE_v2_0\Library\gccCyBLEStack_BLE_SOC_PERIPHERAL.a(lec_hci_param_converter.o)
                0x000087a2                lec_hci_convert_long_term_key_req_reply_command

i.lec_hci_convert_read_authenticated_payload_timeout_command
                0x000087c0        0xe
 i.lec_hci_convert_read_authenticated_payload_timeout_command
                0x000087c0        0xe D:\program\CY8\PSoC Creator\3.2\PSoC Creator\psoc\content\cycomponentlibrary\CyComponentLibrary.cylib\BLE_v2_0\Library\gccCyBLEStack_BLE_SOC_PERIPHERAL.a(lec_hci_param_converter.o)
                0x000087c0                lec_hci_convert_read_authenticated_payload_timeout_command

i.lec_hci_convert_read_chn_map_command
                0x000087ce        0xe
 i.lec_hci_convert_read_chn_map_command
                0x000087ce        0xe D:\program\CY8\PSoC Creator\3.2\PSoC Creator\psoc\content\cycomponentlibrary\CyComponentLibrary.cylib\BLE_v2_0\Library\gccCyBLEStack_BLE_SOC_PERIPHERAL.a(lec_hci_param_converter.o)
                0x000087ce                lec_hci_convert_read_chn_map_command

i.lec_hci_convert_read_remote_used_feat_command
                0x000087dc        0x2
 i.lec_hci_convert_read_remote_used_feat_command
                0x000087dc        0x2 D:\program\CY8\PSoC Creator\3.2\PSoC Creator\psoc\content\cycomponentlibrary\CyComponentLibrary.cylib\BLE_v2_0\Library\gccCyBLEStack_BLE_SOC_PERIPHERAL.a(lec_hci_param_converter.o)
                0x000087dc                lec_hci_convert_read_remote_used_feat_command

i.lec_hci_convert_read_rssi_command
                0x000087de        0xe
 i.lec_hci_convert_read_rssi_command
                0x000087de        0xe D:\program\CY8\PSoC Creator\3.2\PSoC Creator\psoc\content\cycomponentlibrary\CyComponentLibrary.cylib\BLE_v2_0\Library\gccCyBLEStack_BLE_SOC_PERIPHERAL.a(lec_hci_param_converter.o)
                0x000087de                lec_hci_convert_read_rssi_command

i.lec_hci_convert_read_transmit_power_level_command
                0x000087ec       0x12
 i.lec_hci_convert_read_transmit_power_level_command
                0x000087ec       0x12 D:\program\CY8\PSoC Creator\3.2\PSoC Creator\psoc\content\cycomponentlibrary\CyComponentLibrary.cylib\BLE_v2_0\Library\gccCyBLEStack_BLE_SOC_PERIPHERAL.a(lec_hci_param_converter.o)
                0x000087ec                lec_hci_convert_read_transmit_power_level_command

i.lec_hci_convert_receiver_test_command
                0x000087fe        0x6
 i.lec_hci_convert_receiver_test_command
                0x000087fe        0x6 D:\program\CY8\PSoC Creator\3.2\PSoC Creator\psoc\content\cycomponentlibrary\CyComponentLibrary.cylib\BLE_v2_0\Library\gccCyBLEStack_BLE_SOC_PERIPHERAL.a(lec_hci_param_converter.o)
                0x000087fe                lec_hci_convert_receiver_test_command

i.lec_hci_convert_remote_version_info_command
                0x00008804        0xe
 i.lec_hci_convert_remote_version_info_command
                0x00008804        0xe D:\program\CY8\PSoC Creator\3.2\PSoC Creator\psoc\content\cycomponentlibrary\CyComponentLibrary.cylib\BLE_v2_0\Library\gccCyBLEStack_BLE_SOC_PERIPHERAL.a(lec_hci_param_converter.o)
                0x00008804                lec_hci_convert_remote_version_info_command

i.lec_hci_convert_remove_dev_whitelist_command
                0x00008812       0x16
 i.lec_hci_convert_remove_dev_whitelist_command
                0x00008812       0x16 D:\program\CY8\PSoC Creator\3.2\PSoC Creator\psoc\content\cycomponentlibrary\CyComponentLibrary.cylib\BLE_v2_0\Library\gccCyBLEStack_BLE_SOC_PERIPHERAL.a(lec_hci_param_converter.o)
                0x00008812                lec_hci_convert_remove_dev_whitelist_command

i.lec_hci_convert_set_adv_data_command
                0x00008828       0x16
 i.lec_hci_convert_set_adv_data_command
                0x00008828       0x16 D:\program\CY8\PSoC Creator\3.2\PSoC Creator\psoc\content\cycomponentlibrary\CyComponentLibrary.cylib\BLE_v2_0\Library\gccCyBLEStack_BLE_SOC_PERIPHERAL.a(lec_hci_param_converter.o)
                0x00008828                lec_hci_convert_set_adv_data_command

i.lec_hci_convert_set_adv_enable_command
                0x0000883e        0x6
 i.lec_hci_convert_set_adv_enable_command
                0x0000883e        0x6 D:\program\CY8\PSoC Creator\3.2\PSoC Creator\psoc\content\cycomponentlibrary\CyComponentLibrary.cylib\BLE_v2_0\Library\gccCyBLEStack_BLE_SOC_PERIPHERAL.a(lec_hci_param_converter.o)
                0x0000883e                lec_hci_convert_set_adv_enable_command

i.lec_hci_convert_set_adv_param_command
                0x00008844       0x3e
 i.lec_hci_convert_set_adv_param_command
                0x00008844       0x3e D:\program\CY8\PSoC Creator\3.2\PSoC Creator\psoc\content\cycomponentlibrary\CyComponentLibrary.cylib\BLE_v2_0\Library\gccCyBLEStack_BLE_SOC_PERIPHERAL.a(lec_hci_param_converter.o)
                0x00008844                lec_hci_convert_set_adv_param_command

i.lec_hci_convert_set_event_mask_command
                0x00008882       0x12
 i.lec_hci_convert_set_event_mask_command
                0x00008882       0x12 D:\program\CY8\PSoC Creator\3.2\PSoC Creator\psoc\content\cycomponentlibrary\CyComponentLibrary.cylib\BLE_v2_0\Library\gccCyBLEStack_BLE_SOC_PERIPHERAL.a(lec_hci_param_converter.o)
                0x00008882                lec_hci_convert_set_event_mask_command

i.lec_hci_convert_set_host_chn_classsification_command
                0x00008894        0x2
 i.lec_hci_convert_set_host_chn_classsification_command
                0x00008894        0x2 D:\program\CY8\PSoC Creator\3.2\PSoC Creator\psoc\content\cycomponentlibrary\CyComponentLibrary.cylib\BLE_v2_0\Library\gccCyBLEStack_BLE_SOC_PERIPHERAL.a(lec_hci_param_converter.o)
                0x00008894                lec_hci_convert_set_host_chn_classsification_command

i.lec_hci_convert_set_rand_address_command
                0x00008896       0x10
 i.lec_hci_convert_set_rand_address_command
                0x00008896       0x10 D:\program\CY8\PSoC Creator\3.2\PSoC Creator\psoc\content\cycomponentlibrary\CyComponentLibrary.cylib\BLE_v2_0\Library\gccCyBLEStack_BLE_SOC_PERIPHERAL.a(lec_hci_param_converter.o)
                0x00008896                lec_hci_convert_set_rand_address_command

i.lec_hci_convert_set_scan_enable_command
                0x000088a6        0x2
 i.lec_hci_convert_set_scan_enable_command
                0x000088a6        0x2 D:\program\CY8\PSoC Creator\3.2\PSoC Creator\psoc\content\cycomponentlibrary\CyComponentLibrary.cylib\BLE_v2_0\Library\gccCyBLEStack_BLE_SOC_PERIPHERAL.a(lec_hci_param_converter.o)
                0x000088a6                lec_hci_convert_set_scan_enable_command

i.lec_hci_convert_set_scan_param_command
                0x000088a8        0x2
 i.lec_hci_convert_set_scan_param_command
                0x000088a8        0x2 D:\program\CY8\PSoC Creator\3.2\PSoC Creator\psoc\content\cycomponentlibrary\CyComponentLibrary.cylib\BLE_v2_0\Library\gccCyBLEStack_BLE_SOC_PERIPHERAL.a(lec_hci_param_converter.o)
                0x000088a8                lec_hci_convert_set_scan_param_command

i.lec_hci_convert_set_scan_response_command
                0x000088aa       0x16
 i.lec_hci_convert_set_scan_response_command
                0x000088aa       0x16 D:\program\CY8\PSoC Creator\3.2\PSoC Creator\psoc\content\cycomponentlibrary\CyComponentLibrary.cylib\BLE_v2_0\Library\gccCyBLEStack_BLE_SOC_PERIPHERAL.a(lec_hci_param_converter.o)
                0x000088aa                lec_hci_convert_set_scan_response_command

i.lec_hci_convert_start_encryption_command
                0x000088c0       0x38
 i.lec_hci_convert_start_encryption_command
                0x000088c0       0x38 D:\program\CY8\PSoC Creator\3.2\PSoC Creator\psoc\content\cycomponentlibrary\CyComponentLibrary.cylib\BLE_v2_0\Library\gccCyBLEStack_BLE_SOC_PERIPHERAL.a(lec_hci_param_converter.o)
                0x000088c0                lec_hci_convert_start_encryption_command

i.lec_hci_convert_transmitter_test_command
                0x000088f8        0xe
 i.lec_hci_convert_transmitter_test_command
                0x000088f8        0xe D:\program\CY8\PSoC Creator\3.2\PSoC Creator\psoc\content\cycomponentlibrary\CyComponentLibrary.cylib\BLE_v2_0\Library\gccCyBLEStack_BLE_SOC_PERIPHERAL.a(lec_hci_param_converter.o)
                0x000088f8                lec_hci_convert_transmitter_test_command

i.lec_hci_convert_write_authenticated_payload_timeout_command
                0x00008906       0x1a
 i.lec_hci_convert_write_authenticated_payload_timeout_command
                0x00008906       0x1a D:\program\CY8\PSoC Creator\3.2\PSoC Creator\psoc\content\cycomponentlibrary\CyComponentLibrary.cylib\BLE_v2_0\Library\gccCyBLEStack_BLE_SOC_PERIPHERAL.a(lec_hci_param_converter.o)
                0x00008906                lec_hci_convert_write_authenticated_payload_timeout_command

i.hci_validate_disconnection_command
                0x00008920       0x34
 i.hci_validate_disconnection_command
                0x00008920       0x34 D:\program\CY8\PSoC Creator\3.2\PSoC Creator\psoc\content\cycomponentlibrary\CyComponentLibrary.cylib\BLE_v2_0\Library\gccCyBLEStack_BLE_SOC_PERIPHERAL.a(lec_hci_param_validation.o)
                0x00008920                hci_validate_disconnection_command

i.hci_validate_le_add_rem_dev_in_wh_list_cmd
                0x00008954        0xe
 i.hci_validate_le_add_rem_dev_in_wh_list_cmd
                0x00008954        0xe D:\program\CY8\PSoC Creator\3.2\PSoC Creator\psoc\content\cycomponentlibrary\CyComponentLibrary.cylib\BLE_v2_0\Library\gccCyBLEStack_BLE_SOC_PERIPHERAL.a(lec_hci_param_validation.o)
                0x00008954                hci_validate_le_add_rem_dev_in_wh_list_cmd

i.hci_validate_le_clear_whitelist_command
                0x00008962        0x4
 i.hci_validate_le_clear_whitelist_command
                0x00008962        0x4 D:\program\CY8\PSoC Creator\3.2\PSoC Creator\psoc\content\cycomponentlibrary\CyComponentLibrary.cylib\BLE_v2_0\Library\gccCyBLEStack_BLE_SOC_PERIPHERAL.a(lec_hci_param_validation.o)
                0x00008962                hci_validate_le_clear_whitelist_command

i.hci_validate_le_default_command
                0x00008966        0x4
 i.hci_validate_le_default_command
                0x00008966        0x4 D:\program\CY8\PSoC Creator\3.2\PSoC Creator\psoc\content\cycomponentlibrary\CyComponentLibrary.cylib\BLE_v2_0\Library\gccCyBLEStack_BLE_SOC_PERIPHERAL.a(lec_hci_param_validation.o)
                0x00008966                hci_validate_le_default_command

i.hci_validate_le_encrypt_cmd_params
                0x0000896a        0x4
 i.hci_validate_le_encrypt_cmd_params
                0x0000896a        0x4 D:\program\CY8\PSoC Creator\3.2\PSoC Creator\psoc\content\cycomponentlibrary\CyComponentLibrary.cylib\BLE_v2_0\Library\gccCyBLEStack_BLE_SOC_PERIPHERAL.a(lec_hci_param_validation.o)
                0x0000896a                hci_validate_le_encrypt_cmd_params

i.hci_validate_le_longterm_key_req_neg_reply_command
                0x0000896e       0x14
 i.hci_validate_le_longterm_key_req_neg_reply_command
                0x0000896e       0x14 D:\program\CY8\PSoC Creator\3.2\PSoC Creator\psoc\content\cycomponentlibrary\CyComponentLibrary.cylib\BLE_v2_0\Library\gccCyBLEStack_BLE_SOC_PERIPHERAL.a(lec_hci_param_validation.o)
                0x0000896e                hci_validate_le_longterm_key_req_neg_reply_command

i.hci_validate_le_longterm_key_req_reply_command
                0x00008982       0x14
 i.hci_validate_le_longterm_key_req_reply_command
                0x00008982       0x14 D:\program\CY8\PSoC Creator\3.2\PSoC Creator\psoc\content\cycomponentlibrary\CyComponentLibrary.cylib\BLE_v2_0\Library\gccCyBLEStack_BLE_SOC_PERIPHERAL.a(lec_hci_param_validation.o)
                0x00008982                hci_validate_le_longterm_key_req_reply_command

i.hci_validate_le_read_ch_map_command
                0x00008996       0x14
 i.hci_validate_le_read_ch_map_command
                0x00008996       0x14 D:\program\CY8\PSoC Creator\3.2\PSoC Creator\psoc\content\cycomponentlibrary\CyComponentLibrary.cylib\BLE_v2_0\Library\gccCyBLEStack_BLE_SOC_PERIPHERAL.a(lec_hci_param_validation.o)
                0x00008996                hci_validate_le_read_ch_map_command

i.hci_validate_le_read_whitelist_size_command
                0x000089aa        0x4
 i.hci_validate_le_read_whitelist_size_command
                0x000089aa        0x4 D:\program\CY8\PSoC Creator\3.2\PSoC Creator\psoc\content\cycomponentlibrary\CyComponentLibrary.cylib\BLE_v2_0\Library\gccCyBLEStack_BLE_SOC_PERIPHERAL.a(lec_hci_param_validation.o)
                0x000089aa                hci_validate_le_read_whitelist_size_command

i.hci_validate_le_receiver_test_command
                0x000089ae        0xe
 i.hci_validate_le_receiver_test_command
                0x000089ae        0xe D:\program\CY8\PSoC Creator\3.2\PSoC Creator\psoc\content\cycomponentlibrary\CyComponentLibrary.cylib\BLE_v2_0\Library\gccCyBLEStack_BLE_SOC_PERIPHERAL.a(lec_hci_param_validation.o)
                0x000089ae                hci_validate_le_receiver_test_command

i.hci_validate_le_set_adv_enable
                0x000089bc        0xe
 i.hci_validate_le_set_adv_enable
                0x000089bc        0xe D:\program\CY8\PSoC Creator\3.2\PSoC Creator\psoc\content\cycomponentlibrary\CyComponentLibrary.cylib\BLE_v2_0\Library\gccCyBLEStack_BLE_SOC_PERIPHERAL.a(lec_hci_param_validation.o)
                0x000089bc                hci_validate_le_set_adv_enable

i.hci_validate_le_set_adv_params_command
                0x000089ca       0x54
 i.hci_validate_le_set_adv_params_command
                0x000089ca       0x54 D:\program\CY8\PSoC Creator\3.2\PSoC Creator\psoc\content\cycomponentlibrary\CyComponentLibrary.cylib\BLE_v2_0\Library\gccCyBLEStack_BLE_SOC_PERIPHERAL.a(lec_hci_param_validation.o)
                0x000089ca                hci_validate_le_set_adv_params_command

i.hci_validate_le_set_adv_scan_resp_data_command
                0x00008a1e        0xe
 i.hci_validate_le_set_adv_scan_resp_data_command
                0x00008a1e        0xe D:\program\CY8\PSoC Creator\3.2\PSoC Creator\psoc\content\cycomponentlibrary\CyComponentLibrary.cylib\BLE_v2_0\Library\gccCyBLEStack_BLE_SOC_PERIPHERAL.a(lec_hci_param_validation.o)
                0x00008a1e                hci_validate_le_set_adv_scan_resp_data_command

i.hci_validate_le_set_event_mask_command
                0x00008a2c       0x28
 i.hci_validate_le_set_event_mask_command
                0x00008a2c       0x28 D:\program\CY8\PSoC Creator\3.2\PSoC Creator\psoc\content\cycomponentlibrary\CyComponentLibrary.cylib\BLE_v2_0\Library\gccCyBLEStack_BLE_SOC_PERIPHERAL.a(lec_hci_param_validation.o)
                0x00008a2c                hci_validate_le_set_event_mask_command

i.hci_validate_le_set_host_ch_map_command
                0x00008a54        0x4
 i.hci_validate_le_set_host_ch_map_command
                0x00008a54        0x4 D:\program\CY8\PSoC Creator\3.2\PSoC Creator\psoc\content\cycomponentlibrary\CyComponentLibrary.cylib\BLE_v2_0\Library\gccCyBLEStack_BLE_SOC_PERIPHERAL.a(lec_hci_param_validation.o)
                0x00008a54                hci_validate_le_set_host_ch_map_command

i.hci_validate_le_set_random_address_command
                0x00008a58        0x4
 i.hci_validate_le_set_random_address_command
                0x00008a58        0x4 D:\program\CY8\PSoC Creator\3.2\PSoC Creator\psoc\content\cycomponentlibrary\CyComponentLibrary.cylib\BLE_v2_0\Library\gccCyBLEStack_BLE_SOC_PERIPHERAL.a(lec_hci_param_validation.o)
                0x00008a58                hci_validate_le_set_random_address_command

i.hci_validate_le_set_scan_enable
                0x00008a5c        0x4
 i.hci_validate_le_set_scan_enable
                0x00008a5c        0x4 D:\program\CY8\PSoC Creator\3.2\PSoC Creator\psoc\content\cycomponentlibrary\CyComponentLibrary.cylib\BLE_v2_0\Library\gccCyBLEStack_BLE_SOC_PERIPHERAL.a(lec_hci_param_validation.o)
                0x00008a5c                hci_validate_le_set_scan_enable

i.hci_validate_le_set_scan_params_command
                0x00008a60        0x4
 i.hci_validate_le_set_scan_params_command
                0x00008a60        0x4 D:\program\CY8\PSoC Creator\3.2\PSoC Creator\psoc\content\cycomponentlibrary\CyComponentLibrary.cylib\BLE_v2_0\Library\gccCyBLEStack_BLE_SOC_PERIPHERAL.a(lec_hci_param_validation.o)
                0x00008a60                hci_validate_le_set_scan_params_command

i.hci_validate_le_test_end_command
                0x00008a64        0x4
 i.hci_validate_le_test_end_command
                0x00008a64        0x4 D:\program\CY8\PSoC Creator\3.2\PSoC Creator\psoc\content\cycomponentlibrary\CyComponentLibrary.cylib\BLE_v2_0\Library\gccCyBLEStack_BLE_SOC_PERIPHERAL.a(lec_hci_param_validation.o)
                0x00008a64                hci_validate_le_test_end_command

i.hci_validate_le_transmitter_test_command
                0x00008a68       0x1a
 i.hci_validate_le_transmitter_test_command
                0x00008a68       0x1a D:\program\CY8\PSoC Creator\3.2\PSoC Creator\psoc\content\cycomponentlibrary\CyComponentLibrary.cylib\BLE_v2_0\Library\gccCyBLEStack_BLE_SOC_PERIPHERAL.a(lec_hci_param_validation.o)
                0x00008a68                hci_validate_le_transmitter_test_command

i.hci_validate_read_authenticated_payload_timeout_command
                0x00008a82       0x14
 i.hci_validate_read_authenticated_payload_timeout_command
                0x00008a82       0x14 D:\program\CY8\PSoC Creator\3.2\PSoC Creator\psoc\content\cycomponentlibrary\CyComponentLibrary.cylib\BLE_v2_0\Library\gccCyBLEStack_BLE_SOC_PERIPHERAL.a(lec_hci_param_validation.o)
                0x00008a82                hci_validate_read_authenticated_payload_timeout_command

i.hci_validate_read_rssi_command
                0x00008a96       0x14
 i.hci_validate_read_rssi_command
                0x00008a96       0x14 D:\program\CY8\PSoC Creator\3.2\PSoC Creator\psoc\content\cycomponentlibrary\CyComponentLibrary.cylib\BLE_v2_0\Library\gccCyBLEStack_BLE_SOC_PERIPHERAL.a(lec_hci_param_validation.o)
                0x00008a96                hci_validate_read_rssi_command

i.hci_validate_read_transmit_power_level_command
                0x00008aaa       0x20
 i.hci_validate_read_transmit_power_level_command
                0x00008aaa       0x20 D:\program\CY8\PSoC Creator\3.2\PSoC Creator\psoc\content\cycomponentlibrary\CyComponentLibrary.cylib\BLE_v2_0\Library\gccCyBLEStack_BLE_SOC_PERIPHERAL.a(lec_hci_param_validation.o)
                0x00008aaa                hci_validate_read_transmit_power_level_command

i.hci_validate_reset_command
                0x00008aca        0x4
 i.hci_validate_reset_command
                0x00008aca        0x4 D:\program\CY8\PSoC Creator\3.2\PSoC Creator\psoc\content\cycomponentlibrary\CyComponentLibrary.cylib\BLE_v2_0\Library\gccCyBLEStack_BLE_SOC_PERIPHERAL.a(lec_hci_param_validation.o)
                0x00008aca                hci_validate_reset_command

i.hci_validate_write_authenticated_payload_timeout_command
                0x00008ace       0x20
 i.hci_validate_write_authenticated_payload_timeout_command
                0x00008ace       0x20 D:\program\CY8\PSoC Creator\3.2\PSoC Creator\psoc\content\cycomponentlibrary\CyComponentLibrary.cylib\BLE_v2_0\Library\gccCyBLEStack_BLE_SOC_PERIPHERAL.a(lec_hci_param_validation.o)
                0x00008ace                hci_validate_write_authenticated_payload_timeout_command

i.hci_td_deliver_tx_packet
                0x00008af0       0x34
 i.hci_td_deliver_tx_packet
                0x00008af0       0x34 D:\program\CY8\PSoC Creator\3.2\PSoC Creator\psoc\content\cycomponentlibrary\CyComponentLibrary.cylib\BLE_v2_0\Library\gccCyBLEStack_BLE_SOC_PERIPHERAL.a(hci_td.o)
                0x00008af0                hci_td_deliver_tx_packet

i.hci_td_enque_pkt
                0x00008b24       0x3c
 i.hci_td_enque_pkt
                0x00008b24       0x3c D:\program\CY8\PSoC Creator\3.2\PSoC Creator\psoc\content\cycomponentlibrary\CyComponentLibrary.cylib\BLE_v2_0\Library\gccCyBLEStack_BLE_SOC_PERIPHERAL.a(hci_td.o)
                0x00008b24                hci_td_enque_pkt

i.hci_td_handle_received_bytes
                0x00008b60        0x2
 i.hci_td_handle_received_bytes
                0x00008b60        0x2 D:\program\CY8\PSoC Creator\3.2\PSoC Creator\psoc\content\cycomponentlibrary\CyComponentLibrary.cylib\BLE_v2_0\Library\gccCyBLEStack_BLE_SOC_PERIPHERAL.a(hci_td.o)
                0x00008b60                hci_td_handle_received_bytes

i.hci_td_handle_received_packet
                0x00008b62       0x3e
 i.hci_td_handle_received_packet
                0x00008b62       0x3e D:\program\CY8\PSoC Creator\3.2\PSoC Creator\psoc\content\cycomponentlibrary\CyComponentLibrary.cylib\BLE_v2_0\Library\gccCyBLEStack_BLE_SOC_PERIPHERAL.a(hci_td.o)
                0x00008b62                hci_td_handle_received_packet

i.hci_td_tx_complete
                0x00008ba0       0x48
 i.hci_td_tx_complete
                0x00008ba0       0x48 D:\program\CY8\PSoC Creator\3.2\PSoC Creator\psoc\content\cycomponentlibrary\CyComponentLibrary.cylib\BLE_v2_0\Library\gccCyBLEStack_BLE_SOC_PERIPHERAL.a(hci_td.o)
                0x00008ba0                hci_td_tx_complete

i.hci_td_tx_packet
                0x00008be8        0xc
 i.hci_td_tx_packet
                0x00008be8        0xc D:\program\CY8\PSoC Creator\3.2\PSoC Creator\psoc\content\cycomponentlibrary\CyComponentLibrary.cylib\BLE_v2_0\Library\gccCyBLEStack_BLE_SOC_PERIPHERAL.a(hci_td.o)
                0x00008be8                hci_td_tx_packet

i.hci_td_tx_packet_data
                0x00008bf4       0x1e
 i.hci_td_tx_packet_data
                0x00008bf4       0x1e D:\program\CY8\PSoC Creator\3.2\PSoC Creator\psoc\content\cycomponentlibrary\CyComponentLibrary.cylib\BLE_v2_0\Library\gccCyBLEStack_BLE_SOC_PERIPHERAL.a(hci_td.o)
                0x00008bf4                hci_td_tx_packet_data

i.pf_hci_transport_alloc_buffer
                0x00008c12       0x28
 i.pf_hci_transport_alloc_buffer
                0x00008c12       0x28 D:\program\CY8\PSoC Creator\3.2\PSoC Creator\psoc\content\cycomponentlibrary\CyComponentLibrary.cylib\BLE_v2_0\Library\gccCyBLEStack_BLE_SOC_PERIPHERAL.a(hci_td.o)
                0x00008c12                pf_hci_transport_alloc_buffer

i.hci_td_deliver_acl_data_to_host
                0x00008c3a       0x1e
 i.hci_td_deliver_acl_data_to_host
                0x00008c3a       0x1e D:\program\CY8\PSoC Creator\3.2\PSoC Creator\psoc\content\cycomponentlibrary\CyComponentLibrary.cylib\BLE_v2_0\Library\gccCyBLEStack_BLE_SOC_PERIPHERAL.a(hci_td_api.o)
                0x00008c3a                hci_td_deliver_acl_data_to_host

i.hci_td_deliver_event_to_host
                0x00008c58       0x22
 i.hci_td_deliver_event_to_host
                0x00008c58       0x22 D:\program\CY8\PSoC Creator\3.2\PSoC Creator\psoc\content\cycomponentlibrary\CyComponentLibrary.cylib\BLE_v2_0\Library\gccCyBLEStack_BLE_SOC_PERIPHERAL.a(hci_td_api.o)
                0x00008c58                hci_td_deliver_event_to_host

i.hci_td_handle_transport_init_completed
                0x00008c7a        0xc
 i.hci_td_handle_transport_init_completed
                0x00008c7a        0xc D:\program\CY8\PSoC Creator\3.2\PSoC Creator\psoc\content\cycomponentlibrary\CyComponentLibrary.cylib\BLE_v2_0\Library\gccCyBLEStack_BLE_SOC_PERIPHERAL.a(hci_td_api.o)
                0x00008c7a                hci_td_handle_transport_init_completed

i.hci_td_handle_tx_completed
                0x00008c86       0x2a
 i.hci_td_handle_tx_completed
                0x00008c86       0x2a D:\program\CY8\PSoC Creator\3.2\PSoC Creator\psoc\content\cycomponentlibrary\CyComponentLibrary.cylib\BLE_v2_0\Library\gccCyBLEStack_BLE_SOC_PERIPHERAL.a(hci_td_api.o)
                0x00008c86                hci_td_handle_tx_completed

i.hci_td_init   0x00008cb0       0x44
 i.hci_td_init  0x00008cb0       0x44 D:\program\CY8\PSoC Creator\3.2\PSoC Creator\psoc\content\cycomponentlibrary\CyComponentLibrary.cylib\BLE_v2_0\Library\gccCyBLEStack_BLE_SOC_PERIPHERAL.a(hci_td_api.o)
                0x00008cb0                hci_td_init

i.hci_td_process_signal
                0x00008cf4       0x2c
 i.hci_td_process_signal
                0x00008cf4       0x2c D:\program\CY8\PSoC Creator\3.2\PSoC Creator\psoc\content\cycomponentlibrary\CyComponentLibrary.cylib\BLE_v2_0\Library\gccCyBLEStack_BLE_SOC_PERIPHERAL.a(hci_td_task.o)
                0x00008cf4                hci_td_process_signal

i.CyBle_BluetoothOnCmptCB
                0x00008d20       0x7c
 i.CyBle_BluetoothOnCmptCB
                0x00008d20       0x7c D:\program\CY8\PSoC Creator\3.2\PSoC Creator\psoc\content\cycomponentlibrary\CyComponentLibrary.cylib\BLE_v2_0\Library\gccCyBLEStack_BLE_SOC_PERIPHERAL.a(host_main.o)

i.CyBle_HostStackInit
                0x00008d9c       0x34
 i.CyBle_HostStackInit
                0x00008d9c       0x34 D:\program\CY8\PSoC Creator\3.2\PSoC Creator\psoc\content\cycomponentlibrary\CyComponentLibrary.cylib\BLE_v2_0\Library\gccCyBLEStack_BLE_SOC_PERIPHERAL.a(host_main.o)
                0x00008d9c                CyBle_HostStackInit

i.CyBle_HostStackOff
                0x00008dd0       0x10
 i.CyBle_HostStackOff
                0x00008dd0       0x10 D:\program\CY8\PSoC Creator\3.2\PSoC Creator\psoc\content\cycomponentlibrary\CyComponentLibrary.cylib\BLE_v2_0\Library\gccCyBLEStack_BLE_SOC_PERIPHERAL.a(host_main.o)
                0x00008dd0                CyBle_HostStackOff

i.CyBle_HostStackOn
                0x00008de0       0x44
 i.CyBle_HostStackOn
                0x00008de0       0x44 D:\program\CY8\PSoC Creator\3.2\PSoC Creator\psoc\content\cycomponentlibrary\CyComponentLibrary.cylib\BLE_v2_0\Library\gccCyBLEStack_BLE_SOC_PERIPHERAL.a(host_main.o)
                0x00008de0                CyBle_HostStackOn

i.CyBle_SendEvToApp
                0x00008e24       0x14
 i.CyBle_SendEvToApp
                0x00008e24       0x14 D:\program\CY8\PSoC Creator\3.2\PSoC Creator\psoc\content\cycomponentlibrary\CyComponentLibrary.cylib\BLE_v2_0\Library\gccCyBLEStack_BLE_SOC_PERIPHERAL.a(host_main.o)
                0x00008e24                CyBle_SendEvToApp

i.BT_att_register
                0x00008e38       0x2c
 i.BT_att_register
                0x00008e38       0x2c D:\program\CY8\PSoC Creator\3.2\PSoC Creator\psoc\content\cycomponentlibrary\CyComponentLibrary.cylib\BLE_v2_0\Library\gccCyBLEStack_BLE_SOC_PERIPHERAL.a(att_api.o)
                0x00008e38                BT_att_register

i.BT_att_send_pdu
                0x00008e64      0x63c
 i.BT_att_send_pdu
                0x00008e64      0x63c D:\program\CY8\PSoC Creator\3.2\PSoC Creator\psoc\content\cycomponentlibrary\CyComponentLibrary.cylib\BLE_v2_0\Library\gccCyBLEStack_BLE_SOC_PERIPHERAL.a(att_api.o)
                0x00008e64                BT_att_send_pdu

i.att_bt_init   0x000094a0       0x38
 i.att_bt_init  0x000094a0       0x38 D:\program\CY8\PSoC Creator\3.2\PSoC Creator\psoc\content\cycomponentlibrary\CyComponentLibrary.cylib\BLE_v2_0\Library\gccCyBLEStack_BLE_SOC_PERIPHERAL.a(att_init.o)
                0x000094a0                att_bt_init

i.att_bt_shutdown
                0x000094d8        0x2
 i.att_bt_shutdown
                0x000094d8        0x2 D:\program\CY8\PSoC Creator\3.2\PSoC Creator\psoc\content\cycomponentlibrary\CyComponentLibrary.cylib\BLE_v2_0\Library\gccCyBLEStack_BLE_SOC_PERIPHERAL.a(att_init.o)
                0x000094d8                att_bt_shutdown

i.att_init      0x000094da        0x2
 i.att_init     0x000094da        0x2 D:\program\CY8\PSoC Creator\3.2\PSoC Creator\psoc\content\cycomponentlibrary\CyComponentLibrary.cylib\BLE_v2_0\Library\gccCyBLEStack_BLE_SOC_PERIPHERAL.a(att_init.o)
                0x000094da                att_init

i.att_access_state_handler
                0x000094dc       0x18
 i.att_access_state_handler
                0x000094dc       0x18 D:\program\CY8\PSoC Creator\3.2\PSoC Creator\psoc\content\cycomponentlibrary\CyComponentLibrary.cylib\BLE_v2_0\Library\gccCyBLEStack_BLE_SOC_PERIPHERAL.a(att_internal.o)
                0x000094dc                att_access_state_handler

i.att_fsm_change_state
                0x000094f4       0x78
 i.att_fsm_change_state
                0x000094f4       0x78 D:\program\CY8\PSoC Creator\3.2\PSoC Creator\psoc\content\cycomponentlibrary\CyComponentLibrary.cylib\BLE_v2_0\Library\gccCyBLEStack_BLE_SOC_PERIPHERAL.a(att_internal.o)
                0x000094f4                att_fsm_change_state

i.att_fsm_set_state
                0x0000956c       0x38
 i.att_fsm_set_state
                0x0000956c       0x38 D:\program\CY8\PSoC Creator\3.2\PSoC Creator\psoc\content\cycomponentlibrary\CyComponentLibrary.cylib\BLE_v2_0\Library\gccCyBLEStack_BLE_SOC_PERIPHERAL.a(att_internal.o)
                0x0000956c                att_fsm_set_state

i.att_get_fsm_event
                0x000095a4       0x1e
 i.att_get_fsm_event
                0x000095a4       0x1e D:\program\CY8\PSoC Creator\3.2\PSoC Creator\psoc\content\cycomponentlibrary\CyComponentLibrary.cylib\BLE_v2_0\Library\gccCyBLEStack_BLE_SOC_PERIPHERAL.a(att_internal.o)
                0x000095a4                att_get_fsm_event

i.att_l2cap_data_cb
                0x000095c4      0x130
 i.att_l2cap_data_cb
                0x000095c4      0x130 D:\program\CY8\PSoC Creator\3.2\PSoC Creator\psoc\content\cycomponentlibrary\CyComponentLibrary.cylib\BLE_v2_0\Library\gccCyBLEStack_BLE_SOC_PERIPHERAL.a(att_internal.o)
                0x000095c4                att_l2cap_data_cb

i.att_notify_application
                0x000096f4       0x70
 i.att_notify_application
                0x000096f4       0x70 D:\program\CY8\PSoC Creator\3.2\PSoC Creator\psoc\content\cycomponentlibrary\CyComponentLibrary.cylib\BLE_v2_0\Library\gccCyBLEStack_BLE_SOC_PERIPHERAL.a(att_internal.o)
                0x000096f4                att_notify_application

i.att_pack_handle_list
                0x00009764       0x48
 i.att_pack_handle_list
                0x00009764       0x48 D:\program\CY8\PSoC Creator\3.2\PSoC Creator\psoc\content\cycomponentlibrary\CyComponentLibrary.cylib\BLE_v2_0\Library\gccCyBLEStack_BLE_SOC_PERIPHERAL.a(att_internal.o)
                0x00009764                att_pack_handle_list

i.att_pack_handle_uuid_pair
                0x000097ac       0x94
 i.att_pack_handle_uuid_pair
                0x000097ac       0x94 D:\program\CY8\PSoC Creator\3.2\PSoC Creator\psoc\content\cycomponentlibrary\CyComponentLibrary.cylib\BLE_v2_0\Library\gccCyBLEStack_BLE_SOC_PERIPHERAL.a(att_internal.o)
                0x000097ac                att_pack_handle_uuid_pair

i.att_pack_handle_value_pair
                0x00009840       0x4c
 i.att_pack_handle_value_pair
                0x00009840       0x4c D:\program\CY8\PSoC Creator\3.2\PSoC Creator\psoc\content\cycomponentlibrary\CyComponentLibrary.cylib\BLE_v2_0\Library\gccCyBLEStack_BLE_SOC_PERIPHERAL.a(att_internal.o)
                0x00009840                att_pack_handle_value_pair

i.att_pack_value
                0x0000988c       0x44
 i.att_pack_value
                0x0000988c       0x44 D:\program\CY8\PSoC Creator\3.2\PSoC Creator\psoc\content\cycomponentlibrary\CyComponentLibrary.cylib\BLE_v2_0\Library\gccCyBLEStack_BLE_SOC_PERIPHERAL.a(att_internal.o)
                0x0000988c                att_pack_value

i.att_timer_cb  0x000098d0       0x60
 i.att_timer_cb
                0x000098d0       0x60 D:\program\CY8\PSoC Creator\3.2\PSoC Creator\psoc\content\cycomponentlibrary\CyComponentLibrary.cylib\BLE_v2_0\Library\gccCyBLEStack_BLE_SOC_PERIPHERAL.a(att_internal.o)
                0x000098d0                att_timer_cb

i.att_transport_write
                0x00009930       0x48
 i.att_transport_write
                0x00009930       0x48 D:\program\CY8\PSoC Creator\3.2\PSoC Creator\psoc\content\cycomponentlibrary\CyComponentLibrary.cylib\BLE_v2_0\Library\gccCyBLEStack_BLE_SOC_PERIPHERAL.a(att_internal.o)
                0x00009930                att_transport_write

i.BT_bluetooth_get_stack_init_state
                0x00009978       0x1c
 i.BT_bluetooth_get_stack_init_state
                0x00009978       0x1c D:\program\CY8\PSoC Creator\3.2\PSoC Creator\psoc\content\cycomponentlibrary\CyComponentLibrary.cylib\BLE_v2_0\Library\gccCyBLEStack_BLE_SOC_PERIPHERAL.a(BT_common.o)
                0x00009978                BT_bluetooth_get_stack_init_state

i.BT_bluetooth_off
                0x00009994       0x48
 i.BT_bluetooth_off
                0x00009994       0x48 D:\program\CY8\PSoC Creator\3.2\PSoC Creator\psoc\content\cycomponentlibrary\CyComponentLibrary.cylib\BLE_v2_0\Library\gccCyBLEStack_BLE_SOC_PERIPHERAL.a(BT_common.o)
                0x00009994                BT_bluetooth_off

i.BT_bluetooth_on
                0x000099dc       0x60
 i.BT_bluetooth_on
                0x000099dc       0x60 D:\program\CY8\PSoC Creator\3.2\PSoC Creator\psoc\content\cycomponentlibrary\CyComponentLibrary.cylib\BLE_v2_0\Library\gccCyBLEStack_BLE_SOC_PERIPHERAL.a(BT_common.o)
                0x000099dc                BT_bluetooth_on

i.BT_common_bluetooth_on_complete
                0x00009a3c       0x20
 i.BT_common_bluetooth_on_complete
                0x00009a3c       0x20 D:\program\CY8\PSoC Creator\3.2\PSoC Creator\psoc\content\cycomponentlibrary\CyComponentLibrary.cylib\BLE_v2_0\Library\gccCyBLEStack_BLE_SOC_PERIPHERAL.a(BT_common.o)
                0x00009a3c                BT_common_bluetooth_on_complete

i.BT_ethermind_init
                0x00009a5c       0x40
 i.BT_ethermind_init
                0x00009a5c       0x40 D:\program\CY8\PSoC Creator\3.2\PSoC Creator\psoc\content\cycomponentlibrary\CyComponentLibrary.cylib\BLE_v2_0\Library\gccCyBLEStack_BLE_SOC_PERIPHERAL.a(BT_common.o)
                0x00009a5c                BT_ethermind_init

i.device_queue_alloc
                0x00009a9c       0x98
 i.device_queue_alloc
                0x00009a9c       0x98 D:\program\CY8\PSoC Creator\3.2\PSoC Creator\psoc\content\cycomponentlibrary\CyComponentLibrary.cylib\BLE_v2_0\Library\gccCyBLEStack_BLE_SOC_PERIPHERAL.a(device_queue.o)
                0x00009a9c                device_queue_alloc

i.device_queue_bt_init
                0x00009b34       0x40
 i.device_queue_bt_init
                0x00009b34       0x40 D:\program\CY8\PSoC Creator\3.2\PSoC Creator\psoc\content\cycomponentlibrary\CyComponentLibrary.cylib\BLE_v2_0\Library\gccCyBLEStack_BLE_SOC_PERIPHERAL.a(device_queue.o)
                0x00009b34                device_queue_bt_init

i.device_queue_bt_shutdown
                0x00009b74        0x8
 i.device_queue_bt_shutdown
                0x00009b74        0x8 D:\program\CY8\PSoC Creator\3.2\PSoC Creator\psoc\content\cycomponentlibrary\CyComponentLibrary.cylib\BLE_v2_0\Library\gccCyBLEStack_BLE_SOC_PERIPHERAL.a(device_queue.o)
                0x00009b74                device_queue_bt_shutdown

i.device_queue_free
                0x00009b7c       0x6c
 i.device_queue_free
                0x00009b7c       0x6c D:\program\CY8\PSoC Creator\3.2\PSoC Creator\psoc\content\cycomponentlibrary\CyComponentLibrary.cylib\BLE_v2_0\Library\gccCyBLEStack_BLE_SOC_PERIPHERAL.a(device_queue.o)
                0x00009b7c                device_queue_free

i.device_queue_get_local_addr
                0x00009be8       0x44
 i.device_queue_get_local_addr
                0x00009be8       0x44 D:\program\CY8\PSoC Creator\3.2\PSoC Creator\psoc\content\cycomponentlibrary\CyComponentLibrary.cylib\BLE_v2_0\Library\gccCyBLEStack_BLE_SOC_PERIPHERAL.a(device_queue.o)
                0x00009be8                device_queue_get_local_addr

i.device_queue_get_remote_addr
                0x00009c2c       0x44
 i.device_queue_get_remote_addr
                0x00009c2c       0x44 D:\program\CY8\PSoC Creator\3.2\PSoC Creator\psoc\content\cycomponentlibrary\CyComponentLibrary.cylib\BLE_v2_0\Library\gccCyBLEStack_BLE_SOC_PERIPHERAL.a(device_queue.o)
                0x00009c2c                device_queue_get_remote_addr

i.device_queue_init
                0x00009c70       0x14
 i.device_queue_init
                0x00009c70       0x14 D:\program\CY8\PSoC Creator\3.2\PSoC Creator\psoc\content\cycomponentlibrary\CyComponentLibrary.cylib\BLE_v2_0\Library\gccCyBLEStack_BLE_SOC_PERIPHERAL.a(device_queue.o)
                0x00009c70                device_queue_init

i.device_queue_search_remote_addr
                0x00009c84       0x88
 i.device_queue_search_remote_addr
                0x00009c84       0x88 D:\program\CY8\PSoC Creator\3.2\PSoC Creator\psoc\content\cycomponentlibrary\CyComponentLibrary.cylib\BLE_v2_0\Library\gccCyBLEStack_BLE_SOC_PERIPHERAL.a(device_queue.o)
                0x00009c84                device_queue_search_remote_addr

i.device_queue_set_curr_addr_type
                0x00009d0c       0x28
 i.device_queue_set_curr_addr_type
                0x00009d0c       0x28 D:\program\CY8\PSoC Creator\3.2\PSoC Creator\psoc\content\cycomponentlibrary\CyComponentLibrary.cylib\BLE_v2_0\Library\gccCyBLEStack_BLE_SOC_PERIPHERAL.a(device_queue.o)
                0x00009d0c                device_queue_set_curr_addr_type

i.device_queue_set_remote_addr
                0x00009d34       0x44
 i.device_queue_set_remote_addr
                0x00009d34       0x44 D:\program\CY8\PSoC Creator\3.2\PSoC Creator\psoc\content\cycomponentlibrary\CyComponentLibrary.cylib\BLE_v2_0\Library\gccCyBLEStack_BLE_SOC_PERIPHERAL.a(device_queue.o)
                0x00009d34                device_queue_set_remote_addr

i.dq_pstorage_cb
                0x00009d78       0x48
 i.dq_pstorage_cb
                0x00009d78       0x48 D:\program\CY8\PSoC Creator\3.2\PSoC Creator\psoc\content\cycomponentlibrary\CyComponentLibrary.cylib\BLE_v2_0\Library\gccCyBLEStack_BLE_SOC_PERIPHERAL.a(device_queue.o)
                0x00009d78                dq_pstorage_cb

i.CyBle_L2capCB
                0x00009dc0       0x34
 i.CyBle_L2capCB
                0x00009dc0       0x34 D:\program\CY8\PSoC Creator\3.2\PSoC Creator\psoc\content\cycomponentlibrary\CyComponentLibrary.cylib\BLE_v2_0\Library\gccCyBLEStack_BLE_SOC_PERIPHERAL.a(l2cap.o)
                0x00009dc0                CyBle_L2capCB

i.CyBle_L2capFreeBuffers
                0x00009df4       0x34
 i.CyBle_L2capFreeBuffers
                0x00009df4       0x34 D:\program\CY8\PSoC Creator\3.2\PSoC Creator\psoc\content\cycomponentlibrary\CyComponentLibrary.cylib\BLE_v2_0\Library\gccCyBLEStack_BLE_SOC_PERIPHERAL.a(l2cap.o)
                0x00009df4                CyBle_L2capFreeBuffers

i.CyBle_L2capInit
                0x00009e28      0x170
 i.CyBle_L2capInit
                0x00009e28      0x170 D:\program\CY8\PSoC Creator\3.2\PSoC Creator\psoc\content\cycomponentlibrary\CyComponentLibrary.cylib\BLE_v2_0\Library\gccCyBLEStack_BLE_SOC_PERIPHERAL.a(l2cap.o)
                0x00009e28                CyBle_L2capInit

i.CyBle_L2capMemsetBuffers
                0x00009f98       0x54
 i.CyBle_L2capMemsetBuffers
                0x00009f98       0x54 D:\program\CY8\PSoC Creator\3.2\PSoC Creator\psoc\content\cycomponentlibrary\CyComponentLibrary.cylib\BLE_v2_0\Library\gccCyBLEStack_BLE_SOC_PERIPHERAL.a(l2cap.o)
                0x00009f98                CyBle_L2capMemsetBuffers

i.CyBle_L2capShutdown
                0x00009fec        0xc
 i.CyBle_L2capShutdown
                0x00009fec        0xc D:\program\CY8\PSoC Creator\3.2\PSoC Creator\psoc\content\cycomponentlibrary\CyComponentLibrary.cylib\BLE_v2_0\Library\gccCyBLEStack_BLE_SOC_PERIPHERAL.a(l2cap.o)
                0x00009fec                CyBle_L2capShutdown

i.CyBle_L2capTxQueueFlowCb
                0x00009ff8        0xe
 i.CyBle_L2capTxQueueFlowCb
                0x00009ff8        0xe D:\program\CY8\PSoC Creator\3.2\PSoC Creator\psoc\content\cycomponentlibrary\CyComponentLibrary.cylib\BLE_v2_0\Library\gccCyBLEStack_BLE_SOC_PERIPHERAL.a(l2cap.o)
                0x00009ff8                CyBle_L2capTxQueueFlowCb

i.l2cap_disconnect_cid
                0x0000a008       0xa8
 i.l2cap_disconnect_cid
                0x0000a008       0xa8 D:\program\CY8\PSoC Creator\3.2\PSoC Creator\psoc\content\cycomponentlibrary\CyComponentLibrary.cylib\BLE_v2_0\Library\gccCyBLEStack_BLE_SOC_PERIPHERAL.a(l2cap_disconnect.o)
                0x0000a008                l2cap_disconnect_cid

i.l2cap_disconnect_req
                0x0000a0b0       0xcc
 i.l2cap_disconnect_req
                0x0000a0b0       0xcc D:\program\CY8\PSoC Creator\3.2\PSoC Creator\psoc\content\cycomponentlibrary\CyComponentLibrary.cylib\BLE_v2_0\Library\gccCyBLEStack_BLE_SOC_PERIPHERAL.a(l2cap_disconnect.o)
                0x0000a0b0                l2cap_disconnect_req

i.l2cap_disconnect_rsp
                0x0000a17c       0x90
 i.l2cap_disconnect_rsp
                0x0000a17c       0x90 D:\program\CY8\PSoC Creator\3.2\PSoC Creator\psoc\content\cycomponentlibrary\CyComponentLibrary.cylib\BLE_v2_0\Library\gccCyBLEStack_BLE_SOC_PERIPHERAL.a(l2cap_disconnect.o)
                0x0000a17c                l2cap_disconnect_rsp

i.l2cap_lp_disconnect_ind
                0x0000a20c       0xcc
 i.l2cap_lp_disconnect_ind
                0x0000a20c       0xcc D:\program\CY8\PSoC Creator\3.2\PSoC Creator\psoc\content\cycomponentlibrary\CyComponentLibrary.cylib\BLE_v2_0\Library\gccCyBLEStack_BLE_SOC_PERIPHERAL.a(l2cap_disconnect.o)
                0x0000a20c                l2cap_lp_disconnect_ind

i.l2cap_bt_init
                0x0000a2d8       0x80
 i.l2cap_bt_init
                0x0000a2d8       0x80 D:\program\CY8\PSoC Creator\3.2\PSoC Creator\psoc\content\cycomponentlibrary\CyComponentLibrary.cylib\BLE_v2_0\Library\gccCyBLEStack_BLE_SOC_PERIPHERAL.a(l2cap_init.o)
                0x0000a2d8                l2cap_bt_init

i.l2cap_bt_shutdown
                0x0000a358       0x24
 i.l2cap_bt_shutdown
                0x0000a358       0x24 D:\program\CY8\PSoC Creator\3.2\PSoC Creator\psoc\content\cycomponentlibrary\CyComponentLibrary.cylib\BLE_v2_0\Library\gccCyBLEStack_BLE_SOC_PERIPHERAL.a(l2cap_init.o)
                0x0000a358                l2cap_bt_shutdown

i.l2cap_init    0x0000a37c       0x10
 i.l2cap_init   0x0000a37c       0x10 D:\program\CY8\PSoC Creator\3.2\PSoC Creator\psoc\content\cycomponentlibrary\CyComponentLibrary.cylib\BLE_v2_0\Library\gccCyBLEStack_BLE_SOC_PERIPHERAL.a(l2cap_init.o)
                0x0000a37c                l2cap_init

i.l2cap_register_tx_queue_flow_cb
                0x0000a38c       0x18
 i.l2cap_register_tx_queue_flow_cb
                0x0000a38c       0x18 D:\program\CY8\PSoC Creator\3.2\PSoC Creator\psoc\content\cycomponentlibrary\CyComponentLibrary.cylib\BLE_v2_0\Library\gccCyBLEStack_BLE_SOC_PERIPHERAL.a(l2cap_init.o)
                0x0000a38c                l2cap_register_tx_queue_flow_cb

i.l2cap_allocate_buffer_element
                0x0000a3a4       0x54
 i.l2cap_allocate_buffer_element
                0x0000a3a4       0x54 D:\program\CY8\PSoC Creator\3.2\PSoC Creator\psoc\content\cycomponentlibrary\CyComponentLibrary.cylib\BLE_v2_0\Library\gccCyBLEStack_BLE_SOC_PERIPHERAL.a(l2cap_utils.o)
                0x0000a3a4                l2cap_allocate_buffer_element

i.l2cap_buffer_dequeue
                0x0000a3f8       0xc0
 i.l2cap_buffer_dequeue
                0x0000a3f8       0xc0 D:\program\CY8\PSoC Creator\3.2\PSoC Creator\psoc\content\cycomponentlibrary\CyComponentLibrary.cylib\BLE_v2_0\Library\gccCyBLEStack_BLE_SOC_PERIPHERAL.a(l2cap_utils.o)
                0x0000a3f8                l2cap_buffer_dequeue

i.l2cap_buffer_enqueue
                0x0000a4b8       0x40
 i.l2cap_buffer_enqueue
                0x0000a4b8       0x40 D:\program\CY8\PSoC Creator\3.2\PSoC Creator\psoc\content\cycomponentlibrary\CyComponentLibrary.cylib\BLE_v2_0\Library\gccCyBLEStack_BLE_SOC_PERIPHERAL.a(l2cap_utils.o)
                0x0000a4b8                l2cap_buffer_enqueue

i.l2cap_free_buffer_element
                0x0000a4f8       0x44
 i.l2cap_free_buffer_element
                0x0000a4f8       0x44 D:\program\CY8\PSoC Creator\3.2\PSoC Creator\psoc\content\cycomponentlibrary\CyComponentLibrary.cylib\BLE_v2_0\Library\gccCyBLEStack_BLE_SOC_PERIPHERAL.a(l2cap_utils.o)
                0x0000a4f8                l2cap_free_buffer_element

i.l2cap_is_handle_in_sigch_list
                0x0000a53c       0x1c
 i.l2cap_is_handle_in_sigch_list
                0x0000a53c       0x1c D:\program\CY8\PSoC Creator\3.2\PSoC Creator\psoc\content\cycomponentlibrary\CyComponentLibrary.cylib\BLE_v2_0\Library\gccCyBLEStack_BLE_SOC_PERIPHERAL.a(l2cap_utils.o)
                0x0000a53c                l2cap_is_handle_in_sigch_list

i.l2cap_is_in_sigch_list
                0x0000a558       0x2c
 i.l2cap_is_in_sigch_list
                0x0000a558       0x2c D:\program\CY8\PSoC Creator\3.2\PSoC Creator\psoc\content\cycomponentlibrary\CyComponentLibrary.cylib\BLE_v2_0\Library\gccCyBLEStack_BLE_SOC_PERIPHERAL.a(l2cap_utils.o)
                0x0000a558                l2cap_is_in_sigch_list

i.l2cap_tx_queue_flow_control
                0x0000a584       0x5c
 i.l2cap_tx_queue_flow_control
                0x0000a584       0x5c D:\program\CY8\PSoC Creator\3.2\PSoC Creator\psoc\content\cycomponentlibrary\CyComponentLibrary.cylib\BLE_v2_0\Library\gccCyBLEStack_BLE_SOC_PERIPHERAL.a(l2cap_utils.o)
                0x0000a584                l2cap_tx_queue_flow_control

i.l2cap_data_transmitter_bh
                0x0000a5e0       0xa4
 i.l2cap_data_transmitter_bh
                0x0000a5e0       0xa4 D:\program\CY8\PSoC Creator\3.2\PSoC Creator\psoc\content\cycomponentlibrary\CyComponentLibrary.cylib\BLE_v2_0\Library\gccCyBLEStack_BLE_SOC_PERIPHERAL.a(l2cap_lmp.o)
                0x0000a5e0                l2cap_data_transmitter_bh

i.l2cap_frame_tx_pdu
                0x0000a684       0x84
 i.l2cap_frame_tx_pdu
                0x0000a684       0x84 D:\program\CY8\PSoC Creator\3.2\PSoC Creator\psoc\content\cycomponentlibrary\CyComponentLibrary.cylib\BLE_v2_0\Library\gccCyBLEStack_BLE_SOC_PERIPHERAL.a(l2cap_lmp.o)
                0x0000a684                l2cap_frame_tx_pdu

i.l2cap_lp_data_write
                0x0000a708      0x178
 i.l2cap_lp_data_write
                0x0000a708      0x178 D:\program\CY8\PSoC Creator\3.2\PSoC Creator\psoc\content\cycomponentlibrary\CyComponentLibrary.cylib\BLE_v2_0\Library\gccCyBLEStack_BLE_SOC_PERIPHERAL.a(l2cap_lmp.o)
                0x0000a708                l2cap_lp_data_write

i.l2cap_lp_le_buffer_size
                0x0000a880       0x2c
 i.l2cap_lp_le_buffer_size
                0x0000a880       0x2c D:\program\CY8\PSoC Creator\3.2\PSoC Creator\psoc\content\cycomponentlibrary\CyComponentLibrary.cylib\BLE_v2_0\Library\gccCyBLEStack_BLE_SOC_PERIPHERAL.a(l2cap_lmp.o)
                0x0000a880                l2cap_lp_le_buffer_size

i.l2cap_lp_num_completed_packets
                0x0000a8ac       0x50
 i.l2cap_lp_num_completed_packets
                0x0000a8ac       0x50 D:\program\CY8\PSoC Creator\3.2\PSoC Creator\psoc\content\cycomponentlibrary\CyComponentLibrary.cylib\BLE_v2_0\Library\gccCyBLEStack_BLE_SOC_PERIPHERAL.a(l2cap_lmp.o)
                0x0000a8ac                l2cap_lp_num_completed_packets

i.l2cap_schedule_data_tx
                0x0000a8fc       0x34
 i.l2cap_schedule_data_tx
                0x0000a8fc       0x34 D:\program\CY8\PSoC Creator\3.2\PSoC Creator\psoc\content\cycomponentlibrary\CyComponentLibrary.cylib\BLE_v2_0\Library\gccCyBLEStack_BLE_SOC_PERIPHERAL.a(l2cap_lmp.o)
                0x0000a8fc                l2cap_schedule_data_tx

i.BT_l2cap_register_le_event_cb
                0x0000a930       0x18
 i.BT_l2cap_register_le_event_cb
                0x0000a930       0x18 D:\program\CY8\PSoC Creator\3.2\PSoC Creator\psoc\content\cycomponentlibrary\CyComponentLibrary.cylib\BLE_v2_0\Library\gccCyBLEStack_BLE_SOC_PERIPHERAL.a(l2cap_le.o)
                0x0000a930                BT_l2cap_register_le_event_cb

i.l2cap_fixed_channel_data_write
                0x0000a948       0x68
 i.l2cap_fixed_channel_data_write
                0x0000a948       0x68 D:\program\CY8\PSoC Creator\3.2\PSoC Creator\psoc\content\cycomponentlibrary\CyComponentLibrary.cylib\BLE_v2_0\Library\gccCyBLEStack_BLE_SOC_PERIPHERAL.a(l2cap_fixed_channel.o)
                0x0000a948                l2cap_fixed_channel_data_write

i.l2cap_register_fixed_channel_cb
                0x0000a9b0       0x2c
 i.l2cap_register_fixed_channel_cb
                0x0000a9b0       0x2c D:\program\CY8\PSoC Creator\3.2\PSoC Creator\psoc\content\cycomponentlibrary\CyComponentLibrary.cylib\BLE_v2_0\Library\gccCyBLEStack_BLE_SOC_PERIPHERAL.a(l2cap_fixed_channel.o)
                0x0000a9b0                l2cap_register_fixed_channel_cb

i.l2cap_update_fixed_channel_mtu
                0x0000a9dc       0x34
 i.l2cap_update_fixed_channel_mtu
                0x0000a9dc       0x34 D:\program\CY8\PSoC Creator\3.2\PSoC Creator\psoc\content\cycomponentlibrary\CyComponentLibrary.cylib\BLE_v2_0\Library\gccCyBLEStack_BLE_SOC_PERIPHERAL.a(l2cap_fixed_channel.o)
                0x0000a9dc                l2cap_update_fixed_channel_mtu

i.l2cap_allocate_channel
                0x0000aa10       0x40
 i.l2cap_allocate_channel
                0x0000aa10       0x40 D:\program\CY8\PSoC Creator\3.2\PSoC Creator\psoc\content\cycomponentlibrary\CyComponentLibrary.cylib\BLE_v2_0\Library\gccCyBLEStack_BLE_SOC_PERIPHERAL.a(l2cap_channels.o)
                0x0000aa10                l2cap_allocate_channel

i.l2cap_fixed_mode_rx_data_handler
                0x0000aa50       0x24
 i.l2cap_fixed_mode_rx_data_handler
                0x0000aa50       0x24 D:\program\CY8\PSoC Creator\3.2\PSoC Creator\psoc\content\cycomponentlibrary\CyComponentLibrary.cylib\BLE_v2_0\Library\gccCyBLEStack_BLE_SOC_PERIPHERAL.a(l2cap_channels.o)
                0x0000aa50                l2cap_fixed_mode_rx_data_handler

i.l2cap_free_channel
                0x0000aa74       0xf0
 i.l2cap_free_channel
                0x0000aa74       0xf0 D:\program\CY8\PSoC Creator\3.2\PSoC Creator\psoc\content\cycomponentlibrary\CyComponentLibrary.cylib\BLE_v2_0\Library\gccCyBLEStack_BLE_SOC_PERIPHERAL.a(l2cap_channels.o)
                0x0000aa74                l2cap_free_channel

i.l2cap_search_local_channel
                0x0000ab64       0x54
 i.l2cap_search_local_channel
                0x0000ab64       0x54 D:\program\CY8\PSoC Creator\3.2\PSoC Creator\psoc\content\cycomponentlibrary\CyComponentLibrary.cylib\BLE_v2_0\Library\gccCyBLEStack_BLE_SOC_PERIPHERAL.a(l2cap_channels.o)
                0x0000ab64                l2cap_search_local_channel

i.l2cap_cbfc_connect_req
                0x0000abb8      0x1a8
 i.l2cap_cbfc_connect_req
                0x0000abb8      0x1a8 D:\program\CY8\PSoC Creator\3.2\PSoC Creator\psoc\content\cycomponentlibrary\CyComponentLibrary.cylib\BLE_v2_0\Library\gccCyBLEStack_BLE_SOC_PERIPHERAL.a(l2cap_credit_mode.o)
                0x0000abb8                l2cap_cbfc_connect_req

i.l2cap_cbfc_connect_rsp
                0x0000ad60      0x158
 i.l2cap_cbfc_connect_rsp
                0x0000ad60      0x158 D:\program\CY8\PSoC Creator\3.2\PSoC Creator\psoc\content\cycomponentlibrary\CyComponentLibrary.cylib\BLE_v2_0\Library\gccCyBLEStack_BLE_SOC_PERIPHERAL.a(l2cap_credit_mode.o)
                0x0000ad60                l2cap_cbfc_connect_rsp

i.l2cap_credit_mode_rx_data_handler
                0x0000aeb8      0x178
 i.l2cap_credit_mode_rx_data_handler
                0x0000aeb8      0x178 D:\program\CY8\PSoC Creator\3.2\PSoC Creator\psoc\content\cycomponentlibrary\CyComponentLibrary.cylib\BLE_v2_0\Library\gccCyBLEStack_BLE_SOC_PERIPHERAL.a(l2cap_credit_mode.o)
                0x0000aeb8                l2cap_credit_mode_rx_data_handler

i.l2cap_credit_mode_tx_data_handler
                0x0000b030        0x2
 i.l2cap_credit_mode_tx_data_handler
                0x0000b030        0x2 D:\program\CY8\PSoC Creator\3.2\PSoC Creator\psoc\content\cycomponentlibrary\CyComponentLibrary.cylib\BLE_v2_0\Library\gccCyBLEStack_BLE_SOC_PERIPHERAL.a(l2cap_credit_mode.o)
                0x0000b030                l2cap_credit_mode_tx_data_handler

i.l2cap_enqueue_cbfc_data_for_tx
                0x0000b034      0x118
 i.l2cap_enqueue_cbfc_data_for_tx
                0x0000b034      0x118 D:\program\CY8\PSoC Creator\3.2\PSoC Creator\psoc\content\cycomponentlibrary\CyComponentLibrary.cylib\BLE_v2_0\Library\gccCyBLEStack_BLE_SOC_PERIPHERAL.a(l2cap_credit_mode.o)
                0x0000b034                l2cap_enqueue_cbfc_data_for_tx

i.l2cap_flow_control_credit
                0x0000b14c       0xb8
 i.l2cap_flow_control_credit
                0x0000b14c       0xb8 D:\program\CY8\PSoC Creator\3.2\PSoC Creator\psoc\content\cycomponentlibrary\CyComponentLibrary.cylib\BLE_v2_0\Library\gccCyBLEStack_BLE_SOC_PERIPHERAL.a(l2cap_credit_mode.o)
                0x0000b14c                l2cap_flow_control_credit

i.l2cap_is_cbfc_psm_registered
                0x0000b204       0x1c
 i.l2cap_is_cbfc_psm_registered
                0x0000b204       0x1c D:\program\CY8\PSoC Creator\3.2\PSoC Creator\psoc\content\cycomponentlibrary\CyComponentLibrary.cylib\BLE_v2_0\Library\gccCyBLEStack_BLE_SOC_PERIPHERAL.a(l2cap_credit_mode.o)
                0x0000b204                l2cap_is_cbfc_psm_registered

i.l2cap_send_cbfc_connect_rsp
                0x0000b220       0x58
 i.l2cap_send_cbfc_connect_rsp
                0x0000b220       0x58 D:\program\CY8\PSoC Creator\3.2\PSoC Creator\psoc\content\cycomponentlibrary\CyComponentLibrary.cylib\BLE_v2_0\Library\gccCyBLEStack_BLE_SOC_PERIPHERAL.a(l2cap_credit_mode.o)
                0x0000b220                l2cap_send_cbfc_connect_rsp

i.l2cap_command_rej
                0x0000b278       0xa8
 i.l2cap_command_rej
                0x0000b278       0xa8 D:\program\CY8\PSoC Creator\3.2\PSoC Creator\psoc\content\cycomponentlibrary\CyComponentLibrary.cylib\BLE_v2_0\Library\gccCyBLEStack_BLE_SOC_PERIPHERAL.a(l2cap_command.o)
                0x0000b278                l2cap_command_rej

i.l2cap_command_timeout_handler
                0x0000b320       0xcc
 i.l2cap_command_timeout_handler
                0x0000b320       0xcc D:\program\CY8\PSoC Creator\3.2\PSoC Creator\psoc\content\cycomponentlibrary\CyComponentLibrary.cylib\BLE_v2_0\Library\gccCyBLEStack_BLE_SOC_PERIPHERAL.a(l2cap_command.o)
                0x0000b320                l2cap_command_timeout_handler

i.l2cap_command_write
                0x0000b3ec       0x68
 i.l2cap_command_write
                0x0000b3ec       0x68 D:\program\CY8\PSoC Creator\3.2\PSoC Creator\psoc\content\cycomponentlibrary\CyComponentLibrary.cylib\BLE_v2_0\Library\gccCyBLEStack_BLE_SOC_PERIPHERAL.a(l2cap_command.o)
                0x0000b3ec                l2cap_command_write

i.l2cap_connection_update_req
                0x0000b454       0x44
 i.l2cap_connection_update_req
                0x0000b454       0x44 D:\program\CY8\PSoC Creator\3.2\PSoC Creator\psoc\content\cycomponentlibrary\CyComponentLibrary.cylib\BLE_v2_0\Library\gccCyBLEStack_BLE_SOC_PERIPHERAL.a(l2cap_command.o)
                0x0000b454                l2cap_connection_update_req

i.l2cap_connection_update_rsp
                0x0000b498       0x44
 i.l2cap_connection_update_rsp
                0x0000b498       0x44 D:\program\CY8\PSoC Creator\3.2\PSoC Creator\psoc\content\cycomponentlibrary\CyComponentLibrary.cylib\BLE_v2_0\Library\gccCyBLEStack_BLE_SOC_PERIPHERAL.a(l2cap_command.o)
                0x0000b498                l2cap_connection_update_rsp

i.l2cap_create_command
                0x0000b4dc       0xa4
 i.l2cap_create_command
                0x0000b4dc       0xa4 D:\program\CY8\PSoC Creator\3.2\PSoC Creator\psoc\content\cycomponentlibrary\CyComponentLibrary.cylib\BLE_v2_0\Library\gccCyBLEStack_BLE_SOC_PERIPHERAL.a(l2cap_command.o)
                0x0000b4dc                l2cap_create_command

i.l2cap_delete_command
                0x0000b580       0x38
 i.l2cap_delete_command
                0x0000b580       0x38 D:\program\CY8\PSoC Creator\3.2\PSoC Creator\psoc\content\cycomponentlibrary\CyComponentLibrary.cylib\BLE_v2_0\Library\gccCyBLEStack_BLE_SOC_PERIPHERAL.a(l2cap_command.o)
                0x0000b580                l2cap_delete_command

i.l2cap_search_command
                0x0000b5b8       0x28
 i.l2cap_search_command
                0x0000b5b8       0x28 D:\program\CY8\PSoC Creator\3.2\PSoC Creator\psoc\content\cycomponentlibrary\CyComponentLibrary.cylib\BLE_v2_0\Library\gccCyBLEStack_BLE_SOC_PERIPHERAL.a(l2cap_command.o)
                0x0000b5b8                l2cap_search_command

i.l2cap_send_command_rej
                0x0000b5e0       0x60
 i.l2cap_send_command_rej
                0x0000b5e0       0x60 D:\program\CY8\PSoC Creator\3.2\PSoC Creator\psoc\content\cycomponentlibrary\CyComponentLibrary.cylib\BLE_v2_0\Library\gccCyBLEStack_BLE_SOC_PERIPHERAL.a(l2cap_command.o)
                0x0000b5e0                l2cap_send_command_rej

i.l2cap_unknown_cmd
                0x0000b640       0x10
 i.l2cap_unknown_cmd
                0x0000b640       0x10 D:\program\CY8\PSoC Creator\3.2\PSoC Creator\psoc\content\cycomponentlibrary\CyComponentLibrary.cylib\BLE_v2_0\Library\gccCyBLEStack_BLE_SOC_PERIPHERAL.a(l2cap_command.o)
                0x0000b640                l2cap_unknown_cmd

i.l2cap_update_command
                0x0000b650       0x20
 i.l2cap_update_command
                0x0000b650       0x20 D:\program\CY8\PSoC Creator\3.2\PSoC Creator\psoc\content\cycomponentlibrary\CyComponentLibrary.cylib\BLE_v2_0\Library\gccCyBLEStack_BLE_SOC_PERIPHERAL.a(l2cap_command.o)
                0x0000b650                l2cap_update_command

i.fsm_post_event
                0x0000b670       0xa0
 i.fsm_post_event
                0x0000b670       0xa0 D:\program\CY8\PSoC Creator\3.2\PSoC Creator\psoc\content\cycomponentlibrary\CyComponentLibrary.cylib\BLE_v2_0\Library\gccCyBLEStack_BLE_SOC_PERIPHERAL.a(fsm_engine.o)
                0x0000b670                fsm_post_event

i.CyBle_GapAdvTimerExpiryHandler
                0x0000b710       0x28
 i.CyBle_GapAdvTimerExpiryHandler
                0x0000b710       0x28 D:\program\CY8\PSoC Creator\3.2\PSoC Creator\psoc\content\cycomponentlibrary\CyComponentLibrary.cylib\BLE_v2_0\Library\gccCyBLEStack_BLE_SOC_PERIPHERAL.a(gap.o)

i.CyBle_GapCheckErrCode
                0x0000b738       0x88
 i.CyBle_GapCheckErrCode
                0x0000b738       0x88 D:\program\CY8\PSoC Creator\3.2\PSoC Creator\psoc\content\cycomponentlibrary\CyComponentLibrary.cylib\BLE_v2_0\Library\gccCyBLEStack_BLE_SOC_PERIPHERAL.a(gap.o)

i.CyBle_GapGetBondedDevicesList
                0x0000b7c0       0x90
 i.CyBle_GapGetBondedDevicesList
                0x0000b7c0       0x90 D:\program\CY8\PSoC Creator\3.2\PSoC Creator\psoc\content\cycomponentlibrary\CyComponentLibrary.cylib\BLE_v2_0\Library\gccCyBLEStack_BLE_SOC_PERIPHERAL.a(gap.o)
                0x0000b7c0                CyBle_GapGetBondedDevicesList

i.CyBle_GapInit
                0x0000b850       0x2c
 i.CyBle_GapInit
                0x0000b850       0x2c D:\program\CY8\PSoC Creator\3.2\PSoC Creator\psoc\content\cycomponentlibrary\CyComponentLibrary.cylib\BLE_v2_0\Library\gccCyBLEStack_BLE_SOC_PERIPHERAL.a(gap.o)
                0x0000b850                CyBle_GapInit

i.CyBle_GapSetIoCap
                0x0000b87c       0x3c
 i.CyBle_GapSetIoCap
                0x0000b87c       0x3c D:\program\CY8\PSoC Creator\3.2\PSoC Creator\psoc\content\cycomponentlibrary\CyComponentLibrary.cylib\BLE_v2_0\Library\gccCyBLEStack_BLE_SOC_PERIPHERAL.a(gap.o)
                0x0000b87c                CyBle_GapSetIoCap

i.CyBle_GapSetScanRspData
                0x0000b8b8       0x28
 i.CyBle_GapSetScanRspData
                0x0000b8b8       0x28 D:\program\CY8\PSoC Creator\3.2\PSoC Creator\psoc\content\cycomponentlibrary\CyComponentLibrary.cylib\BLE_v2_0\Library\gccCyBLEStack_BLE_SOC_PERIPHERAL.a(gap.o)

i.CyBle_GapSignData
                0x0000b8e0      0x150
 i.CyBle_GapSignData
                0x0000b8e0      0x150 D:\program\CY8\PSoC Creator\3.2\PSoC Creator\psoc\content\cycomponentlibrary\CyComponentLibrary.cylib\BLE_v2_0\Library\gccCyBLEStack_BLE_SOC_PERIPHERAL.a(gap.o)
                0x0000b8e0                CyBle_GapSignData

i.CyBle_GapStartAdvertising
                0x0000ba30       0x20
 i.CyBle_GapStartAdvertising
                0x0000ba30       0x20 D:\program\CY8\PSoC Creator\3.2\PSoC Creator\psoc\content\cycomponentlibrary\CyComponentLibrary.cylib\BLE_v2_0\Library\gccCyBLEStack_BLE_SOC_PERIPHERAL.a(gap.o)

i.CyBle_GapUpdateBdAddress
                0x0000ba50       0x3c
 i.CyBle_GapUpdateBdAddress
                0x0000ba50       0x3c D:\program\CY8\PSoC Creator\3.2\PSoC Creator\psoc\content\cycomponentlibrary\CyComponentLibrary.cylib\BLE_v2_0\Library\gccCyBLEStack_BLE_SOC_PERIPHERAL.a(gap.o)
                0x0000ba50                CyBle_GapUpdateBdAddress

i.CyBle_GappAuthReqReply
                0x0000ba8c       0x6c
 i.CyBle_GappAuthReqReply
                0x0000ba8c       0x6c D:\program\CY8\PSoC Creator\3.2\PSoC Creator\psoc\content\cycomponentlibrary\CyComponentLibrary.cylib\BLE_v2_0\Library\gccCyBLEStack_BLE_SOC_PERIPHERAL.a(gap.o)
                0x0000ba8c                CyBle_GappAuthReqReply

i.CyBle_GappEnterDiscoveryMode
                0x0000baf8      0x11c
 i.CyBle_GappEnterDiscoveryMode
                0x0000baf8      0x11c D:\program\CY8\PSoC Creator\3.2\PSoC Creator\psoc\content\cycomponentlibrary\CyComponentLibrary.cylib\BLE_v2_0\Library\gccCyBLEStack_BLE_SOC_PERIPHERAL.a(gap.o)
                0x0000baf8                CyBle_GappEnterDiscoveryMode

i.CyBle_HciCb   0x0000bc14      0x1d4
 i.CyBle_HciCb  0x0000bc14      0x1d4 D:\program\CY8\PSoC Creator\3.2\PSoC Creator\psoc\content\cycomponentlibrary\CyComponentLibrary.cylib\BLE_v2_0\Library\gccCyBLEStack_BLE_SOC_PERIPHERAL.a(gap.o)
                0x0000bc14                CyBle_HciCb

i.CyBle_SmpCb   0x0000bde8      0x16c
 i.CyBle_SmpCb  0x0000bde8      0x16c D:\program\CY8\PSoC Creator\3.2\PSoC Creator\psoc\content\cycomponentlibrary\CyComponentLibrary.cylib\BLE_v2_0\Library\gccCyBLEStack_BLE_SOC_PERIPHERAL.a(gap.o)
                0x0000bde8                CyBle_SmpCb

i.CyBle_GattCB  0x0000bf54      0x630
 i.CyBle_GattCB
                0x0000bf54      0x630 D:\program\CY8\PSoC Creator\3.2\PSoC Creator\psoc\content\cycomponentlibrary\CyComponentLibrary.cylib\BLE_v2_0\Library\gccCyBLEStack_BLE_SOC_PERIPHERAL.a(gatt.o)
                0x0000bf54                CyBle_GattCB

i.CyBle_GattDBGet16BitUUID
                0x0000c584       0x70
 i.CyBle_GattDBGet16BitUUID
                0x0000c584       0x70 D:\program\CY8\PSoC Creator\3.2\PSoC Creator\psoc\content\cycomponentlibrary\CyComponentLibrary.cylib\BLE_v2_0\Library\gccCyBLEStack_BLE_SOC_PERIPHERAL.a(gatt.o)
                0x0000c584                CyBle_GattDBGet16BitUUID

i.CyBle_GattInit
                0x0000c5f4       0x2c
 i.CyBle_GattInit
                0x0000c5f4       0x2c D:\program\CY8\PSoC Creator\3.2\PSoC Creator\psoc\content\cycomponentlibrary\CyComponentLibrary.cylib\BLE_v2_0\Library\gccCyBLEStack_BLE_SOC_PERIPHERAL.a(gatt.o)
                0x0000c5f4                CyBle_GattInit

i.CyBle_GattResetGlobals
                0x0000c620       0x1c
 i.CyBle_GattResetGlobals
                0x0000c620       0x1c D:\program\CY8\PSoC Creator\3.2\PSoC Creator\psoc\content\cycomponentlibrary\CyComponentLibrary.cylib\BLE_v2_0\Library\gccCyBLEStack_BLE_SOC_PERIPHERAL.a(gatt.o)
                0x0000c620                CyBle_GattResetGlobals

i.CyBle_GattShutdown
                0x0000c63c        0x8
 i.CyBle_GattShutdown
                0x0000c63c        0x8 D:\program\CY8\PSoC Creator\3.2\PSoC Creator\psoc\content\cycomponentlibrary\CyComponentLibrary.cylib\BLE_v2_0\Library\gccCyBLEStack_BLE_SOC_PERIPHERAL.a(gatt.o)
                0x0000c63c                CyBle_GattShutdown

i.CyBle_SendPDU
                0x0000c644       0x74
 i.CyBle_SendPDU
                0x0000c644       0x74 D:\program\CY8\PSoC Creator\3.2\PSoC Creator\psoc\content\cycomponentlibrary\CyComponentLibrary.cylib\BLE_v2_0\Library\gccCyBLEStack_BLE_SOC_PERIPHERAL.a(gatt.o)
                0x0000c644                CyBle_SendPDU

i.CyBle_GattClientInit
                0x0000c6b8        0x8
 i.CyBle_GattClientInit
                0x0000c6b8        0x8 D:\program\CY8\PSoC Creator\3.2\PSoC Creator\psoc\content\cycomponentlibrary\CyComponentLibrary.cylib\BLE_v2_0\Library\gccCyBLEStack_BLE_SOC_PERIPHERAL.a(gattClient.o)
                0x0000c6b8                CyBle_GattClientInit

i.CyBle_GattSendPrepWriteReq
                0x0000c6c0       0x90
 i.CyBle_GattSendPrepWriteReq
                0x0000c6c0       0x90 D:\program\CY8\PSoC Creator\3.2\PSoC Creator\psoc\content\cycomponentlibrary\CyComponentLibrary.cylib\BLE_v2_0\Library\gccCyBLEStack_BLE_SOC_PERIPHERAL.a(gattClient.o)

i.CyBle_GattcResetGlobals
                0x0000c750       0x6c
 i.CyBle_GattcResetGlobals
                0x0000c750       0x6c D:\program\CY8\PSoC Creator\3.2\PSoC Creator\psoc\content\cycomponentlibrary\CyComponentLibrary.cylib\BLE_v2_0\Library\gccCyBLEStack_BLE_SOC_PERIPHERAL.a(gattClient.o)
                0x0000c750                CyBle_GattcResetGlobals

i.CyBle_GattcSendSignedWriteCmd
                0x0000c7bc       0x40
 i.CyBle_GattcSendSignedWriteCmd
                0x0000c7bc       0x40 D:\program\CY8\PSoC Creator\3.2\PSoC Creator\psoc\content\cycomponentlibrary\CyComponentLibrary.cylib\BLE_v2_0\Library\gccCyBLEStack_BLE_SOC_PERIPHERAL.a(gattClient.o)
                0x0000c7bc                CyBle_GattcSendSignedWriteCmd

i.CyBle_HandleGattErrorRsp
                0x0000c7fc       0x32
 i.CyBle_HandleGattErrorRsp
                0x0000c7fc       0x32 D:\program\CY8\PSoC Creator\3.2\PSoC Creator\psoc\content\cycomponentlibrary\CyComponentLibrary.cylib\BLE_v2_0\Library\gccCyBLEStack_BLE_SOC_PERIPHERAL.a(gattClient.o)
                0x0000c7fc                CyBle_HandleGattErrorRsp

i.CyBle_HandleGattExecWriteRsp
                0x0000c830       0x20
 i.CyBle_HandleGattExecWriteRsp
                0x0000c830       0x20 D:\program\CY8\PSoC Creator\3.2\PSoC Creator\psoc\content\cycomponentlibrary\CyComponentLibrary.cylib\BLE_v2_0\Library\gccCyBLEStack_BLE_SOC_PERIPHERAL.a(gattClient.o)
                0x0000c830                CyBle_HandleGattExecWriteRsp

i.CyBle_HandleGattFindByTypeValRsp
                0x0000c850       0xbc
 i.CyBle_HandleGattFindByTypeValRsp
                0x0000c850       0xbc D:\program\CY8\PSoC Creator\3.2\PSoC Creator\psoc\content\cycomponentlibrary\CyComponentLibrary.cylib\BLE_v2_0\Library\gccCyBLEStack_BLE_SOC_PERIPHERAL.a(gattClient.o)
                0x0000c850                CyBle_HandleGattFindByTypeValRsp

i.CyBle_HandleGattFindInfoRsp
                0x0000c90c       0x90
 i.CyBle_HandleGattFindInfoRsp
                0x0000c90c       0x90 D:\program\CY8\PSoC Creator\3.2\PSoC Creator\psoc\content\cycomponentlibrary\CyComponentLibrary.cylib\BLE_v2_0\Library\gccCyBLEStack_BLE_SOC_PERIPHERAL.a(gattClient.o)
                0x0000c90c                CyBle_HandleGattFindInfoRsp

i.CyBle_HandleGattPrepWriteRsp
                0x0000c99c       0xa4
 i.CyBle_HandleGattPrepWriteRsp
                0x0000c99c       0xa4 D:\program\CY8\PSoC Creator\3.2\PSoC Creator\psoc\content\cycomponentlibrary\CyComponentLibrary.cylib\BLE_v2_0\Library\gccCyBLEStack_BLE_SOC_PERIPHERAL.a(gattClient.o)
                0x0000c99c                CyBle_HandleGattPrepWriteRsp

i.CyBle_HandleGattReadBlobRsp
                0x0000ca40       0x54
 i.CyBle_HandleGattReadBlobRsp
                0x0000ca40       0x54 D:\program\CY8\PSoC Creator\3.2\PSoC Creator\psoc\content\cycomponentlibrary\CyComponentLibrary.cylib\BLE_v2_0\Library\gccCyBLEStack_BLE_SOC_PERIPHERAL.a(gattClient.o)
                0x0000ca40                CyBle_HandleGattReadBlobRsp

i.CyBle_HandleGattReadByGrpTypeRsp
                0x0000ca94       0x84
 i.CyBle_HandleGattReadByGrpTypeRsp
                0x0000ca94       0x84 D:\program\CY8\PSoC Creator\3.2\PSoC Creator\psoc\content\cycomponentlibrary\CyComponentLibrary.cylib\BLE_v2_0\Library\gccCyBLEStack_BLE_SOC_PERIPHERAL.a(gattClient.o)
                0x0000ca94                CyBle_HandleGattReadByGrpTypeRsp

i.CyBle_HandleGattReadByTypeRsp
                0x0000cb18       0xf4
 i.CyBle_HandleGattReadByTypeRsp
                0x0000cb18       0xf4 D:\program\CY8\PSoC Creator\3.2\PSoC Creator\psoc\content\cycomponentlibrary\CyComponentLibrary.cylib\BLE_v2_0\Library\gccCyBLEStack_BLE_SOC_PERIPHERAL.a(gattClient.o)
                0x0000cb18                CyBle_HandleGattReadByTypeRsp

i.CyBle_SendGattReadByTypeRspToApp
                0x0000cc0c       0x1c
 i.CyBle_SendGattReadByTypeRspToApp
                0x0000cc0c       0x1c D:\program\CY8\PSoC Creator\3.2\PSoC Creator\psoc\content\cycomponentlibrary\CyComponentLibrary.cylib\BLE_v2_0\Library\gccCyBLEStack_BLE_SOC_PERIPHERAL.a(gattClient.o)

i.CyBle_GattFreeWriteQueue
                0x0000cc28       0x14
 i.CyBle_GattFreeWriteQueue
                0x0000cc28       0x14 D:\program\CY8\PSoC Creator\3.2\PSoC Creator\psoc\content\cycomponentlibrary\CyComponentLibrary.cylib\BLE_v2_0\Library\gccCyBLEStack_BLE_SOC_PERIPHERAL.a(gattServer.o)

i.CyBle_GattPrepareWriteDequeue
                0x0000cc3c       0x28
 i.CyBle_GattPrepareWriteDequeue
                0x0000cc3c       0x28 D:\program\CY8\PSoC Creator\3.2\PSoC Creator\psoc\content\cycomponentlibrary\CyComponentLibrary.cylib\BLE_v2_0\Library\gccCyBLEStack_BLE_SOC_PERIPHERAL.a(gattServer.o)
                0x0000cc3c                CyBle_GattPrepareWriteDequeue

i.CyBle_GattPrepareWriteEnqueue
                0x0000cc64       0x5c
 i.CyBle_GattPrepareWriteEnqueue
                0x0000cc64       0x5c D:\program\CY8\PSoC Creator\3.2\PSoC Creator\psoc\content\cycomponentlibrary\CyComponentLibrary.cylib\BLE_v2_0\Library\gccCyBLEStack_BLE_SOC_PERIPHERAL.a(gattServer.o)
                0x0000cc64                CyBle_GattPrepareWriteEnqueue

i.CyBle_GattPrepareWriteQueueInit
                0x0000ccc0       0x3c
 i.CyBle_GattPrepareWriteQueueInit
                0x0000ccc0       0x3c D:\program\CY8\PSoC Creator\3.2\PSoC Creator\psoc\content\cycomponentlibrary\CyComponentLibrary.cylib\BLE_v2_0\Library\gccCyBLEStack_BLE_SOC_PERIPHERAL.a(gattServer.o)

i.CyBle_GattServerInit
                0x0000ccfc       0x20
 i.CyBle_GattServerInit
                0x0000ccfc       0x20 D:\program\CY8\PSoC Creator\3.2\PSoC Creator\psoc\content\cycomponentlibrary\CyComponentLibrary.cylib\BLE_v2_0\Library\gccCyBLEStack_BLE_SOC_PERIPHERAL.a(gattServer.o)
                0x0000ccfc                CyBle_GattServerInit

i.CyBle_GattServerShutdown
                0x0000cd1c       0x14
 i.CyBle_GattServerShutdown
                0x0000cd1c       0x14 D:\program\CY8\PSoC Creator\3.2\PSoC Creator\psoc\content\cycomponentlibrary\CyComponentLibrary.cylib\BLE_v2_0\Library\gccCyBLEStack_BLE_SOC_PERIPHERAL.a(gattServer.o)
                0x0000cd1c                CyBle_GattServerShutdown

i.CyBle_GattsErrorRsp
                0x0000cd30       0x16
 i.CyBle_GattsErrorRsp
                0x0000cd30       0x16 D:\program\CY8\PSoC Creator\3.2\PSoC Creator\psoc\content\cycomponentlibrary\CyComponentLibrary.cylib\BLE_v2_0\Library\gccCyBLEStack_BLE_SOC_PERIPHERAL.a(gattServer.o)
                0x0000cd30                CyBle_GattsErrorRsp

i.CyBle_GattsExchangeMtuRsp
                0x0000cd48       0x20
 i.CyBle_GattsExchangeMtuRsp
                0x0000cd48       0x20 D:\program\CY8\PSoC Creator\3.2\PSoC Creator\psoc\content\cycomponentlibrary\CyComponentLibrary.cylib\BLE_v2_0\Library\gccCyBLEStack_BLE_SOC_PERIPHERAL.a(gattServer.o)
                0x0000cd48                CyBle_GattsExchangeMtuRsp

i.CyBle_GattsNotification
                0x0000cd68       0x28
 i.CyBle_GattsNotification
                0x0000cd68       0x28 D:\program\CY8\PSoC Creator\3.2\PSoC Creator\psoc\content\cycomponentlibrary\CyComponentLibrary.cylib\BLE_v2_0\Library\gccCyBLEStack_BLE_SOC_PERIPHERAL.a(gattServer.o)
                0x0000cd68                CyBle_GattsNotification

i.CyBle_GattsResetGlobals
                0x0000cd90       0x28
 i.CyBle_GattsResetGlobals
                0x0000cd90       0x28 D:\program\CY8\PSoC Creator\3.2\PSoC Creator\psoc\content\cycomponentlibrary\CyComponentLibrary.cylib\BLE_v2_0\Library\gccCyBLEStack_BLE_SOC_PERIPHERAL.a(gattServer.o)
                0x0000cd90                CyBle_GattsResetGlobals

i.CyBle_GattsSendSignedWriteEvent
                0x0000cdb8       0x6c
 i.CyBle_GattsSendSignedWriteEvent
                0x0000cdb8       0x6c D:\program\CY8\PSoC Creator\3.2\PSoC Creator\psoc\content\cycomponentlibrary\CyComponentLibrary.cylib\BLE_v2_0\Library\gccCyBLEStack_BLE_SOC_PERIPHERAL.a(gattServer.o)
                0x0000cdb8                CyBle_GattsSendSignedWriteEvent

i.CyBle_GattsWriteRsp
                0x0000ce24        0xe
 i.CyBle_GattsWriteRsp
                0x0000ce24        0xe D:\program\CY8\PSoC Creator\3.2\PSoC Creator\psoc\content\cycomponentlibrary\CyComponentLibrary.cylib\BLE_v2_0\Library\gccCyBLEStack_BLE_SOC_PERIPHERAL.a(gattServer.o)
                0x0000ce24                CyBle_GattsWriteRsp

i.CyBle_HandleGattExecuteWriteReq
                0x0000ce34       0xa8
 i.CyBle_HandleGattExecuteWriteReq
                0x0000ce34       0xa8 D:\program\CY8\PSoC Creator\3.2\PSoC Creator\psoc\content\cycomponentlibrary\CyComponentLibrary.cylib\BLE_v2_0\Library\gccCyBLEStack_BLE_SOC_PERIPHERAL.a(gattServer.o)
                0x0000ce34                CyBle_HandleGattExecuteWriteReq

i.CyBle_HandleGattFindByTypeValReq
                0x0000cedc       0x78
 i.CyBle_HandleGattFindByTypeValReq
                0x0000cedc       0x78 D:\program\CY8\PSoC Creator\3.2\PSoC Creator\psoc\content\cycomponentlibrary\CyComponentLibrary.cylib\BLE_v2_0\Library\gccCyBLEStack_BLE_SOC_PERIPHERAL.a(gattServer.o)
                0x0000cedc                CyBle_HandleGattFindByTypeValReq

i.CyBle_HandleGattFindInfoReq
                0x0000cf54       0x94
 i.CyBle_HandleGattFindInfoReq
                0x0000cf54       0x94 D:\program\CY8\PSoC Creator\3.2\PSoC Creator\psoc\content\cycomponentlibrary\CyComponentLibrary.cylib\BLE_v2_0\Library\gccCyBLEStack_BLE_SOC_PERIPHERAL.a(gattServer.o)
                0x0000cf54                CyBle_HandleGattFindInfoReq

i.CyBle_HandleGattPrepWriteReq
                0x0000cfe8       0xfc
 i.CyBle_HandleGattPrepWriteReq
                0x0000cfe8       0xfc D:\program\CY8\PSoC Creator\3.2\PSoC Creator\psoc\content\cycomponentlibrary\CyComponentLibrary.cylib\BLE_v2_0\Library\gccCyBLEStack_BLE_SOC_PERIPHERAL.a(gattServer.o)
                0x0000cfe8                CyBle_HandleGattPrepWriteReq

i.CyBle_HandleGattReadByGrpTypeReq
                0x0000d0e4       0xa4
 i.CyBle_HandleGattReadByGrpTypeReq
                0x0000d0e4       0xa4 D:\program\CY8\PSoC Creator\3.2\PSoC Creator\psoc\content\cycomponentlibrary\CyComponentLibrary.cylib\BLE_v2_0\Library\gccCyBLEStack_BLE_SOC_PERIPHERAL.a(gattServer.o)
                0x0000d0e4                CyBle_HandleGattReadByGrpTypeReq

i.CyBle_HandleGattReadByTypeReq
                0x0000d188       0xe0
 i.CyBle_HandleGattReadByTypeReq
                0x0000d188       0xe0 D:\program\CY8\PSoC Creator\3.2\PSoC Creator\psoc\content\cycomponentlibrary\CyComponentLibrary.cylib\BLE_v2_0\Library\gccCyBLEStack_BLE_SOC_PERIPHERAL.a(gattServer.o)
                0x0000d188                CyBle_HandleGattReadByTypeReq

i.CyBle_HandleGattReadMultiReq
                0x0000d268       0xcc
 i.CyBle_HandleGattReadMultiReq
                0x0000d268       0xcc D:\program\CY8\PSoC Creator\3.2\PSoC Creator\psoc\content\cycomponentlibrary\CyComponentLibrary.cylib\BLE_v2_0\Library\gccCyBLEStack_BLE_SOC_PERIPHERAL.a(gattServer.o)
                0x0000d268                CyBle_HandleGattReadMultiReq

i.CyBle_HandleGattReadReq
                0x0000d334       0xc0
 i.CyBle_HandleGattReadReq
                0x0000d334       0xc0 D:\program\CY8\PSoC Creator\3.2\PSoC Creator\psoc\content\cycomponentlibrary\CyComponentLibrary.cylib\BLE_v2_0\Library\gccCyBLEStack_BLE_SOC_PERIPHERAL.a(gattServer.o)
                0x0000d334                CyBle_HandleGattReadReq

i.CyBle_GattDBAccessHandle
                0x0000d3f4       0xfc
 i.CyBle_GattDBAccessHandle
                0x0000d3f4       0xfc D:\program\CY8\PSoC Creator\3.2\PSoC Creator\psoc\content\cycomponentlibrary\CyComponentLibrary.cylib\BLE_v2_0\Library\gccCyBLEStack_BLE_SOC_PERIPHERAL.a(gattDbHandler.o)
                0x0000d3f4                CyBle_GattDBAccessHandle

i.CyBle_GattDBGetGroupRangeValpair
                0x0000d4f0      0x198
 i.CyBle_GattDBGetGroupRangeValpair
                0x0000d4f0      0x198 D:\program\CY8\PSoC Creator\3.2\PSoC Creator\psoc\content\cycomponentlibrary\CyComponentLibrary.cylib\BLE_v2_0\Library\gccCyBLEStack_BLE_SOC_PERIPHERAL.a(gattDbHandler.o)
                0x0000d4f0                CyBle_GattDBGetGroupRangeValpair

i.CyBle_GattDBGetHandleUUIDValuePair
                0x0000d688      0x1cc
 i.CyBle_GattDBGetHandleUUIDValuePair
                0x0000d688      0x1cc D:\program\CY8\PSoC Creator\3.2\PSoC Creator\psoc\content\cycomponentlibrary\CyComponentLibrary.cylib\BLE_v2_0\Library\gccCyBLEStack_BLE_SOC_PERIPHERAL.a(gattDbHandler.o)
                0x0000d688                CyBle_GattDBGetHandleUUIDValuePair

i.CyBle_GattsDbRegister
                0x0000d854       0x30
 i.CyBle_GattsDbRegister
                0x0000d854       0x30 D:\program\CY8\PSoC Creator\3.2\PSoC Creator\psoc\content\cycomponentlibrary\CyComponentLibrary.cylib\BLE_v2_0\Library\gccCyBLEStack_BLE_SOC_PERIPHERAL.a(gattDbHandler.o)
                0x0000d854                CyBle_GattsDbRegister

i.CyBle_GattsReadAttributeValue
                0x0000d884       0x6c
 i.CyBle_GattsReadAttributeValue
                0x0000d884       0x6c D:\program\CY8\PSoC Creator\3.2\PSoC Creator\psoc\content\cycomponentlibrary\CyComponentLibrary.cylib\BLE_v2_0\Library\gccCyBLEStack_BLE_SOC_PERIPHERAL.a(gattDbHandler.o)
                0x0000d884                CyBle_GattsReadAttributeValue

i.CyBle_GattsWriteAttributeValue
                0x0000d8f0       0x34
 i.CyBle_GattsWriteAttributeValue
                0x0000d8f0       0x34 D:\program\CY8\PSoC Creator\3.2\PSoC Creator\psoc\content\cycomponentlibrary\CyComponentLibrary.cylib\BLE_v2_0\Library\gccCyBLEStack_BLE_SOC_PERIPHERAL.a(gattDbHandler.o)
                0x0000d8f0                CyBle_GattsWriteAttributeValue

i.BT_hci_get_connection_details
                0x0000d924       0x54
 i.BT_hci_get_connection_details
                0x0000d924       0x54 D:\program\CY8\PSoC Creator\3.2\PSoC Creator\psoc\content\cycomponentlibrary\CyComponentLibrary.cylib\BLE_v2_0\Library\gccCyBLEStack_BLE_SOC_PERIPHERAL.a(hci_api.o)
                0x0000d924                BT_hci_get_connection_details

i.BT_hci_get_connection_handle
                0x0000d978       0x54
 i.BT_hci_get_connection_handle
                0x0000d978       0x54 D:\program\CY8\PSoC Creator\3.2\PSoC Creator\psoc\content\cycomponentlibrary\CyComponentLibrary.cylib\BLE_v2_0\Library\gccCyBLEStack_BLE_SOC_PERIPHERAL.a(hci_api.o)
                0x0000d978                BT_hci_get_connection_handle

i.BT_hci_get_local_bd_addr
                0x0000d9cc       0x20
 i.BT_hci_get_local_bd_addr
                0x0000d9cc       0x20 D:\program\CY8\PSoC Creator\3.2\PSoC Creator\psoc\content\cycomponentlibrary\CyComponentLibrary.cylib\BLE_v2_0\Library\gccCyBLEStack_BLE_SOC_PERIPHERAL.a(hci_api.o)
                0x0000d9cc                BT_hci_get_local_bd_addr

i.BT_hci_le_get_device_role
                0x0000d9ec       0x34
 i.BT_hci_le_get_device_role
                0x0000d9ec       0x34 D:\program\CY8\PSoC Creator\3.2\PSoC Creator\psoc\content\cycomponentlibrary\CyComponentLibrary.cylib\BLE_v2_0\Library\gccCyBLEStack_BLE_SOC_PERIPHERAL.a(hci_api.o)
                0x0000d9ec                BT_hci_le_get_device_role

i.BT_hci_register_event_indication_callback
                0x0000da20       0x20
 i.BT_hci_register_event_indication_callback
                0x0000da20       0x20 D:\program\CY8\PSoC Creator\3.2\PSoC Creator\psoc\content\cycomponentlibrary\CyComponentLibrary.cylib\BLE_v2_0\Library\gccCyBLEStack_BLE_SOC_PERIPHERAL.a(hci_api.o)
                0x0000da20                BT_hci_register_event_indication_callback

i.hci_write_command_UCHAR
                0x0000da40        0xc
 i.hci_write_command_UCHAR
                0x0000da40        0xc D:\program\CY8\PSoC Creator\3.2\PSoC Creator\psoc\content\cycomponentlibrary\CyComponentLibrary.cylib\BLE_v2_0\Library\gccCyBLEStack_BLE_SOC_PERIPHERAL.a(hci_api.o)
                0x0000da40                hci_write_command_UCHAR

i.hci_write_command_UCHAR_array
                0x0000da4c       0x1c
 i.hci_write_command_UCHAR_array
                0x0000da4c       0x1c D:\program\CY8\PSoC Creator\3.2\PSoC Creator\psoc\content\cycomponentlibrary\CyComponentLibrary.cylib\BLE_v2_0\Library\gccCyBLEStack_BLE_SOC_PERIPHERAL.a(hci_api.o)
                0x0000da4c                hci_write_command_UCHAR_array

i.hci_write_command_adv_scan_response_data
                0x0000da68       0x4c
 i.hci_write_command_adv_scan_response_data
                0x0000da68       0x4c D:\program\CY8\PSoC Creator\3.2\PSoC Creator\psoc\content\cycomponentlibrary\CyComponentLibrary.cylib\BLE_v2_0\Library\gccCyBLEStack_BLE_SOC_PERIPHERAL.a(hci_api.o)
                0x0000da68                hci_write_command_adv_scan_response_data

i.hci_write_command_connection_handle
                0x0000dab4       0x24
 i.hci_write_command_connection_handle
                0x0000dab4       0x24 D:\program\CY8\PSoC Creator\3.2\PSoC Creator\psoc\content\cycomponentlibrary\CyComponentLibrary.cylib\BLE_v2_0\Library\gccCyBLEStack_BLE_SOC_PERIPHERAL.a(hci_api.o)
                0x0000dab4                hci_write_command_connection_handle

i.hci_disconnect_req
                0x0000dad8       0x1c
 i.hci_disconnect_req
                0x0000dad8       0x1c D:\program\CY8\PSoC Creator\3.2\PSoC Creator\psoc\content\cycomponentlibrary\CyComponentLibrary.cylib\BLE_v2_0\Library\gccCyBLEStack_BLE_SOC_PERIPHERAL.a(hci_link_control_api.o)
                0x0000dad8                hci_disconnect_req

i.hci_common_api_handler
                0x0000daf4       0x50
 i.hci_common_api_handler
                0x0000daf4       0x50 D:\program\CY8\PSoC Creator\3.2\PSoC Creator\psoc\content\cycomponentlibrary\CyComponentLibrary.cylib\BLE_v2_0\Library\gccCyBLEStack_BLE_SOC_PERIPHERAL.a(hci_commands.o)
                0x0000daf4                hci_common_api_handler

i.hci_common_api_handler_no_params
                0x0000db44        0xc
 i.hci_common_api_handler_no_params
                0x0000db44        0xc D:\program\CY8\PSoC Creator\3.2\PSoC Creator\psoc\content\cycomponentlibrary\CyComponentLibrary.cylib\BLE_v2_0\Library\gccCyBLEStack_BLE_SOC_PERIPHERAL.a(hci_commands.o)
                0x0000db44                hci_common_api_handler_no_params

i.hci_auth_complete_encrypt_change_event
                0x0000db50       0x14
 i.hci_auth_complete_encrypt_change_event
                0x0000db50       0x14 D:\program\CY8\PSoC Creator\3.2\PSoC Creator\psoc\content\cycomponentlibrary\CyComponentLibrary.cylib\BLE_v2_0\Library\gccCyBLEStack_BLE_SOC_PERIPHERAL.a(hci_events.o)
                0x0000db50                hci_auth_complete_encrypt_change_event

i.hci_command_complete_event
                0x0000db64       0xec
 i.hci_command_complete_event
                0x0000db64       0xec D:\program\CY8\PSoC Creator\3.2\PSoC Creator\psoc\content\cycomponentlibrary\CyComponentLibrary.cylib\BLE_v2_0\Library\gccCyBLEStack_BLE_SOC_PERIPHERAL.a(hci_events.o)
                0x0000db64                hci_command_complete_event

i.hci_command_status_event
                0x0000dc50       0x64
 i.hci_command_status_event
                0x0000dc50       0x64 D:\program\CY8\PSoC Creator\3.2\PSoC Creator\psoc\content\cycomponentlibrary\CyComponentLibrary.cylib\BLE_v2_0\Library\gccCyBLEStack_BLE_SOC_PERIPHERAL.a(hci_events.o)
                0x0000dc50                hci_command_status_event

i.hci_handle_hardware_error
                0x0000dcb4       0x54
 i.hci_handle_hardware_error
                0x0000dcb4       0x54 D:\program\CY8\PSoC Creator\3.2\PSoC Creator\psoc\content\cycomponentlibrary\CyComponentLibrary.cylib\BLE_v2_0\Library\gccCyBLEStack_BLE_SOC_PERIPHERAL.a(hci_events.o)
                0x0000dcb4                hci_handle_hardware_error

i.hci_le_deliver_packets
                0x0000dd08       0x30
 i.hci_le_deliver_packets
                0x0000dd08       0x30 D:\program\CY8\PSoC Creator\3.2\PSoC Creator\psoc\content\cycomponentlibrary\CyComponentLibrary.cylib\BLE_v2_0\Library\gccCyBLEStack_BLE_SOC_PERIPHERAL.a(hci_events.o)
                0x0000dd08                hci_le_deliver_packets

i.hci_le_enqueue_packet
                0x0000dd38       0x30
 i.hci_le_enqueue_packet
                0x0000dd38       0x30 D:\program\CY8\PSoC Creator\3.2\PSoC Creator\psoc\content\cycomponentlibrary\CyComponentLibrary.cylib\BLE_v2_0\Library\gccCyBLEStack_BLE_SOC_PERIPHERAL.a(hci_events.o)

i.hci_le_long_term_key_requested_event
                0x0000dd68       0x14
 i.hci_le_long_term_key_requested_event
                0x0000dd68       0x14 D:\program\CY8\PSoC Creator\3.2\PSoC Creator\psoc\content\cycomponentlibrary\CyComponentLibrary.cylib\BLE_v2_0\Library\gccCyBLEStack_BLE_SOC_PERIPHERAL.a(hci_events.o)
                0x0000dd68                hci_le_long_term_key_requested_event

i.hci_number_of_completed_packets_event
                0x0000dd7c       0x2e
 i.hci_number_of_completed_packets_event
                0x0000dd7c       0x2e D:\program\CY8\PSoC Creator\3.2\PSoC Creator\psoc\content\cycomponentlibrary\CyComponentLibrary.cylib\BLE_v2_0\Library\gccCyBLEStack_BLE_SOC_PERIPHERAL.a(hci_events.o)
                0x0000dd7c                hci_number_of_completed_packets_event

i.hci_transport_read_data
                0x0000ddac      0x148
 i.hci_transport_read_data
                0x0000ddac      0x148 D:\program\CY8\PSoC Creator\3.2\PSoC Creator\psoc\content\cycomponentlibrary\CyComponentLibrary.cylib\BLE_v2_0\Library\gccCyBLEStack_BLE_SOC_PERIPHERAL.a(hci_events.o)
                0x0000ddac                hci_transport_read_data

i.hci_bt_init   0x0000def4       0x58
 i.hci_bt_init  0x0000def4       0x58 D:\program\CY8\PSoC Creator\3.2\PSoC Creator\psoc\content\cycomponentlibrary\CyComponentLibrary.cylib\BLE_v2_0\Library\gccCyBLEStack_BLE_SOC_PERIPHERAL.a(hci_init.o)
                0x0000def4                hci_bt_init

i.hci_bt_shutdown
                0x0000df4c       0x48
 i.hci_bt_shutdown
                0x0000df4c       0x48 D:\program\CY8\PSoC Creator\3.2\PSoC Creator\psoc\content\cycomponentlibrary\CyComponentLibrary.cylib\BLE_v2_0\Library\gccCyBLEStack_BLE_SOC_PERIPHERAL.a(hci_init.o)
                0x0000df4c                hci_bt_shutdown

i.hci_handle_init_sequence
                0x0000df94       0xb0
 i.hci_handle_init_sequence
                0x0000df94       0xb0 D:\program\CY8\PSoC Creator\3.2\PSoC Creator\psoc\content\cycomponentlibrary\CyComponentLibrary.cylib\BLE_v2_0\Library\gccCyBLEStack_BLE_SOC_PERIPHERAL.a(hci_init.o)
                0x0000df94                hci_handle_init_sequence

i.hci_init      0x0000e044        0xc
 i.hci_init     0x0000e044        0xc D:\program\CY8\PSoC Creator\3.2\PSoC Creator\psoc\content\cycomponentlibrary\CyComponentLibrary.cylib\BLE_v2_0\Library\gccCyBLEStack_BLE_SOC_PERIPHERAL.a(hci_init.o)
                0x0000e044                hci_init

i.BT_hci_le_encrypt
                0x0000e050       0x58
 i.BT_hci_le_encrypt
                0x0000e050       0x58 D:\program\CY8\PSoC Creator\3.2\PSoC Creator\psoc\content\cycomponentlibrary\CyComponentLibrary.cylib\BLE_v2_0\Library\gccCyBLEStack_BLE_SOC_PERIPHERAL.a(hci_le_api.o)
                0x0000e050                BT_hci_le_encrypt

i.BT_hci_le_long_term_key_requested_reply
                0x0000e0a8       0x44
 i.BT_hci_le_long_term_key_requested_reply
                0x0000e0a8       0x44 D:\program\CY8\PSoC Creator\3.2\PSoC Creator\psoc\content\cycomponentlibrary\CyComponentLibrary.cylib\BLE_v2_0\Library\gccCyBLEStack_BLE_SOC_PERIPHERAL.a(hci_le_api.o)
                0x0000e0a8                BT_hci_le_long_term_key_requested_reply

i.BT_hci_le_set_advertising_parameters
                0x0000e0ec       0x84
 i.BT_hci_le_set_advertising_parameters
                0x0000e0ec       0x84 D:\program\CY8\PSoC Creator\3.2\PSoC Creator\psoc\content\cycomponentlibrary\CyComponentLibrary.cylib\BLE_v2_0\Library\gccCyBLEStack_BLE_SOC_PERIPHERAL.a(hci_le_api.o)
                0x0000e0ec                BT_hci_le_set_advertising_parameters

i.hci_alloc_remote_device
                0x0000e170       0x38
 i.hci_alloc_remote_device
                0x0000e170       0x38 D:\program\CY8\PSoC Creator\3.2\PSoC Creator\psoc\content\cycomponentlibrary\CyComponentLibrary.cylib\BLE_v2_0\Library\gccCyBLEStack_BLE_SOC_PERIPHERAL.a(hci_utils.o)
                0x0000e170                hci_alloc_remote_device

i.hci_find_device_by_handle
                0x0000e1a8       0x2c
 i.hci_find_device_by_handle
                0x0000e1a8       0x2c D:\program\CY8\PSoC Creator\3.2\PSoC Creator\psoc\content\cycomponentlibrary\CyComponentLibrary.cylib\BLE_v2_0\Library\gccCyBLEStack_BLE_SOC_PERIPHERAL.a(hci_utils.o)
                0x0000e1a8                hci_find_device_by_handle

i.hci_free_remote_device
                0x0000e1d4       0x24
 i.hci_free_remote_device
                0x0000e1d4       0x24 D:\program\CY8\PSoC Creator\3.2\PSoC Creator\psoc\content\cycomponentlibrary\CyComponentLibrary.cylib\BLE_v2_0\Library\gccCyBLEStack_BLE_SOC_PERIPHERAL.a(hci_utils.o)
                0x0000e1d4                hci_free_remote_device

i.BT_smp_data_sign
                0x0000e1f8       0x54
 i.BT_smp_data_sign
                0x0000e1f8       0x54 D:\program\CY8\PSoC Creator\3.2\PSoC Creator\psoc\content\cycomponentlibrary\CyComponentLibrary.cylib\BLE_v2_0\Library\gccCyBLEStack_BLE_SOC_PERIPHERAL.a(smp_api.o)
                0x0000e1f8                BT_smp_data_sign

i.BT_smp_get_device_security_info
                0x0000e24c       0x60
 i.BT_smp_get_device_security_info
                0x0000e24c       0x60 D:\program\CY8\PSoC Creator\3.2\PSoC Creator\psoc\content\cycomponentlibrary\CyComponentLibrary.cylib\BLE_v2_0\Library\gccCyBLEStack_BLE_SOC_PERIPHERAL.a(smp_api.o)
                0x0000e24c                BT_smp_get_device_security_info

i.BT_smp_notify_address_resolution
                0x0000e2ac       0x50
 i.BT_smp_notify_address_resolution
                0x0000e2ac       0x50 D:\program\CY8\PSoC Creator\3.2\PSoC Creator\psoc\content\cycomponentlibrary\CyComponentLibrary.cylib\BLE_v2_0\Library\gccCyBLEStack_BLE_SOC_PERIPHERAL.a(smp_api.o)
                0x0000e2ac                BT_smp_notify_address_resolution

i.BT_smp_param_request_reply
                0x0000e2fc       0x8c
 i.BT_smp_param_request_reply
                0x0000e2fc       0x8c D:\program\CY8\PSoC Creator\3.2\PSoC Creator\psoc\content\cycomponentlibrary\CyComponentLibrary.cylib\BLE_v2_0\Library\gccCyBLEStack_BLE_SOC_PERIPHERAL.a(smp_api.o)
                0x0000e2fc                BT_smp_param_request_reply

i.BT_smp_register_user_interface
                0x0000e388       0x18
 i.BT_smp_register_user_interface
                0x0000e388       0x18 D:\program\CY8\PSoC Creator\3.2\PSoC Creator\psoc\content\cycomponentlibrary\CyComponentLibrary.cylib\BLE_v2_0\Library\gccCyBLEStack_BLE_SOC_PERIPHERAL.a(smp_api.o)
                0x0000e388                BT_smp_register_user_interface

i.BT_smp_resolve_device
                0x0000e3a0       0x60
 i.BT_smp_resolve_device
                0x0000e3a0       0x60 D:\program\CY8\PSoC Creator\3.2\PSoC Creator\psoc\content\cycomponentlibrary\CyComponentLibrary.cylib\BLE_v2_0\Library\gccCyBLEStack_BLE_SOC_PERIPHERAL.a(smp_api.o)
                0x0000e3a0                BT_smp_resolve_device

i.BT_smp_verify_resolvable_pvt_addr
                0x0000e400       0x44
 i.BT_smp_verify_resolvable_pvt_addr
                0x0000e400       0x44 D:\program\CY8\PSoC Creator\3.2\PSoC Creator\psoc\content\cycomponentlibrary\CyComponentLibrary.cylib\BLE_v2_0\Library\gccCyBLEStack_BLE_SOC_PERIPHERAL.a(smp_api.o)
                0x0000e400                BT_smp_verify_resolvable_pvt_addr

i.smp_cmac_complete
                0x0000e444       0x28
 i.smp_cmac_complete
                0x0000e444       0x28 D:\program\CY8\PSoC Creator\3.2\PSoC Creator\psoc\content\cycomponentlibrary\CyComponentLibrary.cylib\BLE_v2_0\Library\gccCyBLEStack_BLE_SOC_PERIPHERAL.a(smp_api.o)

i.smp_ah_eval_complete
                0x0000e46c       0xd8
 i.smp_ah_eval_complete
                0x0000e46c       0xd8 D:\program\CY8\PSoC Creator\3.2\PSoC Creator\psoc\content\cycomponentlibrary\CyComponentLibrary.cylib\BLE_v2_0\Library\gccCyBLEStack_BLE_SOC_PERIPHERAL.a(smp_core.o)
                0x0000e46c                smp_ah_eval_complete

i.smp_authentication_complete
                0x0000e544       0x94
 i.smp_authentication_complete
                0x0000e544       0x94 D:\program\CY8\PSoC Creator\3.2\PSoC Creator\psoc\content\cycomponentlibrary\CyComponentLibrary.cylib\BLE_v2_0\Library\gccCyBLEStack_BLE_SOC_PERIPHERAL.a(smp_core.o)
                0x0000e544                smp_authentication_complete

i.smp_clear_connection_entity
                0x0000e5d8       0x58
 i.smp_clear_connection_entity
                0x0000e5d8       0x58 D:\program\CY8\PSoC Creator\3.2\PSoC Creator\psoc\content\cycomponentlibrary\CyComponentLibrary.cylib\BLE_v2_0\Library\gccCyBLEStack_BLE_SOC_PERIPHERAL.a(smp_core.o)
                0x0000e5d8                smp_clear_connection_entity

i.smp_get_auth_info_from_req
                0x0000e630       0x1a
 i.smp_get_auth_info_from_req
                0x0000e630       0x1a D:\program\CY8\PSoC Creator\3.2\PSoC Creator\psoc\content\cycomponentlibrary\CyComponentLibrary.cylib\BLE_v2_0\Library\gccCyBLEStack_BLE_SOC_PERIPHERAL.a(smp_core.o)
                0x0000e630                smp_get_auth_info_from_req

i.smp_get_auth_req_from_info
                0x0000e64a       0x20
 i.smp_get_auth_req_from_info
                0x0000e64a       0x20 D:\program\CY8\PSoC Creator\3.2\PSoC Creator\psoc\content\cycomponentlibrary\CyComponentLibrary.cylib\BLE_v2_0\Library\gccCyBLEStack_BLE_SOC_PERIPHERAL.a(smp_core.o)
                0x0000e64a                smp_get_auth_req_from_info

i.smp_get_iocap_assoc_model
                0x0000e66c       0x1c
 i.smp_get_iocap_assoc_model
                0x0000e66c       0x1c D:\program\CY8\PSoC Creator\3.2\PSoC Creator\psoc\content\cycomponentlibrary\CyComponentLibrary.cylib\BLE_v2_0\Library\gccCyBLEStack_BLE_SOC_PERIPHERAL.a(smp_core.o)
                0x0000e66c                smp_get_iocap_assoc_model

i.smp_handle_security_request
                0x0000e688       0x44
 i.smp_handle_security_request
                0x0000e688       0x44 D:\program\CY8\PSoC Creator\3.2\PSoC Creator\psoc\content\cycomponentlibrary\CyComponentLibrary.cylib\BLE_v2_0\Library\gccCyBLEStack_BLE_SOC_PERIPHERAL.a(smp_core.o)
                0x0000e688                smp_handle_security_request

i.smp_procedure_timeout_cb
                0x0000e6cc       0x24
 i.smp_procedure_timeout_cb
                0x0000e6cc       0x24 D:\program\CY8\PSoC Creator\3.2\PSoC Creator\psoc\content\cycomponentlibrary\CyComponentLibrary.cylib\BLE_v2_0\Library\gccCyBLEStack_BLE_SOC_PERIPHERAL.a(smp_core.o)
                0x0000e6cc                smp_procedure_timeout_cb

i.smp_pvt_addr_rand_complete
                0x0000e6f0       0x38
 i.smp_pvt_addr_rand_complete
                0x0000e6f0       0x38 D:\program\CY8\PSoC Creator\3.2\PSoC Creator\psoc\content\cycomponentlibrary\CyComponentLibrary.cylib\BLE_v2_0\Library\gccCyBLEStack_BLE_SOC_PERIPHERAL.a(smp_core.o)
                0x0000e6f0                smp_pvt_addr_rand_complete

i.smp_send_command
                0x0000e728       0x68
 i.smp_send_command
                0x0000e728       0x68 D:\program\CY8\PSoC Creator\3.2\PSoC Creator\psoc\content\cycomponentlibrary\CyComponentLibrary.cylib\BLE_v2_0\Library\gccCyBLEStack_BLE_SOC_PERIPHERAL.a(smp_core.o)
                0x0000e728                smp_send_command

i.smp_send_event
                0x0000e790       0x3c
 i.smp_send_event
                0x0000e790       0x3c D:\program\CY8\PSoC Creator\3.2\PSoC Creator\psoc\content\cycomponentlibrary\CyComponentLibrary.cylib\BLE_v2_0\Library\gccCyBLEStack_BLE_SOC_PERIPHERAL.a(smp_core.o)
                0x0000e790                smp_send_event

i.smp_send_pairing_failed
                0x0000e7cc       0x26
 i.smp_send_pairing_failed
                0x0000e7cc       0x26 D:\program\CY8\PSoC Creator\3.2\PSoC Creator\psoc\content\cycomponentlibrary\CyComponentLibrary.cylib\BLE_v2_0\Library\gccCyBLEStack_BLE_SOC_PERIPHERAL.a(smp_core.o)
                0x0000e7cc                smp_send_pairing_failed

i.smp_send_pairing_reqres
                0x0000e7f4       0x9c
 i.smp_send_pairing_reqres
                0x0000e7f4       0x9c D:\program\CY8\PSoC Creator\3.2\PSoC Creator\psoc\content\cycomponentlibrary\CyComponentLibrary.cylib\BLE_v2_0\Library\gccCyBLEStack_BLE_SOC_PERIPHERAL.a(smp_core.o)
                0x0000e7f4                smp_send_pairing_reqres

i.smp_timer_start
                0x0000e890       0x34
 i.smp_timer_start
                0x0000e890       0x34 D:\program\CY8\PSoC Creator\3.2\PSoC Creator\psoc\content\cycomponentlibrary\CyComponentLibrary.cylib\BLE_v2_0\Library\gccCyBLEStack_BLE_SOC_PERIPHERAL.a(smp_core.o)
                0x0000e890                smp_timer_start

i.smp_timer_stop
                0x0000e8c4       0x20
 i.smp_timer_stop
                0x0000e8c4       0x20 D:\program\CY8\PSoC Creator\3.2\PSoC Creator\psoc\content\cycomponentlibrary\CyComponentLibrary.cylib\BLE_v2_0\Library\gccCyBLEStack_BLE_SOC_PERIPHERAL.a(smp_core.o)
                0x0000e8c4                smp_timer_stop

i.smp_validate_pairing_params
                0x0000e8e4       0x50
 i.smp_validate_pairing_params
                0x0000e8e4       0x50 D:\program\CY8\PSoC Creator\3.2\PSoC Creator\psoc\content\cycomponentlibrary\CyComponentLibrary.cylib\BLE_v2_0\Library\gccCyBLEStack_BLE_SOC_PERIPHERAL.a(smp_core.o)
                0x0000e8e4                smp_validate_pairing_params

i.smp_validate_security
                0x0000e934       0x24
 i.smp_validate_security
                0x0000e934       0x24 D:\program\CY8\PSoC Creator\3.2\PSoC Creator\psoc\content\cycomponentlibrary\CyComponentLibrary.cylib\BLE_v2_0\Library\gccCyBLEStack_BLE_SOC_PERIPHERAL.a(smp_core.o)
                0x0000e934                smp_validate_security

i.smp_bt_init   0x0000e958       0x7c
 i.smp_bt_init  0x0000e958       0x7c D:\program\CY8\PSoC Creator\3.2\PSoC Creator\psoc\content\cycomponentlibrary\CyComponentLibrary.cylib\BLE_v2_0\Library\gccCyBLEStack_BLE_SOC_PERIPHERAL.a(smp_init.o)
                0x0000e958                smp_bt_init

i.smp_bt_shutdown
                0x0000e9d4       0x24
 i.smp_bt_shutdown
                0x0000e9d4       0x24 D:\program\CY8\PSoC Creator\3.2\PSoC Creator\psoc\content\cycomponentlibrary\CyComponentLibrary.cylib\BLE_v2_0\Library\gccCyBLEStack_BLE_SOC_PERIPHERAL.a(smp_init.o)
                0x0000e9d4                smp_bt_shutdown

i.smp_init      0x0000e9f8       0x18
 i.smp_init     0x0000e9f8       0x18 D:\program\CY8\PSoC Creator\3.2\PSoC Creator\psoc\content\cycomponentlibrary\CyComponentLibrary.cylib\BLE_v2_0\Library\gccCyBLEStack_BLE_SOC_PERIPHERAL.a(smp_init.o)
                0x0000e9f8                smp_init

i.smp_command_complete
                0x0000ea10       0x3c
 i.smp_command_complete
                0x0000ea10       0x3c D:\program\CY8\PSoC Creator\3.2\PSoC Creator\psoc\content\cycomponentlibrary\CyComponentLibrary.cylib\BLE_v2_0\Library\gccCyBLEStack_BLE_SOC_PERIPHERAL.a(smp_interface.o)
                0x0000ea10                smp_command_complete

i.smp_encryption_complete
                0x0000ea4c       0x58
 i.smp_encryption_complete
                0x0000ea4c       0x58 D:\program\CY8\PSoC Creator\3.2\PSoC Creator\psoc\content\cycomponentlibrary\CyComponentLibrary.cylib\BLE_v2_0\Library\gccCyBLEStack_BLE_SOC_PERIPHERAL.a(smp_interface.o)
                0x0000ea4c                smp_encryption_complete

i.smp_l2cap_connection_complete
                0x0000eaa4       0x64
 i.smp_l2cap_connection_complete
                0x0000eaa4       0x64 D:\program\CY8\PSoC Creator\3.2\PSoC Creator\psoc\content\cycomponentlibrary\CyComponentLibrary.cylib\BLE_v2_0\Library\gccCyBLEStack_BLE_SOC_PERIPHERAL.a(smp_interface.o)

i.smp_l2cap_data_read_ind
                0x0000eb08       0xa4
 i.smp_l2cap_data_read_ind
                0x0000eb08       0xa4 D:\program\CY8\PSoC Creator\3.2\PSoC Creator\psoc\content\cycomponentlibrary\CyComponentLibrary.cylib\BLE_v2_0\Library\gccCyBLEStack_BLE_SOC_PERIPHERAL.a(smp_interface.o)

i.smp_l2cap_disconnection_complete
                0x0000ebac       0x14
 i.smp_l2cap_disconnection_complete
                0x0000ebac       0x14 D:\program\CY8\PSoC Creator\3.2\PSoC Creator\psoc\content\cycomponentlibrary\CyComponentLibrary.cylib\BLE_v2_0\Library\gccCyBLEStack_BLE_SOC_PERIPHERAL.a(smp_interface.o)

i.smp_l2cap_event_cb
                0x0000ebc0       0x1c
 i.smp_l2cap_event_cb
                0x0000ebc0       0x1c D:\program\CY8\PSoC Creator\3.2\PSoC Creator\psoc\content\cycomponentlibrary\CyComponentLibrary.cylib\BLE_v2_0\Library\gccCyBLEStack_BLE_SOC_PERIPHERAL.a(smp_interface.o)
                0x0000ebc0                smp_l2cap_event_cb

i.smp_long_term_key_requested
                0x0000ebdc       0x64
 i.smp_long_term_key_requested
                0x0000ebdc       0x64 D:\program\CY8\PSoC Creator\3.2\PSoC Creator\psoc\content\cycomponentlibrary\CyComponentLibrary.cylib\BLE_v2_0\Library\gccCyBLEStack_BLE_SOC_PERIPHERAL.a(smp_interface.o)
                0x0000ebdc                smp_long_term_key_requested

i.smp_16byte_xor
                0x0000ec40       0x12
 i.smp_16byte_xor
                0x0000ec40       0x12 D:\program\CY8\PSoC Creator\3.2\PSoC Creator\psoc\content\cycomponentlibrary\CyComponentLibrary.cylib\BLE_v2_0\Library\gccCyBLEStack_BLE_SOC_PERIPHERAL.a(smp_utils.o)
                0x0000ec40                smp_16byte_xor

i.smp_create_device_entity
                0x0000ec54       0x84
 i.smp_create_device_entity
                0x0000ec54       0x84 D:\program\CY8\PSoC Creator\3.2\PSoC Creator\psoc\content\cycomponentlibrary\CyComponentLibrary.cylib\BLE_v2_0\Library\gccCyBLEStack_BLE_SOC_PERIPHERAL.a(smp_utils.o)
                0x0000ec54                smp_create_device_entity

i.smp_free_context
                0x0000ecd8       0x2c
 i.smp_free_context
                0x0000ecd8       0x2c D:\program\CY8\PSoC Creator\3.2\PSoC Creator\psoc\content\cycomponentlibrary\CyComponentLibrary.cylib\BLE_v2_0\Library\gccCyBLEStack_BLE_SOC_PERIPHERAL.a(smp_utils.o)
                0x0000ecd8                smp_free_context

i.smp_get_context
                0x0000ed04       0x30
 i.smp_get_context
                0x0000ed04       0x30 D:\program\CY8\PSoC Creator\3.2\PSoC Creator\psoc\content\cycomponentlibrary\CyComponentLibrary.cylib\BLE_v2_0\Library\gccCyBLEStack_BLE_SOC_PERIPHERAL.a(smp_utils.o)
                0x0000ed04                smp_get_context

i.smp_get_fsm_event
                0x0000ed34       0x20
 i.smp_get_fsm_event
                0x0000ed34       0x20 D:\program\CY8\PSoC Creator\3.2\PSoC Creator\psoc\content\cycomponentlibrary\CyComponentLibrary.cylib\BLE_v2_0\Library\gccCyBLEStack_BLE_SOC_PERIPHERAL.a(smp_utils.o)
                0x0000ed34                smp_get_fsm_event

i.smp_reset_device_entity
                0x0000ed54       0x4c
 i.smp_reset_device_entity
                0x0000ed54       0x4c D:\program\CY8\PSoC Creator\3.2\PSoC Creator\psoc\content\cycomponentlibrary\CyComponentLibrary.cylib\BLE_v2_0\Library\gccCyBLEStack_BLE_SOC_PERIPHERAL.a(smp_utils.o)
                0x0000ed54                smp_reset_device_entity

i.smp_search_and_add_device
                0x0000eda0       0x18
 i.smp_search_and_add_device
                0x0000eda0       0x18 D:\program\CY8\PSoC Creator\3.2\PSoC Creator\psoc\content\cycomponentlibrary\CyComponentLibrary.cylib\BLE_v2_0\Library\gccCyBLEStack_BLE_SOC_PERIPHERAL.a(smp_utils.o)
                0x0000eda0                smp_search_and_add_device

i.smp_search_device
                0x0000edb8       0x40
 i.smp_search_device
                0x0000edb8       0x40 D:\program\CY8\PSoC Creator\3.2\PSoC Creator\psoc\content\cycomponentlibrary\CyComponentLibrary.cylib\BLE_v2_0\Library\gccCyBLEStack_BLE_SOC_PERIPHERAL.a(smp_utils.o)
                0x0000edb8                smp_search_device

i.smp_set_device_validity
                0x0000edf8       0x28
 i.smp_set_device_validity
                0x0000edf8       0x28 D:\program\CY8\PSoC Creator\3.2\PSoC Creator\psoc\content\cycomponentlibrary\CyComponentLibrary.cylib\BLE_v2_0\Library\gccCyBLEStack_BLE_SOC_PERIPHERAL.a(smp_utils.o)
                0x0000edf8                smp_set_device_validity

i.smp_access_state_handler
                0x0000ee20       0x18
 i.smp_access_state_handler
                0x0000ee20       0x18 D:\program\CY8\PSoC Creator\3.2\PSoC Creator\psoc\content\cycomponentlibrary\CyComponentLibrary.cylib\BLE_v2_0\Library\gccCyBLEStack_BLE_SOC_PERIPHERAL.a(smp_fsm_engine.o)
                0x0000ee20                smp_access_state_handler

i.smp_fsm_post_event
                0x0000ee38       0x40
 i.smp_fsm_post_event
                0x0000ee38       0x40 D:\program\CY8\PSoC Creator\3.2\PSoC Creator\psoc\content\cycomponentlibrary\CyComponentLibrary.cylib\BLE_v2_0\Library\gccCyBLEStack_BLE_SOC_PERIPHERAL.a(smp_fsm_engine.o)
                0x0000ee38                smp_fsm_post_event

i.smp_tbx_ah_eval
                0x0000ee78       0x34
 i.smp_tbx_ah_eval
                0x0000ee78       0x34 D:\program\CY8\PSoC Creator\3.2\PSoC Creator\psoc\content\cycomponentlibrary\CyComponentLibrary.cylib\BLE_v2_0\Library\gccCyBLEStack_BLE_SOC_PERIPHERAL.a(smp_tools.o)
                0x0000ee78                smp_tbx_ah_eval

i.smp_tbx_c1_eval
                0x0000eeac       0xa6
 i.smp_tbx_c1_eval
                0x0000eeac       0xa6 D:\program\CY8\PSoC Creator\3.2\PSoC Creator\psoc\content\cycomponentlibrary\CyComponentLibrary.cylib\BLE_v2_0\Library\gccCyBLEStack_BLE_SOC_PERIPHERAL.a(smp_tools.o)
                0x0000eeac                smp_tbx_c1_eval

i.smp_tbx_encryption_complete
                0x0000ef54       0x80
 i.smp_tbx_encryption_complete
                0x0000ef54       0x80 D:\program\CY8\PSoC Creator\3.2\PSoC Creator\psoc\content\cycomponentlibrary\CyComponentLibrary.cylib\BLE_v2_0\Library\gccCyBLEStack_BLE_SOC_PERIPHERAL.a(smp_tools.o)
                0x0000ef54                smp_tbx_encryption_complete

i.smp_tbx_rand_complete
                0x0000efd4       0x34
 i.smp_tbx_rand_complete
                0x0000efd4       0x34 D:\program\CY8\PSoC Creator\3.2\PSoC Creator\psoc\content\cycomponentlibrary\CyComponentLibrary.cylib\BLE_v2_0\Library\gccCyBLEStack_BLE_SOC_PERIPHERAL.a(smp_tools.o)
                0x0000efd4                smp_tbx_rand_complete

i.smp_tbx_s1_eval
                0x0000f008       0x3a
 i.smp_tbx_s1_eval
                0x0000f008       0x3a D:\program\CY8\PSoC Creator\3.2\PSoC Creator\psoc\content\cycomponentlibrary\CyComponentLibrary.cylib\BLE_v2_0\Library\gccCyBLEStack_BLE_SOC_PERIPHERAL.a(smp_tools.o)
                0x0000f008                smp_tbx_s1_eval

i.smp_pstorage_cb
                0x0000f042       0x16
 i.smp_pstorage_cb
                0x0000f042       0x16 D:\program\CY8\PSoC Creator\3.2\PSoC Creator\psoc\content\cycomponentlibrary\CyComponentLibrary.cylib\BLE_v2_0\Library\gccCyBLEStack_BLE_SOC_PERIPHERAL.a(smp_psstore.o)
                0x0000f042                smp_pstorage_cb

i.smp_storage_read
                0x0000f058       0x70
 i.smp_storage_read
                0x0000f058       0x70 D:\program\CY8\PSoC Creator\3.2\PSoC Creator\psoc\content\cycomponentlibrary\CyComponentLibrary.cylib\BLE_v2_0\Library\gccCyBLEStack_BLE_SOC_PERIPHERAL.a(smp_psstore.o)
                0x0000f058                smp_storage_read

i.smp_storage_write
                0x0000f0c8       0x6c
 i.smp_storage_write
                0x0000f0c8       0x6c D:\program\CY8\PSoC Creator\3.2\PSoC Creator\psoc\content\cycomponentlibrary\CyComponentLibrary.cylib\BLE_v2_0\Library\gccCyBLEStack_BLE_SOC_PERIPHERAL.a(smp_psstore.o)
                0x0000f0c8                smp_storage_write

i.write_task_bt_init
                0x0000f134       0x1c
 i.write_task_bt_init
                0x0000f134       0x1c D:\program\CY8\PSoC Creator\3.2\PSoC Creator\psoc\content\cycomponentlibrary\CyComponentLibrary.cylib\BLE_v2_0\Library\gccCyBLEStack_BLE_SOC_PERIPHERAL.a(write_task.o)
                0x0000f134                write_task_bt_init

i.write_task_bt_shutdown
                0x0000f150       0x48
 i.write_task_bt_shutdown
                0x0000f150       0x48 D:\program\CY8\PSoC Creator\3.2\PSoC Creator\psoc\content\cycomponentlibrary\CyComponentLibrary.cylib\BLE_v2_0\Library\gccCyBLEStack_BLE_SOC_PERIPHERAL.a(write_task.o)
                0x0000f150                write_task_bt_shutdown

i.write_task_enqueue
                0x0000f198       0x8c
 i.write_task_enqueue
                0x0000f198       0x8c D:\program\CY8\PSoC Creator\3.2\PSoC Creator\psoc\content\cycomponentlibrary\CyComponentLibrary.cylib\BLE_v2_0\Library\gccCyBLEStack_BLE_SOC_PERIPHERAL.a(write_task.o)
                0x0000f198                write_task_enqueue

i.write_task_init
                0x0000f224       0x4c
 i.write_task_init
                0x0000f224       0x4c D:\program\CY8\PSoC Creator\3.2\PSoC Creator\psoc\content\cycomponentlibrary\CyComponentLibrary.cylib\BLE_v2_0\Library\gccCyBLEStack_BLE_SOC_PERIPHERAL.a(write_task.o)
                0x0000f224                write_task_init

i.write_task_start_routine
                0x0000f270       0x3c
 i.write_task_start_routine
                0x0000f270       0x3c D:\program\CY8\PSoC Creator\3.2\PSoC Creator\psoc\content\cycomponentlibrary\CyComponentLibrary.cylib\BLE_v2_0\Library\gccCyBLEStack_BLE_SOC_PERIPHERAL.a(write_task.o)
                0x0000f270                write_task_start_routine

i.wt_service_queue
                0x0000f2ac       0x90
 i.wt_service_queue
                0x0000f2ac       0x90 D:\program\CY8\PSoC Creator\3.2\PSoC Creator\psoc\content\cycomponentlibrary\CyComponentLibrary.cylib\BLE_v2_0\Library\gccCyBLEStack_BLE_SOC_PERIPHERAL.a(write_task.o)
                0x0000f2ac                wt_service_queue

i.aes_cmac      0x0000f33c       0x8c
 i.aes_cmac     0x0000f33c       0x8c D:\program\CY8\PSoC Creator\3.2\PSoC Creator\psoc\content\cycomponentlibrary\CyComponentLibrary.cylib\BLE_v2_0\Library\gccCyBLEStack_BLE_SOC_PERIPHERAL.a(aes_cmac.o)
                0x0000f33c                aes_cmac

i.aes_cmac_1bit_leftshift_16octet_stream
                0x0000f3c8       0x20
 i.aes_cmac_1bit_leftshift_16octet_stream
                0x0000f3c8       0x20 D:\program\CY8\PSoC Creator\3.2\PSoC Creator\psoc\content\cycomponentlibrary\CyComponentLibrary.cylib\BLE_v2_0\Library\gccCyBLEStack_BLE_SOC_PERIPHERAL.a(aes_cmac.o)

i.aes_cmac_aes_128_encryption_complete
                0x0000f3e8       0xa4
 i.aes_cmac_aes_128_encryption_complete
                0x0000f3e8       0xa4 D:\program\CY8\PSoC Creator\3.2\PSoC Creator\psoc\content\cycomponentlibrary\CyComponentLibrary.cylib\BLE_v2_0\Library\gccCyBLEStack_BLE_SOC_PERIPHERAL.a(aes_cmac.o)
                0x0000f3e8                aes_cmac_aes_128_encryption_complete

i.aes_cmac_context_init
                0x0000f48c       0x1c
 i.aes_cmac_context_init
                0x0000f48c       0x1c D:\program\CY8\PSoC Creator\3.2\PSoC Creator\psoc\content\cycomponentlibrary\CyComponentLibrary.cylib\BLE_v2_0\Library\gccCyBLEStack_BLE_SOC_PERIPHERAL.a(aes_cmac.o)
                0x0000f48c                aes_cmac_context_init

i.aes_cmac_create_subkeys
                0x0000f4a8       0x50
 i.aes_cmac_create_subkeys
                0x0000f4a8       0x50 D:\program\CY8\PSoC Creator\3.2\PSoC Creator\psoc\content\cycomponentlibrary\CyComponentLibrary.cylib\BLE_v2_0\Library\gccCyBLEStack_BLE_SOC_PERIPHERAL.a(aes_cmac.o)

i.aes_cmac_finalize_mac
                0x0000f4f8       0xb8
 i.aes_cmac_finalize_mac
                0x0000f4f8       0xb8 D:\program\CY8\PSoC Creator\3.2\PSoC Creator\psoc\content\cycomponentlibrary\CyComponentLibrary.cylib\BLE_v2_0\Library\gccCyBLEStack_BLE_SOC_PERIPHERAL.a(aes_cmac.o)

i.aes_cmac_generate_mac
                0x0000f5b0       0x7c
 i.aes_cmac_generate_mac
                0x0000f5b0       0x7c D:\program\CY8\PSoC Creator\3.2\PSoC Creator\psoc\content\cycomponentlibrary\CyComponentLibrary.cylib\BLE_v2_0\Library\gccCyBLEStack_BLE_SOC_PERIPHERAL.a(aes_cmac.o)

i.aes_cmac_handle_process_completion
                0x0000f62c       0x4c
 i.aes_cmac_handle_process_completion
                0x0000f62c       0x4c D:\program\CY8\PSoC Creator\3.2\PSoC Creator\psoc\content\cycomponentlibrary\CyComponentLibrary.cylib\BLE_v2_0\Library\gccCyBLEStack_BLE_SOC_PERIPHERAL.a(aes_cmac.o)

i.aes_cmac_xor_16octet
                0x0000f678       0x12
 i.aes_cmac_xor_16octet
                0x0000f678       0x12 D:\program\CY8\PSoC Creator\3.2\PSoC Creator\psoc\content\cycomponentlibrary\CyComponentLibrary.cylib\BLE_v2_0\Library\gccCyBLEStack_BLE_SOC_PERIPHERAL.a(aes_cmac.o)

i.aes_cmac_128B_encrypt_complete_pl
                0x0000f68a        0x8
 i.aes_cmac_128B_encrypt_complete_pl
                0x0000f68a        0x8 D:\program\CY8\PSoC Creator\3.2\PSoC Creator\psoc\content\cycomponentlibrary\CyComponentLibrary.cylib\BLE_v2_0\Library\gccCyBLEStack_BLE_SOC_PERIPHERAL.a(aes_cmac_pl.o)
                0x0000f68a                aes_cmac_128B_encrypt_complete_pl

i.aes_cmac_128B_encrypt_pl
                0x0000f692       0x12
 i.aes_cmac_128B_encrypt_pl
                0x0000f692       0x12 D:\program\CY8\PSoC Creator\3.2\PSoC Creator\psoc\content\cycomponentlibrary\CyComponentLibrary.cylib\BLE_v2_0\Library\gccCyBLEStack_BLE_SOC_PERIPHERAL.a(aes_cmac_pl.o)
                0x0000f692                aes_cmac_128B_encrypt_pl

i.BT_status_set_bit
                0x0000f6a4       0x24
 i.BT_status_set_bit
                0x0000f6a4       0x24 D:\program\CY8\PSoC Creator\3.2\PSoC Creator\psoc\content\cycomponentlibrary\CyComponentLibrary.cylib\BLE_v2_0\Library\gccCyBLEStack_BLE_SOC_PERIPHERAL.a(status.o)
                0x0000f6a4                BT_status_set_bit

i.status_bt_init
                0x0000f6c8        0xc
 i.status_bt_init
                0x0000f6c8        0xc D:\program\CY8\PSoC Creator\3.2\PSoC Creator\psoc\content\cycomponentlibrary\CyComponentLibrary.cylib\BLE_v2_0\Library\gccCyBLEStack_BLE_SOC_PERIPHERAL.a(status.o)
                0x0000f6c8                status_bt_init

i.status_init   0x0000f6d4        0x2
 i.status_init  0x0000f6d4        0x2 D:\program\CY8\PSoC Creator\3.2\PSoC Creator\psoc\content\cycomponentlibrary\CyComponentLibrary.cylib\BLE_v2_0\Library\gccCyBLEStack_BLE_SOC_PERIPHERAL.a(status.o)
                0x0000f6d4                status_init

i.BT_storage_load_db
                0x0000f6d8       0x60
 i.BT_storage_load_db
                0x0000f6d8       0x60 D:\program\CY8\PSoC Creator\3.2\PSoC Creator\psoc\content\cycomponentlibrary\CyComponentLibrary.cylib\BLE_v2_0\Library\gccCyBLEStack_BLE_SOC_PERIPHERAL.a(storage.o)
                0x0000f6d8                BT_storage_load_db

i.BT_storage_read
                0x0000f738       0x12
 i.BT_storage_read
                0x0000f738       0x12 D:\program\CY8\PSoC Creator\3.2\PSoC Creator\psoc\content\cycomponentlibrary\CyComponentLibrary.cylib\BLE_v2_0\Library\gccCyBLEStack_BLE_SOC_PERIPHERAL.a(storage.o)
                0x0000f738                BT_storage_read

i.BT_storage_register_db
                0x0000f74c       0x48
 i.BT_storage_register_db
                0x0000f74c       0x48 D:\program\CY8\PSoC Creator\3.2\PSoC Creator\psoc\content\cycomponentlibrary\CyComponentLibrary.cylib\BLE_v2_0\Library\gccCyBLEStack_BLE_SOC_PERIPHERAL.a(storage.o)
                0x0000f74c                BT_storage_register_db

i.BT_storage_store_db
                0x0000f794       0x5c
 i.BT_storage_store_db
                0x0000f794       0x5c D:\program\CY8\PSoC Creator\3.2\PSoC Creator\psoc\content\cycomponentlibrary\CyComponentLibrary.cylib\BLE_v2_0\Library\gccCyBLEStack_BLE_SOC_PERIPHERAL.a(storage.o)
                0x0000f794                BT_storage_store_db

i.BT_storage_write
                0x0000f7f0       0x12
 i.BT_storage_write
                0x0000f7f0       0x12 D:\program\CY8\PSoC Creator\3.2\PSoC Creator\psoc\content\cycomponentlibrary\CyComponentLibrary.cylib\BLE_v2_0\Library\gccCyBLEStack_BLE_SOC_PERIPHERAL.a(storage.o)
                0x0000f7f0                BT_storage_write

i.storage_bt_init
                0x0000f802        0xe
 i.storage_bt_init
                0x0000f802        0xe D:\program\CY8\PSoC Creator\3.2\PSoC Creator\psoc\content\cycomponentlibrary\CyComponentLibrary.cylib\BLE_v2_0\Library\gccCyBLEStack_BLE_SOC_PERIPHERAL.a(storage.o)
                0x0000f802                storage_bt_init

i.storage_bt_shutdown
                0x0000f810        0xe
 i.storage_bt_shutdown
                0x0000f810        0xe D:\program\CY8\PSoC Creator\3.2\PSoC Creator\psoc\content\cycomponentlibrary\CyComponentLibrary.cylib\BLE_v2_0\Library\gccCyBLEStack_BLE_SOC_PERIPHERAL.a(storage.o)
                0x0000f810                storage_bt_shutdown

i.storage_get_base_size_for_type
                0x0000f820       0x1c
 i.storage_get_base_size_for_type
                0x0000f820       0x1c D:\program\CY8\PSoC Creator\3.2\PSoC Creator\psoc\content\cycomponentlibrary\CyComponentLibrary.cylib\BLE_v2_0\Library\gccCyBLEStack_BLE_SOC_PERIPHERAL.a(storage.o)

i.storage_init  0x0000f83c       0x18
 i.storage_init
                0x0000f83c       0x18 D:\program\CY8\PSoC Creator\3.2\PSoC Creator\psoc\content\cycomponentlibrary\CyComponentLibrary.cylib\BLE_v2_0\Library\gccCyBLEStack_BLE_SOC_PERIPHERAL.a(storage.o)
                0x0000f83c                storage_init

i.storage_search_index
                0x0000f854       0x30
 i.storage_search_index
                0x0000f854       0x30 D:\program\CY8\PSoC Creator\3.2\PSoC Creator\psoc\content\cycomponentlibrary\CyComponentLibrary.cylib\BLE_v2_0\Library\gccCyBLEStack_BLE_SOC_PERIPHERAL.a(storage.o)

i.BT_ISROSQPost
                0x0000f884        0xa
 i.BT_ISROSQPost
                0x0000f884        0xa D:\program\CY8\PSoC Creator\3.2\PSoC Creator\psoc\content\cycomponentlibrary\CyComponentLibrary.cylib\BLE_v2_0\Library\gccCyBLEStack_BLE_SOC_PERIPHERAL.a(bt_os_common.o)
                0x0000f884                BT_ISROSQPost

i.BT_OSQPost    0x0000f88e        0xa
 i.BT_OSQPost   0x0000f88e        0xa D:\program\CY8\PSoC Creator\3.2\PSoC Creator\psoc\content\cycomponentlibrary\CyComponentLibrary.cylib\BLE_v2_0\Library\gccCyBLEStack_BLE_SOC_PERIPHERAL.a(bt_os_common.o)
                0x0000f88e                BT_OSQPost

i.BT_thread_create
                0x0000f898       0x30
 i.BT_thread_create
                0x0000f898       0x30 D:\program\CY8\PSoC Creator\3.2\PSoC Creator\psoc\content\cycomponentlibrary\CyComponentLibrary.cylib\BLE_v2_0\Library\gccCyBLEStack_BLE_SOC_PERIPHERAL.a(bt_os_common.o)
                0x0000f898                BT_thread_create

i.pf_timer_handle_tick
                0x0000f8c8        0x8
 i.pf_timer_handle_tick
                0x0000f8c8        0x8 D:\program\CY8\PSoC Creator\3.2\PSoC Creator\psoc\content\cycomponentlibrary\CyComponentLibrary.cylib\BLE_v2_0\Library\gccCyBLEStack_BLE_SOC_PERIPHERAL.a(bt_os_common.o)
                0x0000f8c8                pf_timer_handle_tick

i.BT_start_timer
                0x0000f8d0       0x7c
 i.BT_start_timer
                0x0000f8d0       0x7c D:\program\CY8\PSoC Creator\3.2\PSoC Creator\psoc\content\cycomponentlibrary\CyComponentLibrary.cylib\BLE_v2_0\Library\gccCyBLEStack_BLE_SOC_PERIPHERAL.a(BT_timer.o)
                0x0000f8d0                BT_start_timer

i.BT_stop_timer
                0x0000f94c       0x58
 i.BT_stop_timer
                0x0000f94c       0x58 D:\program\CY8\PSoC Creator\3.2\PSoC Creator\psoc\content\cycomponentlibrary\CyComponentLibrary.cylib\BLE_v2_0\Library\gccCyBLEStack_BLE_SOC_PERIPHERAL.a(BT_timer.o)
                0x0000f94c                BT_stop_timer

i.BT_timer_process_signals
                0x0000f9a4       0x58
 i.BT_timer_process_signals
                0x0000f9a4       0x58 D:\program\CY8\PSoC Creator\3.2\PSoC Creator\psoc\content\cycomponentlibrary\CyComponentLibrary.cylib\BLE_v2_0\Library\gccCyBLEStack_BLE_SOC_PERIPHERAL.a(BT_timer.o)
                0x0000f9a4                BT_timer_process_signals

i.pf_timer_handle_callback
                0x0000f9fc       0x20
 i.pf_timer_handle_callback
                0x0000f9fc       0x20 D:\program\CY8\PSoC Creator\3.2\PSoC Creator\psoc\content\cycomponentlibrary\CyComponentLibrary.cylib\BLE_v2_0\Library\gccCyBLEStack_BLE_SOC_PERIPHERAL.a(BT_timer.o)
                0x0000f9fc                pf_timer_handle_callback

i.timer_active_entity
                0x0000fa1c       0x24
 i.timer_active_entity
                0x0000fa1c       0x24 D:\program\CY8\PSoC Creator\3.2\PSoC Creator\psoc\content\cycomponentlibrary\CyComponentLibrary.cylib\BLE_v2_0\Library\gccCyBLEStack_BLE_SOC_PERIPHERAL.a(BT_timer.o)
                0x0000fa1c                timer_active_entity

i.timer_alloc_entity
                0x0000fa40       0x1c
 i.timer_alloc_entity
                0x0000fa40       0x1c D:\program\CY8\PSoC Creator\3.2\PSoC Creator\psoc\content\cycomponentlibrary\CyComponentLibrary.cylib\BLE_v2_0\Library\gccCyBLEStack_BLE_SOC_PERIPHERAL.a(BT_timer.o)
                0x0000fa40                timer_alloc_entity

i.timer_allocated_entity
                0x0000fa5c       0x24
 i.timer_allocated_entity
                0x0000fa5c       0x24 D:\program\CY8\PSoC Creator\3.2\PSoC Creator\psoc\content\cycomponentlibrary\CyComponentLibrary.cylib\BLE_v2_0\Library\gccCyBLEStack_BLE_SOC_PERIPHERAL.a(BT_timer.o)
                0x0000fa5c                timer_allocated_entity

i.timer_bt_init
                0x0000fa80        0x2
 i.timer_bt_init
                0x0000fa80        0x2 D:\program\CY8\PSoC Creator\3.2\PSoC Creator\psoc\content\cycomponentlibrary\CyComponentLibrary.cylib\BLE_v2_0\Library\gccCyBLEStack_BLE_SOC_PERIPHERAL.a(BT_timer.o)
                0x0000fa80                timer_bt_init

i.timer_bt_shutdown
                0x0000fa84       0x38
 i.timer_bt_shutdown
                0x0000fa84       0x38 D:\program\CY8\PSoC Creator\3.2\PSoC Creator\psoc\content\cycomponentlibrary\CyComponentLibrary.cylib\BLE_v2_0\Library\gccCyBLEStack_BLE_SOC_PERIPHERAL.a(BT_timer.o)
                0x0000fa84                timer_bt_shutdown

i.timer_init    0x0000fabc       0x28
 i.timer_init   0x0000fabc       0x28 D:\program\CY8\PSoC Creator\3.2\PSoC Creator\psoc\content\cycomponentlibrary\CyComponentLibrary.cylib\BLE_v2_0\Library\gccCyBLEStack_BLE_SOC_PERIPHERAL.a(BT_timer.o)
                0x0000fabc                timer_init

i.BleStackFlashStorageInit
                0x0000fae4       0x74
 i.BleStackFlashStorageInit
                0x0000fae4       0x74 D:\program\CY8\PSoC Creator\3.2\PSoC Creator\psoc\content\cycomponentlibrary\CyComponentLibrary.cylib\BLE_v2_0\Library\gccCyBLEStack_BLE_SOC_PERIPHERAL.a(storage_pl.o)
                0x0000fae4                BleStackFlashStorageInit

i.BleStackWriteToFlashPending
                0x0000fb58       0x24
 i.BleStackWriteToFlashPending
                0x0000fb58       0x24 D:\program\CY8\PSoC Creator\3.2\PSoC Creator\psoc\content\cycomponentlibrary\CyComponentLibrary.cylib\BLE_v2_0\Library\gccCyBLEStack_BLE_SOC_PERIPHERAL.a(storage_pl.o)
                0x0000fb58                BleStackWriteToFlashPending

i.BleStackWriteToFlashRam
                0x0000fb7c       0x70
 i.BleStackWriteToFlashRam
                0x0000fb7c       0x70 D:\program\CY8\PSoC Creator\3.2\PSoC Creator\psoc\content\cycomponentlibrary\CyComponentLibrary.cylib\BLE_v2_0\Library\gccCyBLEStack_BLE_SOC_PERIPHERAL.a(storage_pl.o)
                0x0000fb7c                BleStackWriteToFlashRam

i.storage_bt_init_pl
                0x0000fbec       0x24
 i.storage_bt_init_pl
                0x0000fbec       0x24 D:\program\CY8\PSoC Creator\3.2\PSoC Creator\psoc\content\cycomponentlibrary\CyComponentLibrary.cylib\BLE_v2_0\Library\gccCyBLEStack_BLE_SOC_PERIPHERAL.a(storage_pl.o)
                0x0000fbec                storage_bt_init_pl

i.storage_bt_shutdown_pl
                0x0000fc10        0x8
 i.storage_bt_shutdown_pl
                0x0000fc10        0x8 D:\program\CY8\PSoC Creator\3.2\PSoC Creator\psoc\content\cycomponentlibrary\CyComponentLibrary.cylib\BLE_v2_0\Library\gccCyBLEStack_BLE_SOC_PERIPHERAL.a(storage_pl.o)
                0x0000fc10                storage_bt_shutdown_pl

i.storage_close_pl
                0x0000fc18        0x4
 i.storage_close_pl
                0x0000fc18        0x4 D:\program\CY8\PSoC Creator\3.2\PSoC Creator\psoc\content\cycomponentlibrary\CyComponentLibrary.cylib\BLE_v2_0\Library\gccCyBLEStack_BLE_SOC_PERIPHERAL.a(storage_pl.o)
                0x0000fc18                storage_close_pl

i.storage_open_pl
                0x0000fc1c       0x1c
 i.storage_open_pl
                0x0000fc1c       0x1c D:\program\CY8\PSoC Creator\3.2\PSoC Creator\psoc\content\cycomponentlibrary\CyComponentLibrary.cylib\BLE_v2_0\Library\gccCyBLEStack_BLE_SOC_PERIPHERAL.a(storage_pl.o)
                0x0000fc1c                storage_open_pl

i.storage_read_pl
                0x0000fc38       0x28
 i.storage_read_pl
                0x0000fc38       0x28 D:\program\CY8\PSoC Creator\3.2\PSoC Creator\psoc\content\cycomponentlibrary\CyComponentLibrary.cylib\BLE_v2_0\Library\gccCyBLEStack_BLE_SOC_PERIPHERAL.a(storage_pl.o)
                0x0000fc38                storage_read_pl

i.storage_read_signature_pl
                0x0000fc60       0x2c
 i.storage_read_signature_pl
                0x0000fc60       0x2c D:\program\CY8\PSoC Creator\3.2\PSoC Creator\psoc\content\cycomponentlibrary\CyComponentLibrary.cylib\BLE_v2_0\Library\gccCyBLEStack_BLE_SOC_PERIPHERAL.a(storage_pl.o)
                0x0000fc60                storage_read_signature_pl

i.storage_reset_storage_offset
                0x0000fc8c       0x10
 i.storage_reset_storage_offset
                0x0000fc8c       0x10 D:\program\CY8\PSoC Creator\3.2\PSoC Creator\psoc\content\cycomponentlibrary\CyComponentLibrary.cylib\BLE_v2_0\Library\gccCyBLEStack_BLE_SOC_PERIPHERAL.a(storage_pl.o)

i.storage_write_pl
                0x0000fc9c       0x24
 i.storage_write_pl
                0x0000fc9c       0x24 D:\program\CY8\PSoC Creator\3.2\PSoC Creator\psoc\content\cycomponentlibrary\CyComponentLibrary.cylib\BLE_v2_0\Library\gccCyBLEStack_BLE_SOC_PERIPHERAL.a(storage_pl.o)
                0x0000fc9c                storage_write_pl

i.storage_write_signature_pl
                0x0000fcc0       0x14
 i.storage_write_signature_pl
                0x0000fcc0       0x14 D:\program\CY8\PSoC Creator\3.2\PSoC Creator\psoc\content\cycomponentlibrary\CyComponentLibrary.cylib\BLE_v2_0\Library\gccCyBLEStack_BLE_SOC_PERIPHERAL.a(storage_pl.o)
                0x0000fcc0                storage_write_signature_pl

i.drbg_get_random_number
                0x0000fcd4       0x2e
 i.drbg_get_random_number
                0x0000fcd4       0x2e D:\program\CY8\PSoC Creator\3.2\PSoC Creator\psoc\content\cycomponentlibrary\CyComponentLibrary.cylib\BLE_v2_0\Library\gccCyBLEStack_BLE_SOC_PERIPHERAL.a(drbg.o)
                0x0000fcd4                drbg_get_random_number

i.generate_drbg
                0x0000fd04      0x100
 i.generate_drbg
                0x0000fd04      0x100 D:\program\CY8\PSoC Creator\3.2\PSoC Creator\psoc\content\cycomponentlibrary\CyComponentLibrary.cylib\BLE_v2_0\Library\gccCyBLEStack_BLE_SOC_PERIPHERAL.a(drbg.o)
                0x0000fd04                generate_drbg

i.sha1          0x0000fe04      0x318
 i.sha1         0x0000fe04      0x318 D:\program\CY8\PSoC Creator\3.2\PSoC Creator\psoc\content\cycomponentlibrary\CyComponentLibrary.cylib\BLE_v2_0\Library\gccCyBLEStack_BLE_SOC_PERIPHERAL.a(drbg.o)
                0x0000fe04                sha1

i.convert_to_lsb
                0x0001011c       0x1c
 i.convert_to_lsb
                0x0001011c       0x1c D:\program\CY8\PSoC Creator\3.2\PSoC Creator\psoc\content\cycomponentlibrary\CyComponentLibrary.cylib\BLE_v2_0\Library\gccCyBLEStack_BLE_SOC_PERIPHERAL.a(bt_fw_os_al.o)
                0x0001011c                convert_to_lsb

i.le_allocate_command_buffer
                0x00010138       0x20
 i.le_allocate_command_buffer
                0x00010138       0x20 D:\program\CY8\PSoC Creator\3.2\PSoC Creator\psoc\content\cycomponentlibrary\CyComponentLibrary.cylib\BLE_v2_0\Library\gccCyBLEStack_BLE_SOC_PERIPHERAL.a(bt_fw_os_al.o)
                0x00010138                le_allocate_command_buffer

i.le_allocate_event_buffer
                0x00010158       0x30
 i.le_allocate_event_buffer
                0x00010158       0x30 D:\program\CY8\PSoC Creator\3.2\PSoC Creator\psoc\content\cycomponentlibrary\CyComponentLibrary.cylib\BLE_v2_0\Library\gccCyBLEStack_BLE_SOC_PERIPHERAL.a(bt_fw_os_al.o)
                0x00010158                le_allocate_event_buffer

i.le_allocate_rx_data_buffer
                0x00010188       0x20
 i.le_allocate_rx_data_buffer
                0x00010188       0x20 D:\program\CY8\PSoC Creator\3.2\PSoC Creator\psoc\content\cycomponentlibrary\CyComponentLibrary.cylib\BLE_v2_0\Library\gccCyBLEStack_BLE_SOC_PERIPHERAL.a(bt_fw_os_al.o)
                0x00010188                le_allocate_rx_data_buffer

i.le_allocate_rx_pdu_buffer
                0x000101a8       0x20
 i.le_allocate_rx_pdu_buffer
                0x000101a8       0x20 D:\program\CY8\PSoC Creator\3.2\PSoC Creator\psoc\content\cycomponentlibrary\CyComponentLibrary.cylib\BLE_v2_0\Library\gccCyBLEStack_BLE_SOC_PERIPHERAL.a(bt_fw_os_al.o)
                0x000101a8                le_allocate_rx_pdu_buffer

i.le_allocate_tx_data_buffer
                0x000101c8       0x20
 i.le_allocate_tx_data_buffer
                0x000101c8       0x20 D:\program\CY8\PSoC Creator\3.2\PSoC Creator\psoc\content\cycomponentlibrary\CyComponentLibrary.cylib\BLE_v2_0\Library\gccCyBLEStack_BLE_SOC_PERIPHERAL.a(bt_fw_os_al.o)
                0x000101c8                le_allocate_tx_data_buffer

i.le_allocate_tx_pdu_buffer
                0x000101e8       0x20
 i.le_allocate_tx_pdu_buffer
                0x000101e8       0x20 D:\program\CY8\PSoC Creator\3.2\PSoC Creator\psoc\content\cycomponentlibrary\CyComponentLibrary.cylib\BLE_v2_0\Library\gccCyBLEStack_BLE_SOC_PERIPHERAL.a(bt_fw_os_al.o)
                0x000101e8                le_allocate_tx_pdu_buffer

i.le_allocate_txn_buffer
                0x00010208       0x20
 i.le_allocate_txn_buffer
                0x00010208       0x20 D:\program\CY8\PSoC Creator\3.2\PSoC Creator\psoc\content\cycomponentlibrary\CyComponentLibrary.cylib\BLE_v2_0\Library\gccCyBLEStack_BLE_SOC_PERIPHERAL.a(bt_fw_os_al.o)
                0x00010208                le_allocate_txn_buffer

i.le_create_tasks
                0x00010228        0xe
 i.le_create_tasks
                0x00010228        0xe D:\program\CY8\PSoC Creator\3.2\PSoC Creator\psoc\content\cycomponentlibrary\CyComponentLibrary.cylib\BLE_v2_0\Library\gccCyBLEStack_BLE_SOC_PERIPHERAL.a(bt_fw_os_al.o)
                0x00010228                le_create_tasks

i.le_free_command_buffer
                0x00010238       0x14
 i.le_free_command_buffer
                0x00010238       0x14 D:\program\CY8\PSoC Creator\3.2\PSoC Creator\psoc\content\cycomponentlibrary\CyComponentLibrary.cylib\BLE_v2_0\Library\gccCyBLEStack_BLE_SOC_PERIPHERAL.a(bt_fw_os_al.o)
                0x00010238                le_free_command_buffer

i.le_free_event_buffer
                0x0001024c       0x28
 i.le_free_event_buffer
                0x0001024c       0x28 D:\program\CY8\PSoC Creator\3.2\PSoC Creator\psoc\content\cycomponentlibrary\CyComponentLibrary.cylib\BLE_v2_0\Library\gccCyBLEStack_BLE_SOC_PERIPHERAL.a(bt_fw_os_al.o)
                0x0001024c                le_free_event_buffer

i.le_free_rx_data_buffer
                0x00010274       0x14
 i.le_free_rx_data_buffer
                0x00010274       0x14 D:\program\CY8\PSoC Creator\3.2\PSoC Creator\psoc\content\cycomponentlibrary\CyComponentLibrary.cylib\BLE_v2_0\Library\gccCyBLEStack_BLE_SOC_PERIPHERAL.a(bt_fw_os_al.o)
                0x00010274                le_free_rx_data_buffer

i.le_free_rx_pdu_buffer
                0x00010288       0x14
 i.le_free_rx_pdu_buffer
                0x00010288       0x14 D:\program\CY8\PSoC Creator\3.2\PSoC Creator\psoc\content\cycomponentlibrary\CyComponentLibrary.cylib\BLE_v2_0\Library\gccCyBLEStack_BLE_SOC_PERIPHERAL.a(bt_fw_os_al.o)
                0x00010288                le_free_rx_pdu_buffer

i.le_free_tx_data_buffer
                0x0001029c       0x14
 i.le_free_tx_data_buffer
                0x0001029c       0x14 D:\program\CY8\PSoC Creator\3.2\PSoC Creator\psoc\content\cycomponentlibrary\CyComponentLibrary.cylib\BLE_v2_0\Library\gccCyBLEStack_BLE_SOC_PERIPHERAL.a(bt_fw_os_al.o)
                0x0001029c                le_free_tx_data_buffer

i.le_free_tx_pdu_buffer
                0x000102b0       0x14
 i.le_free_tx_pdu_buffer
                0x000102b0       0x14 D:\program\CY8\PSoC Creator\3.2\PSoC Creator\psoc\content\cycomponentlibrary\CyComponentLibrary.cylib\BLE_v2_0\Library\gccCyBLEStack_BLE_SOC_PERIPHERAL.a(bt_fw_os_al.o)
                0x000102b0                le_free_tx_pdu_buffer

i.le_free_txn_buffer
                0x000102c4       0x14
 i.le_free_txn_buffer
                0x000102c4       0x14 D:\program\CY8\PSoC Creator\3.2\PSoC Creator\psoc\content\cycomponentlibrary\CyComponentLibrary.cylib\BLE_v2_0\Library\gccCyBLEStack_BLE_SOC_PERIPHERAL.a(bt_fw_os_al.o)
                0x000102c4                le_free_txn_buffer

i.le_initialize_buffers
                0x000102d8       0x88
 i.le_initialize_buffers
                0x000102d8       0x88 D:\program\CY8\PSoC Creator\3.2\PSoC Creator\psoc\content\cycomponentlibrary\CyComponentLibrary.cylib\BLE_v2_0\Library\gccCyBLEStack_BLE_SOC_PERIPHERAL.a(bt_fw_os_al.o)
                0x000102d8                le_initialize_buffers

i.le_isr_send_signal_to_task
                0x00010360        0xc
 i.le_isr_send_signal_to_task
                0x00010360        0xc D:\program\CY8\PSoC Creator\3.2\PSoC Creator\psoc\content\cycomponentlibrary\CyComponentLibrary.cylib\BLE_v2_0\Library\gccCyBLEStack_BLE_SOC_PERIPHERAL.a(bt_fw_os_al.o)
                0x00010360                le_isr_send_signal_to_task

i.le_reset_buffers
                0x0001036c       0x3c
 i.le_reset_buffers
                0x0001036c       0x3c D:\program\CY8\PSoC Creator\3.2\PSoC Creator\psoc\content\cycomponentlibrary\CyComponentLibrary.cylib\BLE_v2_0\Library\gccCyBLEStack_BLE_SOC_PERIPHERAL.a(bt_fw_os_al.o)
                0x0001036c                le_reset_buffers

i.le_send_signal_to_task
                0x000103a8        0xc
 i.le_send_signal_to_task
                0x000103a8        0xc D:\program\CY8\PSoC Creator\3.2\PSoC Creator\psoc\content\cycomponentlibrary\CyComponentLibrary.cylib\BLE_v2_0\Library\gccCyBLEStack_BLE_SOC_PERIPHERAL.a(bt_fw_os_al.o)
                0x000103a8                le_send_signal_to_task

i.lec_generate_br_edr_command_complete_event
                0x000103b4      0x15c
 i.lec_generate_br_edr_command_complete_event
                0x000103b4      0x15c D:\program\CY8\PSoC Creator\3.2\PSoC Creator\psoc\content\cycomponentlibrary\CyComponentLibrary.cylib\BLE_v2_0\Library\gccCyBLEStack_BLE_SOC_PERIPHERAL.a(lec_hci_br_edr_commands.o)
                0x000103b4                lec_generate_br_edr_command_complete_event

i.lec_get_expected_br_edr_cmd_param_length
                0x00010510       0x94
 i.lec_get_expected_br_edr_cmd_param_length
                0x00010510       0x94 D:\program\CY8\PSoC Creator\3.2\PSoC Creator\psoc\content\cycomponentlibrary\CyComponentLibrary.cylib\BLE_v2_0\Library\gccCyBLEStack_BLE_SOC_PERIPHERAL.a(lec_hci_br_edr_commands.o)
                0x00010510                lec_get_expected_br_edr_cmd_param_length

i.lec_hci_convert_br_edr_command_params
                0x000105a4       0xa4
 i.lec_hci_convert_br_edr_command_params
                0x000105a4       0xa4 D:\program\CY8\PSoC Creator\3.2\PSoC Creator\psoc\content\cycomponentlibrary\CyComponentLibrary.cylib\BLE_v2_0\Library\gccCyBLEStack_BLE_SOC_PERIPHERAL.a(lec_hci_br_edr_commands.o)
                0x000105a4                lec_hci_convert_br_edr_command_params

i.lec_hci_handle_br_edr_command
                0x00010648       0xe0
 i.lec_hci_handle_br_edr_command
                0x00010648       0xe0 D:\program\CY8\PSoC Creator\3.2\PSoC Creator\psoc\content\cycomponentlibrary\CyComponentLibrary.cylib\BLE_v2_0\Library\gccCyBLEStack_BLE_SOC_PERIPHERAL.a(lec_hci_br_edr_commands.o)
                0x00010648                lec_hci_handle_br_edr_command

i.lec_hci_handle_br_edr_set_event_mask_command
                0x00010728       0x50
 i.lec_hci_handle_br_edr_set_event_mask_command
                0x00010728       0x50 D:\program\CY8\PSoC Creator\3.2\PSoC Creator\psoc\content\cycomponentlibrary\CyComponentLibrary.cylib\BLE_v2_0\Library\gccCyBLEStack_BLE_SOC_PERIPHERAL.a(lec_hci_br_edr_commands.o)
                0x00010728                lec_hci_handle_br_edr_set_event_mask_command

i.lec_hci_handle_br_edr_set_event_mask_page2_command
                0x00010778       0x28
 i.lec_hci_handle_br_edr_set_event_mask_page2_command
                0x00010778       0x28 D:\program\CY8\PSoC Creator\3.2\PSoC Creator\psoc\content\cycomponentlibrary\CyComponentLibrary.cylib\BLE_v2_0\Library\gccCyBLEStack_BLE_SOC_PERIPHERAL.a(lec_hci_br_edr_commands.o)
                0x00010778                lec_hci_handle_br_edr_set_event_mask_page2_command

i.lec_hci_handle_disconnect
                0x000107a0       0x18
 i.lec_hci_handle_disconnect
                0x000107a0       0x18 D:\program\CY8\PSoC Creator\3.2\PSoC Creator\psoc\content\cycomponentlibrary\CyComponentLibrary.cylib\BLE_v2_0\Library\gccCyBLEStack_BLE_SOC_PERIPHERAL.a(lec_hci_br_edr_commands.o)
                0x000107a0                lec_hci_handle_disconnect

i.lec_hci_handle_read_authenticated_payload_timeout_command
                0x000107b8       0x1e
 i.lec_hci_handle_read_authenticated_payload_timeout_command
                0x000107b8       0x1e D:\program\CY8\PSoC Creator\3.2\PSoC Creator\psoc\content\cycomponentlibrary\CyComponentLibrary.cylib\BLE_v2_0\Library\gccCyBLEStack_BLE_SOC_PERIPHERAL.a(lec_hci_br_edr_commands.o)
                0x000107b8                lec_hci_handle_read_authenticated_payload_timeout_command

i.lec_hci_handle_read_rssi_command
                0x000107d6        0x8
 i.lec_hci_handle_read_rssi_command
                0x000107d6        0x8 D:\program\CY8\PSoC Creator\3.2\PSoC Creator\psoc\content\cycomponentlibrary\CyComponentLibrary.cylib\BLE_v2_0\Library\gccCyBLEStack_BLE_SOC_PERIPHERAL.a(lec_hci_br_edr_commands.o)
                0x000107d6                lec_hci_handle_read_rssi_command

i.lec_hci_handle_read_transmit_power_level_command
                0x000107de        0x8
 i.lec_hci_handle_read_transmit_power_level_command
                0x000107de        0x8 D:\program\CY8\PSoC Creator\3.2\PSoC Creator\psoc\content\cycomponentlibrary\CyComponentLibrary.cylib\BLE_v2_0\Library\gccCyBLEStack_BLE_SOC_PERIPHERAL.a(lec_hci_br_edr_commands.o)
                0x000107de                lec_hci_handle_read_transmit_power_level_command

i.lec_hci_handle_remote_version_cmd
                0x000107e6        0x8
 i.lec_hci_handle_remote_version_cmd
                0x000107e6        0x8 D:\program\CY8\PSoC Creator\3.2\PSoC Creator\psoc\content\cycomponentlibrary\CyComponentLibrary.cylib\BLE_v2_0\Library\gccCyBLEStack_BLE_SOC_PERIPHERAL.a(lec_hci_br_edr_commands.o)
                0x000107e6                lec_hci_handle_remote_version_cmd

i.lec_hci_handle_reset_command
                0x000107ee       0x18
 i.lec_hci_handle_reset_command
                0x000107ee       0x18 D:\program\CY8\PSoC Creator\3.2\PSoC Creator\psoc\content\cycomponentlibrary\CyComponentLibrary.cylib\BLE_v2_0\Library\gccCyBLEStack_BLE_SOC_PERIPHERAL.a(lec_hci_br_edr_commands.o)
                0x000107ee                lec_hci_handle_reset_command

i.lec_hci_handle_write_authenticated_payload_timeout_command
                0x00010806       0x1e
 i.lec_hci_handle_write_authenticated_payload_timeout_command
                0x00010806       0x1e D:\program\CY8\PSoC Creator\3.2\PSoC Creator\psoc\content\cycomponentlibrary\CyComponentLibrary.cylib\BLE_v2_0\Library\gccCyBLEStack_BLE_SOC_PERIPHERAL.a(lec_hci_br_edr_commands.o)
                0x00010806                lec_hci_handle_write_authenticated_payload_timeout_command

i.lec_hci_handle_set_adv_data_command
                0x00010824        0x8
 i.lec_hci_handle_set_adv_data_command
                0x00010824        0x8 D:\program\CY8\PSoC Creator\3.2\PSoC Creator\psoc\content\cycomponentlibrary\CyComponentLibrary.cylib\BLE_v2_0\Library\gccCyBLEStack_BLE_SOC_PERIPHERAL.a(lec_hci_le_adv_commands.o)
                0x00010824                lec_hci_handle_set_adv_data_command

i.lec_hci_handle_set_adv_enable_command
                0x0001082c        0x8
 i.lec_hci_handle_set_adv_enable_command
                0x0001082c        0x8 D:\program\CY8\PSoC Creator\3.2\PSoC Creator\psoc\content\cycomponentlibrary\CyComponentLibrary.cylib\BLE_v2_0\Library\gccCyBLEStack_BLE_SOC_PERIPHERAL.a(lec_hci_le_adv_commands.o)
                0x0001082c                lec_hci_handle_set_adv_enable_command

i.lec_hci_handle_set_adv_param_command
                0x00010834        0x8
 i.lec_hci_handle_set_adv_param_command
                0x00010834        0x8 D:\program\CY8\PSoC Creator\3.2\PSoC Creator\psoc\content\cycomponentlibrary\CyComponentLibrary.cylib\BLE_v2_0\Library\gccCyBLEStack_BLE_SOC_PERIPHERAL.a(lec_hci_le_adv_commands.o)
                0x00010834                lec_hci_handle_set_adv_param_command

i.lec_hci_handle_set_scan_response_command
                0x0001083c        0x8
 i.lec_hci_handle_set_scan_response_command
                0x0001083c        0x8 D:\program\CY8\PSoC Creator\3.2\PSoC Creator\psoc\content\cycomponentlibrary\CyComponentLibrary.cylib\BLE_v2_0\Library\gccCyBLEStack_BLE_SOC_PERIPHERAL.a(lec_hci_le_adv_commands.o)
                0x0001083c                lec_hci_handle_set_scan_response_command

i.bluetooth_off_lower_pl
                0x00010844        0x2
 i.bluetooth_off_lower_pl
                0x00010844        0x2 D:\program\CY8\PSoC Creator\3.2\PSoC Creator\psoc\content\cycomponentlibrary\CyComponentLibrary.cylib\BLE_v2_0\Library\gccCyBLEStack_BLE_SOC_PERIPHERAL.a(BT_common_pl.o)
                0x00010844                bluetooth_off_lower_pl

i.bluetooth_off_upper_pl
                0x00010846        0xc
 i.bluetooth_off_upper_pl
                0x00010846        0xc D:\program\CY8\PSoC Creator\3.2\PSoC Creator\psoc\content\cycomponentlibrary\CyComponentLibrary.cylib\BLE_v2_0\Library\gccCyBLEStack_BLE_SOC_PERIPHERAL.a(BT_common_pl.o)
                0x00010846                bluetooth_off_upper_pl

i.bluetooth_on_lower_pl
                0x00010852        0x2
 i.bluetooth_on_lower_pl
                0x00010852        0x2 D:\program\CY8\PSoC Creator\3.2\PSoC Creator\psoc\content\cycomponentlibrary\CyComponentLibrary.cylib\BLE_v2_0\Library\gccCyBLEStack_BLE_SOC_PERIPHERAL.a(BT_common_pl.o)
                0x00010852                bluetooth_on_lower_pl

i.bluetooth_on_upper_pl
                0x00010854        0xc
 i.bluetooth_on_upper_pl
                0x00010854        0xc D:\program\CY8\PSoC Creator\3.2\PSoC Creator\psoc\content\cycomponentlibrary\CyComponentLibrary.cylib\BLE_v2_0\Library\gccCyBLEStack_BLE_SOC_PERIPHERAL.a(BT_common_pl.o)
                0x00010854                bluetooth_on_upper_pl

i.ethermind_init_lower_pl
                0x00010860        0x2
 i.ethermind_init_lower_pl
                0x00010860        0x2 D:\program\CY8\PSoC Creator\3.2\PSoC Creator\psoc\content\cycomponentlibrary\CyComponentLibrary.cylib\BLE_v2_0\Library\gccCyBLEStack_BLE_SOC_PERIPHERAL.a(BT_common_pl.o)
                0x00010860                ethermind_init_lower_pl

i.ethermind_init_upper_pl
                0x00010862        0xc
 i.ethermind_init_upper_pl
                0x00010862        0xc D:\program\CY8\PSoC Creator\3.2\PSoC Creator\psoc\content\cycomponentlibrary\CyComponentLibrary.cylib\BLE_v2_0\Library\gccCyBLEStack_BLE_SOC_PERIPHERAL.a(BT_common_pl.o)
                0x00010862                ethermind_init_upper_pl

i.device_queue_disconnect_on_full_pl
                0x0001086e        0x2
 i.device_queue_disconnect_on_full_pl
                0x0001086e        0x2 D:\program\CY8\PSoC Creator\3.2\PSoC Creator\psoc\content\cycomponentlibrary\CyComponentLibrary.cylib\BLE_v2_0\Library\gccCyBLEStack_BLE_SOC_PERIPHERAL.a(device_queue_pl.o)
                0x0001086e                device_queue_disconnect_on_full_pl

i.device_queue_free_pl
                0x00010870        0x2
 i.device_queue_free_pl
                0x00010870        0x2 D:\program\CY8\PSoC Creator\3.2\PSoC Creator\psoc\content\cycomponentlibrary\CyComponentLibrary.cylib\BLE_v2_0\Library\gccCyBLEStack_BLE_SOC_PERIPHERAL.a(device_queue_pl.o)
                0x00010870                device_queue_free_pl

i.device_queue_full_pl
                0x00010872        0x2
 i.device_queue_full_pl
                0x00010872        0x2 D:\program\CY8\PSoC Creator\3.2\PSoC Creator\psoc\content\cycomponentlibrary\CyComponentLibrary.cylib\BLE_v2_0\Library\gccCyBLEStack_BLE_SOC_PERIPHERAL.a(device_queue_pl.o)
                0x00010872                device_queue_full_pl

i.device_queue_pl_init
                0x00010874        0x2
 i.device_queue_pl_init
                0x00010874        0x2 D:\program\CY8\PSoC Creator\3.2\PSoC Creator\psoc\content\cycomponentlibrary\CyComponentLibrary.cylib\BLE_v2_0\Library\gccCyBLEStack_BLE_SOC_PERIPHERAL.a(device_queue_pl.o)
                0x00010874                device_queue_pl_init

i.device_queue_pl_shutdown
                0x00010876        0x2
 i.device_queue_pl_shutdown
                0x00010876        0x2 D:\program\CY8\PSoC Creator\3.2\PSoC Creator\psoc\content\cycomponentlibrary\CyComponentLibrary.cylib\BLE_v2_0\Library\gccCyBLEStack_BLE_SOC_PERIPHERAL.a(device_queue_pl.o)
                0x00010876                device_queue_pl_shutdown

i.BT_smp_get_csrk_key_info_pl
                0x00010878       0x10
 i.BT_smp_get_csrk_key_info_pl
                0x00010878       0x10 D:\program\CY8\PSoC Creator\3.2\PSoC Creator\psoc\content\cycomponentlibrary\CyComponentLibrary.cylib\BLE_v2_0\Library\gccCyBLEStack_BLE_SOC_PERIPHERAL.a(smp_pl.o)
                0x00010878                BT_smp_get_csrk_key_info_pl

i.BT_smp_get_key_exchange_info_pl
                0x00010888        0xc
 i.BT_smp_get_key_exchange_info_pl
                0x00010888        0xc D:\program\CY8\PSoC Creator\3.2\PSoC Creator\psoc\content\cycomponentlibrary\CyComponentLibrary.cylib\BLE_v2_0\Library\gccCyBLEStack_BLE_SOC_PERIPHERAL.a(smp_pl.o)
                0x00010888                BT_smp_get_key_exchange_info_pl

i.BT_smp_get_local_capability_pl
                0x00010894       0x18
 i.BT_smp_get_local_capability_pl
                0x00010894       0x18 D:\program\CY8\PSoC Creator\3.2\PSoC Creator\psoc\content\cycomponentlibrary\CyComponentLibrary.cylib\BLE_v2_0\Library\gccCyBLEStack_BLE_SOC_PERIPHERAL.a(smp_pl.o)
                0x00010894                BT_smp_get_local_capability_pl

i.BT_smp_get_long_term_key_pl
                0x000108ac       0x14
 i.BT_smp_get_long_term_key_pl
                0x000108ac       0x14 D:\program\CY8\PSoC Creator\3.2\PSoC Creator\psoc\content\cycomponentlibrary\CyComponentLibrary.cylib\BLE_v2_0\Library\gccCyBLEStack_BLE_SOC_PERIPHERAL.a(smp_pl.o)
                0x000108ac                BT_smp_get_long_term_key_pl

i.BT_smp_get_max_encryption_key_size_pl
                0x000108c0        0xc
 i.BT_smp_get_max_encryption_key_size_pl
                0x000108c0        0xc D:\program\CY8\PSoC Creator\3.2\PSoC Creator\psoc\content\cycomponentlibrary\CyComponentLibrary.cylib\BLE_v2_0\Library\gccCyBLEStack_BLE_SOC_PERIPHERAL.a(smp_pl.o)
                0x000108c0                BT_smp_get_max_encryption_key_size_pl

i.BT_smp_set_bd_address_pl
                0x000108cc       0x1c
 i.BT_smp_set_bd_address_pl
                0x000108cc       0x1c D:\program\CY8\PSoC Creator\3.2\PSoC Creator\psoc\content\cycomponentlibrary\CyComponentLibrary.cylib\BLE_v2_0\Library\gccCyBLEStack_BLE_SOC_PERIPHERAL.a(smp_pl.o)
                0x000108cc                BT_smp_set_bd_address_pl

i.BT_smp_set_max_encryption_key_size_pl
                0x000108e8        0xc
 i.BT_smp_set_max_encryption_key_size_pl
                0x000108e8        0xc D:\program\CY8\PSoC Creator\3.2\PSoC Creator\psoc\content\cycomponentlibrary\CyComponentLibrary.cylib\BLE_v2_0\Library\gccCyBLEStack_BLE_SOC_PERIPHERAL.a(smp_pl.o)
                0x000108e8                BT_smp_set_max_encryption_key_size_pl

i.smp_check_pairing_security_pl
                0x000108f4       0x14
 i.smp_check_pairing_security_pl
                0x000108f4       0x14 D:\program\CY8\PSoC Creator\3.2\PSoC Creator\psoc\content\cycomponentlibrary\CyComponentLibrary.cylib\BLE_v2_0\Library\gccCyBLEStack_BLE_SOC_PERIPHERAL.a(smp_pl.o)
                0x000108f4                smp_check_pairing_security_pl

i.smp_get_oob_tk_pl
                0x00010908       0x58
 i.smp_get_oob_tk_pl
                0x00010908       0x58 D:\program\CY8\PSoC Creator\3.2\PSoC Creator\psoc\content\cycomponentlibrary\CyComponentLibrary.cylib\BLE_v2_0\Library\gccCyBLEStack_BLE_SOC_PERIPHERAL.a(smp_pl.o)
                0x00010908                smp_get_oob_tk_pl

i.smp_get_peer_oob_availability_pl
                0x00010960       0x3c
 i.smp_get_peer_oob_availability_pl
                0x00010960       0x3c D:\program\CY8\PSoC Creator\3.2\PSoC Creator\psoc\content\cycomponentlibrary\CyComponentLibrary.cylib\BLE_v2_0\Library\gccCyBLEStack_BLE_SOC_PERIPHERAL.a(smp_pl.o)
                0x00010960                smp_get_peer_oob_availability_pl

i.smp_init_pl   0x0001099c       0x14
 i.smp_init_pl  0x0001099c       0x14 D:\program\CY8\PSoC Creator\3.2\PSoC Creator\psoc\content\cycomponentlibrary\CyComponentLibrary.cylib\BLE_v2_0\Library\gccCyBLEStack_BLE_SOC_PERIPHERAL.a(smp_pl.o)
                0x0001099c                smp_init_pl

i.smp_purge_device_list_pl
                0x000109b0       0x64
 i.smp_purge_device_list_pl
                0x000109b0       0x64 D:\program\CY8\PSoC Creator\3.2\PSoC Creator\psoc\content\cycomponentlibrary\CyComponentLibrary.cylib\BLE_v2_0\Library\gccCyBLEStack_BLE_SOC_PERIPHERAL.a(smp_pl.o)
                0x000109b0                smp_purge_device_list_pl

i.smp_resolve_connection_address_pl
                0x00010a14        0x8
 i.smp_resolve_connection_address_pl
                0x00010a14        0x8 D:\program\CY8\PSoC Creator\3.2\PSoC Creator\psoc\content\cycomponentlibrary\CyComponentLibrary.cylib\BLE_v2_0\Library\gccCyBLEStack_BLE_SOC_PERIPHERAL.a(smp_pl.o)
                0x00010a14                smp_resolve_connection_address_pl

i.smp_update_device_attr_pl
                0x00010a1c       0xa4
 i.smp_update_device_attr_pl
                0x00010a1c       0xa4 D:\program\CY8\PSoC Creator\3.2\PSoC Creator\psoc\content\cycomponentlibrary\CyComponentLibrary.cylib\BLE_v2_0\Library\gccCyBLEStack_BLE_SOC_PERIPHERAL.a(smp_pl.o)
                0x00010a1c                smp_update_device_attr_pl

i.l2cap_get_payload_buffer
                0x00010ac0       0x1c
 i.l2cap_get_payload_buffer
                0x00010ac0       0x1c D:\program\CY8\PSoC Creator\3.2\PSoC Creator\psoc\content\cycomponentlibrary\CyComponentLibrary.cylib\BLE_v2_0\Library\gccCyBLEStack_BLE_SOC_PERIPHERAL.a(l2cap_data_recv.o)
                0x00010ac0                l2cap_get_payload_buffer

i.l2cap_lp_data_read
                0x00010adc      0x29c
 i.l2cap_lp_data_read
                0x00010adc      0x29c D:\program\CY8\PSoC Creator\3.2\PSoC Creator\psoc\content\cycomponentlibrary\CyComponentLibrary.cylib\BLE_v2_0\Library\gccCyBLEStack_BLE_SOC_PERIPHERAL.a(l2cap_data_recv.o)
                0x00010adc                l2cap_lp_data_read

i.l2cap_mtu_check
                0x00010d78       0x94
 i.l2cap_mtu_check
                0x00010d78       0x94 D:\program\CY8\PSoC Creator\3.2\PSoC Creator\psoc\content\cycomponentlibrary\CyComponentLibrary.cylib\BLE_v2_0\Library\gccCyBLEStack_BLE_SOC_PERIPHERAL.a(l2cap_data_recv.o)
                0x00010d78                l2cap_mtu_check

i.l2cap_reset_recombination_variables
                0x00010e0c       0x28
 i.l2cap_reset_recombination_variables
                0x00010e0c       0x28 D:\program\CY8\PSoC Creator\3.2\PSoC Creator\psoc\content\cycomponentlibrary\CyComponentLibrary.cylib\BLE_v2_0\Library\gccCyBLEStack_BLE_SOC_PERIPHERAL.a(l2cap_data_recv.o)
                0x00010e0c                l2cap_reset_recombination_variables

i.CyBle_GattDbCheckPermission
                0x00010e34       0xec
 i.CyBle_GattDbCheckPermission
                0x00010e34       0xec D:\program\CY8\PSoC Creator\3.2\PSoC Creator\psoc\content\cycomponentlibrary\CyComponentLibrary.cylib\BLE_v2_0\Library\gccCyBLEStack_BLE_SOC_PERIPHERAL.a(gattDbInternal.o)
                0x00010e34                CyBle_GattDbCheckPermission

i.CyBle_GattDbCompareCharValue
                0x00010f20       0x44
 i.CyBle_GattDbCompareCharValue
                0x00010f20       0x44 D:\program\CY8\PSoC Creator\3.2\PSoC Creator\psoc\content\cycomponentlibrary\CyComponentLibrary.cylib\BLE_v2_0\Library\gccCyBLEStack_BLE_SOC_PERIPHERAL.a(gattDbInternal.o)
                0x00010f20                CyBle_GattDbCompareCharValue

i.CyBle_GattDbFetchAttrType
                0x00010f64      0x108
 i.CyBle_GattDbFetchAttrType
                0x00010f64      0x108 D:\program\CY8\PSoC Creator\3.2\PSoC Creator\psoc\content\cycomponentlibrary\CyComponentLibrary.cylib\BLE_v2_0\Library\gccCyBLEStack_BLE_SOC_PERIPHERAL.a(gattDbInternal.o)
                0x00010f64                CyBle_GattDbFetchAttrType

i.CyBle_GattDbFetchAttrValue
                0x0001106c       0xbc
 i.CyBle_GattDbFetchAttrValue
                0x0001106c       0xbc D:\program\CY8\PSoC Creator\3.2\PSoC Creator\psoc\content\cycomponentlibrary\CyComponentLibrary.cylib\BLE_v2_0\Library\gccCyBLEStack_BLE_SOC_PERIPHERAL.a(gattDbInternal.o)
                0x0001106c                CyBle_GattDbFetchAttrValue

i.CyBle_GattDbFindCharHandle
                0x00011128       0x90
 i.CyBle_GattDbFindCharHandle
                0x00011128       0x90 D:\program\CY8\PSoC Creator\3.2\PSoC Creator\psoc\content\cycomponentlibrary\CyComponentLibrary.cylib\BLE_v2_0\Library\gccCyBLEStack_BLE_SOC_PERIPHERAL.a(gattDbInternal.o)
                0x00011128                CyBle_GattDbFindCharHandle

i.CyBle_GattDbFindLastGrpEntryInService
                0x000111b8       0x5c
 i.CyBle_GattDbFindLastGrpEntryInService
                0x000111b8       0x5c D:\program\CY8\PSoC Creator\3.2\PSoC Creator\psoc\content\cycomponentlibrary\CyComponentLibrary.cylib\BLE_v2_0\Library\gccCyBLEStack_BLE_SOC_PERIPHERAL.a(gattDbInternal.o)
                0x000111b8                CyBle_GattDbFindLastGrpEntryInService

i.CyBle_GattDbFindNearestServiceHandle
                0x00011214       0x50
 i.CyBle_GattDbFindNearestServiceHandle
                0x00011214       0x50 D:\program\CY8\PSoC Creator\3.2\PSoC Creator\psoc\content\cycomponentlibrary\CyComponentLibrary.cylib\BLE_v2_0\Library\gccCyBLEStack_BLE_SOC_PERIPHERAL.a(gattDbInternal.o)
                0x00011214                CyBle_GattDbFindNearestServiceHandle

i.CyBle_GattDbIsCharHandleValid
                0x00011264       0x30
 i.CyBle_GattDbIsCharHandleValid
                0x00011264       0x30 D:\program\CY8\PSoC Creator\3.2\PSoC Creator\psoc\content\cycomponentlibrary\CyComponentLibrary.cylib\BLE_v2_0\Library\gccCyBLEStack_BLE_SOC_PERIPHERAL.a(gattDbInternal.o)
                0x00011264                CyBle_GattDbIsCharHandleValid

i.CyBle_GattDbPackAttrUuidValue
                0x00011294       0x98
 i.CyBle_GattDbPackAttrUuidValue
                0x00011294       0x98 D:\program\CY8\PSoC Creator\3.2\PSoC Creator\psoc\content\cycomponentlibrary\CyComponentLibrary.cylib\BLE_v2_0\Library\gccCyBLEStack_BLE_SOC_PERIPHERAL.a(gattDbInternal.o)

i.CyBle_GattDbPackSerAttrUuidValue
                0x0001132c       0xdc
 i.CyBle_GattDbPackSerAttrUuidValue
                0x0001132c       0xdc D:\program\CY8\PSoC Creator\3.2\PSoC Creator\psoc\content\cycomponentlibrary\CyComponentLibrary.cylib\BLE_v2_0\Library\gccCyBLEStack_BLE_SOC_PERIPHERAL.a(gattDbInternal.o)

i.CyBle_IsAttrEnabled
                0x00011408       0x84
 i.CyBle_IsAttrEnabled
                0x00011408       0x84 D:\program\CY8\PSoC Creator\3.2\PSoC Creator\psoc\content\cycomponentlibrary\CyComponentLibrary.cylib\BLE_v2_0\Library\gccCyBLEStack_BLE_SOC_PERIPHERAL.a(gattDbInternal.o)
                0x00011408                CyBle_IsAttrEnabled

i.hci_command_tx_bh
                0x0001148c      0x174
 i.hci_command_tx_bh
                0x0001148c      0x174 D:\program\CY8\PSoC Creator\3.2\PSoC Creator\psoc\content\cycomponentlibrary\CyComponentLibrary.cylib\BLE_v2_0\Library\gccCyBLEStack_BLE_SOC_PERIPHERAL.a(hci_command_queue.o)
                0x0001148c                hci_command_tx_bh

i.hci_common_api_bh
                0x00011600       0x70
 i.hci_common_api_bh
                0x00011600       0x70 D:\program\CY8\PSoC Creator\3.2\PSoC Creator\psoc\content\cycomponentlibrary\CyComponentLibrary.cylib\BLE_v2_0\Library\gccCyBLEStack_BLE_SOC_PERIPHERAL.a(hci_command_queue.o)
                0x00011600                hci_common_api_bh

i.hci_trigger_command_tx
                0x00011670       0x2c
 i.hci_trigger_command_tx
                0x00011670       0x2c D:\program\CY8\PSoC Creator\3.2\PSoC Creator\psoc\content\cycomponentlibrary\CyComponentLibrary.cylib\BLE_v2_0\Library\gccCyBLEStack_BLE_SOC_PERIPHERAL.a(hci_command_queue.o)
                0x00011670                hci_trigger_command_tx

i.hci_handle_connection_command_status
                0x0001169c       0x48
 i.hci_handle_connection_command_status
                0x0001169c       0x48 D:\program\CY8\PSoC Creator\3.2\PSoC Creator\psoc\content\cycomponentlibrary\CyComponentLibrary.cylib\BLE_v2_0\Library\gccCyBLEStack_BLE_SOC_PERIPHERAL.a(hci_connect.o)
                0x0001169c                hci_handle_connection_command_status

i.hci_le_conn_resolution_complete
                0x000116e4       0x38
 i.hci_le_conn_resolution_complete
                0x000116e4       0x38 D:\program\CY8\PSoC Creator\3.2\PSoC Creator\psoc\content\cycomponentlibrary\CyComponentLibrary.cylib\BLE_v2_0\Library\gccCyBLEStack_BLE_SOC_PERIPHERAL.a(hci_connect.o)
                0x000116e4                hci_le_conn_resolution_complete

i.hci_le_connection_complete_event
                0x0001171c       0xfc
 i.hci_le_connection_complete_event
                0x0001171c       0xfc D:\program\CY8\PSoC Creator\3.2\PSoC Creator\psoc\content\cycomponentlibrary\CyComponentLibrary.cylib\BLE_v2_0\Library\gccCyBLEStack_BLE_SOC_PERIPHERAL.a(hci_connect.o)
                0x0001171c                hci_le_connection_complete_event

i.hci_disconnection_complete_event
                0x00011818       0x68
 i.hci_disconnection_complete_event
                0x00011818       0x68 D:\program\CY8\PSoC Creator\3.2\PSoC Creator\psoc\content\cycomponentlibrary\CyComponentLibrary.cylib\BLE_v2_0\Library\gccCyBLEStack_BLE_SOC_PERIPHERAL.a(hci_disconnect.o)
                0x00011818                hci_disconnection_complete_event

i.se_smp_dummy_handler
                0x00011880        0x8
 i.se_smp_dummy_handler
                0x00011880        0x8 D:\program\CY8\PSoC Creator\3.2\PSoC Creator\psoc\content\cycomponentlibrary\CyComponentLibrary.cylib\BLE_v2_0\Library\gccCyBLEStack_BLE_SOC_PERIPHERAL.a(smp_fsm_handlers.o)
                0x00011880                se_smp_dummy_handler

i.se_smp_encryption_complete_for_pairing_handler
                0x00011888       0x88
 i.se_smp_encryption_complete_for_pairing_handler
                0x00011888       0x88 D:\program\CY8\PSoC Creator\3.2\PSoC Creator\psoc\content\cycomponentlibrary\CyComponentLibrary.cylib\BLE_v2_0\Library\gccCyBLEStack_BLE_SOC_PERIPHERAL.a(smp_fsm_handlers.o)
                0x00011888                se_smp_encryption_complete_for_pairing_handler

i.se_smp_gen_passkey_handler
                0x00011910       0x10
 i.se_smp_gen_passkey_handler
                0x00011910       0x10 D:\program\CY8\PSoC Creator\3.2\PSoC Creator\psoc\content\cycomponentlibrary\CyComponentLibrary.cylib\BLE_v2_0\Library\gccCyBLEStack_BLE_SOC_PERIPHERAL.a(smp_fsm_handlers.o)
                0x00011910                se_smp_gen_passkey_handler

i.se_smp_local_key_exchange_info_handler
                0x00011920       0x98
 i.se_smp_local_key_exchange_info_handler
                0x00011920       0x98 D:\program\CY8\PSoC Creator\3.2\PSoC Creator\psoc\content\cycomponentlibrary\CyComponentLibrary.cylib\BLE_v2_0\Library\gccCyBLEStack_BLE_SOC_PERIPHERAL.a(smp_fsm_handlers.o)
                0x00011920                se_smp_local_key_exchange_info_handler

i.se_smp_lr_pairing_confirming_handler
                0x000119b8       0x60
 i.se_smp_lr_pairing_confirming_handler
                0x000119b8       0x60 D:\program\CY8\PSoC Creator\3.2\PSoC Creator\psoc\content\cycomponentlibrary\CyComponentLibrary.cylib\BLE_v2_0\Library\gccCyBLEStack_BLE_SOC_PERIPHERAL.a(smp_fsm_handlers.o)
                0x000119b8                se_smp_lr_pairing_confirming_handler

i.se_smp_ltk_req_for_pairing_handler
                0x00011a18       0x10
 i.se_smp_ltk_req_for_pairing_handler
                0x00011a18       0x10 D:\program\CY8\PSoC Creator\3.2\PSoC Creator\psoc\content\cycomponentlibrary\CyComponentLibrary.cylib\BLE_v2_0\Library\gccCyBLEStack_BLE_SOC_PERIPHERAL.a(smp_fsm_handlers.o)
                0x00011a18                se_smp_ltk_req_for_pairing_handler

i.se_smp_ltk_req_handler
                0x00011a28       0x2a
 i.se_smp_ltk_req_handler
                0x00011a28       0x2a D:\program\CY8\PSoC Creator\3.2\PSoC Creator\psoc\content\cycomponentlibrary\CyComponentLibrary.cylib\BLE_v2_0\Library\gccCyBLEStack_BLE_SOC_PERIPHERAL.a(smp_fsm_handlers.o)
                0x00011a28                se_smp_ltk_req_handler

i.se_smp_pairing_confirm_handler
                0x00011a54       0x54
 i.se_smp_pairing_confirm_handler
                0x00011a54       0x54 D:\program\CY8\PSoC Creator\3.2\PSoC Creator\psoc\content\cycomponentlibrary\CyComponentLibrary.cylib\BLE_v2_0\Library\gccCyBLEStack_BLE_SOC_PERIPHERAL.a(smp_fsm_handlers.o)
                0x00011a54                se_smp_pairing_confirm_handler

i.se_smp_pairing_event_bad_state_handler
                0x00011aa8        0x8
 i.se_smp_pairing_event_bad_state_handler
                0x00011aa8        0x8 D:\program\CY8\PSoC Creator\3.2\PSoC Creator\psoc\content\cycomponentlibrary\CyComponentLibrary.cylib\BLE_v2_0\Library\gccCyBLEStack_BLE_SOC_PERIPHERAL.a(smp_fsm_handlers.o)
                0x00011aa8                se_smp_pairing_event_bad_state_handler

i.se_smp_pairing_failure_handler
                0x00011ab0       0x14
 i.se_smp_pairing_failure_handler
                0x00011ab0       0x14 D:\program\CY8\PSoC Creator\3.2\PSoC Creator\psoc\content\cycomponentlibrary\CyComponentLibrary.cylib\BLE_v2_0\Library\gccCyBLEStack_BLE_SOC_PERIPHERAL.a(smp_fsm_handlers.o)
                0x00011ab0                se_smp_pairing_failure_handler

i.se_smp_pairing_rand_handler
                0x00011ac4       0xf0
 i.se_smp_pairing_rand_handler
                0x00011ac4       0xf0 D:\program\CY8\PSoC Creator\3.2\PSoC Creator\psoc\content\cycomponentlibrary\CyComponentLibrary.cylib\BLE_v2_0\Library\gccCyBLEStack_BLE_SOC_PERIPHERAL.a(smp_fsm_handlers.o)
                0x00011ac4                se_smp_pairing_rand_handler

i.se_smp_pairing_req_handler
                0x00011bb4       0xb8
 i.se_smp_pairing_req_handler
                0x00011bb4       0xb8 D:\program\CY8\PSoC Creator\3.2\PSoC Creator\psoc\content\cycomponentlibrary\CyComponentLibrary.cylib\BLE_v2_0\Library\gccCyBLEStack_BLE_SOC_PERIPHERAL.a(smp_fsm_handlers.o)
                0x00011bb4                se_smp_pairing_req_handler

i.se_smp_pairing_rsp_handler
                0x00011c6c      0x10c
 i.se_smp_pairing_rsp_handler
                0x00011c6c      0x10c D:\program\CY8\PSoC Creator\3.2\PSoC Creator\psoc\content\cycomponentlibrary\CyComponentLibrary.cylib\BLE_v2_0\Library\gccCyBLEStack_BLE_SOC_PERIPHERAL.a(smp_fsm_handlers.o)
                0x00011c6c                se_smp_pairing_rsp_handler

i.se_smp_pairing_stk_handler
                0x00011d78       0x3c
 i.se_smp_pairing_stk_handler
                0x00011d78       0x3c D:\program\CY8\PSoC Creator\3.2\PSoC Creator\psoc\content\cycomponentlibrary\CyComponentLibrary.cylib\BLE_v2_0\Library\gccCyBLEStack_BLE_SOC_PERIPHERAL.a(smp_fsm_handlers.o)
                0x00011d78                se_smp_pairing_stk_handler

i.se_smp_remote_key_exchange_info_handler
                0x00011db4       0x9c
 i.se_smp_remote_key_exchange_info_handler
                0x00011db4       0x9c D:\program\CY8\PSoC Creator\3.2\PSoC Creator\psoc\content\cycomponentlibrary\CyComponentLibrary.cylib\BLE_v2_0\Library\gccCyBLEStack_BLE_SOC_PERIPHERAL.a(smp_fsm_handlers.o)
                0x00011db4                se_smp_remote_key_exchange_info_handler

i.se_smp_user_passkey_handler
                0x00011e50       0x3c
 i.se_smp_user_passkey_handler
                0x00011e50       0x3c D:\program\CY8\PSoC Creator\3.2\PSoC Creator\psoc\content\cycomponentlibrary\CyComponentLibrary.cylib\BLE_v2_0\Library\gccCyBLEStack_BLE_SOC_PERIPHERAL.a(smp_fsm_handlers.o)
                0x00011e50                se_smp_user_passkey_handler

i.smp_passkey_handler
                0x00011e8c       0x64
 i.smp_passkey_handler
                0x00011e8c       0x64 D:\program\CY8\PSoC Creator\3.2\PSoC Creator\psoc\content\cycomponentlibrary\CyComponentLibrary.cylib\BLE_v2_0\Library\gccCyBLEStack_BLE_SOC_PERIPHERAL.a(smp_fsm_handlers.o)
                0x00011e8c                smp_passkey_handler

i.smp_remote_pairing_confirm_handler
                0x00011ef0       0x44
 i.smp_remote_pairing_confirm_handler
                0x00011ef0       0x44 D:\program\CY8\PSoC Creator\3.2\PSoC Creator\psoc\content\cycomponentlibrary\CyComponentLibrary.cylib\BLE_v2_0\Library\gccCyBLEStack_BLE_SOC_PERIPHERAL.a(smp_fsm_handlers.o)
                0x00011ef0                smp_remote_pairing_confirm_handler

i.se_error_handler
                0x00011f34       0x18
 i.se_error_handler
                0x00011f34       0x18 D:\program\CY8\PSoC Creator\3.2\PSoC Creator\psoc\content\cycomponentlibrary\CyComponentLibrary.cylib\BLE_v2_0\Library\gccCyBLEStack_BLE_SOC_PERIPHERAL.a(att_fsm_handlers.o)
                0x00011f34                se_error_handler

i.se_error_rsp_handler
                0x00011f4c       0x50
 i.se_error_rsp_handler
                0x00011f4c       0x50 D:\program\CY8\PSoC Creator\3.2\PSoC Creator\psoc\content\cycomponentlibrary\CyComponentLibrary.cylib\BLE_v2_0\Library\gccCyBLEStack_BLE_SOC_PERIPHERAL.a(att_fsm_handlers.o)
                0x00011f4c                se_error_rsp_handler

i.se_exchange_mtu_req_handler
                0x00011f9c       0x44
 i.se_exchange_mtu_req_handler
                0x00011f9c       0x44 D:\program\CY8\PSoC Creator\3.2\PSoC Creator\psoc\content\cycomponentlibrary\CyComponentLibrary.cylib\BLE_v2_0\Library\gccCyBLEStack_BLE_SOC_PERIPHERAL.a(att_fsm_handlers.o)
                0x00011f9c                se_exchange_mtu_req_handler

i.se_exchange_mtu_rsp_handler
                0x00011fe0       0x84
 i.se_exchange_mtu_rsp_handler
                0x00011fe0       0x84 D:\program\CY8\PSoC Creator\3.2\PSoC Creator\psoc\content\cycomponentlibrary\CyComponentLibrary.cylib\BLE_v2_0\Library\gccCyBLEStack_BLE_SOC_PERIPHERAL.a(att_fsm_handlers.o)
                0x00011fe0                se_exchange_mtu_rsp_handler

i.se_req_handler
                0x00012064       0x40
 i.se_req_handler
                0x00012064       0x40 D:\program\CY8\PSoC Creator\3.2\PSoC Creator\psoc\content\cycomponentlibrary\CyComponentLibrary.cylib\BLE_v2_0\Library\gccCyBLEStack_BLE_SOC_PERIPHERAL.a(att_fsm_handlers.o)
                0x00012064                se_req_handler

i.se_rsp_handler
                0x000120a4       0x1c
 i.se_rsp_handler
                0x000120a4       0x1c D:\program\CY8\PSoC Creator\3.2\PSoC Creator\psoc\content\cycomponentlibrary\CyComponentLibrary.cylib\BLE_v2_0\Library\gccCyBLEStack_BLE_SOC_PERIPHERAL.a(att_fsm_handlers.o)
                0x000120a4                se_rsp_handler

i.se_unknown_pdu_ind_handler
                0x000120c0       0x1c
 i.se_unknown_pdu_ind_handler
                0x000120c0       0x1c D:\program\CY8\PSoC Creator\3.2\PSoC Creator\psoc\content\cycomponentlibrary\CyComponentLibrary.cylib\BLE_v2_0\Library\gccCyBLEStack_BLE_SOC_PERIPHERAL.a(att_fsm_handlers.o)
                0x000120c0                se_unknown_pdu_ind_handler

i.l2cap_lp_connect_ind
                0x000120dc       0x70
 i.l2cap_lp_connect_ind
                0x000120dc       0x70 D:\program\CY8\PSoC Creator\3.2\PSoC Creator\psoc\content\cycomponentlibrary\CyComponentLibrary.cylib\BLE_v2_0\Library\gccCyBLEStack_BLE_SOC_PERIPHERAL.a(l2cap_connect.o)
                0x000120dc                l2cap_lp_connect_ind

i.CyBle_BleSSInterruptHandler
                0x0001214c       0x28
 i.CyBle_BleSSInterruptHandler
                0x0001214c       0x28 D:\program\CY8\PSoC Creator\3.2\PSoC Creator\psoc\content\cycomponentlibrary\CyComponentLibrary.cylib\BLE_v2_0\Library\gccCyBLEStack_BLE_SOC_PERIPHERAL.a(ll_isr.o)
                0x0001214c                CyBle_BleSSInterruptHandler

.eh_frame_hdr
 *(.eh_frame_hdr)

.eh_frame       0x00012174        0x4
 *(.eh_frame)
 .eh_frame      0x00012174        0x0 d:/program/cy8/psoc creator/3.2/psoc creator/import/gnu/arm/4.8.4/bin/../lib/gcc/arm-none-eabi/4.8.4/armv6-m/crtbegin.o
 .eh_frame      0x00012174        0x4 d:/program/cy8/psoc creator/3.2/psoc creator/import/gnu/arm/4.8.4/bin/../lib/gcc/arm-none-eabi/4.8.4/armv6-m/crtend.o
                0x00012178                PROVIDE (__exidx_start, .)

.ARM.exidx
 *(.ARM.exidx* .gnu.linkonce.armexidx.*)
                0x00012178                __exidx_end = .

.rodata         0x00012180      0x6b0
 *(.rodata .rodata.* .gnu.linkonce.r.*)
 .rodata        0x00012180       0x28 .\CortexM0\ARM_GCC_484\Debug\BLE Lab 2.a(cyfitter_cfg.o)
 .rodata        0x000121a8        0xc .\CortexM0\ARM_GCC_484\Debug\BLE Lab 2.a(BLE_hrs.o)
                0x000121a8                cyBle_hrss
 .rodata        0x000121b4       0x18 .\CortexM0\ARM_GCC_484\Debug\BLE Lab 2.a(BLE.o)
 *fill*         0x000121cc       0x34 
 .rodata        0x00012200      0x400 .\CortexM0\ARM_GCC_484\Debug\BLE Lab 2.a(BLE_gatt.o)
                0x00012200                cyBle_gatts
                0x00012280                cyBle_attValuesCCCDFlashMemory
                0x00012294                cyBle_gattDB
 .rodata        0x00012600      0x1c8 .\CortexM0\ARM_GCC_484\Debug\BLE Lab 2.a(BLE_eventHandler.o)
 .rodata        0x000127c8       0x30 .\CortexM0\ARM_GCC_484\Debug\BLE Lab 2.a(CyLib.o)
                0x000127c8                cyImoFreqMhz2Reg
                0x000127f8                . = ALIGN (0x4)
 *(.init)
 .init          0x000127f8        0x4 d:/program/cy8/psoc creator/3.2/psoc creator/import/gnu/arm/4.8.4/bin/../lib/gcc/arm-none-eabi/4.8.4/armv6-m/crti.o
                0x000127f8                _init
 .init          0x000127fc        0x8 d:/program/cy8/psoc creator/3.2/psoc creator/import/gnu/arm/4.8.4/bin/../lib/gcc/arm-none-eabi/4.8.4/armv6-m/crtn.o
                0x00012804                . = ALIGN (0x4)
                0x00012804                __preinit_array_start = .
 *(.preinit_array)
                0x00012804                __preinit_array_end = .
                0x00012804                . = ALIGN (0x4)
                0x00012804                __init_array_start = .
 *(SORT(.init_array.*))
 *(.init_array)
 .init_array    0x00012804        0x4 d:/program/cy8/psoc creator/3.2/psoc creator/import/gnu/arm/4.8.4/bin/../lib/gcc/arm-none-eabi/4.8.4/armv6-m/crtbegin.o
 .init_array    0x00012808        0x4 .\CortexM0\ARM_GCC_484\Debug\Cm0Start.o
                0x0001280c                __init_array_end = .
                0x0001280c                . = ALIGN (0x4)
 *(.fini)
 .fini          0x0001280c        0x4 d:/program/cy8/psoc creator/3.2/psoc creator/import/gnu/arm/4.8.4/bin/../lib/gcc/arm-none-eabi/4.8.4/armv6-m/crti.o
                0x0001280c                _fini
 .fini          0x00012810        0x8 d:/program/cy8/psoc creator/3.2/psoc creator/import/gnu/arm/4.8.4/bin/../lib/gcc/arm-none-eabi/4.8.4/armv6-m/crtn.o
                0x00012818                . = ALIGN (0x4)
                0x00012818                __fini_array_start = .
 *(.fini_array)
 .fini_array    0x00012818        0x4 d:/program/cy8/psoc creator/3.2/psoc creator/import/gnu/arm/4.8.4/bin/../lib/gcc/arm-none-eabi/4.8.4/armv6-m/crtbegin.o
 *(SORT(.fini_array.*))
                0x0001281c                __fini_array_end = .
                0x0001281c                . = ALIGN (0x4)
 *crtbegin.o(.ctors)
 *(EXCLUDE_FILE(*crtend.o) .ctors)
 *(SORT(.ctors.*))
 *crtend.o(.ctors)
                0x0001281c                . = ALIGN (0x4)
 *crtbegin.o(.dtors)
 *(EXCLUDE_FILE(*crtend.o) .dtors)
 *(SORT(.dtors.*))
 *crtend.o(.dtors)
                0x0001281c                . = ALIGN (0x4)
                0x0001281c                __cy_regions = .
                0x0001281c        0x4 LONG 0x130c0 __cy_region_init_ram
                0x00012820        0x4 LONG 0x200000c8 __cy_region_start_data
                0x00012824        0x4 LONG 0x398 __cy_region_init_size_ram
                0x00012828        0x4 LONG 0x1980 __cy_region_zero_size_ram
                0x0001282c                __cy_regions_end = .
                0x00012830                . = ALIGN (0x8)
 *fill*         0x0001282c        0x4 
                0x00012830                _etext = .

.constdata      0x00012880      0x7a8
 .constdata     0x00012880       0x18 D:\program\CY8\PSoC Creator\3.2\PSoC Creator\psoc\content\cycomponentlibrary\CyComponentLibrary.cylib\BLE_v2_0\Library\gccCyBLEStack_BLE_SOC_PERIPHERAL.a(BT_os.o)
                0x00012880                cyBleStackMemoryConfig
 .constdata     0x00012898       0x58 D:\program\CY8\PSoC Creator\3.2\PSoC Creator\psoc\content\cycomponentlibrary\CyComponentLibrary.cylib\BLE_v2_0\Library\gccCyBLEStack_BLE_SOC_PERIPHERAL.a(config_bin.o)
                0x00012898                bt_cfg_pdata
 .constdata     0x000128f0       0x10 D:\program\CY8\PSoC Creator\3.2\PSoC Creator\psoc\content\cycomponentlibrary\CyComponentLibrary.cylib\BLE_v2_0\Library\gccCyBLEStack_BLE_SOC_PERIPHERAL.a(ll_connection.o)
                0x000128f0                g_slave_clock_accuracy
 .constdata     0x00012900       0xa0 D:\program\CY8\PSoC Creator\3.2\PSoC Creator\psoc\content\cycomponentlibrary\CyComponentLibrary.cylib\BLE_v2_0\Library\gccCyBLEStack_BLE_SOC_PERIPHERAL.a(ll_pdu.o)
                0x00012900                fp_ll_pdu_handlers
                0x00012950                fp_ll_pdu_ack_handlers
 .constdata     0x000129a0      0x193 D:\program\CY8\PSoC Creator\3.2\PSoC Creator\psoc\content\cycomponentlibrary\CyComponentLibrary.cylib\BLE_v2_0\Library\gccCyBLEStack_BLE_SOC_PERIPHERAL.a(lec_hci_le_commands.o)
                0x000129a0                fp_lec_cmd_handlers
                0x00012a1c                fp_lec_convert_cmd_param_handlers
                0x00012a98                fp_lec_validate_cmd_param_handlers
                0x00012b14                le_command_param_len
 .constdata     0x00012b33       0x21 D:\program\CY8\PSoC Creator\3.2\PSoC Creator\psoc\content\cycomponentlibrary\CyComponentLibrary.cylib\BLE_v2_0\Library\gccCyBLEStack_BLE_SOC_PERIPHERAL.a(lec_hci_le_common_commands.o)
                0x00012b33                Cu8_hci_le_supported_commands_array
 .constdata     0x00012b54       0x58 D:\program\CY8\PSoC Creator\3.2\PSoC Creator\psoc\content\cycomponentlibrary\CyComponentLibrary.cylib\BLE_v2_0\Library\gccCyBLEStack_BLE_SOC_PERIPHERAL.a(l2cap_init.o)
                0x00012b54                l2cap_le_sig_handler
 .constdata     0x00012bac       0x3c D:\program\CY8\PSoC Creator\3.2\PSoC Creator\psoc\content\cycomponentlibrary\CyComponentLibrary.cylib\BLE_v2_0\Library\gccCyBLEStack_BLE_SOC_PERIPHERAL.a(fsm_engine_pl.o)
                0x00012bac                fsm_module_table
 .constdata     0x00012be8       0x19 D:\program\CY8\PSoC Creator\3.2\PSoC Creator\psoc\content\cycomponentlibrary\CyComponentLibrary.cylib\BLE_v2_0\Library\gccCyBLEStack_BLE_SOC_PERIPHERAL.a(smp_core.o)
                0x00012be8                smp_iocap_assoc_map
 *fill*         0x00012c01        0x3 
 .constdata     0x00012c04        0xc D:\program\CY8\PSoC Creator\3.2\PSoC Creator\psoc\content\cycomponentlibrary\CyComponentLibrary.cylib\BLE_v2_0\Library\gccCyBLEStack_BLE_SOC_PERIPHERAL.a(smp_interface.o)
                0x00012c04                smp_event_fp
 .constdata     0x00012c10       0x1c D:\program\CY8\PSoC Creator\3.2\PSoC Creator\psoc\content\cycomponentlibrary\CyComponentLibrary.cylib\BLE_v2_0\Library\gccCyBLEStack_BLE_SOC_PERIPHERAL.a(smp_utils.o)
                0x00012c10                smp_event_map
 .constdata     0x00012c2c       0x84 D:\program\CY8\PSoC Creator\3.2\PSoC Creator\psoc\content\cycomponentlibrary\CyComponentLibrary.cylib\BLE_v2_0\Library\gccCyBLEStack_BLE_SOC_PERIPHERAL.a(smp_fsm_table.o)
                0x00012c2c                smp_state_event_table
 .constdata     0x00012cb0       0xc8 D:\program\CY8\PSoC Creator\3.2\PSoC Creator\psoc\content\cycomponentlibrary\CyComponentLibrary.cylib\BLE_v2_0\Library\gccCyBLEStack_BLE_SOC_PERIPHERAL.a(smp_fsm_table.o)
                0x00012cb0                smp_event_handler_table
 .constdata     0x00012d78       0x20 D:\program\CY8\PSoC Creator\3.2\PSoC Creator\psoc\content\cycomponentlibrary\CyComponentLibrary.cylib\BLE_v2_0\Library\gccCyBLEStack_BLE_SOC_PERIPHERAL.a(aes_cmac.o)
                0x00012d78                cmac_zero_data
                0x00012d88                cmac_rb_data
 *fill*         0x00012d98       0x68 
 .constdata     0x00012e00      0x16d D:\program\CY8\PSoC Creator\3.2\PSoC Creator\psoc\content\cycomponentlibrary\CyComponentLibrary.cylib\BLE_v2_0\Library\gccCyBLEStack_BLE_SOC_PERIPHERAL.a(storage_pl.o)
 *fill*         0x00012f6d        0x3 
 .constdata     0x00012f70       0x60 D:\program\CY8\PSoC Creator\3.2\PSoC Creator\psoc\content\cycomponentlibrary\CyComponentLibrary.cylib\BLE_v2_0\Library\gccCyBLEStack_BLE_SOC_PERIPHERAL.a(att_fsm_table.o)
                0x00012f70                att_state_event_table
 .constdata     0x00012fd0       0x58 D:\program\CY8\PSoC Creator\3.2\PSoC Creator\psoc\content\cycomponentlibrary\CyComponentLibrary.cylib\BLE_v2_0\Library\gccCyBLEStack_BLE_SOC_PERIPHERAL.a(att_fsm_table.o)
                0x00012fd0                att_event_handler_table

.conststring    0x00013028       0x91
 .conststring   0x00013028        0xa D:\program\CY8\PSoC Creator\3.2\PSoC Creator\psoc\content\cycomponentlibrary\CyComponentLibrary.cylib\BLE_v2_0\Library\gccCyBLEStack_BLE_SOC_PERIPHERAL.a(storage_pl.o)
 .conststring   0x00013032       0x87 D:\program\CY8\PSoC Creator\3.2\PSoC Creator\psoc\content\cycomponentlibrary\CyComponentLibrary.cylib\BLE_v2_0\Library\gccCyBLEStack_BLE_SOC_PERIPHERAL.a(drbg.o)

.ramvectors     0x20000000       0xc0
                0x20000000                __cy_region_start_ram = .
 *(.ramvectors)
 .ramvectors    0x20000000       0xc0 .\CortexM0\ARM_GCC_484\Debug\Cm0Start.o
                0x20000000                CyRamVectors

.noinit         0x200000c0        0x4
 *(.noinit)
 .noinit        0x200000c0        0x4 .\CortexM0\ARM_GCC_484\Debug\Cm0Start.o

.data           0x200000c8      0x398 load address 0x000130c0
                0x200000c8                __cy_region_start_data = .
 *(.jcr)
 .jcr           0x200000c8        0x0 d:/program/cy8/psoc creator/3.2/psoc creator/import/gnu/arm/4.8.4/bin/../lib/gcc/arm-none-eabi/4.8.4/armv6-m/crtbegin.o
 .jcr           0x200000c8        0x4 d:/program/cy8/psoc creator/3.2/psoc creator/import/gnu/arm/4.8.4/bin/../lib/gcc/arm-none-eabi/4.8.4/armv6-m/crtend.o
 *(.got.plt)
 *(.got)
 *(.shdata)
 *(.data .data.* .gnu.linkonce.d.*)
 .data          0x200000cc        0x2 .\CortexM0\ARM_GCC_484\Debug\HeartRateProcessing.o
 *fill*         0x200000ce        0x2 
 .data          0x200000d0       0x70 .\CortexM0\ARM_GCC_484\Debug\BLE Lab 2.a(BLE.o)
                0x200000d0                cyBle_discoveryParam
                0x200000e0                cyBle_discoveryData
                0x20000100                cyBle_scanRspData
                0x20000120                cyBle_discoveryModeInfo
                0x20000134                cyBle_deviceAddress
                0x2000013c                cyBle_sflashDeviceAddress
 .data          0x20000140       0xe8 .\CortexM0\ARM_GCC_484\Debug\BLE Lab 2.a(BLE_gatt.o)
                0x20000198                cyBle_attValuesLen
 .data          0x20000228        0x4 .\CortexM0\ARM_GCC_484\Debug\BLE Lab 2.a(BLE_eventHandler.o)
                0x20000228                cyBle_authInfo
 .data          0x2000022c       0x10 .\CortexM0\ARM_GCC_484\Debug\BLE Lab 2.a(CyLib.o)
                0x2000022c                cydelayFreqHz
                0x20000230                cydelayFreqKhz
                0x20000234                cydelayFreqMhz
                0x20000238                cydelay32kMs
 .data          0x2000023c        0x8 D:\program\CY8\PSoC Creator\3.2\PSoC Creator\psoc\content\cycomponentlibrary\CyComponentLibrary.cylib\BLE_v2_0\Library\gccCyBLEStack_BLE_SOC_PERIPHERAL.a(CyBle.o)
                0x2000023c                CyBle_StackState
                0x2000023d                gDataBufferPools
 .data          0x20000244        0x1 D:\program\CY8\PSoC Creator\3.2\PSoC Creator\psoc\content\cycomponentlibrary\CyComponentLibrary.cylib\BLE_v2_0\Library\gccCyBLEStack_BLE_SOC_PERIPHERAL.a(CyBleStackMgrIP_Interface.o)
                0x20000244                cyBleStackMgr_State
 *fill*         0x20000245        0x3 
 .data          0x20000248        0x8 D:\program\CY8\PSoC Creator\3.2\PSoC Creator\psoc\content\cycomponentlibrary\CyComponentLibrary.cylib\BLE_v2_0\Library\gccCyBLEStack_BLE_SOC_PERIPHERAL.a(BT_os.o)
                0x20000248                bleBufferPoolInfo
                0x2000024c                BtOSMemPoolList
 .data          0x20000250        0x4 D:\program\CY8\PSoC Creator\3.2\PSoC Creator\psoc\content\cycomponentlibrary\CyComponentLibrary.cylib\BLE_v2_0\Library\gccCyBLEStack_BLE_SOC_PERIPHERAL.a(CyBleStackMgr_StackTaskHandler.o)
                0x20000250                BLE_STACK_TASK_EVT
 .data          0x20000254       0x10 D:\program\CY8\PSoC Creator\3.2\PSoC Creator\psoc\content\cycomponentlibrary\CyComponentLibrary.cylib\BLE_v2_0\Library\gccCyBLEStack_BLE_SOC_PERIPHERAL.a(transport_sf.o)
                0x2000025c                hci_soft_transport_pkt_recd_cb
                0x20000260                hci_soft_transport_tx_completed_cb
 .data          0x20000264        0xa D:\program\CY8\PSoC Creator\3.2\PSoC Creator\psoc\content\cycomponentlibrary\CyComponentLibrary.cylib\BLE_v2_0\Library\gccCyBLEStack_BLE_SOC_PERIPHERAL.a(CyBleStackMgr_BleSSDriver.o)
                0x20000264                gConfigEnableDsm
                0x20000265                eventClose
                0x20000267                cyBleLowPowerMode
                0x2000026a                cyBleSsClockConfiguration
 *fill*         0x2000026e        0x2 
 .data          0x20000270        0xc D:\program\CY8\PSoC Creator\3.2\PSoC Creator\psoc\content\cycomponentlibrary\CyComponentLibrary.cylib\BLE_v2_0\Library\gccCyBLEStack_BLE_SOC_PERIPHERAL.a(mint_os.o)
                0x20000270                mintos_heap_pointer
                0x20000274                mintos_heap_memory
                0x20000278                OS_MAX_HEAP_MEMORY
 .data          0x2000027c        0xc D:\program\CY8\PSoC Creator\3.2\PSoC Creator\psoc\content\cycomponentlibrary\CyComponentLibrary.cylib\BLE_v2_0\Library\gccCyBLEStack_BLE_SOC_PERIPHERAL.a(mint_os_queue.o)
                0x2000027c                OS_TOTAL_QUEUES
                0x20000280                queue_mgr
 .data          0x20000288       0x14 D:\program\CY8\PSoC Creator\3.2\PSoC Creator\psoc\content\cycomponentlibrary\CyComponentLibrary.cylib\BLE_v2_0\Library\gccCyBLEStack_BLE_SOC_PERIPHERAL.a(mint_os_task.o)
                0x20000288                os_errno
                0x2000028c                OS_TOTAL_TASKS
                0x20000290                current_task_handle
                0x20000294                task_mgr
 .data          0x2000029c        0x4 D:\program\CY8\PSoC Creator\3.2\PSoC Creator\psoc\content\cycomponentlibrary\CyComponentLibrary.cylib\BLE_v2_0\Library\gccCyBLEStack_BLE_SOC_PERIPHERAL.a(mint_os_task.o)
                0x2000029c                idle_func_handler
 .data          0x200002a0        0x4 D:\program\CY8\PSoC Creator\3.2\PSoC Creator\psoc\content\cycomponentlibrary\CyComponentLibrary.cylib\BLE_v2_0\Library\gccCyBLEStack_BLE_SOC_PERIPHERAL.a(mint_os_task.o)
                0x200002a0                start_schedule_func_handler
 .data          0x200002a4       0x14 D:\program\CY8\PSoC Creator\3.2\PSoC Creator\psoc\content\cycomponentlibrary\CyComponentLibrary.cylib\BLE_v2_0\Library\gccCyBLEStack_BLE_SOC_PERIPHERAL.a(mint_buf_mgmt.o)
                0x200002a4                MINT_BUF_MGMT_MAX_POOLS
                0x200002a6                MINT_BUF_MGMT_MAX_HEAP_MEMORY
                0x200002a8                mint_buf_mgmt_heap_pointer
                0x200002ac                mint_buf_mgmt_heap_memory
                0x200002b0                mint_buf_mgmt_mgr
 .data          0x200002b8        0x1 D:\program\CY8\PSoC Creator\3.2\PSoC Creator\psoc\content\cycomponentlibrary\CyComponentLibrary.cylib\BLE_v2_0\Library\gccCyBLEStack_BLE_SOC_PERIPHERAL.a(CyBleControllerIP_Interface.o)
                0x200002b8                gPingState
 .data          0x200002b9        0x1 D:\program\CY8\PSoC Creator\3.2\PSoC Creator\psoc\content\cycomponentlibrary\CyComponentLibrary.cylib\BLE_v2_0\Library\gccCyBLEStack_BLE_SOC_PERIPHERAL.a(ll.o)
                0x200002b9                dsmEnteringState
 .data          0x200002ba        0x4 D:\program\CY8\PSoC Creator\3.2\PSoC Creator\psoc\content\cycomponentlibrary\CyComponentLibrary.cylib\BLE_v2_0\Library\gccCyBLEStack_BLE_SOC_PERIPHERAL.a(ll_advertiser.o)
                0x200002ba                gAdvParam
 .data          0x200002be        0x4 D:\program\CY8\PSoC Creator\3.2\PSoC Creator\psoc\content\cycomponentlibrary\CyComponentLibrary.cylib\BLE_v2_0\Library\gccCyBLEStack_BLE_SOC_PERIPHERAL.a(ll_connection.o)
                0x200002be                bleSlDsmFix
 .data          0x200002c2        0xe D:\program\CY8\PSoC Creator\3.2\PSoC Creator\psoc\content\cycomponentlibrary\CyComponentLibrary.cylib\BLE_v2_0\Library\gccCyBLEStack_BLE_SOC_PERIPHERAL.a(llh_api.o)
                0x200002c2                g_ll_current_interrupt_mask
                0x200002c4                g_bb_intr_en_mask
                0x200002c6                g_tx_pkt_opcode
                0x200002cb                g_tx_pkt_llid
 .data          0x200002d0        0x2 D:\program\CY8\PSoC Creator\3.2\PSoC Creator\psoc\content\cycomponentlibrary\CyComponentLibrary.cylib\BLE_v2_0\Library\gccCyBLEStack_BLE_SOC_PERIPHERAL.a(ll_tasks.o)
                0x200002d0                lastDsmExitSlot
 *fill*         0x200002d2        0x2 
 .data          0x200002d4        0x8 D:\program\CY8\PSoC Creator\3.2\PSoC Creator\psoc\content\cycomponentlibrary\CyComponentLibrary.cylib\BLE_v2_0\Library\gccCyBLEStack_BLE_SOC_PERIPHERAL.a(llf_task.o)
                0x200002d4                llft_state
 .data          0x200002dc        0xc D:\program\CY8\PSoC Creator\3.2\PSoC Creator\psoc\content\cycomponentlibrary\CyComponentLibrary.cylib\BLE_v2_0\Library\gccCyBLEStack_BLE_SOC_PERIPHERAL.a(host_main.o)
                0x200002e0                att_app
                0x200002e4                app_ev_cb
 .data          0x200002e8        0x4 D:\program\CY8\PSoC Creator\3.2\PSoC Creator\psoc\content\cycomponentlibrary\CyComponentLibrary.cylib\BLE_v2_0\Library\gccCyBLEStack_BLE_SOC_PERIPHERAL.a(att_init.o)
                0x200002e8                att_application
 .data          0x200002ec        0x8 D:\program\CY8\PSoC Creator\3.2\PSoC Creator\psoc\content\cycomponentlibrary\CyComponentLibrary.cylib\BLE_v2_0\Library\gccCyBLEStack_BLE_SOC_PERIPHERAL.a(BT_common.o)
                0x200002ec                stack_init_state
 .data          0x200002f4        0x8 D:\program\CY8\PSoC Creator\3.2\PSoC Creator\psoc\content\cycomponentlibrary\CyComponentLibrary.cylib\BLE_v2_0\Library\gccCyBLEStack_BLE_SOC_PERIPHERAL.a(device_queue.o)
                0x200002f4                queue_current_count
                0x200002f5                current_local_addr
 .data          0x200002fc        0x4 D:\program\CY8\PSoC Creator\3.2\PSoC Creator\psoc\content\cycomponentlibrary\CyComponentLibrary.cylib\BLE_v2_0\Library\gccCyBLEStack_BLE_SOC_PERIPHERAL.a(l2cap.o)
                0x200002fc                isL2capCbfcConfigSet
                0x200002fd                L2CAP_MAX_CHANNELS
                0x200002fe                L2CAP_MAX_CBFC_PSM
                0x200002ff                L2CAP_RESPONSE_TIMEOUT
 .data          0x20000300       0x30 D:\program\CY8\PSoC Creator\3.2\PSoC Creator\psoc\content\cycomponentlibrary\CyComponentLibrary.cylib\BLE_v2_0\Library\gccCyBLEStack_BLE_SOC_PERIPHERAL.a(l2cap_init.o)
                0x20000300                l2cap_tx_queue_flow_state
                0x20000301                l2cap_schedule_tx
                0x20000302                l2cap_sig_id_counter
                0x20000304                l2cap_lp_max_le_packets
                0x20000306                l2cap_lp_max_le_packet_size
                0x20000308                l2cap_fixed_channel_more_param
                0x2000030c                l2cap_psm_cbfc
                0x20000310                l2cap_channels
                0x20000314                l2cap_buffer_num_available
                0x20000318                l2cap_tx_queue_lwm
                0x2000031c                l2cap_tx_queue_hwm
                0x20000320                l2cap_tx_queue_flow_cb
                0x20000324                l2cap_tx_q_start
                0x20000328                l2cap_tx_q_end
                0x2000032c                l2cap_le_event_cb
 .data          0x20000330        0x4 D:\program\CY8\PSoC Creator\3.2\PSoC Creator\psoc\content\cycomponentlibrary\CyComponentLibrary.cylib\BLE_v2_0\Library\gccCyBLEStack_BLE_SOC_PERIPHERAL.a(l2cap_init.o)
                0x20000330                l2cap_more_channel_param
 .data          0x20000334        0x2 D:\program\CY8\PSoC Creator\3.2\PSoC Creator\psoc\content\cycomponentlibrary\CyComponentLibrary.cylib\BLE_v2_0\Library\gccCyBLEStack_BLE_SOC_PERIPHERAL.a(l2cap_init.o)
                0x20000334                l2cap_lp_num_le_packets
 .data          0x20000336        0x4 D:\program\CY8\PSoC Creator\3.2\PSoC Creator\psoc\content\cycomponentlibrary\CyComponentLibrary.cylib\BLE_v2_0\Library\gccCyBLEStack_BLE_SOC_PERIPHERAL.a(gap.o)
                0x20000336                gap_device_connected
 *fill*         0x2000033a        0x2 
 .data          0x2000033c        0x4 D:\program\CY8\PSoC Creator\3.2\PSoC Creator\psoc\content\cycomponentlibrary\CyComponentLibrary.cylib\BLE_v2_0\Library\gccCyBLEStack_BLE_SOC_PERIPHERAL.a(gatt.o)
                0x2000033c                gSignData
 .data          0x20000340        0xe D:\program\CY8\PSoC Creator\3.2\PSoC Creator\psoc\content\cycomponentlibrary\CyComponentLibrary.cylib\BLE_v2_0\Library\gccCyBLEStack_BLE_SOC_PERIPHERAL.a(gatt.o)
                0x20000340                gAppMtuSize
                0x20000342                gMaxAttMtuSize
                0x20000344                gConnHandleSignedWrite
                0x20000346                gSignMac
 *fill*         0x2000034e        0x2 
 .data          0x20000350        0x4 D:\program\CY8\PSoC Creator\3.2\PSoC Creator\psoc\content\cycomponentlibrary\CyComponentLibrary.cylib\BLE_v2_0\Library\gccCyBLEStack_BLE_SOC_PERIPHERAL.a(gatt.o)
                0x20000350                gSignCreateCounter
 .data          0x20000354        0x4 D:\program\CY8\PSoC Creator\3.2\PSoC Creator\psoc\content\cycomponentlibrary\CyComponentLibrary.cylib\BLE_v2_0\Library\gccCyBLEStack_BLE_SOC_PERIPHERAL.a(gatt.o)
                0x20000354                gSignVerifyCounter
 .data          0x20000358       0x18 D:\program\CY8\PSoC Creator\3.2\PSoC Creator\psoc\content\cycomponentlibrary\CyComponentLibrary.cylib\BLE_v2_0\Library\gccCyBLEStack_BLE_SOC_PERIPHERAL.a(gattClient.o)
 .data          0x20000370       0x10 D:\program\CY8\PSoC Creator\3.2\PSoC Creator\psoc\content\cycomponentlibrary\CyComponentLibrary.cylib\BLE_v2_0\Library\gccCyBLEStack_BLE_SOC_PERIPHERAL.a(gattServer.o)
                0x2000037c                cyBleAttBuffer
 .data          0x20000380        0x8 D:\program\CY8\PSoC Creator\3.2\PSoC Creator\psoc\content\cycomponentlibrary\CyComponentLibrary.cylib\BLE_v2_0\Library\gccCyBLEStack_BLE_SOC_PERIPHERAL.a(gattDbHandler.o)
                0x20000380                CyBle_GattDbTotalEntries
                0x20000382                CyBle_GattDbMaxValLength
                0x20000384                CyBle_GattDbInternal
 .data          0x20000388        0x1 D:\program\CY8\PSoC Creator\3.2\PSoC Creator\psoc\content\cycomponentlibrary\CyComponentLibrary.cylib\BLE_v2_0\Library\gccCyBLEStack_BLE_SOC_PERIPHERAL.a(hci_events.o)
 *fill*         0x20000389        0x3 
 .data          0x2000038c       0x20 D:\program\CY8\PSoC Creator\3.2\PSoC Creator\psoc\content\cycomponentlibrary\CyComponentLibrary.cylib\BLE_v2_0\Library\gccCyBLEStack_BLE_SOC_PERIPHERAL.a(hci_init.o)
                0x2000038c                hci_num_hci_command_packets
                0x2000038d                hci_flow_control
                0x2000038e                hci_schedule_command_tx
                0x2000038f                hci_call_event_ind_callback
                0x20000390                hci_bt_init_complete_call_cb
                0x20000391                hci_encrypt_cmd_counter
                0x20000392                hci_encrypt_cmd_cmplt_counter
                0x20000394                hci_command_queue_start
                0x20000396                hci_command_queue_end
                0x20000398                hci_resolution_conn_handle
                0x2000039c                hci_event_ind_cb
                0x200003a0                hci_local_bd_addr
                0x200003a6                hci_remote_devices
 .data          0x200003ac        0x1 D:\program\CY8\PSoC Creator\3.2\PSoC Creator\psoc\content\cycomponentlibrary\CyComponentLibrary.cylib\BLE_v2_0\Library\gccCyBLEStack_BLE_SOC_PERIPHERAL.a(hci_init.o)
                0x200003ac                hci_le_device_role
 .data          0x200003ad        0x6 D:\program\CY8\PSoC Creator\3.2\PSoC Creator\psoc\content\cycomponentlibrary\CyComponentLibrary.cylib\BLE_v2_0\Library\gccCyBLEStack_BLE_SOC_PERIPHERAL.a(hci_init.o)
                0x200003ad                hci_random_address
 .data          0x200003b3        0x6 D:\program\CY8\PSoC Creator\3.2\PSoC Creator\psoc\content\cycomponentlibrary\CyComponentLibrary.cylib\BLE_v2_0\Library\gccCyBLEStack_BLE_SOC_PERIPHERAL.a(hci_init.o)
                0x200003b3                hci_config_random_address
 .data          0x200003b9        0x1 D:\program\CY8\PSoC Creator\3.2\PSoC Creator\psoc\content\cycomponentlibrary\CyComponentLibrary.cylib\BLE_v2_0\Library\gccCyBLEStack_BLE_SOC_PERIPHERAL.a(hci_init.o)
                0x200003b9                hci_adv_addr_type
 .data          0x200003ba        0x1 D:\program\CY8\PSoC Creator\3.2\PSoC Creator\psoc\content\cycomponentlibrary\CyComponentLibrary.cylib\BLE_v2_0\Library\gccCyBLEStack_BLE_SOC_PERIPHERAL.a(hci_init.o)
                0x200003ba                hci_config_adv_addr_type
 *fill*         0x200003bb        0x1 
 .data          0x200003bc        0x4 D:\program\CY8\PSoC Creator\3.2\PSoC Creator\psoc\content\cycomponentlibrary\CyComponentLibrary.cylib\BLE_v2_0\Library\gccCyBLEStack_BLE_SOC_PERIPHERAL.a(smp_api.o)
 .data          0x200003c0        0x8 D:\program\CY8\PSoC Creator\3.2\PSoC Creator\psoc\content\cycomponentlibrary\CyComponentLibrary.cylib\BLE_v2_0\Library\gccCyBLEStack_BLE_SOC_PERIPHERAL.a(smp_init.o)
                0x200003c0                tbx_context
                0x200003c1                smp_resolution_index
                0x200003c4                smp_ui_notify
 .data          0x200003c8        0x6 D:\program\CY8\PSoC Creator\3.2\PSoC Creator\psoc\content\cycomponentlibrary\CyComponentLibrary.cylib\BLE_v2_0\Library\gccCyBLEStack_BLE_SOC_PERIPHERAL.a(smp_init.o)
                0x200003c8                smp_resolution_addr
 *fill*         0x200003ce        0x2 
 .data          0x200003d0        0x8 D:\program\CY8\PSoC Creator\3.2\PSoC Creator\psoc\content\cycomponentlibrary\CyComponentLibrary.cylib\BLE_v2_0\Library\gccCyBLEStack_BLE_SOC_PERIPHERAL.a(write_task.o)
                0x200003d0                wt_state
 .data          0x200003d8        0x8 D:\program\CY8\PSoC Creator\3.2\PSoC Creator\psoc\content\cycomponentlibrary\CyComponentLibrary.cylib\BLE_v2_0\Library\gccCyBLEStack_BLE_SOC_PERIPHERAL.a(aes_cmac.o)
 .data          0x200003e0        0x4 D:\program\CY8\PSoC Creator\3.2\PSoC Creator\psoc\content\cycomponentlibrary\CyComponentLibrary.cylib\BLE_v2_0\Library\gccCyBLEStack_BLE_SOC_PERIPHERAL.a(status.o)
 .data          0x200003e4        0xc D:\program\CY8\PSoC Creator\3.2\PSoC Creator\psoc\content\cycomponentlibrary\CyComponentLibrary.cylib\BLE_v2_0\Library\gccCyBLEStack_BLE_SOC_PERIPHERAL.a(storage_pl.o)
                0x200003e8                g_sp_storage_wr_offset
                0x200003ec                g_sp_storage_rd_offset
 .data          0x200003f0        0x4 D:\program\CY8\PSoC Creator\3.2\PSoC Creator\psoc\content\cycomponentlibrary\CyComponentLibrary.cylib\BLE_v2_0\Library\gccCyBLEStack_BLE_SOC_PERIPHERAL.a(drbg.o)
                0x200003f0                input_entropy
 .data          0x200003f4       0x20 D:\program\CY8\PSoC Creator\3.2\PSoC Creator\psoc\content\cycomponentlibrary\CyComponentLibrary.cylib\BLE_v2_0\Library\gccCyBLEStack_BLE_SOC_PERIPHERAL.a(bt_fw_os_al.o)
                0x200003f4                le_acl_tx_data_pool_handle
                0x200003f8                le_acl_rx_data_pool_handle
                0x200003fc                ll_pdu_tx_buffer_pool_handle
                0x20000400                ll_pdu_rx_buffer_pool_handle
                0x20000404                hci_le_cmd_buffer_pool_handle
                0x20000408                hci_le_event_buffer_pool_type1_handle
                0x2000040c                hci_le_event_buffer_pool_type2_handle
                0x20000410                ll_txn_buffer_pool_handle
 .data          0x20000414       0x45 D:\program\CY8\PSoC Creator\3.2\PSoC Creator\psoc\content\cycomponentlibrary\CyComponentLibrary.cylib\BLE_v2_0\Library\gccCyBLEStack_BLE_SOC_PERIPHERAL.a(smp_pl.o)
                0x20000414                smp_io_capability_pl
                0x20000417                smp_rank_count_pl
 .data          0x20000459        0x1 D:\program\CY8\PSoC Creator\3.2\PSoC Creator\psoc\content\cycomponentlibrary\CyComponentLibrary.cylib\BLE_v2_0\Library\gccCyBLEStack_BLE_SOC_PERIPHERAL.a(gattDbInternal.o)
                0x20000459                gAuthorize
                0x20000460                . = ALIGN (0x8)
 *fill*         0x2000045a        0x6 
 *(.ram)
                0x20000460                _edata = .

.igot.plt       0x20000460        0x0 load address 0x00013458
 .igot.plt      0x00000000        0x0 d:/program/cy8/psoc creator/3.2/psoc creator/import/gnu/arm/4.8.4/bin/../lib/gcc/arm-none-eabi/4.8.4/armv6-m/crtbegin.o

.bss            0x20000460     0x1980 load address 0x00013458
                0x20000460                PROVIDE (__bss_start__, .)
 *(.shbss)
 *(.bss .bss.* .gnu.linkonce.b.*)
 .bss           0x20000460       0x1c d:/program/cy8/psoc creator/3.2/psoc creator/import/gnu/arm/4.8.4/bin/../lib/gcc/arm-none-eabi/4.8.4/armv6-m/crtbegin.o
 .bss           0x2000047c        0x8 .\CortexM0\ARM_GCC_484\Debug\main.o
 .bss           0x20000484        0xc .\CortexM0\ARM_GCC_484\Debug\HeartRateProcessing.o
                0x20000484                heartRate
 .bss           0x20000490        0x3 .\CortexM0\ARM_GCC_484\Debug\BleProcessing.o
                0x20000492                enterHibernateFlag
 *fill*         0x20000493        0x1 
 .bss           0x20000494        0x4 .\CortexM0\ARM_GCC_484\Debug\WatchdogTimer.o
 .bss           0x20000498        0x4 .\CortexM0\ARM_GCC_484\Debug\BLE Lab 2.a(BLE_hrs.o)
 .bss           0x2000049c        0x1 .\CortexM0\ARM_GCC_484\Debug\BLE Lab 2.a(BLE.o)
                0x2000049c                cyBle_initVar
 *fill*         0x2000049d        0x3 
 .bss           0x200004a0        0x8 .\CortexM0\ARM_GCC_484\Debug\BLE Lab 2.a(Opamp.o)
                0x200004a0                Opamp_initVar
 .bss           0x200004a8        0x4 .\CortexM0\ARM_GCC_484\Debug\BLE Lab 2.a(Opamp_PM.o)
 .bss           0x200004ac        0x1 .\CortexM0\ARM_GCC_484\Debug\BLE Lab 2.a(ADC.o)
                0x200004ac                ADC_initVar
 *fill*         0x200004ad        0x3 
 .bss           0x200004b0        0x4 .\CortexM0\ARM_GCC_484\Debug\BLE Lab 2.a(ADC_PM.o)
 .bss           0x200004b4        0xc D:\program\CY8\PSoC Creator\3.2\PSoC Creator\psoc\content\cycomponentlibrary\CyComponentLibrary.cylib\BLE_v2_0\Library\gccCyBLEStack_BLE_SOC_PERIPHERAL.a(CyBleStackMgrIP_Interface.o)
                0x200004b4                cyBleStackHeap
 .bss           0x200004c0        0xc D:\program\CY8\PSoC Creator\3.2\PSoC Creator\psoc\content\cycomponentlibrary\CyComponentLibrary.cylib\BLE_v2_0\Library\gccCyBLEStack_BLE_SOC_PERIPHERAL.a(transport_sf.o)
 .bss           0x200004cc       0x10 D:\program\CY8\PSoC Creator\3.2\PSoC Creator\psoc\content\cycomponentlibrary\CyComponentLibrary.cylib\BLE_v2_0\Library\gccCyBLEStack_BLE_SOC_PERIPHERAL.a(CyBleStackMgr_PSoCHal.o)
                0x200004cc                cyBleStackTimer
 .bss           0x200004dc      0x130 D:\program\CY8\PSoC Creator\3.2\PSoC Creator\psoc\content\cycomponentlibrary\CyComponentLibrary.cylib\BLE_v2_0\Library\gccCyBLEStack_BLE_SOC_PERIPHERAL.a(mint_os.o)
                0x200005dc                g_queue_array
                0x200005f0                g_task_array
 .bss           0x2000060c       0x54 D:\program\CY8\PSoC Creator\3.2\PSoC Creator\psoc\content\cycomponentlibrary\CyComponentLibrary.cylib\BLE_v2_0\Library\gccCyBLEStack_BLE_SOC_PERIPHERAL.a(CyBleControllerIP_Interface.o)
                0x2000060c                bt_config
 .bss           0x20000660       0xbc D:\program\CY8\PSoC Creator\3.2\PSoC Creator\psoc\content\cycomponentlibrary\CyComponentLibrary.cylib\BLE_v2_0\Library\gccCyBLEStack_BLE_SOC_PERIPHERAL.a(ll.o)
                0x20000660                ll_self_device_data
                0x20000710                lec_self_device_data
 .bss           0x2000071c       0x30 D:\program\CY8\PSoC Creator\3.2\PSoC Creator\psoc\content\cycomponentlibrary\CyComponentLibrary.cylib\BLE_v2_0\Library\gccCyBLEStack_BLE_SOC_PERIPHERAL.a(ll_utils.o)
                0x2000071c                g_lec_event_buffer
 .bss           0x2000074c      0x168 D:\program\CY8\PSoC Creator\3.2\PSoC Creator\psoc\content\cycomponentlibrary\CyComponentLibrary.cylib\BLE_v2_0\Library\gccCyBLEStack_BLE_SOC_PERIPHERAL.a(llf_task.o)
 .bss           0x200008b4       0x24 D:\program\CY8\PSoC Creator\3.2\PSoC Creator\psoc\content\cycomponentlibrary\CyComponentLibrary.cylib\BLE_v2_0\Library\gccCyBLEStack_BLE_SOC_PERIPHERAL.a(lec_hci_le.o)
                0x200008b4                g_lec_command_array
 .bss           0x200008d8       0x38 D:\program\CY8\PSoC Creator\3.2\PSoC Creator\psoc\content\cycomponentlibrary\CyComponentLibrary.cylib\BLE_v2_0\Library\gccCyBLEStack_BLE_SOC_PERIPHERAL.a(lec_hci_le_utils.o)
                0x200008d8                hci_received_data_Q
 .bss           0x20000910       0x64 D:\program\CY8\PSoC Creator\3.2\PSoC Creator\psoc\content\cycomponentlibrary\CyComponentLibrary.cylib\BLE_v2_0\Library\gccCyBLEStack_BLE_SOC_PERIPHERAL.a(hci_td_api.o)
                0x20000910                hci_td_struct
 .bss           0x20000974        0xc D:\program\CY8\PSoC Creator\3.2\PSoC Creator\psoc\content\cycomponentlibrary\CyComponentLibrary.cylib\BLE_v2_0\Library\gccCyBLEStack_BLE_SOC_PERIPHERAL.a(att_init.o)
                0x20000974                att_connections
 .bss           0x20000980       0x46 D:\program\CY8\PSoC Creator\3.2\PSoC Creator\psoc\content\cycomponentlibrary\CyComponentLibrary.cylib\BLE_v2_0\Library\gccCyBLEStack_BLE_SOC_PERIPHERAL.a(device_queue.o)
                0x20000980                device_queue
 *fill*         0x200009c6        0x2 
 .bss           0x200009c8      0x14c D:\program\CY8\PSoC Creator\3.2\PSoC Creator\psoc\content\cycomponentlibrary\CyComponentLibrary.cylib\BLE_v2_0\Library\gccCyBLEStack_BLE_SOC_PERIPHERAL.a(l2cap_init.o)
                0x200009c8                l2cap_sigch_list
                0x200009e0                l2cap_buffer_list
                0x20000aa8                l2cap_tx_pdu
                0x20000ab8                l2cap_fixed_channel
                0x20000ad0                l2cap_command_list
 .bss           0x20000b14       0x91 D:\program\CY8\PSoC Creator\3.2\PSoC Creator\psoc\content\cycomponentlibrary\CyComponentLibrary.cylib\BLE_v2_0\Library\gccCyBLEStack_BLE_SOC_PERIPHERAL.a(gap.o)
                0x20000b95                gLocalCsrk
 *fill*         0x20000ba5        0x3 
 .bss           0x20000ba8       0x18 D:\program\CY8\PSoC Creator\3.2\PSoC Creator\psoc\content\cycomponentlibrary\CyComponentLibrary.cylib\BLE_v2_0\Library\gccCyBLEStack_BLE_SOC_PERIPHERAL.a(gatt.o)
                0x20000ba8                gSignedWriteWithoutRspParam
 .bss           0x20000bc0        0xc D:\program\CY8\PSoC Creator\3.2\PSoC Creator\psoc\content\cycomponentlibrary\CyComponentLibrary.cylib\BLE_v2_0\Library\gccCyBLEStack_BLE_SOC_PERIPHERAL.a(gatt.o)
                0x20000bc0                gSignature
 .bss           0x20000bcc       0x5c D:\program\CY8\PSoC Creator\3.2\PSoC Creator\psoc\content\cycomponentlibrary\CyComponentLibrary.cylib\BLE_v2_0\Library\gccCyBLEStack_BLE_SOC_PERIPHERAL.a(gattClient.o)
 .bss           0x20000c28       0xa0 D:\program\CY8\PSoC Creator\3.2\PSoC Creator\psoc\content\cycomponentlibrary\CyComponentLibrary.cylib\BLE_v2_0\Library\gccCyBLEStack_BLE_SOC_PERIPHERAL.a(gattServer.o)
 .bss           0x20000cc8       0x40 D:\program\CY8\PSoC Creator\3.2\PSoC Creator\psoc\content\cycomponentlibrary\CyComponentLibrary.cylib\BLE_v2_0\Library\gccCyBLEStack_BLE_SOC_PERIPHERAL.a(gattDbHandler.o)
                0x20000cc8                GattDbAttrStatusBitMask
 .bss           0x20000d08       0x40 D:\program\CY8\PSoC Creator\3.2\PSoC Creator\psoc\content\cycomponentlibrary\CyComponentLibrary.cylib\BLE_v2_0\Library\gccCyBLEStack_BLE_SOC_PERIPHERAL.a(hci_events.o)
 .bss           0x20000d48       0x10 D:\program\CY8\PSoC Creator\3.2\PSoC Creator\psoc\content\cycomponentlibrary\CyComponentLibrary.cylib\BLE_v2_0\Library\gccCyBLEStack_BLE_SOC_PERIPHERAL.a(hci_init.o)
                0x20000d48                hci_command_queue
 .bss           0x20000d58      0x248 D:\program\CY8\PSoC Creator\3.2\PSoC Creator\psoc\content\cycomponentlibrary\CyComponentLibrary.cylib\BLE_v2_0\Library\gccCyBLEStack_BLE_SOC_PERIPHERAL.a(smp_init.o)
                0x20000d58                smp_devices
                0x20000f4c                smp_pvt_addr
                0x20000f60                smp_cmac_context
 .bss           0x20000fa0       0x6c D:\program\CY8\PSoC Creator\3.2\PSoC Creator\psoc\content\cycomponentlibrary\CyComponentLibrary.cylib\BLE_v2_0\Library\gccCyBLEStack_BLE_SOC_PERIPHERAL.a(smp_init.o)
                0x20000fa0                smp_context
 .bss           0x2000100c       0x58 D:\program\CY8\PSoC Creator\3.2\PSoC Creator\psoc\content\cycomponentlibrary\CyComponentLibrary.cylib\BLE_v2_0\Library\gccCyBLEStack_BLE_SOC_PERIPHERAL.a(write_task.o)
 .bss           0x20001064       0x10 D:\program\CY8\PSoC Creator\3.2\PSoC Creator\psoc\content\cycomponentlibrary\CyComponentLibrary.cylib\BLE_v2_0\Library\gccCyBLEStack_BLE_SOC_PERIPHERAL.a(storage.o)
 .bss           0x20001074       0x30 D:\program\CY8\PSoC Creator\3.2\PSoC Creator\psoc\content\cycomponentlibrary\CyComponentLibrary.cylib\BLE_v2_0\Library\gccCyBLEStack_BLE_SOC_PERIPHERAL.a(BT_timer.o)
                0x20001074                timer_entity
 .bss           0x200010a4      0x1a0 D:\program\CY8\PSoC Creator\3.2\PSoC Creator\psoc\content\cycomponentlibrary\CyComponentLibrary.cylib\BLE_v2_0\Library\gccCyBLEStack_BLE_SOC_PERIPHERAL.a(storage_pl.o)
                0x200010a4                p_sp_ram_storage
                0x20001214                flashBlocks
 .bss           0x20001244       0xbc D:\program\CY8\PSoC Creator\3.2\PSoC Creator\psoc\content\cycomponentlibrary\CyComponentLibrary.cylib\BLE_v2_0\Library\gccCyBLEStack_BLE_SOC_PERIPHERAL.a(drbg.o)
                0x20001244                gbuffin
                0x20001260                gbuffout
                0x200012a0                g_buffer3
                0x200012e0                g_buffer4
 .bss           0x20001300       0x4b D:\program\CY8\PSoC Creator\3.2\PSoC Creator\psoc\content\cycomponentlibrary\CyComponentLibrary.cylib\BLE_v2_0\Library\gccCyBLEStack_BLE_SOC_PERIPHERAL.a(smp_pl.o)
 *(COMMON)
 *fill*         0x2000134b        0x5 
 COMMON         0x20001350      0xa74 .\CortexM0\ARM_GCC_484\Debug\BLE Lab 2.a(BLE.o)
                0x20001350                CyBle_ApplCallback
                0x20001358                cyBle_stackMemoryRam
 COMMON         0x20001dc4        0x5 .\CortexM0\ARM_GCC_484\Debug\BLE Lab 2.a(BLE_gatt.o)
                0x20001dc4                cyBle_attValuesCCCD
                0x20001dc8                cyBle_state
 *fill*         0x20001dc9        0x3 
 COMMON         0x20001dcc        0x8 .\CortexM0\ARM_GCC_484\Debug\BLE Lab 2.a(BLE_eventHandler.o)
                0x20001dcc                cyBle_busyStatus
                0x20001dd0                cyBle_connHandle
                0x20001dd2                cyBle_advertisingIntervalType
                0x20001dd3                cyBle_eventHandlerFlag
 COMMON         0x20001dd4        0x6 .\CortexM0\ARM_GCC_484\Debug\BLE Lab 2.a(ADC.o)
                0x20001dd4                ADC_countsPer10Volt
                0x20001dd8                ADC_offset
                0x20001de0                . = ALIGN (0x8)
 *fill*         0x20001dda        0x6 
 *(.ram.b)
                0x20001de0                _end = .
                0x20001de0                __end = .
                0x20001de0                PROVIDE (end, .)
                0x20001de0                PROVIDE (__bss_end__, .)
                0x000130c0                __cy_region_init_ram = LOADADDR (.data)
                0x00000398                __cy_region_init_size_ram = (_edata - ADDR (.data))
                0x00001980                __cy_region_zero_size_ram = (_end - _edata)

.heap           0x20001de0       0x80 load address 0x00013458
                0x20001de0                . = _end
                0x20001e60                . = (. + 0x80)
 *fill*         0x20001de0       0x80 
                0x20001e60                __cy_heap_limit = .

.stack          0x20003c00      0x400
                0x20003c00                __cy_stack_limit = .
                0x20004000                . = (. + 0x400)
 *fill*         0x20003c00      0x400 
                0x00000001                ASSERT ((__cy_stack_limit >= __cy_heap_limit), region RAM overflowed with stack)

.cyloadermeta
 *(.cyloadermeta)

.cyloadablemeta
 *(.cyloadablemeta)

.cyflashprotect
                0x90400000       0x80
 *(.cyflashprotect)
 .cyflashprotect
                0x90400000       0x80 .\CortexM0\ARM_GCC_484\Debug\cymetadata.o
                0x90400000                cy_meta_flashprotect

.cymeta         0x90500000        0xc
 *(.cymeta)
 .cymeta        0x90500000        0xc .\CortexM0\ARM_GCC_484\Debug\cymetadata.o
                0x90500000                cy_metadata

.cychipprotect  0x90600000        0x4
 *(.cychipprotect)
 .cychipprotect
                0x90600000        0x4 .\CortexM0\ARM_GCC_484\Debug\cymetadata.o
                0x90600000                cy_meta_chipprotect

.rel.dyn        0x00013458        0x0 load address 0x90600004
 .rel.iplt      0x00000000        0x0 d:/program/cy8/psoc creator/3.2/psoc creator/import/gnu/arm/4.8.4/bin/../lib/gcc/arm-none-eabi/4.8.4/armv6-m/crtbegin.o

.stab
 *(.stab)

.stabstr
 *(.stabstr)

.debug
 *(.debug)

.line
 *(.line)

.debug_srcinfo
 *(.debug_srcinfo)

.debug_sfnames
 *(.debug_sfnames)

.debug_aranges  0x00000000      0xa78
 *(.debug_aranges)
 .debug_aranges
                0x00000000       0x28 .\CortexM0\ARM_GCC_484\Debug\main.o
 .debug_aranges
                0x00000028       0x20 .\CortexM0\ARM_GCC_484\Debug\HeartRateProcessing.o
 .debug_aranges
                0x00000048       0x30 .\CortexM0\ARM_GCC_484\Debug\BleProcessing.o
 .debug_aranges
                0x00000078       0x30 .\CortexM0\ARM_GCC_484\Debug\WatchdogTimer.o
 .debug_aranges
                0x000000a8       0x18 .\CortexM0\ARM_GCC_484\Debug\cymetadata.o
 .debug_aranges
                0x000000c0       0x48 .\CortexM0\ARM_GCC_484\Debug\Cm0Start.o
 .debug_aranges
                0x00000108       0x58 .\CortexM0\ARM_GCC_484\Debug\BLE Lab 2.a(cyfitter_cfg.o)
 .debug_aranges
                0x00000160       0x40 .\CortexM0\ARM_GCC_484\Debug\BLE Lab 2.a(SW2_Switch.o)
 .debug_aranges
                0x000001a0       0x80 .\CortexM0\ARM_GCC_484\Debug\BLE Lab 2.a(Wakeup_ISR.o)
 .debug_aranges
                0x00000220       0x40 .\CortexM0\ARM_GCC_484\Debug\BLE Lab 2.a(Led_Advertising_Green.o)
 .debug_aranges
                0x00000260       0x40 .\CortexM0\ARM_GCC_484\Debug\BLE Lab 2.a(Led_Connected_Blue.o)
 .debug_aranges
                0x000002a0       0x50 .\CortexM0\ARM_GCC_484\Debug\BLE Lab 2.a(BLE_hrs.o)
 .debug_aranges
                0x000002f0       0x78 .\CortexM0\ARM_GCC_484\Debug\BLE Lab 2.a(BLE.o)
 .debug_aranges
                0x00000368       0x28 .\CortexM0\ARM_GCC_484\Debug\BLE Lab 2.a(BLE_gatt.o)
 .debug_aranges
                0x00000390       0x60 .\CortexM0\ARM_GCC_484\Debug\BLE Lab 2.a(BLE_eventHandler.o)
 .debug_aranges
                0x000003f0       0x38 .\CortexM0\ARM_GCC_484\Debug\BLE Lab 2.a(BLE_dis.o)
 .debug_aranges
                0x00000428       0x48 .\CortexM0\ARM_GCC_484\Debug\BLE Lab 2.a(Opamp.o)
 .debug_aranges
                0x00000470       0x38 .\CortexM0\ARM_GCC_484\Debug\BLE Lab 2.a(Opamp_PM.o)
 .debug_aranges
                0x000004a8       0xa8 .\CortexM0\ARM_GCC_484\Debug\BLE Lab 2.a(ADC.o)
 .debug_aranges
                0x00000550       0x38 .\CortexM0\ARM_GCC_484\Debug\BLE Lab 2.a(ADC_PM.o)
 .debug_aranges
                0x00000588       0x20 .\CortexM0\ARM_GCC_484\Debug\BLE Lab 2.a(ADC_INT.o)
 .debug_aranges
                0x000005a8       0x20 .\CortexM0\ARM_GCC_484\Debug\BLE Lab 2.a(CyBootAsmGnu.o)
 .debug_aranges
                0x000005c8      0x198 .\CortexM0\ARM_GCC_484\Debug\BLE Lab 2.a(CyLib.o)
 .debug_aranges
                0x00000760       0x58 .\CortexM0\ARM_GCC_484\Debug\BLE Lab 2.a(cyPm.o)
 .debug_aranges
                0x000007b8      0x160 .\CortexM0\ARM_GCC_484\Debug\BLE Lab 2.a(CyLFClk.o)
 .debug_aranges
                0x00000918       0x80 .\CortexM0\ARM_GCC_484\Debug\BLE Lab 2.a(BLE_HAL_PVT.o)
 .debug_aranges
                0x00000998       0x80 .\CortexM0\ARM_GCC_484\Debug\BLE Lab 2.a(BLE_bless_isr.o)
 .debug_aranges
                0x00000a18       0x40 .\CortexM0\ARM_GCC_484\Debug\BLE Lab 2.a(CyFlash.o)
 .debug_aranges
                0x00000a58       0x20 .\CortexM0\ARM_GCC_484\Debug\BLE Lab 2.a(BLE_HAL_INT.o)

.debug_pubnames
 *(.debug_pubnames)

.debug_info     0x00000000     0x8139
 *(.debug_info .gnu.linkonce.wi.*)
 .debug_info    0x00000000      0x189 .\CortexM0\ARM_GCC_484\Debug\main.o
 .debug_info    0x00000189      0x322 .\CortexM0\ARM_GCC_484\Debug\HeartRateProcessing.o
 .debug_info    0x000004ab      0xacb .\CortexM0\ARM_GCC_484\Debug\BleProcessing.o
 .debug_info    0x00000f76      0x2c6 .\CortexM0\ARM_GCC_484\Debug\WatchdogTimer.o
 .debug_info    0x0000123c       0xfd .\CortexM0\ARM_GCC_484\Debug\cymetadata.o
 .debug_info    0x00001339      0x2fe .\CortexM0\ARM_GCC_484\Debug\Cm0Start.o
 .debug_info    0x00001637      0x388 .\CortexM0\ARM_GCC_484\Debug\BLE Lab 2.a(cyfitter_cfg.o)
 .debug_info    0x000019bf      0x14c .\CortexM0\ARM_GCC_484\Debug\BLE Lab 2.a(SW2_Switch.o)
 .debug_info    0x00001b0b      0x244 .\CortexM0\ARM_GCC_484\Debug\BLE Lab 2.a(Wakeup_ISR.o)
 .debug_info    0x00001d4f      0x14c .\CortexM0\ARM_GCC_484\Debug\BLE Lab 2.a(Led_Advertising_Green.o)
 .debug_info    0x00001e9b      0x14c .\CortexM0\ARM_GCC_484\Debug\BLE Lab 2.a(Led_Connected_Blue.o)
 .debug_info    0x00001fe7     0x108f .\CortexM0\ARM_GCC_484\Debug\BLE Lab 2.a(BLE_hrs.o)
 .debug_info    0x00003076      0xaa5 .\CortexM0\ARM_GCC_484\Debug\BLE Lab 2.a(BLE.o)
 .debug_info    0x00003b1b      0xec3 .\CortexM0\ARM_GCC_484\Debug\BLE Lab 2.a(BLE_gatt.o)
 .debug_info    0x000049de      0xad6 .\CortexM0\ARM_GCC_484\Debug\BLE Lab 2.a(BLE_eventHandler.o)
 .debug_info    0x000054b4      0x623 .\CortexM0\ARM_GCC_484\Debug\BLE Lab 2.a(BLE_dis.o)
 .debug_info    0x00005ad7      0x164 .\CortexM0\ARM_GCC_484\Debug\BLE Lab 2.a(Opamp.o)
 .debug_info    0x00005c3b      0x11d .\CortexM0\ARM_GCC_484\Debug\BLE Lab 2.a(Opamp_PM.o)
 .debug_info    0x00005d58      0x474 .\CortexM0\ARM_GCC_484\Debug\BLE Lab 2.a(ADC.o)
 .debug_info    0x000061cc      0x124 .\CortexM0\ARM_GCC_484\Debug\BLE Lab 2.a(ADC_PM.o)
 .debug_info    0x000062f0       0xc4 .\CortexM0\ARM_GCC_484\Debug\BLE Lab 2.a(ADC_INT.o)
 .debug_info    0x000063b4       0xcb .\CortexM0\ARM_GCC_484\Debug\BLE Lab 2.a(CyBootAsmGnu.o)
 .debug_info    0x0000647f      0x926 .\CortexM0\ARM_GCC_484\Debug\BLE Lab 2.a(CyLib.o)
 .debug_info    0x00006da5      0x1fd .\CortexM0\ARM_GCC_484\Debug\BLE Lab 2.a(cyPm.o)
 .debug_info    0x00006fa2      0x84a .\CortexM0\ARM_GCC_484\Debug\BLE Lab 2.a(CyLFClk.o)
 .debug_info    0x000077ec      0x3e0 .\CortexM0\ARM_GCC_484\Debug\BLE Lab 2.a(BLE_HAL_PVT.o)
 .debug_info    0x00007bcc      0x244 .\CortexM0\ARM_GCC_484\Debug\BLE Lab 2.a(BLE_bless_isr.o)
 .debug_info    0x00007e10      0x290 .\CortexM0\ARM_GCC_484\Debug\BLE Lab 2.a(CyFlash.o)
 .debug_info    0x000080a0       0x99 .\CortexM0\ARM_GCC_484\Debug\BLE Lab 2.a(BLE_HAL_INT.o)

.debug_abbrev   0x00000000     0x1f9a
 *(.debug_abbrev)
 .debug_abbrev  0x00000000       0xaa .\CortexM0\ARM_GCC_484\Debug\main.o
 .debug_abbrev  0x000000aa       0x87 .\CortexM0\ARM_GCC_484\Debug\HeartRateProcessing.o
 .debug_abbrev  0x00000131      0x121 .\CortexM0\ARM_GCC_484\Debug\BleProcessing.o
 .debug_abbrev  0x00000252       0x8e .\CortexM0\ARM_GCC_484\Debug\WatchdogTimer.o
 .debug_abbrev  0x000002e0       0x5d .\CortexM0\ARM_GCC_484\Debug\cymetadata.o
 .debug_abbrev  0x0000033d      0x1a5 .\CortexM0\ARM_GCC_484\Debug\Cm0Start.o
 .debug_abbrev  0x000004e2      0x19d .\CortexM0\ARM_GCC_484\Debug\BLE Lab 2.a(cyfitter_cfg.o)
 .debug_abbrev  0x0000067f       0xb7 .\CortexM0\ARM_GCC_484\Debug\BLE Lab 2.a(SW2_Switch.o)
 .debug_abbrev  0x00000736      0x177 .\CortexM0\ARM_GCC_484\Debug\BLE Lab 2.a(Wakeup_ISR.o)
 .debug_abbrev  0x000008ad       0xb7 .\CortexM0\ARM_GCC_484\Debug\BLE Lab 2.a(Led_Advertising_Green.o)
 .debug_abbrev  0x00000964       0xb7 .\CortexM0\ARM_GCC_484\Debug\BLE Lab 2.a(Led_Connected_Blue.o)
 .debug_abbrev  0x00000a1b      0x1e1 .\CortexM0\ARM_GCC_484\Debug\BLE Lab 2.a(BLE_hrs.o)
 .debug_abbrev  0x00000bfc      0x214 .\CortexM0\ARM_GCC_484\Debug\BLE Lab 2.a(BLE.o)
 .debug_abbrev  0x00000e10      0x164 .\CortexM0\ARM_GCC_484\Debug\BLE Lab 2.a(BLE_gatt.o)
 .debug_abbrev  0x00000f74      0x1fa .\CortexM0\ARM_GCC_484\Debug\BLE Lab 2.a(BLE_eventHandler.o)
 .debug_abbrev  0x0000116e      0x164 .\CortexM0\ARM_GCC_484\Debug\BLE Lab 2.a(BLE_dis.o)
 .debug_abbrev  0x000012d2       0xd3 .\CortexM0\ARM_GCC_484\Debug\BLE Lab 2.a(Opamp.o)
 .debug_abbrev  0x000013a5       0xa6 .\CortexM0\ARM_GCC_484\Debug\BLE Lab 2.a(Opamp_PM.o)
 .debug_abbrev  0x0000144b      0x170 .\CortexM0\ARM_GCC_484\Debug\BLE Lab 2.a(ADC.o)
 .debug_abbrev  0x000015bb       0xa6 .\CortexM0\ARM_GCC_484\Debug\BLE Lab 2.a(ADC_PM.o)
 .debug_abbrev  0x00001661       0x72 .\CortexM0\ARM_GCC_484\Debug\BLE Lab 2.a(ADC_INT.o)
 .debug_abbrev  0x000016d3       0x14 .\CortexM0\ARM_GCC_484\Debug\BLE Lab 2.a(CyBootAsmGnu.o)
 .debug_abbrev  0x000016e7      0x1a7 .\CortexM0\ARM_GCC_484\Debug\BLE Lab 2.a(CyLib.o)
 .debug_abbrev  0x0000188e       0xf8 .\CortexM0\ARM_GCC_484\Debug\BLE Lab 2.a(cyPm.o)
 .debug_abbrev  0x00001986      0x224 .\CortexM0\ARM_GCC_484\Debug\BLE Lab 2.a(CyLFClk.o)
 .debug_abbrev  0x00001baa      0x12f .\CortexM0\ARM_GCC_484\Debug\BLE Lab 2.a(BLE_HAL_PVT.o)
 .debug_abbrev  0x00001cd9      0x177 .\CortexM0\ARM_GCC_484\Debug\BLE Lab 2.a(BLE_bless_isr.o)
 .debug_abbrev  0x00001e50      0x108 .\CortexM0\ARM_GCC_484\Debug\BLE Lab 2.a(CyFlash.o)
 .debug_abbrev  0x00001f58       0x42 .\CortexM0\ARM_GCC_484\Debug\BLE Lab 2.a(BLE_HAL_INT.o)

.debug_line     0x00000000     0x28dc
 *(.debug_line)
 .debug_line    0x00000000       0xd5 .\CortexM0\ARM_GCC_484\Debug\main.o
 .debug_line    0x000000d5       0xac .\CortexM0\ARM_GCC_484\Debug\HeartRateProcessing.o
 .debug_line    0x00000181      0x120 .\CortexM0\ARM_GCC_484\Debug\BleProcessing.o
 .debug_line    0x000002a1       0xbf .\CortexM0\ARM_GCC_484\Debug\WatchdogTimer.o
 .debug_line    0x00000360       0x53 .\CortexM0\ARM_GCC_484\Debug\cymetadata.o
 .debug_line    0x000003b3      0x1a8 .\CortexM0\ARM_GCC_484\Debug\Cm0Start.o
 .debug_line    0x0000055b      0x1ac .\CortexM0\ARM_GCC_484\Debug\BLE Lab 2.a(cyfitter_cfg.o)
 .debug_line    0x00000707       0xb0 .\CortexM0\ARM_GCC_484\Debug\BLE Lab 2.a(SW2_Switch.o)
 .debug_line    0x000007b7      0x170 .\CortexM0\ARM_GCC_484\Debug\BLE Lab 2.a(Wakeup_ISR.o)
 .debug_line    0x00000927       0xbb .\CortexM0\ARM_GCC_484\Debug\BLE Lab 2.a(Led_Advertising_Green.o)
 .debug_line    0x000009e2       0xb8 .\CortexM0\ARM_GCC_484\Debug\BLE Lab 2.a(Led_Connected_Blue.o)
 .debug_line    0x00000a9a      0x1c7 .\CortexM0\ARM_GCC_484\Debug\BLE Lab 2.a(BLE_hrs.o)
 .debug_line    0x00000c61      0x26c .\CortexM0\ARM_GCC_484\Debug\BLE Lab 2.a(BLE.o)
 .debug_line    0x00000ecd      0x117 .\CortexM0\ARM_GCC_484\Debug\BLE Lab 2.a(BLE_gatt.o)
 .debug_line    0x00000fe4      0x22f .\CortexM0\ARM_GCC_484\Debug\BLE Lab 2.a(BLE_eventHandler.o)
 .debug_line    0x00001213       0xf0 .\CortexM0\ARM_GCC_484\Debug\BLE Lab 2.a(BLE_dis.o)
 .debug_line    0x00001303       0xc3 .\CortexM0\ARM_GCC_484\Debug\BLE Lab 2.a(Opamp.o)
 .debug_line    0x000013c6       0xa4 .\CortexM0\ARM_GCC_484\Debug\BLE Lab 2.a(Opamp_PM.o)
 .debug_line    0x0000146a      0x286 .\CortexM0\ARM_GCC_484\Debug\BLE Lab 2.a(ADC.o)
 .debug_line    0x000016f0       0xad .\CortexM0\ARM_GCC_484\Debug\BLE Lab 2.a(ADC_PM.o)
 .debug_line    0x0000179d       0x64 .\CortexM0\ARM_GCC_484\Debug\BLE Lab 2.a(ADC_INT.o)
 .debug_line    0x00001801       0x68 .\CortexM0\ARM_GCC_484\Debug\BLE Lab 2.a(CyBootAsmGnu.o)
 .debug_line    0x00001869      0x491 .\CortexM0\ARM_GCC_484\Debug\BLE Lab 2.a(CyLib.o)
 .debug_line    0x00001cfa      0x124 .\CortexM0\ARM_GCC_484\Debug\BLE Lab 2.a(cyPm.o)
 .debug_line    0x00001e1e      0x5a3 .\CortexM0\ARM_GCC_484\Debug\BLE Lab 2.a(CyLFClk.o)
 .debug_line    0x000023c1      0x1c4 .\CortexM0\ARM_GCC_484\Debug\BLE Lab 2.a(BLE_HAL_PVT.o)
 .debug_line    0x00002585      0x173 .\CortexM0\ARM_GCC_484\Debug\BLE Lab 2.a(BLE_bless_isr.o)
 .debug_line    0x000026f8      0x18c .\CortexM0\ARM_GCC_484\Debug\BLE Lab 2.a(CyFlash.o)
 .debug_line    0x00002884       0x58 .\CortexM0\ARM_GCC_484\Debug\BLE Lab 2.a(BLE_HAL_INT.o)

.debug_frame    0x00000000    0x15958
 *(.debug_frame)
 .debug_frame   0x00000000       0x50 .\CortexM0\ARM_GCC_484\Debug\main.o
 .debug_frame   0x00000050       0x34 .\CortexM0\ARM_GCC_484\Debug\HeartRateProcessing.o
 .debug_frame   0x00000084       0x74 .\CortexM0\ARM_GCC_484\Debug\BleProcessing.o
 .debug_frame   0x000000f8       0x64 .\CortexM0\ARM_GCC_484\Debug\WatchdogTimer.o
 .debug_frame   0x0000015c       0xc8 .\CortexM0\ARM_GCC_484\Debug\Cm0Start.o
 .debug_frame   0x00000224      0x108 .\CortexM0\ARM_GCC_484\Debug\BLE Lab 2.a(cyfitter_cfg.o)
 .debug_frame   0x0000032c       0xa8 .\CortexM0\ARM_GCC_484\Debug\BLE Lab 2.a(SW2_Switch.o)
 .debug_frame   0x000003d4      0x190 .\CortexM0\ARM_GCC_484\Debug\BLE Lab 2.a(Wakeup_ISR.o)
 .debug_frame   0x00000564       0xa8 .\CortexM0\ARM_GCC_484\Debug\BLE Lab 2.a(Led_Advertising_Green.o)
 .debug_frame   0x0000060c       0xa8 .\CortexM0\ARM_GCC_484\Debug\BLE Lab 2.a(Led_Connected_Blue.o)
 .debug_frame   0x000006b4       0xf4 .\CortexM0\ARM_GCC_484\Debug\BLE Lab 2.a(BLE_hrs.o)
 .debug_frame   0x000007a8      0x18c .\CortexM0\ARM_GCC_484\Debug\BLE Lab 2.a(BLE.o)
 .debug_frame   0x00000934       0x58 .\CortexM0\ARM_GCC_484\Debug\BLE Lab 2.a(BLE_gatt.o)
 .debug_frame   0x0000098c      0x12c .\CortexM0\ARM_GCC_484\Debug\BLE Lab 2.a(BLE_eventHandler.o)
 .debug_frame   0x00000ab8       0x8c .\CortexM0\ARM_GCC_484\Debug\BLE Lab 2.a(BLE_dis.o)
 .debug_frame   0x00000b44       0xc0 .\CortexM0\ARM_GCC_484\Debug\BLE Lab 2.a(Opamp.o)
 .debug_frame   0x00000c04       0x80 .\CortexM0\ARM_GCC_484\Debug\BLE Lab 2.a(Opamp_PM.o)
 .debug_frame   0x00000c84      0x24c .\CortexM0\ARM_GCC_484\Debug\BLE Lab 2.a(ADC.o)
 .debug_frame   0x00000ed0       0x80 .\CortexM0\ARM_GCC_484\Debug\BLE Lab 2.a(ADC_PM.o)
 .debug_frame   0x00000f50       0x30 .\CortexM0\ARM_GCC_484\Debug\BLE Lab 2.a(ADC_INT.o)
 .debug_frame   0x00000f80      0x5e0 .\CortexM0\ARM_GCC_484\Debug\BLE Lab 2.a(CyLib.o)
 .debug_frame   0x00001560      0x124 .\CortexM0\ARM_GCC_484\Debug\BLE Lab 2.a(cyPm.o)
 .debug_frame   0x00001684      0x51c .\CortexM0\ARM_GCC_484\Debug\BLE Lab 2.a(CyLFClk.o)
 .debug_frame   0x00001ba0       0x44 D:\program\CY8\PSoC Creator\3.2\PSoC Creator\psoc\content\cycomponentlibrary\CyComponentLibrary.cylib\BLE_v2_0\Library\gccCyBLEStack_BLE_SOC_PERIPHERAL.a(CyBle.o)
 .debug_frame   0x00001be4       0x54 D:\program\CY8\PSoC Creator\3.2\PSoC Creator\psoc\content\cycomponentlibrary\CyComponentLibrary.cylib\BLE_v2_0\Library\gccCyBLEStack_BLE_SOC_PERIPHERAL.a(CyBle.o)
 .debug_frame   0x00001c38       0x44 D:\program\CY8\PSoC Creator\3.2\PSoC Creator\psoc\content\cycomponentlibrary\CyComponentLibrary.cylib\BLE_v2_0\Library\gccCyBLEStack_BLE_SOC_PERIPHERAL.a(CyBle.o)
 .debug_frame   0x00001c7c       0x44 D:\program\CY8\PSoC Creator\3.2\PSoC Creator\psoc\content\cycomponentlibrary\CyComponentLibrary.cylib\BLE_v2_0\Library\gccCyBLEStack_BLE_SOC_PERIPHERAL.a(CyBle.o)
 .debug_frame   0x00001cc0       0x44 D:\program\CY8\PSoC Creator\3.2\PSoC Creator\psoc\content\cycomponentlibrary\CyComponentLibrary.cylib\BLE_v2_0\Library\gccCyBLEStack_BLE_SOC_PERIPHERAL.a(CyBle.o)
 .debug_frame   0x00001d04       0x44 D:\program\CY8\PSoC Creator\3.2\PSoC Creator\psoc\content\cycomponentlibrary\CyComponentLibrary.cylib\BLE_v2_0\Library\gccCyBLEStack_BLE_SOC_PERIPHERAL.a(CyBle.o)
 .debug_frame   0x00001d48       0x44 D:\program\CY8\PSoC Creator\3.2\PSoC Creator\psoc\content\cycomponentlibrary\CyComponentLibrary.cylib\BLE_v2_0\Library\gccCyBLEStack_BLE_SOC_PERIPHERAL.a(CyBle.o)
 .debug_frame   0x00001d8c       0x44 D:\program\CY8\PSoC Creator\3.2\PSoC Creator\psoc\content\cycomponentlibrary\CyComponentLibrary.cylib\BLE_v2_0\Library\gccCyBLEStack_BLE_SOC_PERIPHERAL.a(CyBle.o)
 .debug_frame   0x00001dd0       0x3c D:\program\CY8\PSoC Creator\3.2\PSoC Creator\psoc\content\cycomponentlibrary\CyComponentLibrary.cylib\BLE_v2_0\Library\gccCyBLEStack_BLE_SOC_PERIPHERAL.a(CyBle.o)
 .debug_frame   0x00001e0c       0x3c D:\program\CY8\PSoC Creator\3.2\PSoC Creator\psoc\content\cycomponentlibrary\CyComponentLibrary.cylib\BLE_v2_0\Library\gccCyBLEStack_BLE_SOC_PERIPHERAL.a(CyBleStackMgrIP_Interface.o)
 .debug_frame   0x00001e48       0x44 D:\program\CY8\PSoC Creator\3.2\PSoC Creator\psoc\content\cycomponentlibrary\CyComponentLibrary.cylib\BLE_v2_0\Library\gccCyBLEStack_BLE_SOC_PERIPHERAL.a(CyBleStackMgrIP_Interface.o)
 .debug_frame   0x00001e8c       0x48 D:\program\CY8\PSoC Creator\3.2\PSoC Creator\psoc\content\cycomponentlibrary\CyComponentLibrary.cylib\BLE_v2_0\Library\gccCyBLEStack_BLE_SOC_PERIPHERAL.a(CyBleStackMgrIP_Interface.o)
 .debug_frame   0x00001ed4       0x3c D:\program\CY8\PSoC Creator\3.2\PSoC Creator\psoc\content\cycomponentlibrary\CyComponentLibrary.cylib\BLE_v2_0\Library\gccCyBLEStack_BLE_SOC_PERIPHERAL.a(CyBleStackMgrIP_Interface.o)
 .debug_frame   0x00001f10       0x48 D:\program\CY8\PSoC Creator\3.2\PSoC Creator\psoc\content\cycomponentlibrary\CyComponentLibrary.cylib\BLE_v2_0\Library\gccCyBLEStack_BLE_SOC_PERIPHERAL.a(CyBleStackMgrIP_Interface.o)
 .debug_frame   0x00001f58       0x50 D:\program\CY8\PSoC Creator\3.2\PSoC Creator\psoc\content\cycomponentlibrary\CyComponentLibrary.cylib\BLE_v2_0\Library\gccCyBLEStack_BLE_SOC_PERIPHERAL.a(CyBleStackMgrIP_Interface.o)
 .debug_frame   0x00001fa8       0x44 D:\program\CY8\PSoC Creator\3.2\PSoC Creator\psoc\content\cycomponentlibrary\CyComponentLibrary.cylib\BLE_v2_0\Library\gccCyBLEStack_BLE_SOC_PERIPHERAL.a(CyBleStackMgrIP_Interface.o)
 .debug_frame   0x00001fec       0x44 D:\program\CY8\PSoC Creator\3.2\PSoC Creator\psoc\content\cycomponentlibrary\CyComponentLibrary.cylib\BLE_v2_0\Library\gccCyBLEStack_BLE_SOC_PERIPHERAL.a(CyBleStackMgrIP_Interface.o)
 .debug_frame   0x00002030       0x50 D:\program\CY8\PSoC Creator\3.2\PSoC Creator\psoc\content\cycomponentlibrary\CyComponentLibrary.cylib\BLE_v2_0\Library\gccCyBLEStack_BLE_SOC_PERIPHERAL.a(CyBleStackMgrIP_Interface.o)
 .debug_frame   0x00002080       0x4c D:\program\CY8\PSoC Creator\3.2\PSoC Creator\psoc\content\cycomponentlibrary\CyComponentLibrary.cylib\BLE_v2_0\Library\gccCyBLEStack_BLE_SOC_PERIPHERAL.a(BT_os.o)
 .debug_frame   0x000020cc       0x48 D:\program\CY8\PSoC Creator\3.2\PSoC Creator\psoc\content\cycomponentlibrary\CyComponentLibrary.cylib\BLE_v2_0\Library\gccCyBLEStack_BLE_SOC_PERIPHERAL.a(BT_os.o)
 .debug_frame   0x00002114       0x4c D:\program\CY8\PSoC Creator\3.2\PSoC Creator\psoc\content\cycomponentlibrary\CyComponentLibrary.cylib\BLE_v2_0\Library\gccCyBLEStack_BLE_SOC_PERIPHERAL.a(BT_os.o)
 .debug_frame   0x00002160       0x44 D:\program\CY8\PSoC Creator\3.2\PSoC Creator\psoc\content\cycomponentlibrary\CyComponentLibrary.cylib\BLE_v2_0\Library\gccCyBLEStack_BLE_SOC_PERIPHERAL.a(BT_os.o)
 .debug_frame   0x000021a4       0x44 D:\program\CY8\PSoC Creator\3.2\PSoC Creator\psoc\content\cycomponentlibrary\CyComponentLibrary.cylib\BLE_v2_0\Library\gccCyBLEStack_BLE_SOC_PERIPHERAL.a(BT_os.o)
 .debug_frame   0x000021e8       0x4c D:\program\CY8\PSoC Creator\3.2\PSoC Creator\psoc\content\cycomponentlibrary\CyComponentLibrary.cylib\BLE_v2_0\Library\gccCyBLEStack_BLE_SOC_PERIPHERAL.a(BT_os.o)
 .debug_frame   0x00002234       0x44 D:\program\CY8\PSoC Creator\3.2\PSoC Creator\psoc\content\cycomponentlibrary\CyComponentLibrary.cylib\BLE_v2_0\Library\gccCyBLEStack_BLE_SOC_PERIPHERAL.a(BT_os.o)
 .debug_frame   0x00002278       0x44 D:\program\CY8\PSoC Creator\3.2\PSoC Creator\psoc\content\cycomponentlibrary\CyComponentLibrary.cylib\BLE_v2_0\Library\gccCyBLEStack_BLE_SOC_PERIPHERAL.a(BT_os.o)
 .debug_frame   0x000022bc       0x3c D:\program\CY8\PSoC Creator\3.2\PSoC Creator\psoc\content\cycomponentlibrary\CyComponentLibrary.cylib\BLE_v2_0\Library\gccCyBLEStack_BLE_SOC_PERIPHERAL.a(CyBleStackMgr_StackTaskHandler.o)
 .debug_frame   0x000022f8       0x48 D:\program\CY8\PSoC Creator\3.2\PSoC Creator\psoc\content\cycomponentlibrary\CyComponentLibrary.cylib\BLE_v2_0\Library\gccCyBLEStack_BLE_SOC_PERIPHERAL.a(CyBleStackMgr_StackTaskHandler.o)
 .debug_frame   0x00002340       0x44 D:\program\CY8\PSoC Creator\3.2\PSoC Creator\psoc\content\cycomponentlibrary\CyComponentLibrary.cylib\BLE_v2_0\Library\gccCyBLEStack_BLE_SOC_PERIPHERAL.a(CyBleStackMgr_StackTaskHandler.o)
 .debug_frame   0x00002384       0x3c D:\program\CY8\PSoC Creator\3.2\PSoC Creator\psoc\content\cycomponentlibrary\CyComponentLibrary.cylib\BLE_v2_0\Library\gccCyBLEStack_BLE_SOC_PERIPHERAL.a(CyBleStackMgr_StackTaskHandler.o)
 .debug_frame   0x000023c0       0x48 D:\program\CY8\PSoC Creator\3.2\PSoC Creator\psoc\content\cycomponentlibrary\CyComponentLibrary.cylib\BLE_v2_0\Library\gccCyBLEStack_BLE_SOC_PERIPHERAL.a(CyBleStackMgr_StackTaskHandler.o)
 .debug_frame   0x00002408       0x48 D:\program\CY8\PSoC Creator\3.2\PSoC Creator\psoc\content\cycomponentlibrary\CyComponentLibrary.cylib\BLE_v2_0\Library\gccCyBLEStack_BLE_SOC_PERIPHERAL.a(CyBleStackMgr_StackTaskHandler.o)
                0x00002408                __ARM_grp_.debug_frame$__ARM_common_switch8
 .debug_frame   0x00002450       0x3c D:\program\CY8\PSoC Creator\3.2\PSoC Creator\psoc\content\cycomponentlibrary\CyComponentLibrary.cylib\BLE_v2_0\Library\gccCyBLEStack_BLE_SOC_PERIPHERAL.a(transport_sf.o)
 .debug_frame   0x0000248c       0x48 D:\program\CY8\PSoC Creator\3.2\PSoC Creator\psoc\content\cycomponentlibrary\CyComponentLibrary.cylib\BLE_v2_0\Library\gccCyBLEStack_BLE_SOC_PERIPHERAL.a(transport_sf.o)
 .debug_frame   0x000024d4       0x3c D:\program\CY8\PSoC Creator\3.2\PSoC Creator\psoc\content\cycomponentlibrary\CyComponentLibrary.cylib\BLE_v2_0\Library\gccCyBLEStack_BLE_SOC_PERIPHERAL.a(transport_sf.o)
 .debug_frame   0x00002510       0x3c D:\program\CY8\PSoC Creator\3.2\PSoC Creator\psoc\content\cycomponentlibrary\CyComponentLibrary.cylib\BLE_v2_0\Library\gccCyBLEStack_BLE_SOC_PERIPHERAL.a(transport_sf.o)
 .debug_frame   0x0000254c       0x3c D:\program\CY8\PSoC Creator\3.2\PSoC Creator\psoc\content\cycomponentlibrary\CyComponentLibrary.cylib\BLE_v2_0\Library\gccCyBLEStack_BLE_SOC_PERIPHERAL.a(transport_sf.o)
 .debug_frame   0x00002588       0x3c D:\program\CY8\PSoC Creator\3.2\PSoC Creator\psoc\content\cycomponentlibrary\CyComponentLibrary.cylib\BLE_v2_0\Library\gccCyBLEStack_BLE_SOC_PERIPHERAL.a(transport_sf.o)
 .debug_frame   0x000025c4       0x3c D:\program\CY8\PSoC Creator\3.2\PSoC Creator\psoc\content\cycomponentlibrary\CyComponentLibrary.cylib\BLE_v2_0\Library\gccCyBLEStack_BLE_SOC_PERIPHERAL.a(transport_sf.o)
 .debug_frame   0x00002600       0x3c D:\program\CY8\PSoC Creator\3.2\PSoC Creator\psoc\content\cycomponentlibrary\CyComponentLibrary.cylib\BLE_v2_0\Library\gccCyBLEStack_BLE_SOC_PERIPHERAL.a(transport_sf.o)
 .debug_frame   0x0000263c       0x48 D:\program\CY8\PSoC Creator\3.2\PSoC Creator\psoc\content\cycomponentlibrary\CyComponentLibrary.cylib\BLE_v2_0\Library\gccCyBLEStack_BLE_SOC_PERIPHERAL.a(transport_sf.o)
 .debug_frame   0x00002684       0x50 D:\program\CY8\PSoC Creator\3.2\PSoC Creator\psoc\content\cycomponentlibrary\CyComponentLibrary.cylib\BLE_v2_0\Library\gccCyBLEStack_BLE_SOC_PERIPHERAL.a(transport_sf.o)
 .debug_frame   0x000026d4       0x3c D:\program\CY8\PSoC Creator\3.2\PSoC Creator\psoc\content\cycomponentlibrary\CyComponentLibrary.cylib\BLE_v2_0\Library\gccCyBLEStack_BLE_SOC_PERIPHERAL.a(CyBleStackMgr_PSoCHal.o)
 .debug_frame   0x00002710       0x48 D:\program\CY8\PSoC Creator\3.2\PSoC Creator\psoc\content\cycomponentlibrary\CyComponentLibrary.cylib\BLE_v2_0\Library\gccCyBLEStack_BLE_SOC_PERIPHERAL.a(CyBleStackMgr_PSoCHal.o)
 .debug_frame   0x00002758       0x44 D:\program\CY8\PSoC Creator\3.2\PSoC Creator\psoc\content\cycomponentlibrary\CyComponentLibrary.cylib\BLE_v2_0\Library\gccCyBLEStack_BLE_SOC_PERIPHERAL.a(CyBleStackMgr_PSoCHal.o)
 .debug_frame   0x0000279c       0x3c D:\program\CY8\PSoC Creator\3.2\PSoC Creator\psoc\content\cycomponentlibrary\CyComponentLibrary.cylib\BLE_v2_0\Library\gccCyBLEStack_BLE_SOC_PERIPHERAL.a(CyBleStackMgr_PSoCHal.o)
 .debug_frame   0x000027d8       0x3c D:\program\CY8\PSoC Creator\3.2\PSoC Creator\psoc\content\cycomponentlibrary\CyComponentLibrary.cylib\BLE_v2_0\Library\gccCyBLEStack_BLE_SOC_PERIPHERAL.a(CyBleStackMgr_PSoCHal.o)
 .debug_frame   0x00002814       0x44 D:\program\CY8\PSoC Creator\3.2\PSoC Creator\psoc\content\cycomponentlibrary\CyComponentLibrary.cylib\BLE_v2_0\Library\gccCyBLEStack_BLE_SOC_PERIPHERAL.a(CyBleStackMgr_PSoCHal.o)
 .debug_frame   0x00002858       0x44 D:\program\CY8\PSoC Creator\3.2\PSoC Creator\psoc\content\cycomponentlibrary\CyComponentLibrary.cylib\BLE_v2_0\Library\gccCyBLEStack_BLE_SOC_PERIPHERAL.a(CyBleStackMgr_PSoCHal.o)
 .debug_frame   0x0000289c       0x44 D:\program\CY8\PSoC Creator\3.2\PSoC Creator\psoc\content\cycomponentlibrary\CyComponentLibrary.cylib\BLE_v2_0\Library\gccCyBLEStack_BLE_SOC_PERIPHERAL.a(CyBleStackMgr_PSoCHal.o)
 .debug_frame   0x000028e0       0x3c D:\program\CY8\PSoC Creator\3.2\PSoC Creator\psoc\content\cycomponentlibrary\CyComponentLibrary.cylib\BLE_v2_0\Library\gccCyBLEStack_BLE_SOC_PERIPHERAL.a(CyBleStackMgr_PSoCHal.o)
 .debug_frame   0x0000291c       0x44 D:\program\CY8\PSoC Creator\3.2\PSoC Creator\psoc\content\cycomponentlibrary\CyComponentLibrary.cylib\BLE_v2_0\Library\gccCyBLEStack_BLE_SOC_PERIPHERAL.a(CyBleStackMgr_PSoCHal.o)
 .debug_frame   0x00002960       0x44 D:\program\CY8\PSoC Creator\3.2\PSoC Creator\psoc\content\cycomponentlibrary\CyComponentLibrary.cylib\BLE_v2_0\Library\gccCyBLEStack_BLE_SOC_PERIPHERAL.a(CyBleStackMgr_PSoCHal.o)
 .debug_frame   0x000029a4       0x3c D:\program\CY8\PSoC Creator\3.2\PSoC Creator\psoc\content\cycomponentlibrary\CyComponentLibrary.cylib\BLE_v2_0\Library\gccCyBLEStack_BLE_SOC_PERIPHERAL.a(CyBleStackMgr_PSoCHal.o)
 .debug_frame   0x000029e0       0x3c D:\program\CY8\PSoC Creator\3.2\PSoC Creator\psoc\content\cycomponentlibrary\CyComponentLibrary.cylib\BLE_v2_0\Library\gccCyBLEStack_BLE_SOC_PERIPHERAL.a(CyBleStackMgr_PSoCHal.o)
 .debug_frame   0x00002a1c       0x44 D:\program\CY8\PSoC Creator\3.2\PSoC Creator\psoc\content\cycomponentlibrary\CyComponentLibrary.cylib\BLE_v2_0\Library\gccCyBLEStack_BLE_SOC_PERIPHERAL.a(CyBleStackMgr_PSoCHal.o)
 .debug_frame   0x00002a60       0x3c D:\program\CY8\PSoC Creator\3.2\PSoC Creator\psoc\content\cycomponentlibrary\CyComponentLibrary.cylib\BLE_v2_0\Library\gccCyBLEStack_BLE_SOC_PERIPHERAL.a(CyBleStackMgr_BleSSDriver.o)
 .debug_frame   0x00002a9c       0x4c D:\program\CY8\PSoC Creator\3.2\PSoC Creator\psoc\content\cycomponentlibrary\CyComponentLibrary.cylib\BLE_v2_0\Library\gccCyBLEStack_BLE_SOC_PERIPHERAL.a(CyBleStackMgr_BleSSDriver.o)
 .debug_frame   0x00002ae8       0x44 D:\program\CY8\PSoC Creator\3.2\PSoC Creator\psoc\content\cycomponentlibrary\CyComponentLibrary.cylib\BLE_v2_0\Library\gccCyBLEStack_BLE_SOC_PERIPHERAL.a(CyBleStackMgr_BleSSDriver.o)
 .debug_frame   0x00002b2c       0x44 D:\program\CY8\PSoC Creator\3.2\PSoC Creator\psoc\content\cycomponentlibrary\CyComponentLibrary.cylib\BLE_v2_0\Library\gccCyBLEStack_BLE_SOC_PERIPHERAL.a(CyBleStackMgr_BleSSDriver.o)
 .debug_frame   0x00002b70       0x48 D:\program\CY8\PSoC Creator\3.2\PSoC Creator\psoc\content\cycomponentlibrary\CyComponentLibrary.cylib\BLE_v2_0\Library\gccCyBLEStack_BLE_SOC_PERIPHERAL.a(CyBleStackMgr_BleSSDriver.o)
 .debug_frame   0x00002bb8       0x3c D:\program\CY8\PSoC Creator\3.2\PSoC Creator\psoc\content\cycomponentlibrary\CyComponentLibrary.cylib\BLE_v2_0\Library\gccCyBLEStack_BLE_SOC_PERIPHERAL.a(CyBleStackMgr_BleSSDriver.o)
 .debug_frame   0x00002bf4       0x44 D:\program\CY8\PSoC Creator\3.2\PSoC Creator\psoc\content\cycomponentlibrary\CyComponentLibrary.cylib\BLE_v2_0\Library\gccCyBLEStack_BLE_SOC_PERIPHERAL.a(CyBleStackMgr_BleSSDriver.o)
 .debug_frame   0x00002c38       0x44 D:\program\CY8\PSoC Creator\3.2\PSoC Creator\psoc\content\cycomponentlibrary\CyComponentLibrary.cylib\BLE_v2_0\Library\gccCyBLEStack_BLE_SOC_PERIPHERAL.a(CyBleStackMgr_BleSSDriver.o)
 .debug_frame   0x00002c7c       0x44 D:\program\CY8\PSoC Creator\3.2\PSoC Creator\psoc\content\cycomponentlibrary\CyComponentLibrary.cylib\BLE_v2_0\Library\gccCyBLEStack_BLE_SOC_PERIPHERAL.a(CyBleStackMgr_BleSSDriver.o)
 .debug_frame   0x00002cc0       0x44 D:\program\CY8\PSoC Creator\3.2\PSoC Creator\psoc\content\cycomponentlibrary\CyComponentLibrary.cylib\BLE_v2_0\Library\gccCyBLEStack_BLE_SOC_PERIPHERAL.a(CyBleStackMgr_BleSSDriver.o)
 .debug_frame   0x00002d04       0x3c D:\program\CY8\PSoC Creator\3.2\PSoC Creator\psoc\content\cycomponentlibrary\CyComponentLibrary.cylib\BLE_v2_0\Library\gccCyBLEStack_BLE_SOC_PERIPHERAL.a(CyBleStackMgr_BleSSDriver.o)
 .debug_frame   0x00002d40       0x44 D:\program\CY8\PSoC Creator\3.2\PSoC Creator\psoc\content\cycomponentlibrary\CyComponentLibrary.cylib\BLE_v2_0\Library\gccCyBLEStack_BLE_SOC_PERIPHERAL.a(CyBleStackMgr_BleSSDriver.o)
 .debug_frame   0x00002d84       0x3c D:\program\CY8\PSoC Creator\3.2\PSoC Creator\psoc\content\cycomponentlibrary\CyComponentLibrary.cylib\BLE_v2_0\Library\gccCyBLEStack_BLE_SOC_PERIPHERAL.a(CyBleStackMgr_BleSSDriver.o)
 .debug_frame   0x00002dc0       0x3c D:\program\CY8\PSoC Creator\3.2\PSoC Creator\psoc\content\cycomponentlibrary\CyComponentLibrary.cylib\BLE_v2_0\Library\gccCyBLEStack_BLE_SOC_PERIPHERAL.a(CyBleStackMgr_BleSSDriver.o)
 .debug_frame   0x00002dfc       0x44 D:\program\CY8\PSoC Creator\3.2\PSoC Creator\psoc\content\cycomponentlibrary\CyComponentLibrary.cylib\BLE_v2_0\Library\gccCyBLEStack_BLE_SOC_PERIPHERAL.a(CyBleStackMgr_BleSSDriver.o)
 .debug_frame   0x00002e40       0x3c D:\program\CY8\PSoC Creator\3.2\PSoC Creator\psoc\content\cycomponentlibrary\CyComponentLibrary.cylib\BLE_v2_0\Library\gccCyBLEStack_BLE_SOC_PERIPHERAL.a(CyBleStackMgr_BleSSDriver.o)
 .debug_frame   0x00002e7c       0x3c D:\program\CY8\PSoC Creator\3.2\PSoC Creator\psoc\content\cycomponentlibrary\CyComponentLibrary.cylib\BLE_v2_0\Library\gccCyBLEStack_BLE_SOC_PERIPHERAL.a(CyBleStackMgr_BleSSDriver.o)
 .debug_frame   0x00002eb8       0x3c D:\program\CY8\PSoC Creator\3.2\PSoC Creator\psoc\content\cycomponentlibrary\CyComponentLibrary.cylib\BLE_v2_0\Library\gccCyBLEStack_BLE_SOC_PERIPHERAL.a(CyBleStackMgr_BleSSDriver.o)
 .debug_frame   0x00002ef4       0x3c D:\program\CY8\PSoC Creator\3.2\PSoC Creator\psoc\content\cycomponentlibrary\CyComponentLibrary.cylib\BLE_v2_0\Library\gccCyBLEStack_BLE_SOC_PERIPHERAL.a(CyBleStackMgr_BleSSDriver.o)
 .debug_frame   0x00002f30       0x48 D:\program\CY8\PSoC Creator\3.2\PSoC Creator\psoc\content\cycomponentlibrary\CyComponentLibrary.cylib\BLE_v2_0\Library\gccCyBLEStack_BLE_SOC_PERIPHERAL.a(CyBleStackMgr_BleSSDriver.o)
 .debug_frame   0x00002f78       0x48 D:\program\CY8\PSoC Creator\3.2\PSoC Creator\psoc\content\cycomponentlibrary\CyComponentLibrary.cylib\BLE_v2_0\Library\gccCyBLEStack_BLE_SOC_PERIPHERAL.a(CyBleStackMgr_BleSSDriver.o)
 .debug_frame   0x00002fc0       0x48 D:\program\CY8\PSoC Creator\3.2\PSoC Creator\psoc\content\cycomponentlibrary\CyComponentLibrary.cylib\BLE_v2_0\Library\gccCyBLEStack_BLE_SOC_PERIPHERAL.a(CyBleStackMgr_BleSSDriver.o)
 .debug_frame   0x00003008       0x48 D:\program\CY8\PSoC Creator\3.2\PSoC Creator\psoc\content\cycomponentlibrary\CyComponentLibrary.cylib\BLE_v2_0\Library\gccCyBLEStack_BLE_SOC_PERIPHERAL.a(CyBleStackMgr_BleSSDriver.o)
 .debug_frame   0x00003050       0x3c D:\program\CY8\PSoC Creator\3.2\PSoC Creator\psoc\content\cycomponentlibrary\CyComponentLibrary.cylib\BLE_v2_0\Library\gccCyBLEStack_BLE_SOC_PERIPHERAL.a(CyBleStackMgr_BleSSDriver.o)
 .debug_frame   0x0000308c       0x3c D:\program\CY8\PSoC Creator\3.2\PSoC Creator\psoc\content\cycomponentlibrary\CyComponentLibrary.cylib\BLE_v2_0\Library\gccCyBLEStack_BLE_SOC_PERIPHERAL.a(CyBleStackMgr_BleSSDriver.o)
 .debug_frame   0x000030c8       0x44 D:\program\CY8\PSoC Creator\3.2\PSoC Creator\psoc\content\cycomponentlibrary\CyComponentLibrary.cylib\BLE_v2_0\Library\gccCyBLEStack_BLE_SOC_PERIPHERAL.a(CyBleStackMgr_BleSSDriver.o)
 .debug_frame   0x0000310c       0x4c D:\program\CY8\PSoC Creator\3.2\PSoC Creator\psoc\content\cycomponentlibrary\CyComponentLibrary.cylib\BLE_v2_0\Library\gccCyBLEStack_BLE_SOC_PERIPHERAL.a(CyBleStackMgr_BleSSDriver.o)
 .debug_frame   0x00003158       0x3c D:\program\CY8\PSoC Creator\3.2\PSoC Creator\psoc\content\cycomponentlibrary\CyComponentLibrary.cylib\BLE_v2_0\Library\gccCyBLEStack_BLE_SOC_PERIPHERAL.a(CyBleStackMgr_BleSSDriver.o)
 .debug_frame   0x00003194       0x44 D:\program\CY8\PSoC Creator\3.2\PSoC Creator\psoc\content\cycomponentlibrary\CyComponentLibrary.cylib\BLE_v2_0\Library\gccCyBLEStack_BLE_SOC_PERIPHERAL.a(CyBleStackMgr_BleSSDriver.o)
 .debug_frame   0x000031d8       0x3c D:\program\CY8\PSoC Creator\3.2\PSoC Creator\psoc\content\cycomponentlibrary\CyComponentLibrary.cylib\BLE_v2_0\Library\gccCyBLEStack_BLE_SOC_PERIPHERAL.a(CyBleStackMgr_BleSSDriver.o)
 .debug_frame   0x00003214       0x48 D:\program\CY8\PSoC Creator\3.2\PSoC Creator\psoc\content\cycomponentlibrary\CyComponentLibrary.cylib\BLE_v2_0\Library\gccCyBLEStack_BLE_SOC_PERIPHERAL.a(CyBleStackMgr_BleSSDriver.o)
 .debug_frame   0x0000325c       0x3c D:\program\CY8\PSoC Creator\3.2\PSoC Creator\psoc\content\cycomponentlibrary\CyComponentLibrary.cylib\BLE_v2_0\Library\gccCyBLEStack_BLE_SOC_PERIPHERAL.a(CyBleStackMgr_BleSSDriver.o)
 .debug_frame   0x00003298       0x44 D:\program\CY8\PSoC Creator\3.2\PSoC Creator\psoc\content\cycomponentlibrary\CyComponentLibrary.cylib\BLE_v2_0\Library\gccCyBLEStack_BLE_SOC_PERIPHERAL.a(mint_os.o)
 .debug_frame   0x000032dc       0x3c D:\program\CY8\PSoC Creator\3.2\PSoC Creator\psoc\content\cycomponentlibrary\CyComponentLibrary.cylib\BLE_v2_0\Library\gccCyBLEStack_BLE_SOC_PERIPHERAL.a(mint_os.o)
 .debug_frame   0x00003318       0x44 D:\program\CY8\PSoC Creator\3.2\PSoC Creator\psoc\content\cycomponentlibrary\CyComponentLibrary.cylib\BLE_v2_0\Library\gccCyBLEStack_BLE_SOC_PERIPHERAL.a(mint_os.o)
 .debug_frame   0x0000335c       0x3c D:\program\CY8\PSoC Creator\3.2\PSoC Creator\psoc\content\cycomponentlibrary\CyComponentLibrary.cylib\BLE_v2_0\Library\gccCyBLEStack_BLE_SOC_PERIPHERAL.a(mint_os.o)
 .debug_frame   0x00003398       0x3c D:\program\CY8\PSoC Creator\3.2\PSoC Creator\psoc\content\cycomponentlibrary\CyComponentLibrary.cylib\BLE_v2_0\Library\gccCyBLEStack_BLE_SOC_PERIPHERAL.a(mint_os.o)
 .debug_frame   0x000033d4       0x4c D:\program\CY8\PSoC Creator\3.2\PSoC Creator\psoc\content\cycomponentlibrary\CyComponentLibrary.cylib\BLE_v2_0\Library\gccCyBLEStack_BLE_SOC_PERIPHERAL.a(mint_os_queue.o)
 .debug_frame   0x00003420       0x3c D:\program\CY8\PSoC Creator\3.2\PSoC Creator\psoc\content\cycomponentlibrary\CyComponentLibrary.cylib\BLE_v2_0\Library\gccCyBLEStack_BLE_SOC_PERIPHERAL.a(mint_os_queue.o)
 .debug_frame   0x0000345c       0x4c D:\program\CY8\PSoC Creator\3.2\PSoC Creator\psoc\content\cycomponentlibrary\CyComponentLibrary.cylib\BLE_v2_0\Library\gccCyBLEStack_BLE_SOC_PERIPHERAL.a(mint_os_queue.o)
 .debug_frame   0x000034a8       0x4c D:\program\CY8\PSoC Creator\3.2\PSoC Creator\psoc\content\cycomponentlibrary\CyComponentLibrary.cylib\BLE_v2_0\Library\gccCyBLEStack_BLE_SOC_PERIPHERAL.a(mint_os_queue.o)
 .debug_frame   0x000034f4       0x4c D:\program\CY8\PSoC Creator\3.2\PSoC Creator\psoc\content\cycomponentlibrary\CyComponentLibrary.cylib\BLE_v2_0\Library\gccCyBLEStack_BLE_SOC_PERIPHERAL.a(mint_os_queue.o)
 .debug_frame   0x00003540       0x3c D:\program\CY8\PSoC Creator\3.2\PSoC Creator\psoc\content\cycomponentlibrary\CyComponentLibrary.cylib\BLE_v2_0\Library\gccCyBLEStack_BLE_SOC_PERIPHERAL.a(mint_os_queue.o)
 .debug_frame   0x0000357c       0x4c D:\program\CY8\PSoC Creator\3.2\PSoC Creator\psoc\content\cycomponentlibrary\CyComponentLibrary.cylib\BLE_v2_0\Library\gccCyBLEStack_BLE_SOC_PERIPHERAL.a(mint_os_task.o)
 .debug_frame   0x000035c8       0x4c D:\program\CY8\PSoC Creator\3.2\PSoC Creator\psoc\content\cycomponentlibrary\CyComponentLibrary.cylib\BLE_v2_0\Library\gccCyBLEStack_BLE_SOC_PERIPHERAL.a(mint_os_task.o)
 .debug_frame   0x00003614       0x48 D:\program\CY8\PSoC Creator\3.2\PSoC Creator\psoc\content\cycomponentlibrary\CyComponentLibrary.cylib\BLE_v2_0\Library\gccCyBLEStack_BLE_SOC_PERIPHERAL.a(mint_os_task.o)
 .debug_frame   0x0000365c       0x4c D:\program\CY8\PSoC Creator\3.2\PSoC Creator\psoc\content\cycomponentlibrary\CyComponentLibrary.cylib\BLE_v2_0\Library\gccCyBLEStack_BLE_SOC_PERIPHERAL.a(mint_os_task.o)
 .debug_frame   0x000036a8       0x48 D:\program\CY8\PSoC Creator\3.2\PSoC Creator\psoc\content\cycomponentlibrary\CyComponentLibrary.cylib\BLE_v2_0\Library\gccCyBLEStack_BLE_SOC_PERIPHERAL.a(mint_os_task.o)
 .debug_frame   0x000036f0       0x3c D:\program\CY8\PSoC Creator\3.2\PSoC Creator\psoc\content\cycomponentlibrary\CyComponentLibrary.cylib\BLE_v2_0\Library\gccCyBLEStack_BLE_SOC_PERIPHERAL.a(mint_os_task.o)
 .debug_frame   0x0000372c       0x4c D:\program\CY8\PSoC Creator\3.2\PSoC Creator\psoc\content\cycomponentlibrary\CyComponentLibrary.cylib\BLE_v2_0\Library\gccCyBLEStack_BLE_SOC_PERIPHERAL.a(mint_os_task.o)
 .debug_frame   0x00003778       0x4c D:\program\CY8\PSoC Creator\3.2\PSoC Creator\psoc\content\cycomponentlibrary\CyComponentLibrary.cylib\BLE_v2_0\Library\gccCyBLEStack_BLE_SOC_PERIPHERAL.a(mint_buf_mgmt.o)
 .debug_frame   0x000037c4       0x4c D:\program\CY8\PSoC Creator\3.2\PSoC Creator\psoc\content\cycomponentlibrary\CyComponentLibrary.cylib\BLE_v2_0\Library\gccCyBLEStack_BLE_SOC_PERIPHERAL.a(mint_buf_mgmt.o)
 .debug_frame   0x00003810       0x48 D:\program\CY8\PSoC Creator\3.2\PSoC Creator\psoc\content\cycomponentlibrary\CyComponentLibrary.cylib\BLE_v2_0\Library\gccCyBLEStack_BLE_SOC_PERIPHERAL.a(mint_buf_mgmt.o)
 .debug_frame   0x00003858       0x44 D:\program\CY8\PSoC Creator\3.2\PSoC Creator\psoc\content\cycomponentlibrary\CyComponentLibrary.cylib\BLE_v2_0\Library\gccCyBLEStack_BLE_SOC_PERIPHERAL.a(mint_buf_mgmt.o)
 .debug_frame   0x0000389c       0x48 D:\program\CY8\PSoC Creator\3.2\PSoC Creator\psoc\content\cycomponentlibrary\CyComponentLibrary.cylib\BLE_v2_0\Library\gccCyBLEStack_BLE_SOC_PERIPHERAL.a(mint_buf_mgmt.o)
 .debug_frame   0x000038e4       0x50 D:\program\CY8\PSoC Creator\3.2\PSoC Creator\psoc\content\cycomponentlibrary\CyComponentLibrary.cylib\BLE_v2_0\Library\gccCyBLEStack_BLE_SOC_PERIPHERAL.a(mint_buf_mgmt.o)
 .debug_frame   0x00003934       0x44 D:\program\CY8\PSoC Creator\3.2\PSoC Creator\psoc\content\cycomponentlibrary\CyComponentLibrary.cylib\BLE_v2_0\Library\gccCyBLEStack_BLE_SOC_PERIPHERAL.a(mint_buf_mgmt.o)
 .debug_frame   0x00003978       0x4c D:\program\CY8\PSoC Creator\3.2\PSoC Creator\psoc\content\cycomponentlibrary\CyComponentLibrary.cylib\BLE_v2_0\Library\gccCyBLEStack_BLE_SOC_PERIPHERAL.a(mint_buf_mgmt.o)
 .debug_frame   0x000039c4       0x48 D:\program\CY8\PSoC Creator\3.2\PSoC Creator\psoc\content\cycomponentlibrary\CyComponentLibrary.cylib\BLE_v2_0\Library\gccCyBLEStack_BLE_SOC_PERIPHERAL.a(mint_buf_mgmt.o)
 .debug_frame   0x00003a0c       0x48 D:\program\CY8\PSoC Creator\3.2\PSoC Creator\psoc\content\cycomponentlibrary\CyComponentLibrary.cylib\BLE_v2_0\Library\gccCyBLEStack_BLE_SOC_PERIPHERAL.a(mint_buf_mgmt.o)
 .debug_frame   0x00003a54       0x4c D:\program\CY8\PSoC Creator\3.2\PSoC Creator\psoc\content\cycomponentlibrary\CyComponentLibrary.cylib\BLE_v2_0\Library\gccCyBLEStack_BLE_SOC_PERIPHERAL.a(mint_buf_mgmt.o)
 .debug_frame   0x00003aa0       0x4c D:\program\CY8\PSoC Creator\3.2\PSoC Creator\psoc\content\cycomponentlibrary\CyComponentLibrary.cylib\BLE_v2_0\Library\gccCyBLEStack_BLE_SOC_PERIPHERAL.a(mint_buf_mgmt.o)
 .debug_frame   0x00003aec       0x3c D:\program\CY8\PSoC Creator\3.2\PSoC Creator\psoc\content\cycomponentlibrary\CyComponentLibrary.cylib\BLE_v2_0\Library\gccCyBLEStack_BLE_SOC_PERIPHERAL.a(mint_buf_mgmt.o)
 .debug_frame   0x00003b28       0x3c D:\program\CY8\PSoC Creator\3.2\PSoC Creator\psoc\content\cycomponentlibrary\CyComponentLibrary.cylib\BLE_v2_0\Library\gccCyBLEStack_BLE_SOC_PERIPHERAL.a(mint_buf_mgmt.o)
 .debug_frame   0x00003b64       0x44 D:\program\CY8\PSoC Creator\3.2\PSoC Creator\psoc\content\cycomponentlibrary\CyComponentLibrary.cylib\BLE_v2_0\Library\gccCyBLEStack_BLE_SOC_PERIPHERAL.a(CyBleControllerIP_Interface.o)
 .debug_frame   0x00003ba8       0x3c D:\program\CY8\PSoC Creator\3.2\PSoC Creator\psoc\content\cycomponentlibrary\CyComponentLibrary.cylib\BLE_v2_0\Library\gccCyBLEStack_BLE_SOC_PERIPHERAL.a(CyBleControllerIP_Interface.o)
 .debug_frame   0x00003be4       0x44 D:\program\CY8\PSoC Creator\3.2\PSoC Creator\psoc\content\cycomponentlibrary\CyComponentLibrary.cylib\BLE_v2_0\Library\gccCyBLEStack_BLE_SOC_PERIPHERAL.a(CyBleControllerIP_Interface.o)
 .debug_frame   0x00003c28       0x44 D:\program\CY8\PSoC Creator\3.2\PSoC Creator\psoc\content\cycomponentlibrary\CyComponentLibrary.cylib\BLE_v2_0\Library\gccCyBLEStack_BLE_SOC_PERIPHERAL.a(CyBleControllerIP_Interface.o)
 .debug_frame   0x00003c6c       0x44 D:\program\CY8\PSoC Creator\3.2\PSoC Creator\psoc\content\cycomponentlibrary\CyComponentLibrary.cylib\BLE_v2_0\Library\gccCyBLEStack_BLE_SOC_PERIPHERAL.a(CyBleControllerIP_Interface.o)
 .debug_frame   0x00003cb0       0x44 D:\program\CY8\PSoC Creator\3.2\PSoC Creator\psoc\content\cycomponentlibrary\CyComponentLibrary.cylib\BLE_v2_0\Library\gccCyBLEStack_BLE_SOC_PERIPHERAL.a(CyBleControllerIP_Interface.o)
 .debug_frame   0x00003cf4       0x48 D:\program\CY8\PSoC Creator\3.2\PSoC Creator\psoc\content\cycomponentlibrary\CyComponentLibrary.cylib\BLE_v2_0\Library\gccCyBLEStack_BLE_SOC_PERIPHERAL.a(CyBleControllerIP_Interface.o)
 .debug_frame   0x00003d3c       0x48 D:\program\CY8\PSoC Creator\3.2\PSoC Creator\psoc\content\cycomponentlibrary\CyComponentLibrary.cylib\BLE_v2_0\Library\gccCyBLEStack_BLE_SOC_PERIPHERAL.a(CyBleControllerIP_Interface.o)
 .debug_frame   0x00003d84       0x48 D:\program\CY8\PSoC Creator\3.2\PSoC Creator\psoc\content\cycomponentlibrary\CyComponentLibrary.cylib\BLE_v2_0\Library\gccCyBLEStack_BLE_SOC_PERIPHERAL.a(CyBleControllerIP_Interface.o)
 .debug_frame   0x00003dcc       0x50 D:\program\CY8\PSoC Creator\3.2\PSoC Creator\psoc\content\cycomponentlibrary\CyComponentLibrary.cylib\BLE_v2_0\Library\gccCyBLEStack_BLE_SOC_PERIPHERAL.a(CyBleControllerIP_Interface.o)
 .debug_frame   0x00003e1c       0x3c D:\program\CY8\PSoC Creator\3.2\PSoC Creator\psoc\content\cycomponentlibrary\CyComponentLibrary.cylib\BLE_v2_0\Library\gccCyBLEStack_BLE_SOC_PERIPHERAL.a(CyBleControllerIP_Interface.o)
 .debug_frame   0x00003e58       0x4c D:\program\CY8\PSoC Creator\3.2\PSoC Creator\psoc\content\cycomponentlibrary\CyComponentLibrary.cylib\BLE_v2_0\Library\gccCyBLEStack_BLE_SOC_PERIPHERAL.a(CyBleControllerIP_Interface.o)
 .debug_frame   0x00003ea4       0x3c D:\program\CY8\PSoC Creator\3.2\PSoC Creator\psoc\content\cycomponentlibrary\CyComponentLibrary.cylib\BLE_v2_0\Library\gccCyBLEStack_BLE_SOC_PERIPHERAL.a(CyBleControllerIP_Interface.o)
 .debug_frame   0x00003ee0       0x4c D:\program\CY8\PSoC Creator\3.2\PSoC Creator\psoc\content\cycomponentlibrary\CyComponentLibrary.cylib\BLE_v2_0\Library\gccCyBLEStack_BLE_SOC_PERIPHERAL.a(CyBleControllerIP_Interface.o)
 .debug_frame   0x00003f2c       0x48 D:\program\CY8\PSoC Creator\3.2\PSoC Creator\psoc\content\cycomponentlibrary\CyComponentLibrary.cylib\BLE_v2_0\Library\gccCyBLEStack_BLE_SOC_PERIPHERAL.a(CyBleControllerIP_Interface.o)
 .debug_frame   0x00003f74       0x48 D:\program\CY8\PSoC Creator\3.2\PSoC Creator\psoc\content\cycomponentlibrary\CyComponentLibrary.cylib\BLE_v2_0\Library\gccCyBLEStack_BLE_SOC_PERIPHERAL.a(CyBleControllerIP_Interface.o)
 .debug_frame   0x00003fbc       0x50 D:\program\CY8\PSoC Creator\3.2\PSoC Creator\psoc\content\cycomponentlibrary\CyComponentLibrary.cylib\BLE_v2_0\Library\gccCyBLEStack_BLE_SOC_PERIPHERAL.a(CyBleControllerIP_Interface.o)
 .debug_frame   0x0000400c       0x54 D:\program\CY8\PSoC Creator\3.2\PSoC Creator\psoc\content\cycomponentlibrary\CyComponentLibrary.cylib\BLE_v2_0\Library\gccCyBLEStack_BLE_SOC_PERIPHERAL.a(CyBleControllerIP_Interface.o)
 .debug_frame   0x00004060       0x48 D:\program\CY8\PSoC Creator\3.2\PSoC Creator\psoc\content\cycomponentlibrary\CyComponentLibrary.cylib\BLE_v2_0\Library\gccCyBLEStack_BLE_SOC_PERIPHERAL.a(CyBleControllerIP_Interface.o)
 .debug_frame   0x000040a8       0x48 D:\program\CY8\PSoC Creator\3.2\PSoC Creator\psoc\content\cycomponentlibrary\CyComponentLibrary.cylib\BLE_v2_0\Library\gccCyBLEStack_BLE_SOC_PERIPHERAL.a(CyBleControllerIP_Interface.o)
 .debug_frame   0x000040f0       0x44 D:\program\CY8\PSoC Creator\3.2\PSoC Creator\psoc\content\cycomponentlibrary\CyComponentLibrary.cylib\BLE_v2_0\Library\gccCyBLEStack_BLE_SOC_PERIPHERAL.a(CyBleControllerIP_Interface.o)
 .debug_frame   0x00004134       0x48 D:\program\CY8\PSoC Creator\3.2\PSoC Creator\psoc\content\cycomponentlibrary\CyComponentLibrary.cylib\BLE_v2_0\Library\gccCyBLEStack_BLE_SOC_PERIPHERAL.a(CyBleControllerIP_Interface.o)
 .debug_frame   0x0000417c       0x48 D:\program\CY8\PSoC Creator\3.2\PSoC Creator\psoc\content\cycomponentlibrary\CyComponentLibrary.cylib\BLE_v2_0\Library\gccCyBLEStack_BLE_SOC_PERIPHERAL.a(CyBleControllerIP_Interface.o)
 .debug_frame   0x000041c4       0x50 D:\program\CY8\PSoC Creator\3.2\PSoC Creator\psoc\content\cycomponentlibrary\CyComponentLibrary.cylib\BLE_v2_0\Library\gccCyBLEStack_BLE_SOC_PERIPHERAL.a(CyBleControllerIP_Interface.o)
 .debug_frame   0x00004214       0x44 D:\program\CY8\PSoC Creator\3.2\PSoC Creator\psoc\content\cycomponentlibrary\CyComponentLibrary.cylib\BLE_v2_0\Library\gccCyBLEStack_BLE_SOC_PERIPHERAL.a(CyBleControllerIP_Interface.o)
 .debug_frame   0x00004258       0x44 D:\program\CY8\PSoC Creator\3.2\PSoC Creator\psoc\content\cycomponentlibrary\CyComponentLibrary.cylib\BLE_v2_0\Library\gccCyBLEStack_BLE_SOC_PERIPHERAL.a(CyBleControllerIP_Interface.o)
 .debug_frame   0x0000429c       0x4c D:\program\CY8\PSoC Creator\3.2\PSoC Creator\psoc\content\cycomponentlibrary\CyComponentLibrary.cylib\BLE_v2_0\Library\gccCyBLEStack_BLE_SOC_PERIPHERAL.a(ll.o)
 .debug_frame   0x000042e8       0x4c D:\program\CY8\PSoC Creator\3.2\PSoC Creator\psoc\content\cycomponentlibrary\CyComponentLibrary.cylib\BLE_v2_0\Library\gccCyBLEStack_BLE_SOC_PERIPHERAL.a(ll.o)
 .debug_frame   0x00004334       0x44 D:\program\CY8\PSoC Creator\3.2\PSoC Creator\psoc\content\cycomponentlibrary\CyComponentLibrary.cylib\BLE_v2_0\Library\gccCyBLEStack_BLE_SOC_PERIPHERAL.a(ll.o)
 .debug_frame   0x00004378       0x44 D:\program\CY8\PSoC Creator\3.2\PSoC Creator\psoc\content\cycomponentlibrary\CyComponentLibrary.cylib\BLE_v2_0\Library\gccCyBLEStack_BLE_SOC_PERIPHERAL.a(ll.o)
 .debug_frame   0x000043bc       0x44 D:\program\CY8\PSoC Creator\3.2\PSoC Creator\psoc\content\cycomponentlibrary\CyComponentLibrary.cylib\BLE_v2_0\Library\gccCyBLEStack_BLE_SOC_PERIPHERAL.a(ll.o)
 .debug_frame   0x00004400       0x44 D:\program\CY8\PSoC Creator\3.2\PSoC Creator\psoc\content\cycomponentlibrary\CyComponentLibrary.cylib\BLE_v2_0\Library\gccCyBLEStack_BLE_SOC_PERIPHERAL.a(ll.o)
 .debug_frame   0x00004444       0x3c D:\program\CY8\PSoC Creator\3.2\PSoC Creator\psoc\content\cycomponentlibrary\CyComponentLibrary.cylib\BLE_v2_0\Library\gccCyBLEStack_BLE_SOC_PERIPHERAL.a(ll.o)
 .debug_frame   0x00004480       0x44 D:\program\CY8\PSoC Creator\3.2\PSoC Creator\psoc\content\cycomponentlibrary\CyComponentLibrary.cylib\BLE_v2_0\Library\gccCyBLEStack_BLE_SOC_PERIPHERAL.a(ll.o)
 .debug_frame   0x000044c4       0x3c D:\program\CY8\PSoC Creator\3.2\PSoC Creator\psoc\content\cycomponentlibrary\CyComponentLibrary.cylib\BLE_v2_0\Library\gccCyBLEStack_BLE_SOC_PERIPHERAL.a(ll.o)
 .debug_frame   0x00004500       0x44 D:\program\CY8\PSoC Creator\3.2\PSoC Creator\psoc\content\cycomponentlibrary\CyComponentLibrary.cylib\BLE_v2_0\Library\gccCyBLEStack_BLE_SOC_PERIPHERAL.a(ll.o)
 .debug_frame   0x00004544       0x44 D:\program\CY8\PSoC Creator\3.2\PSoC Creator\psoc\content\cycomponentlibrary\CyComponentLibrary.cylib\BLE_v2_0\Library\gccCyBLEStack_BLE_SOC_PERIPHERAL.a(ll.o)
 .debug_frame   0x00004588       0x48 D:\program\CY8\PSoC Creator\3.2\PSoC Creator\psoc\content\cycomponentlibrary\CyComponentLibrary.cylib\BLE_v2_0\Library\gccCyBLEStack_BLE_SOC_PERIPHERAL.a(ll.o)
 .debug_frame   0x000045d0       0x48 D:\program\CY8\PSoC Creator\3.2\PSoC Creator\psoc\content\cycomponentlibrary\CyComponentLibrary.cylib\BLE_v2_0\Library\gccCyBLEStack_BLE_SOC_PERIPHERAL.a(ll.o)
 .debug_frame   0x00004618       0x3c D:\program\CY8\PSoC Creator\3.2\PSoC Creator\psoc\content\cycomponentlibrary\CyComponentLibrary.cylib\BLE_v2_0\Library\gccCyBLEStack_BLE_SOC_PERIPHERAL.a(ll.o)
 .debug_frame   0x00004654       0x48 D:\program\CY8\PSoC Creator\3.2\PSoC Creator\psoc\content\cycomponentlibrary\CyComponentLibrary.cylib\BLE_v2_0\Library\gccCyBLEStack_BLE_SOC_PERIPHERAL.a(ll.o)
 .debug_frame   0x0000469c       0x44 D:\program\CY8\PSoC Creator\3.2\PSoC Creator\psoc\content\cycomponentlibrary\CyComponentLibrary.cylib\BLE_v2_0\Library\gccCyBLEStack_BLE_SOC_PERIPHERAL.a(ll.o)
 .debug_frame   0x000046e0       0x44 D:\program\CY8\PSoC Creator\3.2\PSoC Creator\psoc\content\cycomponentlibrary\CyComponentLibrary.cylib\BLE_v2_0\Library\gccCyBLEStack_BLE_SOC_PERIPHERAL.a(ll.o)
 .debug_frame   0x00004724       0x44 D:\program\CY8\PSoC Creator\3.2\PSoC Creator\psoc\content\cycomponentlibrary\CyComponentLibrary.cylib\BLE_v2_0\Library\gccCyBLEStack_BLE_SOC_PERIPHERAL.a(ll.o)
 .debug_frame   0x00004768       0x3c D:\program\CY8\PSoC Creator\3.2\PSoC Creator\psoc\content\cycomponentlibrary\CyComponentLibrary.cylib\BLE_v2_0\Library\gccCyBLEStack_BLE_SOC_PERIPHERAL.a(ll.o)
 .debug_frame   0x000047a4       0x48 D:\program\CY8\PSoC Creator\3.2\PSoC Creator\psoc\content\cycomponentlibrary\CyComponentLibrary.cylib\BLE_v2_0\Library\gccCyBLEStack_BLE_SOC_PERIPHERAL.a(ll.o)
 .debug_frame   0x000047ec       0x54 D:\program\CY8\PSoC Creator\3.2\PSoC Creator\psoc\content\cycomponentlibrary\CyComponentLibrary.cylib\BLE_v2_0\Library\gccCyBLEStack_BLE_SOC_PERIPHERAL.a(ll.o)
 .debug_frame   0x00004840       0x3c D:\program\CY8\PSoC Creator\3.2\PSoC Creator\psoc\content\cycomponentlibrary\CyComponentLibrary.cylib\BLE_v2_0\Library\gccCyBLEStack_BLE_SOC_PERIPHERAL.a(ll.o)
 .debug_frame   0x0000487c       0x44 D:\program\CY8\PSoC Creator\3.2\PSoC Creator\psoc\content\cycomponentlibrary\CyComponentLibrary.cylib\BLE_v2_0\Library\gccCyBLEStack_BLE_SOC_PERIPHERAL.a(ll.o)
 .debug_frame   0x000048c0       0x48 D:\program\CY8\PSoC Creator\3.2\PSoC Creator\psoc\content\cycomponentlibrary\CyComponentLibrary.cylib\BLE_v2_0\Library\gccCyBLEStack_BLE_SOC_PERIPHERAL.a(ll.o)
 .debug_frame   0x00004908       0x48 D:\program\CY8\PSoC Creator\3.2\PSoC Creator\psoc\content\cycomponentlibrary\CyComponentLibrary.cylib\BLE_v2_0\Library\gccCyBLEStack_BLE_SOC_PERIPHERAL.a(ll.o)
 .debug_frame   0x00004950       0x3c D:\program\CY8\PSoC Creator\3.2\PSoC Creator\psoc\content\cycomponentlibrary\CyComponentLibrary.cylib\BLE_v2_0\Library\gccCyBLEStack_BLE_SOC_PERIPHERAL.a(ll.o)
 .debug_frame   0x0000498c       0x4c D:\program\CY8\PSoC Creator\3.2\PSoC Creator\psoc\content\cycomponentlibrary\CyComponentLibrary.cylib\BLE_v2_0\Library\gccCyBLEStack_BLE_SOC_PERIPHERAL.a(ll.o)
 .debug_frame   0x000049d8       0x48 D:\program\CY8\PSoC Creator\3.2\PSoC Creator\psoc\content\cycomponentlibrary\CyComponentLibrary.cylib\BLE_v2_0\Library\gccCyBLEStack_BLE_SOC_PERIPHERAL.a(ll.o)
 .debug_frame   0x00004a20       0x44 D:\program\CY8\PSoC Creator\3.2\PSoC Creator\psoc\content\cycomponentlibrary\CyComponentLibrary.cylib\BLE_v2_0\Library\gccCyBLEStack_BLE_SOC_PERIPHERAL.a(ll.o)
 .debug_frame   0x00004a64       0x4c D:\program\CY8\PSoC Creator\3.2\PSoC Creator\psoc\content\cycomponentlibrary\CyComponentLibrary.cylib\BLE_v2_0\Library\gccCyBLEStack_BLE_SOC_PERIPHERAL.a(ll.o)
 .debug_frame   0x00004ab0       0x48 D:\program\CY8\PSoC Creator\3.2\PSoC Creator\psoc\content\cycomponentlibrary\CyComponentLibrary.cylib\BLE_v2_0\Library\gccCyBLEStack_BLE_SOC_PERIPHERAL.a(ll.o)
 .debug_frame   0x00004af8       0x44 D:\program\CY8\PSoC Creator\3.2\PSoC Creator\psoc\content\cycomponentlibrary\CyComponentLibrary.cylib\BLE_v2_0\Library\gccCyBLEStack_BLE_SOC_PERIPHERAL.a(ll.o)
 .debug_frame   0x00004b3c       0x44 D:\program\CY8\PSoC Creator\3.2\PSoC Creator\psoc\content\cycomponentlibrary\CyComponentLibrary.cylib\BLE_v2_0\Library\gccCyBLEStack_BLE_SOC_PERIPHERAL.a(ll.o)
 .debug_frame   0x00004b80       0x48 D:\program\CY8\PSoC Creator\3.2\PSoC Creator\psoc\content\cycomponentlibrary\CyComponentLibrary.cylib\BLE_v2_0\Library\gccCyBLEStack_BLE_SOC_PERIPHERAL.a(ll.o)
 .debug_frame   0x00004bc8       0x48 D:\program\CY8\PSoC Creator\3.2\PSoC Creator\psoc\content\cycomponentlibrary\CyComponentLibrary.cylib\BLE_v2_0\Library\gccCyBLEStack_BLE_SOC_PERIPHERAL.a(ll.o)
 .debug_frame   0x00004c10       0x4c D:\program\CY8\PSoC Creator\3.2\PSoC Creator\psoc\content\cycomponentlibrary\CyComponentLibrary.cylib\BLE_v2_0\Library\gccCyBLEStack_BLE_SOC_PERIPHERAL.a(ll.o)
 .debug_frame   0x00004c5c       0x48 D:\program\CY8\PSoC Creator\3.2\PSoC Creator\psoc\content\cycomponentlibrary\CyComponentLibrary.cylib\BLE_v2_0\Library\gccCyBLEStack_BLE_SOC_PERIPHERAL.a(ll.o)
 .debug_frame   0x00004ca4       0x44 D:\program\CY8\PSoC Creator\3.2\PSoC Creator\psoc\content\cycomponentlibrary\CyComponentLibrary.cylib\BLE_v2_0\Library\gccCyBLEStack_BLE_SOC_PERIPHERAL.a(ll.o)
 .debug_frame   0x00004ce8       0x48 D:\program\CY8\PSoC Creator\3.2\PSoC Creator\psoc\content\cycomponentlibrary\CyComponentLibrary.cylib\BLE_v2_0\Library\gccCyBLEStack_BLE_SOC_PERIPHERAL.a(ll.o)
 .debug_frame   0x00004d30       0x44 D:\program\CY8\PSoC Creator\3.2\PSoC Creator\psoc\content\cycomponentlibrary\CyComponentLibrary.cylib\BLE_v2_0\Library\gccCyBLEStack_BLE_SOC_PERIPHERAL.a(ll.o)
 .debug_frame   0x00004d74       0x44 D:\program\CY8\PSoC Creator\3.2\PSoC Creator\psoc\content\cycomponentlibrary\CyComponentLibrary.cylib\BLE_v2_0\Library\gccCyBLEStack_BLE_SOC_PERIPHERAL.a(ll_advertiser.o)
 .debug_frame   0x00004db8       0x48 D:\program\CY8\PSoC Creator\3.2\PSoC Creator\psoc\content\cycomponentlibrary\CyComponentLibrary.cylib\BLE_v2_0\Library\gccCyBLEStack_BLE_SOC_PERIPHERAL.a(ll_advertiser.o)
 .debug_frame   0x00004e00       0x48 D:\program\CY8\PSoC Creator\3.2\PSoC Creator\psoc\content\cycomponentlibrary\CyComponentLibrary.cylib\BLE_v2_0\Library\gccCyBLEStack_BLE_SOC_PERIPHERAL.a(ll_advertiser.o)
 .debug_frame   0x00004e48       0x44 D:\program\CY8\PSoC Creator\3.2\PSoC Creator\psoc\content\cycomponentlibrary\CyComponentLibrary.cylib\BLE_v2_0\Library\gccCyBLEStack_BLE_SOC_PERIPHERAL.a(ll_advertiser.o)
 .debug_frame   0x00004e8c       0x44 D:\program\CY8\PSoC Creator\3.2\PSoC Creator\psoc\content\cycomponentlibrary\CyComponentLibrary.cylib\BLE_v2_0\Library\gccCyBLEStack_BLE_SOC_PERIPHERAL.a(ll_advertiser.o)
 .debug_frame   0x00004ed0       0x44 D:\program\CY8\PSoC Creator\3.2\PSoC Creator\psoc\content\cycomponentlibrary\CyComponentLibrary.cylib\BLE_v2_0\Library\gccCyBLEStack_BLE_SOC_PERIPHERAL.a(ll_advertiser.o)
 .debug_frame   0x00004f14       0x44 D:\program\CY8\PSoC Creator\3.2\PSoC Creator\psoc\content\cycomponentlibrary\CyComponentLibrary.cylib\BLE_v2_0\Library\gccCyBLEStack_BLE_SOC_PERIPHERAL.a(ll_advertiser.o)
 .debug_frame   0x00004f58       0x44 D:\program\CY8\PSoC Creator\3.2\PSoC Creator\psoc\content\cycomponentlibrary\CyComponentLibrary.cylib\BLE_v2_0\Library\gccCyBLEStack_BLE_SOC_PERIPHERAL.a(ll_advertiser.o)
 .debug_frame   0x00004f9c       0x48 D:\program\CY8\PSoC Creator\3.2\PSoC Creator\psoc\content\cycomponentlibrary\CyComponentLibrary.cylib\BLE_v2_0\Library\gccCyBLEStack_BLE_SOC_PERIPHERAL.a(ll_advertiser.o)
 .debug_frame   0x00004fe4       0x48 D:\program\CY8\PSoC Creator\3.2\PSoC Creator\psoc\content\cycomponentlibrary\CyComponentLibrary.cylib\BLE_v2_0\Library\gccCyBLEStack_BLE_SOC_PERIPHERAL.a(ll_advertiser.o)
 .debug_frame   0x0000502c       0x44 D:\program\CY8\PSoC Creator\3.2\PSoC Creator\psoc\content\cycomponentlibrary\CyComponentLibrary.cylib\BLE_v2_0\Library\gccCyBLEStack_BLE_SOC_PERIPHERAL.a(ll_advertiser.o)
 .debug_frame   0x00005070       0x44 D:\program\CY8\PSoC Creator\3.2\PSoC Creator\psoc\content\cycomponentlibrary\CyComponentLibrary.cylib\BLE_v2_0\Library\gccCyBLEStack_BLE_SOC_PERIPHERAL.a(ll_advertiser.o)
 .debug_frame   0x000050b4       0x3c D:\program\CY8\PSoC Creator\3.2\PSoC Creator\psoc\content\cycomponentlibrary\CyComponentLibrary.cylib\BLE_v2_0\Library\gccCyBLEStack_BLE_SOC_PERIPHERAL.a(ll_connection.o)
 .debug_frame   0x000050f0       0x3c D:\program\CY8\PSoC Creator\3.2\PSoC Creator\psoc\content\cycomponentlibrary\CyComponentLibrary.cylib\BLE_v2_0\Library\gccCyBLEStack_BLE_SOC_PERIPHERAL.a(ll_connection.o)
 .debug_frame   0x0000512c       0x3c D:\program\CY8\PSoC Creator\3.2\PSoC Creator\psoc\content\cycomponentlibrary\CyComponentLibrary.cylib\BLE_v2_0\Library\gccCyBLEStack_BLE_SOC_PERIPHERAL.a(ll_connection.o)
 .debug_frame   0x00005168       0x3c D:\program\CY8\PSoC Creator\3.2\PSoC Creator\psoc\content\cycomponentlibrary\CyComponentLibrary.cylib\BLE_v2_0\Library\gccCyBLEStack_BLE_SOC_PERIPHERAL.a(ll_connection.o)
 .debug_frame   0x000051a4       0x3c D:\program\CY8\PSoC Creator\3.2\PSoC Creator\psoc\content\cycomponentlibrary\CyComponentLibrary.cylib\BLE_v2_0\Library\gccCyBLEStack_BLE_SOC_PERIPHERAL.a(ll_connection.o)
 .debug_frame   0x000051e0       0x48 D:\program\CY8\PSoC Creator\3.2\PSoC Creator\psoc\content\cycomponentlibrary\CyComponentLibrary.cylib\BLE_v2_0\Library\gccCyBLEStack_BLE_SOC_PERIPHERAL.a(ll_connection.o)
 .debug_frame   0x00005228       0x3c D:\program\CY8\PSoC Creator\3.2\PSoC Creator\psoc\content\cycomponentlibrary\CyComponentLibrary.cylib\BLE_v2_0\Library\gccCyBLEStack_BLE_SOC_PERIPHERAL.a(ll_connection.o)
 .debug_frame   0x00005264       0x4c D:\program\CY8\PSoC Creator\3.2\PSoC Creator\psoc\content\cycomponentlibrary\CyComponentLibrary.cylib\BLE_v2_0\Library\gccCyBLEStack_BLE_SOC_PERIPHERAL.a(ll_connection.o)
 .debug_frame   0x000052b0       0x44 D:\program\CY8\PSoC Creator\3.2\PSoC Creator\psoc\content\cycomponentlibrary\CyComponentLibrary.cylib\BLE_v2_0\Library\gccCyBLEStack_BLE_SOC_PERIPHERAL.a(ll_connection.o)
 .debug_frame   0x000052f4       0x3c D:\program\CY8\PSoC Creator\3.2\PSoC Creator\psoc\content\cycomponentlibrary\CyComponentLibrary.cylib\BLE_v2_0\Library\gccCyBLEStack_BLE_SOC_PERIPHERAL.a(ll_connection.o)
 .debug_frame   0x00005330       0x44 D:\program\CY8\PSoC Creator\3.2\PSoC Creator\psoc\content\cycomponentlibrary\CyComponentLibrary.cylib\BLE_v2_0\Library\gccCyBLEStack_BLE_SOC_PERIPHERAL.a(ll_connection.o)
 .debug_frame   0x00005374       0x3c D:\program\CY8\PSoC Creator\3.2\PSoC Creator\psoc\content\cycomponentlibrary\CyComponentLibrary.cylib\BLE_v2_0\Library\gccCyBLEStack_BLE_SOC_PERIPHERAL.a(ll_connection.o)
 .debug_frame   0x000053b0       0x48 D:\program\CY8\PSoC Creator\3.2\PSoC Creator\psoc\content\cycomponentlibrary\CyComponentLibrary.cylib\BLE_v2_0\Library\gccCyBLEStack_BLE_SOC_PERIPHERAL.a(ll_connection.o)
 .debug_frame   0x000053f8       0x3c D:\program\CY8\PSoC Creator\3.2\PSoC Creator\psoc\content\cycomponentlibrary\CyComponentLibrary.cylib\BLE_v2_0\Library\gccCyBLEStack_BLE_SOC_PERIPHERAL.a(ll_connection.o)
 .debug_frame   0x00005434       0x3c D:\program\CY8\PSoC Creator\3.2\PSoC Creator\psoc\content\cycomponentlibrary\CyComponentLibrary.cylib\BLE_v2_0\Library\gccCyBLEStack_BLE_SOC_PERIPHERAL.a(ll_connection.o)
 .debug_frame   0x00005470       0x44 D:\program\CY8\PSoC Creator\3.2\PSoC Creator\psoc\content\cycomponentlibrary\CyComponentLibrary.cylib\BLE_v2_0\Library\gccCyBLEStack_BLE_SOC_PERIPHERAL.a(ll_connection.o)
 .debug_frame   0x000054b4       0x44 D:\program\CY8\PSoC Creator\3.2\PSoC Creator\psoc\content\cycomponentlibrary\CyComponentLibrary.cylib\BLE_v2_0\Library\gccCyBLEStack_BLE_SOC_PERIPHERAL.a(ll_connection.o)
 .debug_frame   0x000054f8       0x44 D:\program\CY8\PSoC Creator\3.2\PSoC Creator\psoc\content\cycomponentlibrary\CyComponentLibrary.cylib\BLE_v2_0\Library\gccCyBLEStack_BLE_SOC_PERIPHERAL.a(ll_connection.o)
 .debug_frame   0x0000553c       0x4c D:\program\CY8\PSoC Creator\3.2\PSoC Creator\psoc\content\cycomponentlibrary\CyComponentLibrary.cylib\BLE_v2_0\Library\gccCyBLEStack_BLE_SOC_PERIPHERAL.a(ll_connection.o)
 .debug_frame   0x00005588       0x44 D:\program\CY8\PSoC Creator\3.2\PSoC Creator\psoc\content\cycomponentlibrary\CyComponentLibrary.cylib\BLE_v2_0\Library\gccCyBLEStack_BLE_SOC_PERIPHERAL.a(ll_connection.o)
 .debug_frame   0x000055cc       0x44 D:\program\CY8\PSoC Creator\3.2\PSoC Creator\psoc\content\cycomponentlibrary\CyComponentLibrary.cylib\BLE_v2_0\Library\gccCyBLEStack_BLE_SOC_PERIPHERAL.a(ll_connection.o)
 .debug_frame   0x00005610       0x44 D:\program\CY8\PSoC Creator\3.2\PSoC Creator\psoc\content\cycomponentlibrary\CyComponentLibrary.cylib\BLE_v2_0\Library\gccCyBLEStack_BLE_SOC_PERIPHERAL.a(ll_connection.o)
 .debug_frame   0x00005654       0x48 D:\program\CY8\PSoC Creator\3.2\PSoC Creator\psoc\content\cycomponentlibrary\CyComponentLibrary.cylib\BLE_v2_0\Library\gccCyBLEStack_BLE_SOC_PERIPHERAL.a(ll_connection.o)
 .debug_frame   0x0000569c       0x48 D:\program\CY8\PSoC Creator\3.2\PSoC Creator\psoc\content\cycomponentlibrary\CyComponentLibrary.cylib\BLE_v2_0\Library\gccCyBLEStack_BLE_SOC_PERIPHERAL.a(ll_connection.o)
 .debug_frame   0x000056e4       0x4c D:\program\CY8\PSoC Creator\3.2\PSoC Creator\psoc\content\cycomponentlibrary\CyComponentLibrary.cylib\BLE_v2_0\Library\gccCyBLEStack_BLE_SOC_PERIPHERAL.a(ll_connection.o)
 .debug_frame   0x00005730       0x3c D:\program\CY8\PSoC Creator\3.2\PSoC Creator\psoc\content\cycomponentlibrary\CyComponentLibrary.cylib\BLE_v2_0\Library\gccCyBLEStack_BLE_SOC_PERIPHERAL.a(ll_connection.o)
 .debug_frame   0x0000576c       0x44 D:\program\CY8\PSoC Creator\3.2\PSoC Creator\psoc\content\cycomponentlibrary\CyComponentLibrary.cylib\BLE_v2_0\Library\gccCyBLEStack_BLE_SOC_PERIPHERAL.a(ll_connection.o)
 .debug_frame   0x000057b0       0x48 D:\program\CY8\PSoC Creator\3.2\PSoC Creator\psoc\content\cycomponentlibrary\CyComponentLibrary.cylib\BLE_v2_0\Library\gccCyBLEStack_BLE_SOC_PERIPHERAL.a(ll_connection.o)
 .debug_frame   0x000057f8       0x48 D:\program\CY8\PSoC Creator\3.2\PSoC Creator\psoc\content\cycomponentlibrary\CyComponentLibrary.cylib\BLE_v2_0\Library\gccCyBLEStack_BLE_SOC_PERIPHERAL.a(ll_connection.o)
 .debug_frame   0x00005840       0x44 D:\program\CY8\PSoC Creator\3.2\PSoC Creator\psoc\content\cycomponentlibrary\CyComponentLibrary.cylib\BLE_v2_0\Library\gccCyBLEStack_BLE_SOC_PERIPHERAL.a(ll_connection.o)
 .debug_frame   0x00005884       0x44 D:\program\CY8\PSoC Creator\3.2\PSoC Creator\psoc\content\cycomponentlibrary\CyComponentLibrary.cylib\BLE_v2_0\Library\gccCyBLEStack_BLE_SOC_PERIPHERAL.a(ll_connection.o)
 .debug_frame   0x000058c8       0x44 D:\program\CY8\PSoC Creator\3.2\PSoC Creator\psoc\content\cycomponentlibrary\CyComponentLibrary.cylib\BLE_v2_0\Library\gccCyBLEStack_BLE_SOC_PERIPHERAL.a(ll_connection.o)
 .debug_frame   0x0000590c       0x44 D:\program\CY8\PSoC Creator\3.2\PSoC Creator\psoc\content\cycomponentlibrary\CyComponentLibrary.cylib\BLE_v2_0\Library\gccCyBLEStack_BLE_SOC_PERIPHERAL.a(ll_connection.o)
 .debug_frame   0x00005950       0x4c D:\program\CY8\PSoC Creator\3.2\PSoC Creator\psoc\content\cycomponentlibrary\CyComponentLibrary.cylib\BLE_v2_0\Library\gccCyBLEStack_BLE_SOC_PERIPHERAL.a(ll_connection.o)
 .debug_frame   0x0000599c       0x44 D:\program\CY8\PSoC Creator\3.2\PSoC Creator\psoc\content\cycomponentlibrary\CyComponentLibrary.cylib\BLE_v2_0\Library\gccCyBLEStack_BLE_SOC_PERIPHERAL.a(ll_connection.o)
 .debug_frame   0x000059e0       0x44 D:\program\CY8\PSoC Creator\3.2\PSoC Creator\psoc\content\cycomponentlibrary\CyComponentLibrary.cylib\BLE_v2_0\Library\gccCyBLEStack_BLE_SOC_PERIPHERAL.a(ll_connection.o)
 .debug_frame   0x00005a24       0x48 D:\program\CY8\PSoC Creator\3.2\PSoC Creator\psoc\content\cycomponentlibrary\CyComponentLibrary.cylib\BLE_v2_0\Library\gccCyBLEStack_BLE_SOC_PERIPHERAL.a(ll_connection.o)
 .debug_frame   0x00005a6c       0x44 D:\program\CY8\PSoC Creator\3.2\PSoC Creator\psoc\content\cycomponentlibrary\CyComponentLibrary.cylib\BLE_v2_0\Library\gccCyBLEStack_BLE_SOC_PERIPHERAL.a(ll_connection.o)
 .debug_frame   0x00005ab0       0x4c D:\program\CY8\PSoC Creator\3.2\PSoC Creator\psoc\content\cycomponentlibrary\CyComponentLibrary.cylib\BLE_v2_0\Library\gccCyBLEStack_BLE_SOC_PERIPHERAL.a(ll_connection.o)
 .debug_frame   0x00005afc       0x44 D:\program\CY8\PSoC Creator\3.2\PSoC Creator\psoc\content\cycomponentlibrary\CyComponentLibrary.cylib\BLE_v2_0\Library\gccCyBLEStack_BLE_SOC_PERIPHERAL.a(ll_connection.o)
 .debug_frame   0x00005b40       0x3c D:\program\CY8\PSoC Creator\3.2\PSoC Creator\psoc\content\cycomponentlibrary\CyComponentLibrary.cylib\BLE_v2_0\Library\gccCyBLEStack_BLE_SOC_PERIPHERAL.a(ll_connection.o)
 .debug_frame   0x00005b7c       0x4c D:\program\CY8\PSoC Creator\3.2\PSoC Creator\psoc\content\cycomponentlibrary\CyComponentLibrary.cylib\BLE_v2_0\Library\gccCyBLEStack_BLE_SOC_PERIPHERAL.a(ll_connection.o)
 .debug_frame   0x00005bc8       0x44 D:\program\CY8\PSoC Creator\3.2\PSoC Creator\psoc\content\cycomponentlibrary\CyComponentLibrary.cylib\BLE_v2_0\Library\gccCyBLEStack_BLE_SOC_PERIPHERAL.a(ll_connection.o)
 .debug_frame   0x00005c0c       0x3c D:\program\CY8\PSoC Creator\3.2\PSoC Creator\psoc\content\cycomponentlibrary\CyComponentLibrary.cylib\BLE_v2_0\Library\gccCyBLEStack_BLE_SOC_PERIPHERAL.a(ll_connection.o)
 .debug_frame   0x00005c48       0x48 D:\program\CY8\PSoC Creator\3.2\PSoC Creator\psoc\content\cycomponentlibrary\CyComponentLibrary.cylib\BLE_v2_0\Library\gccCyBLEStack_BLE_SOC_PERIPHERAL.a(ll_connection.o)
 .debug_frame   0x00005c90       0x44 D:\program\CY8\PSoC Creator\3.2\PSoC Creator\psoc\content\cycomponentlibrary\CyComponentLibrary.cylib\BLE_v2_0\Library\gccCyBLEStack_BLE_SOC_PERIPHERAL.a(ll_connection.o)
 .debug_frame   0x00005cd4       0x48 D:\program\CY8\PSoC Creator\3.2\PSoC Creator\psoc\content\cycomponentlibrary\CyComponentLibrary.cylib\BLE_v2_0\Library\gccCyBLEStack_BLE_SOC_PERIPHERAL.a(ll_connection.o)
 .debug_frame   0x00005d1c       0x3c D:\program\CY8\PSoC Creator\3.2\PSoC Creator\psoc\content\cycomponentlibrary\CyComponentLibrary.cylib\BLE_v2_0\Library\gccCyBLEStack_BLE_SOC_PERIPHERAL.a(ll_connection.o)
 .debug_frame   0x00005d58       0x44 D:\program\CY8\PSoC Creator\3.2\PSoC Creator\psoc\content\cycomponentlibrary\CyComponentLibrary.cylib\BLE_v2_0\Library\gccCyBLEStack_BLE_SOC_PERIPHERAL.a(ll_connection.o)
 .debug_frame   0x00005d9c       0x3c D:\program\CY8\PSoC Creator\3.2\PSoC Creator\psoc\content\cycomponentlibrary\CyComponentLibrary.cylib\BLE_v2_0\Library\gccCyBLEStack_BLE_SOC_PERIPHERAL.a(ll_connection.o)
 .debug_frame   0x00005dd8       0x54 D:\program\CY8\PSoC Creator\3.2\PSoC Creator\psoc\content\cycomponentlibrary\CyComponentLibrary.cylib\BLE_v2_0\Library\gccCyBLEStack_BLE_SOC_PERIPHERAL.a(ll_connection.o)
 .debug_frame   0x00005e2c       0x44 D:\program\CY8\PSoC Creator\3.2\PSoC Creator\psoc\content\cycomponentlibrary\CyComponentLibrary.cylib\BLE_v2_0\Library\gccCyBLEStack_BLE_SOC_PERIPHERAL.a(ll_connection.o)
 .debug_frame   0x00005e70       0x3c D:\program\CY8\PSoC Creator\3.2\PSoC Creator\psoc\content\cycomponentlibrary\CyComponentLibrary.cylib\BLE_v2_0\Library\gccCyBLEStack_BLE_SOC_PERIPHERAL.a(ll_connection.o)
 .debug_frame   0x00005eac       0x54 D:\program\CY8\PSoC Creator\3.2\PSoC Creator\psoc\content\cycomponentlibrary\CyComponentLibrary.cylib\BLE_v2_0\Library\gccCyBLEStack_BLE_SOC_PERIPHERAL.a(ll_connection.o)
 .debug_frame   0x00005f00       0x3c D:\program\CY8\PSoC Creator\3.2\PSoC Creator\psoc\content\cycomponentlibrary\CyComponentLibrary.cylib\BLE_v2_0\Library\gccCyBLEStack_BLE_SOC_PERIPHERAL.a(ll_connection.o)
 .debug_frame   0x00005f3c       0x3c D:\program\CY8\PSoC Creator\3.2\PSoC Creator\psoc\content\cycomponentlibrary\CyComponentLibrary.cylib\BLE_v2_0\Library\gccCyBLEStack_BLE_SOC_PERIPHERAL.a(ll_connection.o)
 .debug_frame   0x00005f78       0x44 D:\program\CY8\PSoC Creator\3.2\PSoC Creator\psoc\content\cycomponentlibrary\CyComponentLibrary.cylib\BLE_v2_0\Library\gccCyBLEStack_BLE_SOC_PERIPHERAL.a(ll_connection.o)
 .debug_frame   0x00005fbc       0x3c D:\program\CY8\PSoC Creator\3.2\PSoC Creator\psoc\content\cycomponentlibrary\CyComponentLibrary.cylib\BLE_v2_0\Library\gccCyBLEStack_BLE_SOC_PERIPHERAL.a(ll_connection.o)
 .debug_frame   0x00005ff8       0x50 D:\program\CY8\PSoC Creator\3.2\PSoC Creator\psoc\content\cycomponentlibrary\CyComponentLibrary.cylib\BLE_v2_0\Library\gccCyBLEStack_BLE_SOC_PERIPHERAL.a(ll_connection.o)
 .debug_frame   0x00006048       0x50 D:\program\CY8\PSoC Creator\3.2\PSoC Creator\psoc\content\cycomponentlibrary\CyComponentLibrary.cylib\BLE_v2_0\Library\gccCyBLEStack_BLE_SOC_PERIPHERAL.a(ll_connection.o)
 .debug_frame   0x00006098       0x54 D:\program\CY8\PSoC Creator\3.2\PSoC Creator\psoc\content\cycomponentlibrary\CyComponentLibrary.cylib\BLE_v2_0\Library\gccCyBLEStack_BLE_SOC_PERIPHERAL.a(ll_connection.o)
 .debug_frame   0x000060ec       0x4c D:\program\CY8\PSoC Creator\3.2\PSoC Creator\psoc\content\cycomponentlibrary\CyComponentLibrary.cylib\BLE_v2_0\Library\gccCyBLEStack_BLE_SOC_PERIPHERAL.a(ll_connection.o)
 .debug_frame   0x00006138       0x44 D:\program\CY8\PSoC Creator\3.2\PSoC Creator\psoc\content\cycomponentlibrary\CyComponentLibrary.cylib\BLE_v2_0\Library\gccCyBLEStack_BLE_SOC_PERIPHERAL.a(ll_connection.o)
 .debug_frame   0x0000617c       0x44 D:\program\CY8\PSoC Creator\3.2\PSoC Creator\psoc\content\cycomponentlibrary\CyComponentLibrary.cylib\BLE_v2_0\Library\gccCyBLEStack_BLE_SOC_PERIPHERAL.a(ll_connection.o)
 .debug_frame   0x000061c0       0x44 D:\program\CY8\PSoC Creator\3.2\PSoC Creator\psoc\content\cycomponentlibrary\CyComponentLibrary.cylib\BLE_v2_0\Library\gccCyBLEStack_BLE_SOC_PERIPHERAL.a(ll_connection.o)
 .debug_frame   0x00006204       0x48 D:\program\CY8\PSoC Creator\3.2\PSoC Creator\psoc\content\cycomponentlibrary\CyComponentLibrary.cylib\BLE_v2_0\Library\gccCyBLEStack_BLE_SOC_PERIPHERAL.a(ll_connection.o)
 .debug_frame   0x0000624c       0x48 D:\program\CY8\PSoC Creator\3.2\PSoC Creator\psoc\content\cycomponentlibrary\CyComponentLibrary.cylib\BLE_v2_0\Library\gccCyBLEStack_BLE_SOC_PERIPHERAL.a(ll_connection.o)
 .debug_frame   0x00006294       0x3c D:\program\CY8\PSoC Creator\3.2\PSoC Creator\psoc\content\cycomponentlibrary\CyComponentLibrary.cylib\BLE_v2_0\Library\gccCyBLEStack_BLE_SOC_PERIPHERAL.a(ll_connection.o)
 .debug_frame   0x000062d0       0x4c D:\program\CY8\PSoC Creator\3.2\PSoC Creator\psoc\content\cycomponentlibrary\CyComponentLibrary.cylib\BLE_v2_0\Library\gccCyBLEStack_BLE_SOC_PERIPHERAL.a(ll_connection.o)
 .debug_frame   0x0000631c       0x44 D:\program\CY8\PSoC Creator\3.2\PSoC Creator\psoc\content\cycomponentlibrary\CyComponentLibrary.cylib\BLE_v2_0\Library\gccCyBLEStack_BLE_SOC_PERIPHERAL.a(ll_connection.o)
 .debug_frame   0x00006360       0x44 D:\program\CY8\PSoC Creator\3.2\PSoC Creator\psoc\content\cycomponentlibrary\CyComponentLibrary.cylib\BLE_v2_0\Library\gccCyBLEStack_BLE_SOC_PERIPHERAL.a(ll_connection.o)
 .debug_frame   0x000063a4       0x3c D:\program\CY8\PSoC Creator\3.2\PSoC Creator\psoc\content\cycomponentlibrary\CyComponentLibrary.cylib\BLE_v2_0\Library\gccCyBLEStack_BLE_SOC_PERIPHERAL.a(ll_connection.o)
 .debug_frame   0x000063e0       0x3c D:\program\CY8\PSoC Creator\3.2\PSoC Creator\psoc\content\cycomponentlibrary\CyComponentLibrary.cylib\BLE_v2_0\Library\gccCyBLEStack_BLE_SOC_PERIPHERAL.a(ll_connection.o)
 .debug_frame   0x0000641c       0x3c D:\program\CY8\PSoC Creator\3.2\PSoC Creator\psoc\content\cycomponentlibrary\CyComponentLibrary.cylib\BLE_v2_0\Library\gccCyBLEStack_BLE_SOC_PERIPHERAL.a(ll_connection.o)
 .debug_frame   0x00006458       0x4c D:\program\CY8\PSoC Creator\3.2\PSoC Creator\psoc\content\cycomponentlibrary\CyComponentLibrary.cylib\BLE_v2_0\Library\gccCyBLEStack_BLE_SOC_PERIPHERAL.a(ll_connection.o)
 .debug_frame   0x000064a4       0x44 D:\program\CY8\PSoC Creator\3.2\PSoC Creator\psoc\content\cycomponentlibrary\CyComponentLibrary.cylib\BLE_v2_0\Library\gccCyBLEStack_BLE_SOC_PERIPHERAL.a(ll_connection.o)
 .debug_frame   0x000064e8       0x44 D:\program\CY8\PSoC Creator\3.2\PSoC Creator\psoc\content\cycomponentlibrary\CyComponentLibrary.cylib\BLE_v2_0\Library\gccCyBLEStack_BLE_SOC_PERIPHERAL.a(ll_connection.o)
 .debug_frame   0x0000652c       0x48 D:\program\CY8\PSoC Creator\3.2\PSoC Creator\psoc\content\cycomponentlibrary\CyComponentLibrary.cylib\BLE_v2_0\Library\gccCyBLEStack_BLE_SOC_PERIPHERAL.a(ll_connection.o)
 .debug_frame   0x00006574       0x48 D:\program\CY8\PSoC Creator\3.2\PSoC Creator\psoc\content\cycomponentlibrary\CyComponentLibrary.cylib\BLE_v2_0\Library\gccCyBLEStack_BLE_SOC_PERIPHERAL.a(ll_connection.o)
 .debug_frame   0x000065bc       0x48 D:\program\CY8\PSoC Creator\3.2\PSoC Creator\psoc\content\cycomponentlibrary\CyComponentLibrary.cylib\BLE_v2_0\Library\gccCyBLEStack_BLE_SOC_PERIPHERAL.a(ll_connection.o)
 .debug_frame   0x00006604       0x44 D:\program\CY8\PSoC Creator\3.2\PSoC Creator\psoc\content\cycomponentlibrary\CyComponentLibrary.cylib\BLE_v2_0\Library\gccCyBLEStack_BLE_SOC_PERIPHERAL.a(ll_connection.o)
 .debug_frame   0x00006648       0x44 D:\program\CY8\PSoC Creator\3.2\PSoC Creator\psoc\content\cycomponentlibrary\CyComponentLibrary.cylib\BLE_v2_0\Library\gccCyBLEStack_BLE_SOC_PERIPHERAL.a(ll_connection.o)
 .debug_frame   0x0000668c       0x54 D:\program\CY8\PSoC Creator\3.2\PSoC Creator\psoc\content\cycomponentlibrary\CyComponentLibrary.cylib\BLE_v2_0\Library\gccCyBLEStack_BLE_SOC_PERIPHERAL.a(ll_connection.o)
 .debug_frame   0x000066e0       0x44 D:\program\CY8\PSoC Creator\3.2\PSoC Creator\psoc\content\cycomponentlibrary\CyComponentLibrary.cylib\BLE_v2_0\Library\gccCyBLEStack_BLE_SOC_PERIPHERAL.a(ll_connection.o)
 .debug_frame   0x00006724       0x54 D:\program\CY8\PSoC Creator\3.2\PSoC Creator\psoc\content\cycomponentlibrary\CyComponentLibrary.cylib\BLE_v2_0\Library\gccCyBLEStack_BLE_SOC_PERIPHERAL.a(ll_connection.o)
 .debug_frame   0x00006778       0x48 D:\program\CY8\PSoC Creator\3.2\PSoC Creator\psoc\content\cycomponentlibrary\CyComponentLibrary.cylib\BLE_v2_0\Library\gccCyBLEStack_BLE_SOC_PERIPHERAL.a(ll_connection.o)
 .debug_frame   0x000067c0       0x48 D:\program\CY8\PSoC Creator\3.2\PSoC Creator\psoc\content\cycomponentlibrary\CyComponentLibrary.cylib\BLE_v2_0\Library\gccCyBLEStack_BLE_SOC_PERIPHERAL.a(ll_connection.o)
 .debug_frame   0x00006808       0x48 D:\program\CY8\PSoC Creator\3.2\PSoC Creator\psoc\content\cycomponentlibrary\CyComponentLibrary.cylib\BLE_v2_0\Library\gccCyBLEStack_BLE_SOC_PERIPHERAL.a(ll_connection.o)
 .debug_frame   0x00006850       0x44 D:\program\CY8\PSoC Creator\3.2\PSoC Creator\psoc\content\cycomponentlibrary\CyComponentLibrary.cylib\BLE_v2_0\Library\gccCyBLEStack_BLE_SOC_PERIPHERAL.a(ll_connection.o)
 .debug_frame   0x00006894       0x4c D:\program\CY8\PSoC Creator\3.2\PSoC Creator\psoc\content\cycomponentlibrary\CyComponentLibrary.cylib\BLE_v2_0\Library\gccCyBLEStack_BLE_SOC_PERIPHERAL.a(ll_connection.o)
 .debug_frame   0x000068e0       0x48 D:\program\CY8\PSoC Creator\3.2\PSoC Creator\psoc\content\cycomponentlibrary\CyComponentLibrary.cylib\BLE_v2_0\Library\gccCyBLEStack_BLE_SOC_PERIPHERAL.a(ll_connection.o)
 .debug_frame   0x00006928       0x44 D:\program\CY8\PSoC Creator\3.2\PSoC Creator\psoc\content\cycomponentlibrary\CyComponentLibrary.cylib\BLE_v2_0\Library\gccCyBLEStack_BLE_SOC_PERIPHERAL.a(ll_connection.o)
 .debug_frame   0x0000696c       0x44 D:\program\CY8\PSoC Creator\3.2\PSoC Creator\psoc\content\cycomponentlibrary\CyComponentLibrary.cylib\BLE_v2_0\Library\gccCyBLEStack_BLE_SOC_PERIPHERAL.a(ll_connection.o)
 .debug_frame   0x000069b0       0x48 D:\program\CY8\PSoC Creator\3.2\PSoC Creator\psoc\content\cycomponentlibrary\CyComponentLibrary.cylib\BLE_v2_0\Library\gccCyBLEStack_BLE_SOC_PERIPHERAL.a(ll_connection.o)
 .debug_frame   0x000069f8       0x44 D:\program\CY8\PSoC Creator\3.2\PSoC Creator\psoc\content\cycomponentlibrary\CyComponentLibrary.cylib\BLE_v2_0\Library\gccCyBLEStack_BLE_SOC_PERIPHERAL.a(ll_connection.o)
 .debug_frame   0x00006a3c       0x48 D:\program\CY8\PSoC Creator\3.2\PSoC Creator\psoc\content\cycomponentlibrary\CyComponentLibrary.cylib\BLE_v2_0\Library\gccCyBLEStack_BLE_SOC_PERIPHERAL.a(ll_connection.o)
 .debug_frame   0x00006a84       0x48 D:\program\CY8\PSoC Creator\3.2\PSoC Creator\psoc\content\cycomponentlibrary\CyComponentLibrary.cylib\BLE_v2_0\Library\gccCyBLEStack_BLE_SOC_PERIPHERAL.a(ll_connection.o)
 .debug_frame   0x00006acc       0x44 D:\program\CY8\PSoC Creator\3.2\PSoC Creator\psoc\content\cycomponentlibrary\CyComponentLibrary.cylib\BLE_v2_0\Library\gccCyBLEStack_BLE_SOC_PERIPHERAL.a(ll_connection.o)
 .debug_frame   0x00006b10       0x48 D:\program\CY8\PSoC Creator\3.2\PSoC Creator\psoc\content\cycomponentlibrary\CyComponentLibrary.cylib\BLE_v2_0\Library\gccCyBLEStack_BLE_SOC_PERIPHERAL.a(ll_connection.o)
 .debug_frame   0x00006b58       0x44 D:\program\CY8\PSoC Creator\3.2\PSoC Creator\psoc\content\cycomponentlibrary\CyComponentLibrary.cylib\BLE_v2_0\Library\gccCyBLEStack_BLE_SOC_PERIPHERAL.a(ll_connection.o)
 .debug_frame   0x00006b9c       0x3c D:\program\CY8\PSoC Creator\3.2\PSoC Creator\psoc\content\cycomponentlibrary\CyComponentLibrary.cylib\BLE_v2_0\Library\gccCyBLEStack_BLE_SOC_PERIPHERAL.a(ll_connection.o)
 .debug_frame   0x00006bd8       0x3c D:\program\CY8\PSoC Creator\3.2\PSoC Creator\psoc\content\cycomponentlibrary\CyComponentLibrary.cylib\BLE_v2_0\Library\gccCyBLEStack_BLE_SOC_PERIPHERAL.a(ll_connection.o)
 .debug_frame   0x00006c14       0x44 D:\program\CY8\PSoC Creator\3.2\PSoC Creator\psoc\content\cycomponentlibrary\CyComponentLibrary.cylib\BLE_v2_0\Library\gccCyBLEStack_BLE_SOC_PERIPHERAL.a(ll_connection.o)
 .debug_frame   0x00006c58       0x48 D:\program\CY8\PSoC Creator\3.2\PSoC Creator\psoc\content\cycomponentlibrary\CyComponentLibrary.cylib\BLE_v2_0\Library\gccCyBLEStack_BLE_SOC_PERIPHERAL.a(ll_connection.o)
 .debug_frame   0x00006ca0       0x48 D:\program\CY8\PSoC Creator\3.2\PSoC Creator\psoc\content\cycomponentlibrary\CyComponentLibrary.cylib\BLE_v2_0\Library\gccCyBLEStack_BLE_SOC_PERIPHERAL.a(ll_connection.o)
 .debug_frame   0x00006ce8       0x3c D:\program\CY8\PSoC Creator\3.2\PSoC Creator\psoc\content\cycomponentlibrary\CyComponentLibrary.cylib\BLE_v2_0\Library\gccCyBLEStack_BLE_SOC_PERIPHERAL.a(ll_connection.o)
 .debug_frame   0x00006d24       0x3c D:\program\CY8\PSoC Creator\3.2\PSoC Creator\psoc\content\cycomponentlibrary\CyComponentLibrary.cylib\BLE_v2_0\Library\gccCyBLEStack_BLE_SOC_PERIPHERAL.a(ll_connection.o)
 .debug_frame   0x00006d60       0x3c D:\program\CY8\PSoC Creator\3.2\PSoC Creator\psoc\content\cycomponentlibrary\CyComponentLibrary.cylib\BLE_v2_0\Library\gccCyBLEStack_BLE_SOC_PERIPHERAL.a(ll_connection.o)
 .debug_frame   0x00006d9c       0x44 D:\program\CY8\PSoC Creator\3.2\PSoC Creator\psoc\content\cycomponentlibrary\CyComponentLibrary.cylib\BLE_v2_0\Library\gccCyBLEStack_BLE_SOC_PERIPHERAL.a(ll_connection.o)
 .debug_frame   0x00006de0       0x48 D:\program\CY8\PSoC Creator\3.2\PSoC Creator\psoc\content\cycomponentlibrary\CyComponentLibrary.cylib\BLE_v2_0\Library\gccCyBLEStack_BLE_SOC_PERIPHERAL.a(ll_connection.o)
 .debug_frame   0x00006e28       0x44 D:\program\CY8\PSoC Creator\3.2\PSoC Creator\psoc\content\cycomponentlibrary\CyComponentLibrary.cylib\BLE_v2_0\Library\gccCyBLEStack_BLE_SOC_PERIPHERAL.a(ll_connection.o)
 .debug_frame   0x00006e6c       0x3c D:\program\CY8\PSoC Creator\3.2\PSoC Creator\psoc\content\cycomponentlibrary\CyComponentLibrary.cylib\BLE_v2_0\Library\gccCyBLEStack_BLE_SOC_PERIPHERAL.a(ll_connection.o)
 .debug_frame   0x00006ea8       0x44 D:\program\CY8\PSoC Creator\3.2\PSoC Creator\psoc\content\cycomponentlibrary\CyComponentLibrary.cylib\BLE_v2_0\Library\gccCyBLEStack_BLE_SOC_PERIPHERAL.a(llh_api.o)
 .debug_frame   0x00006eec       0x44 D:\program\CY8\PSoC Creator\3.2\PSoC Creator\psoc\content\cycomponentlibrary\CyComponentLibrary.cylib\BLE_v2_0\Library\gccCyBLEStack_BLE_SOC_PERIPHERAL.a(llh_api.o)
 .debug_frame   0x00006f30       0x44 D:\program\CY8\PSoC Creator\3.2\PSoC Creator\psoc\content\cycomponentlibrary\CyComponentLibrary.cylib\BLE_v2_0\Library\gccCyBLEStack_BLE_SOC_PERIPHERAL.a(llh_api.o)
 .debug_frame   0x00006f74       0x44 D:\program\CY8\PSoC Creator\3.2\PSoC Creator\psoc\content\cycomponentlibrary\CyComponentLibrary.cylib\BLE_v2_0\Library\gccCyBLEStack_BLE_SOC_PERIPHERAL.a(llh_api.o)
 .debug_frame   0x00006fb8       0x44 D:\program\CY8\PSoC Creator\3.2\PSoC Creator\psoc\content\cycomponentlibrary\CyComponentLibrary.cylib\BLE_v2_0\Library\gccCyBLEStack_BLE_SOC_PERIPHERAL.a(llh_api.o)
 .debug_frame   0x00006ffc       0x48 D:\program\CY8\PSoC Creator\3.2\PSoC Creator\psoc\content\cycomponentlibrary\CyComponentLibrary.cylib\BLE_v2_0\Library\gccCyBLEStack_BLE_SOC_PERIPHERAL.a(llh_api.o)
 .debug_frame   0x00007044       0x48 D:\program\CY8\PSoC Creator\3.2\PSoC Creator\psoc\content\cycomponentlibrary\CyComponentLibrary.cylib\BLE_v2_0\Library\gccCyBLEStack_BLE_SOC_PERIPHERAL.a(llh_api.o)
 .debug_frame   0x0000708c       0x44 D:\program\CY8\PSoC Creator\3.2\PSoC Creator\psoc\content\cycomponentlibrary\CyComponentLibrary.cylib\BLE_v2_0\Library\gccCyBLEStack_BLE_SOC_PERIPHERAL.a(llh_api.o)
 .debug_frame   0x000070d0       0x44 D:\program\CY8\PSoC Creator\3.2\PSoC Creator\psoc\content\cycomponentlibrary\CyComponentLibrary.cylib\BLE_v2_0\Library\gccCyBLEStack_BLE_SOC_PERIPHERAL.a(llh_api.o)
 .debug_frame   0x00007114       0x44 D:\program\CY8\PSoC Creator\3.2\PSoC Creator\psoc\content\cycomponentlibrary\CyComponentLibrary.cylib\BLE_v2_0\Library\gccCyBLEStack_BLE_SOC_PERIPHERAL.a(llh_api.o)
 .debug_frame   0x00007158       0x44 D:\program\CY8\PSoC Creator\3.2\PSoC Creator\psoc\content\cycomponentlibrary\CyComponentLibrary.cylib\BLE_v2_0\Library\gccCyBLEStack_BLE_SOC_PERIPHERAL.a(llh_api.o)
 .debug_frame   0x0000719c       0x44 D:\program\CY8\PSoC Creator\3.2\PSoC Creator\psoc\content\cycomponentlibrary\CyComponentLibrary.cylib\BLE_v2_0\Library\gccCyBLEStack_BLE_SOC_PERIPHERAL.a(llh_api.o)
 .debug_frame   0x000071e0       0x44 D:\program\CY8\PSoC Creator\3.2\PSoC Creator\psoc\content\cycomponentlibrary\CyComponentLibrary.cylib\BLE_v2_0\Library\gccCyBLEStack_BLE_SOC_PERIPHERAL.a(llh_api.o)
 .debug_frame   0x00007224       0x48 D:\program\CY8\PSoC Creator\3.2\PSoC Creator\psoc\content\cycomponentlibrary\CyComponentLibrary.cylib\BLE_v2_0\Library\gccCyBLEStack_BLE_SOC_PERIPHERAL.a(llh_api.o)
 .debug_frame   0x0000726c       0x44 D:\program\CY8\PSoC Creator\3.2\PSoC Creator\psoc\content\cycomponentlibrary\CyComponentLibrary.cylib\BLE_v2_0\Library\gccCyBLEStack_BLE_SOC_PERIPHERAL.a(llh_api.o)
 .debug_frame   0x000072b0       0x44 D:\program\CY8\PSoC Creator\3.2\PSoC Creator\psoc\content\cycomponentlibrary\CyComponentLibrary.cylib\BLE_v2_0\Library\gccCyBLEStack_BLE_SOC_PERIPHERAL.a(llh_api.o)
 .debug_frame   0x000072f4       0x44 D:\program\CY8\PSoC Creator\3.2\PSoC Creator\psoc\content\cycomponentlibrary\CyComponentLibrary.cylib\BLE_v2_0\Library\gccCyBLEStack_BLE_SOC_PERIPHERAL.a(llh_api.o)
 .debug_frame   0x00007338       0x44 D:\program\CY8\PSoC Creator\3.2\PSoC Creator\psoc\content\cycomponentlibrary\CyComponentLibrary.cylib\BLE_v2_0\Library\gccCyBLEStack_BLE_SOC_PERIPHERAL.a(llh_api.o)
 .debug_frame   0x0000737c       0x44 D:\program\CY8\PSoC Creator\3.2\PSoC Creator\psoc\content\cycomponentlibrary\CyComponentLibrary.cylib\BLE_v2_0\Library\gccCyBLEStack_BLE_SOC_PERIPHERAL.a(llh_api.o)
 .debug_frame   0x000073c0       0x44 D:\program\CY8\PSoC Creator\3.2\PSoC Creator\psoc\content\cycomponentlibrary\CyComponentLibrary.cylib\BLE_v2_0\Library\gccCyBLEStack_BLE_SOC_PERIPHERAL.a(llh_api.o)
 .debug_frame   0x00007404       0x44 D:\program\CY8\PSoC Creator\3.2\PSoC Creator\psoc\content\cycomponentlibrary\CyComponentLibrary.cylib\BLE_v2_0\Library\gccCyBLEStack_BLE_SOC_PERIPHERAL.a(llh_api.o)
 .debug_frame   0x00007448       0x48 D:\program\CY8\PSoC Creator\3.2\PSoC Creator\psoc\content\cycomponentlibrary\CyComponentLibrary.cylib\BLE_v2_0\Library\gccCyBLEStack_BLE_SOC_PERIPHERAL.a(llh_api.o)
 .debug_frame   0x00007490       0x48 D:\program\CY8\PSoC Creator\3.2\PSoC Creator\psoc\content\cycomponentlibrary\CyComponentLibrary.cylib\BLE_v2_0\Library\gccCyBLEStack_BLE_SOC_PERIPHERAL.a(llh_api.o)
 .debug_frame   0x000074d8       0x44 D:\program\CY8\PSoC Creator\3.2\PSoC Creator\psoc\content\cycomponentlibrary\CyComponentLibrary.cylib\BLE_v2_0\Library\gccCyBLEStack_BLE_SOC_PERIPHERAL.a(llh_api.o)
 .debug_frame   0x0000751c       0x44 D:\program\CY8\PSoC Creator\3.2\PSoC Creator\psoc\content\cycomponentlibrary\CyComponentLibrary.cylib\BLE_v2_0\Library\gccCyBLEStack_BLE_SOC_PERIPHERAL.a(llh_api.o)
 .debug_frame   0x00007560       0x48 D:\program\CY8\PSoC Creator\3.2\PSoC Creator\psoc\content\cycomponentlibrary\CyComponentLibrary.cylib\BLE_v2_0\Library\gccCyBLEStack_BLE_SOC_PERIPHERAL.a(llh_api.o)
 .debug_frame   0x000075a8       0x48 D:\program\CY8\PSoC Creator\3.2\PSoC Creator\psoc\content\cycomponentlibrary\CyComponentLibrary.cylib\BLE_v2_0\Library\gccCyBLEStack_BLE_SOC_PERIPHERAL.a(llh_api.o)
 .debug_frame   0x000075f0       0x44 D:\program\CY8\PSoC Creator\3.2\PSoC Creator\psoc\content\cycomponentlibrary\CyComponentLibrary.cylib\BLE_v2_0\Library\gccCyBLEStack_BLE_SOC_PERIPHERAL.a(llh_api.o)
 .debug_frame   0x00007634       0x44 D:\program\CY8\PSoC Creator\3.2\PSoC Creator\psoc\content\cycomponentlibrary\CyComponentLibrary.cylib\BLE_v2_0\Library\gccCyBLEStack_BLE_SOC_PERIPHERAL.a(llh_api.o)
 .debug_frame   0x00007678       0x44 D:\program\CY8\PSoC Creator\3.2\PSoC Creator\psoc\content\cycomponentlibrary\CyComponentLibrary.cylib\BLE_v2_0\Library\gccCyBLEStack_BLE_SOC_PERIPHERAL.a(llh_api.o)
 .debug_frame   0x000076bc       0x44 D:\program\CY8\PSoC Creator\3.2\PSoC Creator\psoc\content\cycomponentlibrary\CyComponentLibrary.cylib\BLE_v2_0\Library\gccCyBLEStack_BLE_SOC_PERIPHERAL.a(llh_api.o)
 .debug_frame   0x00007700       0x44 D:\program\CY8\PSoC Creator\3.2\PSoC Creator\psoc\content\cycomponentlibrary\CyComponentLibrary.cylib\BLE_v2_0\Library\gccCyBLEStack_BLE_SOC_PERIPHERAL.a(llh_api.o)
 .debug_frame   0x00007744       0x4c D:\program\CY8\PSoC Creator\3.2\PSoC Creator\psoc\content\cycomponentlibrary\CyComponentLibrary.cylib\BLE_v2_0\Library\gccCyBLEStack_BLE_SOC_PERIPHERAL.a(llh_api.o)
 .debug_frame   0x00007790       0x44 D:\program\CY8\PSoC Creator\3.2\PSoC Creator\psoc\content\cycomponentlibrary\CyComponentLibrary.cylib\BLE_v2_0\Library\gccCyBLEStack_BLE_SOC_PERIPHERAL.a(llh_api.o)
 .debug_frame   0x000077d4       0x50 D:\program\CY8\PSoC Creator\3.2\PSoC Creator\psoc\content\cycomponentlibrary\CyComponentLibrary.cylib\BLE_v2_0\Library\gccCyBLEStack_BLE_SOC_PERIPHERAL.a(llh_api.o)
 .debug_frame   0x00007824       0x3c D:\program\CY8\PSoC Creator\3.2\PSoC Creator\psoc\content\cycomponentlibrary\CyComponentLibrary.cylib\BLE_v2_0\Library\gccCyBLEStack_BLE_SOC_PERIPHERAL.a(llh_api.o)
 .debug_frame   0x00007860       0x44 D:\program\CY8\PSoC Creator\3.2\PSoC Creator\psoc\content\cycomponentlibrary\CyComponentLibrary.cylib\BLE_v2_0\Library\gccCyBLEStack_BLE_SOC_PERIPHERAL.a(llh_api.o)
 .debug_frame   0x000078a4       0x44 D:\program\CY8\PSoC Creator\3.2\PSoC Creator\psoc\content\cycomponentlibrary\CyComponentLibrary.cylib\BLE_v2_0\Library\gccCyBLEStack_BLE_SOC_PERIPHERAL.a(llh_api.o)
 .debug_frame   0x000078e8       0x48 D:\program\CY8\PSoC Creator\3.2\PSoC Creator\psoc\content\cycomponentlibrary\CyComponentLibrary.cylib\BLE_v2_0\Library\gccCyBLEStack_BLE_SOC_PERIPHERAL.a(llh_api.o)
 .debug_frame   0x00007930       0x3c D:\program\CY8\PSoC Creator\3.2\PSoC Creator\psoc\content\cycomponentlibrary\CyComponentLibrary.cylib\BLE_v2_0\Library\gccCyBLEStack_BLE_SOC_PERIPHERAL.a(llh_api.o)
 .debug_frame   0x0000796c       0x3c D:\program\CY8\PSoC Creator\3.2\PSoC Creator\psoc\content\cycomponentlibrary\CyComponentLibrary.cylib\BLE_v2_0\Library\gccCyBLEStack_BLE_SOC_PERIPHERAL.a(llh_api.o)
 .debug_frame   0x000079a8       0x44 D:\program\CY8\PSoC Creator\3.2\PSoC Creator\psoc\content\cycomponentlibrary\CyComponentLibrary.cylib\BLE_v2_0\Library\gccCyBLEStack_BLE_SOC_PERIPHERAL.a(llh_api.o)
 .debug_frame   0x000079ec       0x44 D:\program\CY8\PSoC Creator\3.2\PSoC Creator\psoc\content\cycomponentlibrary\CyComponentLibrary.cylib\BLE_v2_0\Library\gccCyBLEStack_BLE_SOC_PERIPHERAL.a(llh_api.o)
 .debug_frame   0x00007a30       0x44 D:\program\CY8\PSoC Creator\3.2\PSoC Creator\psoc\content\cycomponentlibrary\CyComponentLibrary.cylib\BLE_v2_0\Library\gccCyBLEStack_BLE_SOC_PERIPHERAL.a(llh_api.o)
 .debug_frame   0x00007a74       0x44 D:\program\CY8\PSoC Creator\3.2\PSoC Creator\psoc\content\cycomponentlibrary\CyComponentLibrary.cylib\BLE_v2_0\Library\gccCyBLEStack_BLE_SOC_PERIPHERAL.a(llh_api.o)
 .debug_frame   0x00007ab8       0x44 D:\program\CY8\PSoC Creator\3.2\PSoC Creator\psoc\content\cycomponentlibrary\CyComponentLibrary.cylib\BLE_v2_0\Library\gccCyBLEStack_BLE_SOC_PERIPHERAL.a(llh_api.o)
 .debug_frame   0x00007afc       0x44 D:\program\CY8\PSoC Creator\3.2\PSoC Creator\psoc\content\cycomponentlibrary\CyComponentLibrary.cylib\BLE_v2_0\Library\gccCyBLEStack_BLE_SOC_PERIPHERAL.a(llh_api.o)
 .debug_frame   0x00007b40       0x44 D:\program\CY8\PSoC Creator\3.2\PSoC Creator\psoc\content\cycomponentlibrary\CyComponentLibrary.cylib\BLE_v2_0\Library\gccCyBLEStack_BLE_SOC_PERIPHERAL.a(llh_api.o)
 .debug_frame   0x00007b84       0x48 D:\program\CY8\PSoC Creator\3.2\PSoC Creator\psoc\content\cycomponentlibrary\CyComponentLibrary.cylib\BLE_v2_0\Library\gccCyBLEStack_BLE_SOC_PERIPHERAL.a(llh_api.o)
 .debug_frame   0x00007bcc       0x4c D:\program\CY8\PSoC Creator\3.2\PSoC Creator\psoc\content\cycomponentlibrary\CyComponentLibrary.cylib\BLE_v2_0\Library\gccCyBLEStack_BLE_SOC_PERIPHERAL.a(llh_api.o)
 .debug_frame   0x00007c18       0x48 D:\program\CY8\PSoC Creator\3.2\PSoC Creator\psoc\content\cycomponentlibrary\CyComponentLibrary.cylib\BLE_v2_0\Library\gccCyBLEStack_BLE_SOC_PERIPHERAL.a(llh_api.o)
 .debug_frame   0x00007c60       0x48 D:\program\CY8\PSoC Creator\3.2\PSoC Creator\psoc\content\cycomponentlibrary\CyComponentLibrary.cylib\BLE_v2_0\Library\gccCyBLEStack_BLE_SOC_PERIPHERAL.a(llh_api.o)
 .debug_frame   0x00007ca8       0x48 D:\program\CY8\PSoC Creator\3.2\PSoC Creator\psoc\content\cycomponentlibrary\CyComponentLibrary.cylib\BLE_v2_0\Library\gccCyBLEStack_BLE_SOC_PERIPHERAL.a(llh_api.o)
 .debug_frame   0x00007cf0       0x44 D:\program\CY8\PSoC Creator\3.2\PSoC Creator\psoc\content\cycomponentlibrary\CyComponentLibrary.cylib\BLE_v2_0\Library\gccCyBLEStack_BLE_SOC_PERIPHERAL.a(llh_api.o)
 .debug_frame   0x00007d34       0x44 D:\program\CY8\PSoC Creator\3.2\PSoC Creator\psoc\content\cycomponentlibrary\CyComponentLibrary.cylib\BLE_v2_0\Library\gccCyBLEStack_BLE_SOC_PERIPHERAL.a(llh_api.o)
 .debug_frame   0x00007d78       0x44 D:\program\CY8\PSoC Creator\3.2\PSoC Creator\psoc\content\cycomponentlibrary\CyComponentLibrary.cylib\BLE_v2_0\Library\gccCyBLEStack_BLE_SOC_PERIPHERAL.a(llh_api.o)
 .debug_frame   0x00007dbc       0x44 D:\program\CY8\PSoC Creator\3.2\PSoC Creator\psoc\content\cycomponentlibrary\CyComponentLibrary.cylib\BLE_v2_0\Library\gccCyBLEStack_BLE_SOC_PERIPHERAL.a(llh_api.o)
 .debug_frame   0x00007e00       0x48 D:\program\CY8\PSoC Creator\3.2\PSoC Creator\psoc\content\cycomponentlibrary\CyComponentLibrary.cylib\BLE_v2_0\Library\gccCyBLEStack_BLE_SOC_PERIPHERAL.a(llh_api.o)
 .debug_frame   0x00007e48       0x44 D:\program\CY8\PSoC Creator\3.2\PSoC Creator\psoc\content\cycomponentlibrary\CyComponentLibrary.cylib\BLE_v2_0\Library\gccCyBLEStack_BLE_SOC_PERIPHERAL.a(llh_api.o)
 .debug_frame   0x00007e8c       0x48 D:\program\CY8\PSoC Creator\3.2\PSoC Creator\psoc\content\cycomponentlibrary\CyComponentLibrary.cylib\BLE_v2_0\Library\gccCyBLEStack_BLE_SOC_PERIPHERAL.a(llh_api.o)
 .debug_frame   0x00007ed4       0x48 D:\program\CY8\PSoC Creator\3.2\PSoC Creator\psoc\content\cycomponentlibrary\CyComponentLibrary.cylib\BLE_v2_0\Library\gccCyBLEStack_BLE_SOC_PERIPHERAL.a(llh_api.o)
 .debug_frame   0x00007f1c       0x44 D:\program\CY8\PSoC Creator\3.2\PSoC Creator\psoc\content\cycomponentlibrary\CyComponentLibrary.cylib\BLE_v2_0\Library\gccCyBLEStack_BLE_SOC_PERIPHERAL.a(llh_api.o)
 .debug_frame   0x00007f60       0x48 D:\program\CY8\PSoC Creator\3.2\PSoC Creator\psoc\content\cycomponentlibrary\CyComponentLibrary.cylib\BLE_v2_0\Library\gccCyBLEStack_BLE_SOC_PERIPHERAL.a(llh_api.o)
 .debug_frame   0x00007fa8       0x48 D:\program\CY8\PSoC Creator\3.2\PSoC Creator\psoc\content\cycomponentlibrary\CyComponentLibrary.cylib\BLE_v2_0\Library\gccCyBLEStack_BLE_SOC_PERIPHERAL.a(llh_api.o)
 .debug_frame   0x00007ff0       0x44 D:\program\CY8\PSoC Creator\3.2\PSoC Creator\psoc\content\cycomponentlibrary\CyComponentLibrary.cylib\BLE_v2_0\Library\gccCyBLEStack_BLE_SOC_PERIPHERAL.a(llh_api.o)
 .debug_frame   0x00008034       0x4c D:\program\CY8\PSoC Creator\3.2\PSoC Creator\psoc\content\cycomponentlibrary\CyComponentLibrary.cylib\BLE_v2_0\Library\gccCyBLEStack_BLE_SOC_PERIPHERAL.a(llh_api.o)
 .debug_frame   0x00008080       0x44 D:\program\CY8\PSoC Creator\3.2\PSoC Creator\psoc\content\cycomponentlibrary\CyComponentLibrary.cylib\BLE_v2_0\Library\gccCyBLEStack_BLE_SOC_PERIPHERAL.a(llh_api.o)
 .debug_frame   0x000080c4       0x44 D:\program\CY8\PSoC Creator\3.2\PSoC Creator\psoc\content\cycomponentlibrary\CyComponentLibrary.cylib\BLE_v2_0\Library\gccCyBLEStack_BLE_SOC_PERIPHERAL.a(llh_api.o)
 .debug_frame   0x00008108       0x4c D:\program\CY8\PSoC Creator\3.2\PSoC Creator\psoc\content\cycomponentlibrary\CyComponentLibrary.cylib\BLE_v2_0\Library\gccCyBLEStack_BLE_SOC_PERIPHERAL.a(llh_api.o)
 .debug_frame   0x00008154       0x44 D:\program\CY8\PSoC Creator\3.2\PSoC Creator\psoc\content\cycomponentlibrary\CyComponentLibrary.cylib\BLE_v2_0\Library\gccCyBLEStack_BLE_SOC_PERIPHERAL.a(llh_api.o)
 .debug_frame   0x00008198       0x50 D:\program\CY8\PSoC Creator\3.2\PSoC Creator\psoc\content\cycomponentlibrary\CyComponentLibrary.cylib\BLE_v2_0\Library\gccCyBLEStack_BLE_SOC_PERIPHERAL.a(llh_api.o)
 .debug_frame   0x000081e8       0x48 D:\program\CY8\PSoC Creator\3.2\PSoC Creator\psoc\content\cycomponentlibrary\CyComponentLibrary.cylib\BLE_v2_0\Library\gccCyBLEStack_BLE_SOC_PERIPHERAL.a(llh_api.o)
 .debug_frame   0x00008230       0x44 D:\program\CY8\PSoC Creator\3.2\PSoC Creator\psoc\content\cycomponentlibrary\CyComponentLibrary.cylib\BLE_v2_0\Library\gccCyBLEStack_BLE_SOC_PERIPHERAL.a(llh_api.o)
 .debug_frame   0x00008274       0x44 D:\program\CY8\PSoC Creator\3.2\PSoC Creator\psoc\content\cycomponentlibrary\CyComponentLibrary.cylib\BLE_v2_0\Library\gccCyBLEStack_BLE_SOC_PERIPHERAL.a(llh_api.o)
 .debug_frame   0x000082b8       0x48 D:\program\CY8\PSoC Creator\3.2\PSoC Creator\psoc\content\cycomponentlibrary\CyComponentLibrary.cylib\BLE_v2_0\Library\gccCyBLEStack_BLE_SOC_PERIPHERAL.a(llh_api.o)
 .debug_frame   0x00008300       0x44 D:\program\CY8\PSoC Creator\3.2\PSoC Creator\psoc\content\cycomponentlibrary\CyComponentLibrary.cylib\BLE_v2_0\Library\gccCyBLEStack_BLE_SOC_PERIPHERAL.a(llh_api.o)
 .debug_frame   0x00008344       0x44 D:\program\CY8\PSoC Creator\3.2\PSoC Creator\psoc\content\cycomponentlibrary\CyComponentLibrary.cylib\BLE_v2_0\Library\gccCyBLEStack_BLE_SOC_PERIPHERAL.a(llh_api.o)
 .debug_frame   0x00008388       0x44 D:\program\CY8\PSoC Creator\3.2\PSoC Creator\psoc\content\cycomponentlibrary\CyComponentLibrary.cylib\BLE_v2_0\Library\gccCyBLEStack_BLE_SOC_PERIPHERAL.a(llh_api.o)
 .debug_frame   0x000083cc       0x48 D:\program\CY8\PSoC Creator\3.2\PSoC Creator\psoc\content\cycomponentlibrary\CyComponentLibrary.cylib\BLE_v2_0\Library\gccCyBLEStack_BLE_SOC_PERIPHERAL.a(llh_api.o)
 .debug_frame   0x00008414       0x44 D:\program\CY8\PSoC Creator\3.2\PSoC Creator\psoc\content\cycomponentlibrary\CyComponentLibrary.cylib\BLE_v2_0\Library\gccCyBLEStack_BLE_SOC_PERIPHERAL.a(llh_api.o)
 .debug_frame   0x00008458       0x44 D:\program\CY8\PSoC Creator\3.2\PSoC Creator\psoc\content\cycomponentlibrary\CyComponentLibrary.cylib\BLE_v2_0\Library\gccCyBLEStack_BLE_SOC_PERIPHERAL.a(llh_api.o)
 .debug_frame   0x0000849c       0x44 D:\program\CY8\PSoC Creator\3.2\PSoC Creator\psoc\content\cycomponentlibrary\CyComponentLibrary.cylib\BLE_v2_0\Library\gccCyBLEStack_BLE_SOC_PERIPHERAL.a(llh_api.o)
 .debug_frame   0x000084e0       0x44 D:\program\CY8\PSoC Creator\3.2\PSoC Creator\psoc\content\cycomponentlibrary\CyComponentLibrary.cylib\BLE_v2_0\Library\gccCyBLEStack_BLE_SOC_PERIPHERAL.a(llh_api.o)
 .debug_frame   0x00008524       0x44 D:\program\CY8\PSoC Creator\3.2\PSoC Creator\psoc\content\cycomponentlibrary\CyComponentLibrary.cylib\BLE_v2_0\Library\gccCyBLEStack_BLE_SOC_PERIPHERAL.a(llh_api.o)
 .debug_frame   0x00008568       0x44 D:\program\CY8\PSoC Creator\3.2\PSoC Creator\psoc\content\cycomponentlibrary\CyComponentLibrary.cylib\BLE_v2_0\Library\gccCyBLEStack_BLE_SOC_PERIPHERAL.a(llh_api.o)
 .debug_frame   0x000085ac       0x44 D:\program\CY8\PSoC Creator\3.2\PSoC Creator\psoc\content\cycomponentlibrary\CyComponentLibrary.cylib\BLE_v2_0\Library\gccCyBLEStack_BLE_SOC_PERIPHERAL.a(llh_api.o)
 .debug_frame   0x000085f0       0x3c D:\program\CY8\PSoC Creator\3.2\PSoC Creator\psoc\content\cycomponentlibrary\CyComponentLibrary.cylib\BLE_v2_0\Library\gccCyBLEStack_BLE_SOC_PERIPHERAL.a(llh_api.o)
 .debug_frame   0x0000862c       0x44 D:\program\CY8\PSoC Creator\3.2\PSoC Creator\psoc\content\cycomponentlibrary\CyComponentLibrary.cylib\BLE_v2_0\Library\gccCyBLEStack_BLE_SOC_PERIPHERAL.a(llh_api.o)
 .debug_frame   0x00008670       0x44 D:\program\CY8\PSoC Creator\3.2\PSoC Creator\psoc\content\cycomponentlibrary\CyComponentLibrary.cylib\BLE_v2_0\Library\gccCyBLEStack_BLE_SOC_PERIPHERAL.a(llh_api.o)
 .debug_frame   0x000086b4       0x44 D:\program\CY8\PSoC Creator\3.2\PSoC Creator\psoc\content\cycomponentlibrary\CyComponentLibrary.cylib\BLE_v2_0\Library\gccCyBLEStack_BLE_SOC_PERIPHERAL.a(llh_api.o)
 .debug_frame   0x000086f8       0x48 D:\program\CY8\PSoC Creator\3.2\PSoC Creator\psoc\content\cycomponentlibrary\CyComponentLibrary.cylib\BLE_v2_0\Library\gccCyBLEStack_BLE_SOC_PERIPHERAL.a(llh_api.o)
 .debug_frame   0x00008740       0x44 D:\program\CY8\PSoC Creator\3.2\PSoC Creator\psoc\content\cycomponentlibrary\CyComponentLibrary.cylib\BLE_v2_0\Library\gccCyBLEStack_BLE_SOC_PERIPHERAL.a(llh_api.o)
 .debug_frame   0x00008784       0x44 D:\program\CY8\PSoC Creator\3.2\PSoC Creator\psoc\content\cycomponentlibrary\CyComponentLibrary.cylib\BLE_v2_0\Library\gccCyBLEStack_BLE_SOC_PERIPHERAL.a(llh_api.o)
 .debug_frame   0x000087c8       0x44 D:\program\CY8\PSoC Creator\3.2\PSoC Creator\psoc\content\cycomponentlibrary\CyComponentLibrary.cylib\BLE_v2_0\Library\gccCyBLEStack_BLE_SOC_PERIPHERAL.a(llh_api.o)
 .debug_frame   0x0000880c       0x4c D:\program\CY8\PSoC Creator\3.2\PSoC Creator\psoc\content\cycomponentlibrary\CyComponentLibrary.cylib\BLE_v2_0\Library\gccCyBLEStack_BLE_SOC_PERIPHERAL.a(llh_api.o)
 .debug_frame   0x00008858       0x48 D:\program\CY8\PSoC Creator\3.2\PSoC Creator\psoc\content\cycomponentlibrary\CyComponentLibrary.cylib\BLE_v2_0\Library\gccCyBLEStack_BLE_SOC_PERIPHERAL.a(llh_api.o)
 .debug_frame   0x000088a0       0x44 D:\program\CY8\PSoC Creator\3.2\PSoC Creator\psoc\content\cycomponentlibrary\CyComponentLibrary.cylib\BLE_v2_0\Library\gccCyBLEStack_BLE_SOC_PERIPHERAL.a(llh_api.o)
 .debug_frame   0x000088e4       0x44 D:\program\CY8\PSoC Creator\3.2\PSoC Creator\psoc\content\cycomponentlibrary\CyComponentLibrary.cylib\BLE_v2_0\Library\gccCyBLEStack_BLE_SOC_PERIPHERAL.a(llh_api.o)
 .debug_frame   0x00008928       0x44 D:\program\CY8\PSoC Creator\3.2\PSoC Creator\psoc\content\cycomponentlibrary\CyComponentLibrary.cylib\BLE_v2_0\Library\gccCyBLEStack_BLE_SOC_PERIPHERAL.a(llh_api.o)
 .debug_frame   0x0000896c       0x44 D:\program\CY8\PSoC Creator\3.2\PSoC Creator\psoc\content\cycomponentlibrary\CyComponentLibrary.cylib\BLE_v2_0\Library\gccCyBLEStack_BLE_SOC_PERIPHERAL.a(llh_api.o)
 .debug_frame   0x000089b0       0x44 D:\program\CY8\PSoC Creator\3.2\PSoC Creator\psoc\content\cycomponentlibrary\CyComponentLibrary.cylib\BLE_v2_0\Library\gccCyBLEStack_BLE_SOC_PERIPHERAL.a(llh_api.o)
 .debug_frame   0x000089f4       0x48 D:\program\CY8\PSoC Creator\3.2\PSoC Creator\psoc\content\cycomponentlibrary\CyComponentLibrary.cylib\BLE_v2_0\Library\gccCyBLEStack_BLE_SOC_PERIPHERAL.a(llh_api.o)
 .debug_frame   0x00008a3c       0x44 D:\program\CY8\PSoC Creator\3.2\PSoC Creator\psoc\content\cycomponentlibrary\CyComponentLibrary.cylib\BLE_v2_0\Library\gccCyBLEStack_BLE_SOC_PERIPHERAL.a(llh_api.o)
 .debug_frame   0x00008a80       0x44 D:\program\CY8\PSoC Creator\3.2\PSoC Creator\psoc\content\cycomponentlibrary\CyComponentLibrary.cylib\BLE_v2_0\Library\gccCyBLEStack_BLE_SOC_PERIPHERAL.a(llh_api.o)
 .debug_frame   0x00008ac4       0x44 D:\program\CY8\PSoC Creator\3.2\PSoC Creator\psoc\content\cycomponentlibrary\CyComponentLibrary.cylib\BLE_v2_0\Library\gccCyBLEStack_BLE_SOC_PERIPHERAL.a(llh_utils.o)
 .debug_frame   0x00008b08       0x44 D:\program\CY8\PSoC Creator\3.2\PSoC Creator\psoc\content\cycomponentlibrary\CyComponentLibrary.cylib\BLE_v2_0\Library\gccCyBLEStack_BLE_SOC_PERIPHERAL.a(llh_utils.o)
 .debug_frame   0x00008b4c       0x3c D:\program\CY8\PSoC Creator\3.2\PSoC Creator\psoc\content\cycomponentlibrary\CyComponentLibrary.cylib\BLE_v2_0\Library\gccCyBLEStack_BLE_SOC_PERIPHERAL.a(llh_utils.o)
 .debug_frame   0x00008b88       0x3c D:\program\CY8\PSoC Creator\3.2\PSoC Creator\psoc\content\cycomponentlibrary\CyComponentLibrary.cylib\BLE_v2_0\Library\gccCyBLEStack_BLE_SOC_PERIPHERAL.a(llh_utils.o)
 .debug_frame   0x00008bc4       0x3c D:\program\CY8\PSoC Creator\3.2\PSoC Creator\psoc\content\cycomponentlibrary\CyComponentLibrary.cylib\BLE_v2_0\Library\gccCyBLEStack_BLE_SOC_PERIPHERAL.a(llh_utils.o)
 .debug_frame   0x00008c00       0x44 D:\program\CY8\PSoC Creator\3.2\PSoC Creator\psoc\content\cycomponentlibrary\CyComponentLibrary.cylib\BLE_v2_0\Library\gccCyBLEStack_BLE_SOC_PERIPHERAL.a(llh_utils.o)
 .debug_frame   0x00008c44       0x4c D:\program\CY8\PSoC Creator\3.2\PSoC Creator\psoc\content\cycomponentlibrary\CyComponentLibrary.cylib\BLE_v2_0\Library\gccCyBLEStack_BLE_SOC_PERIPHERAL.a(llh_utils.o)
 .debug_frame   0x00008c90       0x48 D:\program\CY8\PSoC Creator\3.2\PSoC Creator\psoc\content\cycomponentlibrary\CyComponentLibrary.cylib\BLE_v2_0\Library\gccCyBLEStack_BLE_SOC_PERIPHERAL.a(llh_utils.o)
 .debug_frame   0x00008cd8       0x48 D:\program\CY8\PSoC Creator\3.2\PSoC Creator\psoc\content\cycomponentlibrary\CyComponentLibrary.cylib\BLE_v2_0\Library\gccCyBLEStack_BLE_SOC_PERIPHERAL.a(ll_pdu.o)
 .debug_frame   0x00008d20       0x48 D:\program\CY8\PSoC Creator\3.2\PSoC Creator\psoc\content\cycomponentlibrary\CyComponentLibrary.cylib\BLE_v2_0\Library\gccCyBLEStack_BLE_SOC_PERIPHERAL.a(ll_pdu.o)
 .debug_frame   0x00008d68       0x48 D:\program\CY8\PSoC Creator\3.2\PSoC Creator\psoc\content\cycomponentlibrary\CyComponentLibrary.cylib\BLE_v2_0\Library\gccCyBLEStack_BLE_SOC_PERIPHERAL.a(ll_pdu.o)
 .debug_frame   0x00008db0       0x48 D:\program\CY8\PSoC Creator\3.2\PSoC Creator\psoc\content\cycomponentlibrary\CyComponentLibrary.cylib\BLE_v2_0\Library\gccCyBLEStack_BLE_SOC_PERIPHERAL.a(ll_pdu.o)
 .debug_frame   0x00008df8       0x4c D:\program\CY8\PSoC Creator\3.2\PSoC Creator\psoc\content\cycomponentlibrary\CyComponentLibrary.cylib\BLE_v2_0\Library\gccCyBLEStack_BLE_SOC_PERIPHERAL.a(ll_pdu.o)
 .debug_frame   0x00008e44       0x3c D:\program\CY8\PSoC Creator\3.2\PSoC Creator\psoc\content\cycomponentlibrary\CyComponentLibrary.cylib\BLE_v2_0\Library\gccCyBLEStack_BLE_SOC_PERIPHERAL.a(ll_pdu.o)
 .debug_frame   0x00008e80       0x3c D:\program\CY8\PSoC Creator\3.2\PSoC Creator\psoc\content\cycomponentlibrary\CyComponentLibrary.cylib\BLE_v2_0\Library\gccCyBLEStack_BLE_SOC_PERIPHERAL.a(ll_pdu.o)
 .debug_frame   0x00008ebc       0x4c D:\program\CY8\PSoC Creator\3.2\PSoC Creator\psoc\content\cycomponentlibrary\CyComponentLibrary.cylib\BLE_v2_0\Library\gccCyBLEStack_BLE_SOC_PERIPHERAL.a(ll_pdu.o)
 .debug_frame   0x00008f08       0x44 D:\program\CY8\PSoC Creator\3.2\PSoC Creator\psoc\content\cycomponentlibrary\CyComponentLibrary.cylib\BLE_v2_0\Library\gccCyBLEStack_BLE_SOC_PERIPHERAL.a(ll_pdu.o)
 .debug_frame   0x00008f4c       0x48 D:\program\CY8\PSoC Creator\3.2\PSoC Creator\psoc\content\cycomponentlibrary\CyComponentLibrary.cylib\BLE_v2_0\Library\gccCyBLEStack_BLE_SOC_PERIPHERAL.a(ll_pdu.o)
 .debug_frame   0x00008f94       0x44 D:\program\CY8\PSoC Creator\3.2\PSoC Creator\psoc\content\cycomponentlibrary\CyComponentLibrary.cylib\BLE_v2_0\Library\gccCyBLEStack_BLE_SOC_PERIPHERAL.a(ll_pdu.o)
 .debug_frame   0x00008fd8       0x48 D:\program\CY8\PSoC Creator\3.2\PSoC Creator\psoc\content\cycomponentlibrary\CyComponentLibrary.cylib\BLE_v2_0\Library\gccCyBLEStack_BLE_SOC_PERIPHERAL.a(ll_pdu.o)
 .debug_frame   0x00009020       0x48 D:\program\CY8\PSoC Creator\3.2\PSoC Creator\psoc\content\cycomponentlibrary\CyComponentLibrary.cylib\BLE_v2_0\Library\gccCyBLEStack_BLE_SOC_PERIPHERAL.a(ll_pdu.o)
 .debug_frame   0x00009068       0x3c D:\program\CY8\PSoC Creator\3.2\PSoC Creator\psoc\content\cycomponentlibrary\CyComponentLibrary.cylib\BLE_v2_0\Library\gccCyBLEStack_BLE_SOC_PERIPHERAL.a(ll_pdu.o)
 .debug_frame   0x000090a4       0x48 D:\program\CY8\PSoC Creator\3.2\PSoC Creator\psoc\content\cycomponentlibrary\CyComponentLibrary.cylib\BLE_v2_0\Library\gccCyBLEStack_BLE_SOC_PERIPHERAL.a(ll_pdu.o)
 .debug_frame   0x000090ec       0x48 D:\program\CY8\PSoC Creator\3.2\PSoC Creator\psoc\content\cycomponentlibrary\CyComponentLibrary.cylib\BLE_v2_0\Library\gccCyBLEStack_BLE_SOC_PERIPHERAL.a(ll_pdu.o)
 .debug_frame   0x00009134       0x48 D:\program\CY8\PSoC Creator\3.2\PSoC Creator\psoc\content\cycomponentlibrary\CyComponentLibrary.cylib\BLE_v2_0\Library\gccCyBLEStack_BLE_SOC_PERIPHERAL.a(ll_pdu.o)
 .debug_frame   0x0000917c       0x48 D:\program\CY8\PSoC Creator\3.2\PSoC Creator\psoc\content\cycomponentlibrary\CyComponentLibrary.cylib\BLE_v2_0\Library\gccCyBLEStack_BLE_SOC_PERIPHERAL.a(ll_pdu.o)
 .debug_frame   0x000091c4       0x48 D:\program\CY8\PSoC Creator\3.2\PSoC Creator\psoc\content\cycomponentlibrary\CyComponentLibrary.cylib\BLE_v2_0\Library\gccCyBLEStack_BLE_SOC_PERIPHERAL.a(ll_pdu.o)
 .debug_frame   0x0000920c       0x48 D:\program\CY8\PSoC Creator\3.2\PSoC Creator\psoc\content\cycomponentlibrary\CyComponentLibrary.cylib\BLE_v2_0\Library\gccCyBLEStack_BLE_SOC_PERIPHERAL.a(ll_pdu.o)
 .debug_frame   0x00009254       0x48 D:\program\CY8\PSoC Creator\3.2\PSoC Creator\psoc\content\cycomponentlibrary\CyComponentLibrary.cylib\BLE_v2_0\Library\gccCyBLEStack_BLE_SOC_PERIPHERAL.a(ll_pdu.o)
 .debug_frame   0x0000929c       0x3c D:\program\CY8\PSoC Creator\3.2\PSoC Creator\psoc\content\cycomponentlibrary\CyComponentLibrary.cylib\BLE_v2_0\Library\gccCyBLEStack_BLE_SOC_PERIPHERAL.a(ll_pdu.o)
 .debug_frame   0x000092d8       0x44 D:\program\CY8\PSoC Creator\3.2\PSoC Creator\psoc\content\cycomponentlibrary\CyComponentLibrary.cylib\BLE_v2_0\Library\gccCyBLEStack_BLE_SOC_PERIPHERAL.a(ll_pdu.o)
 .debug_frame   0x0000931c       0x48 D:\program\CY8\PSoC Creator\3.2\PSoC Creator\psoc\content\cycomponentlibrary\CyComponentLibrary.cylib\BLE_v2_0\Library\gccCyBLEStack_BLE_SOC_PERIPHERAL.a(ll_pdu.o)
 .debug_frame   0x00009364       0x48 D:\program\CY8\PSoC Creator\3.2\PSoC Creator\psoc\content\cycomponentlibrary\CyComponentLibrary.cylib\BLE_v2_0\Library\gccCyBLEStack_BLE_SOC_PERIPHERAL.a(ll_pdu.o)
 .debug_frame   0x000093ac       0x48 D:\program\CY8\PSoC Creator\3.2\PSoC Creator\psoc\content\cycomponentlibrary\CyComponentLibrary.cylib\BLE_v2_0\Library\gccCyBLEStack_BLE_SOC_PERIPHERAL.a(ll_pdu.o)
 .debug_frame   0x000093f4       0x44 D:\program\CY8\PSoC Creator\3.2\PSoC Creator\psoc\content\cycomponentlibrary\CyComponentLibrary.cylib\BLE_v2_0\Library\gccCyBLEStack_BLE_SOC_PERIPHERAL.a(ll_pdu.o)
 .debug_frame   0x00009438       0x44 D:\program\CY8\PSoC Creator\3.2\PSoC Creator\psoc\content\cycomponentlibrary\CyComponentLibrary.cylib\BLE_v2_0\Library\gccCyBLEStack_BLE_SOC_PERIPHERAL.a(ll_pdu.o)
 .debug_frame   0x0000947c       0x3c D:\program\CY8\PSoC Creator\3.2\PSoC Creator\psoc\content\cycomponentlibrary\CyComponentLibrary.cylib\BLE_v2_0\Library\gccCyBLEStack_BLE_SOC_PERIPHERAL.a(ll_pdu.o)
 .debug_frame   0x000094b8       0x3c D:\program\CY8\PSoC Creator\3.2\PSoC Creator\psoc\content\cycomponentlibrary\CyComponentLibrary.cylib\BLE_v2_0\Library\gccCyBLEStack_BLE_SOC_PERIPHERAL.a(ll_pdu.o)
 .debug_frame   0x000094f4       0x44 D:\program\CY8\PSoC Creator\3.2\PSoC Creator\psoc\content\cycomponentlibrary\CyComponentLibrary.cylib\BLE_v2_0\Library\gccCyBLEStack_BLE_SOC_PERIPHERAL.a(ll_pdu.o)
 .debug_frame   0x00009538       0x44 D:\program\CY8\PSoC Creator\3.2\PSoC Creator\psoc\content\cycomponentlibrary\CyComponentLibrary.cylib\BLE_v2_0\Library\gccCyBLEStack_BLE_SOC_PERIPHERAL.a(ll_pdu.o)
 .debug_frame   0x0000957c       0x44 D:\program\CY8\PSoC Creator\3.2\PSoC Creator\psoc\content\cycomponentlibrary\CyComponentLibrary.cylib\BLE_v2_0\Library\gccCyBLEStack_BLE_SOC_PERIPHERAL.a(ll_pdu.o)
 .debug_frame   0x000095c0       0x44 D:\program\CY8\PSoC Creator\3.2\PSoC Creator\psoc\content\cycomponentlibrary\CyComponentLibrary.cylib\BLE_v2_0\Library\gccCyBLEStack_BLE_SOC_PERIPHERAL.a(ll_pdu.o)
 .debug_frame   0x00009604       0x44 D:\program\CY8\PSoC Creator\3.2\PSoC Creator\psoc\content\cycomponentlibrary\CyComponentLibrary.cylib\BLE_v2_0\Library\gccCyBLEStack_BLE_SOC_PERIPHERAL.a(ll_pdu.o)
 .debug_frame   0x00009648       0x44 D:\program\CY8\PSoC Creator\3.2\PSoC Creator\psoc\content\cycomponentlibrary\CyComponentLibrary.cylib\BLE_v2_0\Library\gccCyBLEStack_BLE_SOC_PERIPHERAL.a(ll_pdu.o)
 .debug_frame   0x0000968c       0x3c D:\program\CY8\PSoC Creator\3.2\PSoC Creator\psoc\content\cycomponentlibrary\CyComponentLibrary.cylib\BLE_v2_0\Library\gccCyBLEStack_BLE_SOC_PERIPHERAL.a(ll_pdu.o)
 .debug_frame   0x000096c8       0x48 D:\program\CY8\PSoC Creator\3.2\PSoC Creator\psoc\content\cycomponentlibrary\CyComponentLibrary.cylib\BLE_v2_0\Library\gccCyBLEStack_BLE_SOC_PERIPHERAL.a(ll_pdu.o)
 .debug_frame   0x00009710       0x44 D:\program\CY8\PSoC Creator\3.2\PSoC Creator\psoc\content\cycomponentlibrary\CyComponentLibrary.cylib\BLE_v2_0\Library\gccCyBLEStack_BLE_SOC_PERIPHERAL.a(ll_pdu.o)
 .debug_frame   0x00009754       0x4c D:\program\CY8\PSoC Creator\3.2\PSoC Creator\psoc\content\cycomponentlibrary\CyComponentLibrary.cylib\BLE_v2_0\Library\gccCyBLEStack_BLE_SOC_PERIPHERAL.a(ll_pdu.o)
 .debug_frame   0x000097a0       0x44 D:\program\CY8\PSoC Creator\3.2\PSoC Creator\psoc\content\cycomponentlibrary\CyComponentLibrary.cylib\BLE_v2_0\Library\gccCyBLEStack_BLE_SOC_PERIPHERAL.a(ll_pdu.o)
 .debug_frame   0x000097e4       0x44 D:\program\CY8\PSoC Creator\3.2\PSoC Creator\psoc\content\cycomponentlibrary\CyComponentLibrary.cylib\BLE_v2_0\Library\gccCyBLEStack_BLE_SOC_PERIPHERAL.a(ll_pdu.o)
 .debug_frame   0x00009828       0x3c D:\program\CY8\PSoC Creator\3.2\PSoC Creator\psoc\content\cycomponentlibrary\CyComponentLibrary.cylib\BLE_v2_0\Library\gccCyBLEStack_BLE_SOC_PERIPHERAL.a(ll_pdu.o)
 .debug_frame   0x00009864       0x44 D:\program\CY8\PSoC Creator\3.2\PSoC Creator\psoc\content\cycomponentlibrary\CyComponentLibrary.cylib\BLE_v2_0\Library\gccCyBLEStack_BLE_SOC_PERIPHERAL.a(ll_pdu.o)
 .debug_frame   0x000098a8       0x44 D:\program\CY8\PSoC Creator\3.2\PSoC Creator\psoc\content\cycomponentlibrary\CyComponentLibrary.cylib\BLE_v2_0\Library\gccCyBLEStack_BLE_SOC_PERIPHERAL.a(ll_pdu.o)
 .debug_frame   0x000098ec       0x48 D:\program\CY8\PSoC Creator\3.2\PSoC Creator\psoc\content\cycomponentlibrary\CyComponentLibrary.cylib\BLE_v2_0\Library\gccCyBLEStack_BLE_SOC_PERIPHERAL.a(ll_pdu.o)
 .debug_frame   0x00009934       0x44 D:\program\CY8\PSoC Creator\3.2\PSoC Creator\psoc\content\cycomponentlibrary\CyComponentLibrary.cylib\BLE_v2_0\Library\gccCyBLEStack_BLE_SOC_PERIPHERAL.a(ll_pdu.o)
 .debug_frame   0x00009978       0x48 D:\program\CY8\PSoC Creator\3.2\PSoC Creator\psoc\content\cycomponentlibrary\CyComponentLibrary.cylib\BLE_v2_0\Library\gccCyBLEStack_BLE_SOC_PERIPHERAL.a(ll_pdu.o)
 .debug_frame   0x000099c0       0x44 D:\program\CY8\PSoC Creator\3.2\PSoC Creator\psoc\content\cycomponentlibrary\CyComponentLibrary.cylib\BLE_v2_0\Library\gccCyBLEStack_BLE_SOC_PERIPHERAL.a(ll_pdu.o)
 .debug_frame   0x00009a04       0x3c D:\program\CY8\PSoC Creator\3.2\PSoC Creator\psoc\content\cycomponentlibrary\CyComponentLibrary.cylib\BLE_v2_0\Library\gccCyBLEStack_BLE_SOC_PERIPHERAL.a(ll_pdu.o)
 .debug_frame   0x00009a40       0x44 D:\program\CY8\PSoC Creator\3.2\PSoC Creator\psoc\content\cycomponentlibrary\CyComponentLibrary.cylib\BLE_v2_0\Library\gccCyBLEStack_BLE_SOC_PERIPHERAL.a(ll_pdu.o)
 .debug_frame   0x00009a84       0x3c D:\program\CY8\PSoC Creator\3.2\PSoC Creator\psoc\content\cycomponentlibrary\CyComponentLibrary.cylib\BLE_v2_0\Library\gccCyBLEStack_BLE_SOC_PERIPHERAL.a(ll_policies.o)
 .debug_frame   0x00009ac0       0x44 D:\program\CY8\PSoC Creator\3.2\PSoC Creator\psoc\content\cycomponentlibrary\CyComponentLibrary.cylib\BLE_v2_0\Library\gccCyBLEStack_BLE_SOC_PERIPHERAL.a(ll_policies.o)
 .debug_frame   0x00009b04       0x44 D:\program\CY8\PSoC Creator\3.2\PSoC Creator\psoc\content\cycomponentlibrary\CyComponentLibrary.cylib\BLE_v2_0\Library\gccCyBLEStack_BLE_SOC_PERIPHERAL.a(ll_policies.o)
 .debug_frame   0x00009b48       0x54 D:\program\CY8\PSoC Creator\3.2\PSoC Creator\psoc\content\cycomponentlibrary\CyComponentLibrary.cylib\BLE_v2_0\Library\gccCyBLEStack_BLE_SOC_PERIPHERAL.a(ll_tasks.o)
 .debug_frame   0x00009b9c       0x48 D:\program\CY8\PSoC Creator\3.2\PSoC Creator\psoc\content\cycomponentlibrary\CyComponentLibrary.cylib\BLE_v2_0\Library\gccCyBLEStack_BLE_SOC_PERIPHERAL.a(ll_tasks.o)
 .debug_frame   0x00009be4       0x48 D:\program\CY8\PSoC Creator\3.2\PSoC Creator\psoc\content\cycomponentlibrary\CyComponentLibrary.cylib\BLE_v2_0\Library\gccCyBLEStack_BLE_SOC_PERIPHERAL.a(ll_tasks.o)
 .debug_frame   0x00009c2c       0x48 D:\program\CY8\PSoC Creator\3.2\PSoC Creator\psoc\content\cycomponentlibrary\CyComponentLibrary.cylib\BLE_v2_0\Library\gccCyBLEStack_BLE_SOC_PERIPHERAL.a(ll_utils.o)
 .debug_frame   0x00009c74       0x48 D:\program\CY8\PSoC Creator\3.2\PSoC Creator\psoc\content\cycomponentlibrary\CyComponentLibrary.cylib\BLE_v2_0\Library\gccCyBLEStack_BLE_SOC_PERIPHERAL.a(ll_utils.o)
 .debug_frame   0x00009cbc       0x3c D:\program\CY8\PSoC Creator\3.2\PSoC Creator\psoc\content\cycomponentlibrary\CyComponentLibrary.cylib\BLE_v2_0\Library\gccCyBLEStack_BLE_SOC_PERIPHERAL.a(ll_utils.o)
 .debug_frame   0x00009cf8       0x44 D:\program\CY8\PSoC Creator\3.2\PSoC Creator\psoc\content\cycomponentlibrary\CyComponentLibrary.cylib\BLE_v2_0\Library\gccCyBLEStack_BLE_SOC_PERIPHERAL.a(ll_utils.o)
 .debug_frame   0x00009d3c       0x44 D:\program\CY8\PSoC Creator\3.2\PSoC Creator\psoc\content\cycomponentlibrary\CyComponentLibrary.cylib\BLE_v2_0\Library\gccCyBLEStack_BLE_SOC_PERIPHERAL.a(ll_utils.o)
 .debug_frame   0x00009d80       0x44 D:\program\CY8\PSoC Creator\3.2\PSoC Creator\psoc\content\cycomponentlibrary\CyComponentLibrary.cylib\BLE_v2_0\Library\gccCyBLEStack_BLE_SOC_PERIPHERAL.a(ll_utils.o)
 .debug_frame   0x00009dc4       0x44 D:\program\CY8\PSoC Creator\3.2\PSoC Creator\psoc\content\cycomponentlibrary\CyComponentLibrary.cylib\BLE_v2_0\Library\gccCyBLEStack_BLE_SOC_PERIPHERAL.a(ll_utils.o)
 .debug_frame   0x00009e08       0x50 D:\program\CY8\PSoC Creator\3.2\PSoC Creator\psoc\content\cycomponentlibrary\CyComponentLibrary.cylib\BLE_v2_0\Library\gccCyBLEStack_BLE_SOC_PERIPHERAL.a(ll_utils.o)
 .debug_frame   0x00009e58       0x48 D:\program\CY8\PSoC Creator\3.2\PSoC Creator\psoc\content\cycomponentlibrary\CyComponentLibrary.cylib\BLE_v2_0\Library\gccCyBLEStack_BLE_SOC_PERIPHERAL.a(ll_utils.o)
 .debug_frame   0x00009ea0       0x4c D:\program\CY8\PSoC Creator\3.2\PSoC Creator\psoc\content\cycomponentlibrary\CyComponentLibrary.cylib\BLE_v2_0\Library\gccCyBLEStack_BLE_SOC_PERIPHERAL.a(ll_utils.o)
 .debug_frame   0x00009eec       0x48 D:\program\CY8\PSoC Creator\3.2\PSoC Creator\psoc\content\cycomponentlibrary\CyComponentLibrary.cylib\BLE_v2_0\Library\gccCyBLEStack_BLE_SOC_PERIPHERAL.a(ll_utils.o)
 .debug_frame   0x00009f34       0x50 D:\program\CY8\PSoC Creator\3.2\PSoC Creator\psoc\content\cycomponentlibrary\CyComponentLibrary.cylib\BLE_v2_0\Library\gccCyBLEStack_BLE_SOC_PERIPHERAL.a(ll_utils.o)
 .debug_frame   0x00009f84       0x4c D:\program\CY8\PSoC Creator\3.2\PSoC Creator\psoc\content\cycomponentlibrary\CyComponentLibrary.cylib\BLE_v2_0\Library\gccCyBLEStack_BLE_SOC_PERIPHERAL.a(ll_utils.o)
 .debug_frame   0x00009fd0       0x4c D:\program\CY8\PSoC Creator\3.2\PSoC Creator\psoc\content\cycomponentlibrary\CyComponentLibrary.cylib\BLE_v2_0\Library\gccCyBLEStack_BLE_SOC_PERIPHERAL.a(ll_utils.o)
 .debug_frame   0x0000a01c       0x4c D:\program\CY8\PSoC Creator\3.2\PSoC Creator\psoc\content\cycomponentlibrary\CyComponentLibrary.cylib\BLE_v2_0\Library\gccCyBLEStack_BLE_SOC_PERIPHERAL.a(ll_utils.o)
 .debug_frame   0x0000a068       0x4c D:\program\CY8\PSoC Creator\3.2\PSoC Creator\psoc\content\cycomponentlibrary\CyComponentLibrary.cylib\BLE_v2_0\Library\gccCyBLEStack_BLE_SOC_PERIPHERAL.a(ll_utils.o)
 .debug_frame   0x0000a0b4       0x44 D:\program\CY8\PSoC Creator\3.2\PSoC Creator\psoc\content\cycomponentlibrary\CyComponentLibrary.cylib\BLE_v2_0\Library\gccCyBLEStack_BLE_SOC_PERIPHERAL.a(llf_task.o)
 .debug_frame   0x0000a0f8       0x44 D:\program\CY8\PSoC Creator\3.2\PSoC Creator\psoc\content\cycomponentlibrary\CyComponentLibrary.cylib\BLE_v2_0\Library\gccCyBLEStack_BLE_SOC_PERIPHERAL.a(llf_task.o)
 .debug_frame   0x0000a13c       0x48 D:\program\CY8\PSoC Creator\3.2\PSoC Creator\psoc\content\cycomponentlibrary\CyComponentLibrary.cylib\BLE_v2_0\Library\gccCyBLEStack_BLE_SOC_PERIPHERAL.a(llf_task.o)
 .debug_frame   0x0000a184       0x4c D:\program\CY8\PSoC Creator\3.2\PSoC Creator\psoc\content\cycomponentlibrary\CyComponentLibrary.cylib\BLE_v2_0\Library\gccCyBLEStack_BLE_SOC_PERIPHERAL.a(llf_task.o)
 .debug_frame   0x0000a1d0       0x44 D:\program\CY8\PSoC Creator\3.2\PSoC Creator\psoc\content\cycomponentlibrary\CyComponentLibrary.cylib\BLE_v2_0\Library\gccCyBLEStack_BLE_SOC_PERIPHERAL.a(llf_task.o)
 .debug_frame   0x0000a214       0x44 D:\program\CY8\PSoC Creator\3.2\PSoC Creator\psoc\content\cycomponentlibrary\CyComponentLibrary.cylib\BLE_v2_0\Library\gccCyBLEStack_BLE_SOC_PERIPHERAL.a(llf_task.o)
 .debug_frame   0x0000a258       0x4c D:\program\CY8\PSoC Creator\3.2\PSoC Creator\psoc\content\cycomponentlibrary\CyComponentLibrary.cylib\BLE_v2_0\Library\gccCyBLEStack_BLE_SOC_PERIPHERAL.a(llf_task.o)
 .debug_frame   0x0000a2a4       0x4c D:\program\CY8\PSoC Creator\3.2\PSoC Creator\psoc\content\cycomponentlibrary\CyComponentLibrary.cylib\BLE_v2_0\Library\gccCyBLEStack_BLE_SOC_PERIPHERAL.a(llf_task.o)
 .debug_frame   0x0000a2f0       0x3c D:\program\CY8\PSoC Creator\3.2\PSoC Creator\psoc\content\cycomponentlibrary\CyComponentLibrary.cylib\BLE_v2_0\Library\gccCyBLEStack_BLE_SOC_PERIPHERAL.a(llf_task.o)
 .debug_frame   0x0000a32c       0x44 D:\program\CY8\PSoC Creator\3.2\PSoC Creator\psoc\content\cycomponentlibrary\CyComponentLibrary.cylib\BLE_v2_0\Library\gccCyBLEStack_BLE_SOC_PERIPHERAL.a(lec_hci_le.o)
 .debug_frame   0x0000a370       0x4c D:\program\CY8\PSoC Creator\3.2\PSoC Creator\psoc\content\cycomponentlibrary\CyComponentLibrary.cylib\BLE_v2_0\Library\gccCyBLEStack_BLE_SOC_PERIPHERAL.a(lec_hci_le.o)
 .debug_frame   0x0000a3bc       0x44 D:\program\CY8\PSoC Creator\3.2\PSoC Creator\psoc\content\cycomponentlibrary\CyComponentLibrary.cylib\BLE_v2_0\Library\gccCyBLEStack_BLE_SOC_PERIPHERAL.a(lec_hci_le.o)
 .debug_frame   0x0000a400       0x4c D:\program\CY8\PSoC Creator\3.2\PSoC Creator\psoc\content\cycomponentlibrary\CyComponentLibrary.cylib\BLE_v2_0\Library\gccCyBLEStack_BLE_SOC_PERIPHERAL.a(lec_hci_le.o)
 .debug_frame   0x0000a44c       0x3c D:\program\CY8\PSoC Creator\3.2\PSoC Creator\psoc\content\cycomponentlibrary\CyComponentLibrary.cylib\BLE_v2_0\Library\gccCyBLEStack_BLE_SOC_PERIPHERAL.a(lec_hci_le.o)
 .debug_frame   0x0000a488       0x44 D:\program\CY8\PSoC Creator\3.2\PSoC Creator\psoc\content\cycomponentlibrary\CyComponentLibrary.cylib\BLE_v2_0\Library\gccCyBLEStack_BLE_SOC_PERIPHERAL.a(lec_hci_le.o)
 .debug_frame   0x0000a4cc       0x3c D:\program\CY8\PSoC Creator\3.2\PSoC Creator\psoc\content\cycomponentlibrary\CyComponentLibrary.cylib\BLE_v2_0\Library\gccCyBLEStack_BLE_SOC_PERIPHERAL.a(lec_hci_le_commands.o)
 .debug_frame   0x0000a508       0x48 D:\program\CY8\PSoC Creator\3.2\PSoC Creator\psoc\content\cycomponentlibrary\CyComponentLibrary.cylib\BLE_v2_0\Library\gccCyBLEStack_BLE_SOC_PERIPHERAL.a(lec_hci_le_commands.o)
 .debug_frame   0x0000a550       0x3c D:\program\CY8\PSoC Creator\3.2\PSoC Creator\psoc\content\cycomponentlibrary\CyComponentLibrary.cylib\BLE_v2_0\Library\gccCyBLEStack_BLE_SOC_PERIPHERAL.a(lec_hci_le_commands.o)
 .debug_frame   0x0000a58c       0x4c D:\program\CY8\PSoC Creator\3.2\PSoC Creator\psoc\content\cycomponentlibrary\CyComponentLibrary.cylib\BLE_v2_0\Library\gccCyBLEStack_BLE_SOC_PERIPHERAL.a(lec_hci_le_commands.o)
 .debug_frame   0x0000a5d8       0x48 D:\program\CY8\PSoC Creator\3.2\PSoC Creator\psoc\content\cycomponentlibrary\CyComponentLibrary.cylib\BLE_v2_0\Library\gccCyBLEStack_BLE_SOC_PERIPHERAL.a(lec_hci_le_commands.o)
 .debug_frame   0x0000a620       0x54 D:\program\CY8\PSoC Creator\3.2\PSoC Creator\psoc\content\cycomponentlibrary\CyComponentLibrary.cylib\BLE_v2_0\Library\gccCyBLEStack_BLE_SOC_PERIPHERAL.a(lec_hci_le_commands.o)
 .debug_frame   0x0000a674       0x3c D:\program\CY8\PSoC Creator\3.2\PSoC Creator\psoc\content\cycomponentlibrary\CyComponentLibrary.cylib\BLE_v2_0\Library\gccCyBLEStack_BLE_SOC_PERIPHERAL.a(lec_hci_le_common_commands.o)
 .debug_frame   0x0000a6b0       0x44 D:\program\CY8\PSoC Creator\3.2\PSoC Creator\psoc\content\cycomponentlibrary\CyComponentLibrary.cylib\BLE_v2_0\Library\gccCyBLEStack_BLE_SOC_PERIPHERAL.a(lec_hci_le_common_commands.o)
 .debug_frame   0x0000a6f4       0x3c D:\program\CY8\PSoC Creator\3.2\PSoC Creator\psoc\content\cycomponentlibrary\CyComponentLibrary.cylib\BLE_v2_0\Library\gccCyBLEStack_BLE_SOC_PERIPHERAL.a(lec_hci_le_common_commands.o)
 .debug_frame   0x0000a730       0x44 D:\program\CY8\PSoC Creator\3.2\PSoC Creator\psoc\content\cycomponentlibrary\CyComponentLibrary.cylib\BLE_v2_0\Library\gccCyBLEStack_BLE_SOC_PERIPHERAL.a(lec_hci_le_common_commands.o)
 .debug_frame   0x0000a774       0x44 D:\program\CY8\PSoC Creator\3.2\PSoC Creator\psoc\content\cycomponentlibrary\CyComponentLibrary.cylib\BLE_v2_0\Library\gccCyBLEStack_BLE_SOC_PERIPHERAL.a(lec_hci_le_common_commands.o)
 .debug_frame   0x0000a7b8       0x44 D:\program\CY8\PSoC Creator\3.2\PSoC Creator\psoc\content\cycomponentlibrary\CyComponentLibrary.cylib\BLE_v2_0\Library\gccCyBLEStack_BLE_SOC_PERIPHERAL.a(lec_hci_le_common_commands.o)
 .debug_frame   0x0000a7fc       0x44 D:\program\CY8\PSoC Creator\3.2\PSoC Creator\psoc\content\cycomponentlibrary\CyComponentLibrary.cylib\BLE_v2_0\Library\gccCyBLEStack_BLE_SOC_PERIPHERAL.a(lec_hci_le_common_commands.o)
 .debug_frame   0x0000a840       0x3c D:\program\CY8\PSoC Creator\3.2\PSoC Creator\psoc\content\cycomponentlibrary\CyComponentLibrary.cylib\BLE_v2_0\Library\gccCyBLEStack_BLE_SOC_PERIPHERAL.a(lec_hci_le_common_commands.o)
 .debug_frame   0x0000a87c       0x3c D:\program\CY8\PSoC Creator\3.2\PSoC Creator\psoc\content\cycomponentlibrary\CyComponentLibrary.cylib\BLE_v2_0\Library\gccCyBLEStack_BLE_SOC_PERIPHERAL.a(lec_hci_le_common_commands.o)
 .debug_frame   0x0000a8b8       0x48 D:\program\CY8\PSoC Creator\3.2\PSoC Creator\psoc\content\cycomponentlibrary\CyComponentLibrary.cylib\BLE_v2_0\Library\gccCyBLEStack_BLE_SOC_PERIPHERAL.a(lec_hci_le_common_commands.o)
 .debug_frame   0x0000a900       0x48 D:\program\CY8\PSoC Creator\3.2\PSoC Creator\psoc\content\cycomponentlibrary\CyComponentLibrary.cylib\BLE_v2_0\Library\gccCyBLEStack_BLE_SOC_PERIPHERAL.a(lec_hci_le_conn_commands.o)
 .debug_frame   0x0000a948       0x48 D:\program\CY8\PSoC Creator\3.2\PSoC Creator\psoc\content\cycomponentlibrary\CyComponentLibrary.cylib\BLE_v2_0\Library\gccCyBLEStack_BLE_SOC_PERIPHERAL.a(lec_hci_le_conn_commands.o)
 .debug_frame   0x0000a990       0x48 D:\program\CY8\PSoC Creator\3.2\PSoC Creator\psoc\content\cycomponentlibrary\CyComponentLibrary.cylib\BLE_v2_0\Library\gccCyBLEStack_BLE_SOC_PERIPHERAL.a(lec_hci_le_conn_commands.o)
 .debug_frame   0x0000a9d8       0x48 D:\program\CY8\PSoC Creator\3.2\PSoC Creator\psoc\content\cycomponentlibrary\CyComponentLibrary.cylib\BLE_v2_0\Library\gccCyBLEStack_BLE_SOC_PERIPHERAL.a(lec_hci_le_conn_commands.o)
 .debug_frame   0x0000aa20       0x48 D:\program\CY8\PSoC Creator\3.2\PSoC Creator\psoc\content\cycomponentlibrary\CyComponentLibrary.cylib\BLE_v2_0\Library\gccCyBLEStack_BLE_SOC_PERIPHERAL.a(lec_hci_le_conn_commands.o)
 .debug_frame   0x0000aa68       0x4c D:\program\CY8\PSoC Creator\3.2\PSoC Creator\psoc\content\cycomponentlibrary\CyComponentLibrary.cylib\BLE_v2_0\Library\gccCyBLEStack_BLE_SOC_PERIPHERAL.a(lec_hci_le_conn_commands.o)
 .debug_frame   0x0000aab4       0x48 D:\program\CY8\PSoC Creator\3.2\PSoC Creator\psoc\content\cycomponentlibrary\CyComponentLibrary.cylib\BLE_v2_0\Library\gccCyBLEStack_BLE_SOC_PERIPHERAL.a(lec_hci_le_conn_commands.o)
 .debug_frame   0x0000aafc       0x44 D:\program\CY8\PSoC Creator\3.2\PSoC Creator\psoc\content\cycomponentlibrary\CyComponentLibrary.cylib\BLE_v2_0\Library\gccCyBLEStack_BLE_SOC_PERIPHERAL.a(lec_hci_le_conn_commands.o)
 .debug_frame   0x0000ab40       0x44 D:\program\CY8\PSoC Creator\3.2\PSoC Creator\psoc\content\cycomponentlibrary\CyComponentLibrary.cylib\BLE_v2_0\Library\gccCyBLEStack_BLE_SOC_PERIPHERAL.a(lec_hci_le_conn_commands.o)
 .debug_frame   0x0000ab84       0x4c D:\program\CY8\PSoC Creator\3.2\PSoC Creator\psoc\content\cycomponentlibrary\CyComponentLibrary.cylib\BLE_v2_0\Library\gccCyBLEStack_BLE_SOC_PERIPHERAL.a(lec_hci_le_conn_commands.o)
 .debug_frame   0x0000abd0       0x48 D:\program\CY8\PSoC Creator\3.2\PSoC Creator\psoc\content\cycomponentlibrary\CyComponentLibrary.cylib\BLE_v2_0\Library\gccCyBLEStack_BLE_SOC_PERIPHERAL.a(lec_hci_le_conn_commands.o)
 .debug_frame   0x0000ac18       0x4c D:\program\CY8\PSoC Creator\3.2\PSoC Creator\psoc\content\cycomponentlibrary\CyComponentLibrary.cylib\BLE_v2_0\Library\gccCyBLEStack_BLE_SOC_PERIPHERAL.a(lec_hci_le_conn_commands.o)
 .debug_frame   0x0000ac64       0x4c D:\program\CY8\PSoC Creator\3.2\PSoC Creator\psoc\content\cycomponentlibrary\CyComponentLibrary.cylib\BLE_v2_0\Library\gccCyBLEStack_BLE_SOC_PERIPHERAL.a(lec_hci_le_conn_commands.o)
 .debug_frame   0x0000acb0       0x48 D:\program\CY8\PSoC Creator\3.2\PSoC Creator\psoc\content\cycomponentlibrary\CyComponentLibrary.cylib\BLE_v2_0\Library\gccCyBLEStack_BLE_SOC_PERIPHERAL.a(lec_hci_le_conn_commands.o)
 .debug_frame   0x0000acf8       0x44 D:\program\CY8\PSoC Creator\3.2\PSoC Creator\psoc\content\cycomponentlibrary\CyComponentLibrary.cylib\BLE_v2_0\Library\gccCyBLEStack_BLE_SOC_PERIPHERAL.a(lec_hci_le_encryption_commands.o)
 .debug_frame   0x0000ad3c       0x4c D:\program\CY8\PSoC Creator\3.2\PSoC Creator\psoc\content\cycomponentlibrary\CyComponentLibrary.cylib\BLE_v2_0\Library\gccCyBLEStack_BLE_SOC_PERIPHERAL.a(lec_hci_le_encryption_commands.o)
 .debug_frame   0x0000ad88       0x44 D:\program\CY8\PSoC Creator\3.2\PSoC Creator\psoc\content\cycomponentlibrary\CyComponentLibrary.cylib\BLE_v2_0\Library\gccCyBLEStack_BLE_SOC_PERIPHERAL.a(lec_hci_le_utils.o)
 .debug_frame   0x0000adcc       0x44 D:\program\CY8\PSoC Creator\3.2\PSoC Creator\psoc\content\cycomponentlibrary\CyComponentLibrary.cylib\BLE_v2_0\Library\gccCyBLEStack_BLE_SOC_PERIPHERAL.a(lec_hci_le_utils.o)
 .debug_frame   0x0000ae10       0x3c D:\program\CY8\PSoC Creator\3.2\PSoC Creator\psoc\content\cycomponentlibrary\CyComponentLibrary.cylib\BLE_v2_0\Library\gccCyBLEStack_BLE_SOC_PERIPHERAL.a(lec_hci_le_utils.o)
 .debug_frame   0x0000ae4c       0x44 D:\program\CY8\PSoC Creator\3.2\PSoC Creator\psoc\content\cycomponentlibrary\CyComponentLibrary.cylib\BLE_v2_0\Library\gccCyBLEStack_BLE_SOC_PERIPHERAL.a(lec_hci_le_utils.o)
 .debug_frame   0x0000ae90       0x44 D:\program\CY8\PSoC Creator\3.2\PSoC Creator\psoc\content\cycomponentlibrary\CyComponentLibrary.cylib\BLE_v2_0\Library\gccCyBLEStack_BLE_SOC_PERIPHERAL.a(lec_hci_le_utils.o)
 .debug_frame   0x0000aed4       0x4c D:\program\CY8\PSoC Creator\3.2\PSoC Creator\psoc\content\cycomponentlibrary\CyComponentLibrary.cylib\BLE_v2_0\Library\gccCyBLEStack_BLE_SOC_PERIPHERAL.a(lec_hci_le_utils.o)
 .debug_frame   0x0000af20       0x4c D:\program\CY8\PSoC Creator\3.2\PSoC Creator\psoc\content\cycomponentlibrary\CyComponentLibrary.cylib\BLE_v2_0\Library\gccCyBLEStack_BLE_SOC_PERIPHERAL.a(lec_hci_le_utils.o)
 .debug_frame   0x0000af6c       0x3c D:\program\CY8\PSoC Creator\3.2\PSoC Creator\psoc\content\cycomponentlibrary\CyComponentLibrary.cylib\BLE_v2_0\Library\gccCyBLEStack_BLE_SOC_PERIPHERAL.a(lec_hci_param_converter.o)
 .debug_frame   0x0000afa8       0x3c D:\program\CY8\PSoC Creator\3.2\PSoC Creator\psoc\content\cycomponentlibrary\CyComponentLibrary.cylib\BLE_v2_0\Library\gccCyBLEStack_BLE_SOC_PERIPHERAL.a(lec_hci_param_converter.o)
 .debug_frame   0x0000afe4       0x44 D:\program\CY8\PSoC Creator\3.2\PSoC Creator\psoc\content\cycomponentlibrary\CyComponentLibrary.cylib\BLE_v2_0\Library\gccCyBLEStack_BLE_SOC_PERIPHERAL.a(lec_hci_param_converter.o)
 .debug_frame   0x0000b028       0x48 D:\program\CY8\PSoC Creator\3.2\PSoC Creator\psoc\content\cycomponentlibrary\CyComponentLibrary.cylib\BLE_v2_0\Library\gccCyBLEStack_BLE_SOC_PERIPHERAL.a(lec_hci_param_converter.o)
 .debug_frame   0x0000b070       0x44 D:\program\CY8\PSoC Creator\3.2\PSoC Creator\psoc\content\cycomponentlibrary\CyComponentLibrary.cylib\BLE_v2_0\Library\gccCyBLEStack_BLE_SOC_PERIPHERAL.a(lec_hci_param_converter.o)
 .debug_frame   0x0000b0b4       0x44 D:\program\CY8\PSoC Creator\3.2\PSoC Creator\psoc\content\cycomponentlibrary\CyComponentLibrary.cylib\BLE_v2_0\Library\gccCyBLEStack_BLE_SOC_PERIPHERAL.a(lec_hci_param_converter.o)
 .debug_frame   0x0000b0f8       0x3c D:\program\CY8\PSoC Creator\3.2\PSoC Creator\psoc\content\cycomponentlibrary\CyComponentLibrary.cylib\BLE_v2_0\Library\gccCyBLEStack_BLE_SOC_PERIPHERAL.a(lec_hci_param_converter.o)
 .debug_frame   0x0000b134       0x3c D:\program\CY8\PSoC Creator\3.2\PSoC Creator\psoc\content\cycomponentlibrary\CyComponentLibrary.cylib\BLE_v2_0\Library\gccCyBLEStack_BLE_SOC_PERIPHERAL.a(lec_hci_param_converter.o)
 .debug_frame   0x0000b170       0x3c D:\program\CY8\PSoC Creator\3.2\PSoC Creator\psoc\content\cycomponentlibrary\CyComponentLibrary.cylib\BLE_v2_0\Library\gccCyBLEStack_BLE_SOC_PERIPHERAL.a(lec_hci_param_converter.o)
 .debug_frame   0x0000b1ac       0x44 D:\program\CY8\PSoC Creator\3.2\PSoC Creator\psoc\content\cycomponentlibrary\CyComponentLibrary.cylib\BLE_v2_0\Library\gccCyBLEStack_BLE_SOC_PERIPHERAL.a(lec_hci_param_converter.o)
 .debug_frame   0x0000b1f0       0x44 D:\program\CY8\PSoC Creator\3.2\PSoC Creator\psoc\content\cycomponentlibrary\CyComponentLibrary.cylib\BLE_v2_0\Library\gccCyBLEStack_BLE_SOC_PERIPHERAL.a(lec_hci_param_converter.o)
 .debug_frame   0x0000b234       0x3c D:\program\CY8\PSoC Creator\3.2\PSoC Creator\psoc\content\cycomponentlibrary\CyComponentLibrary.cylib\BLE_v2_0\Library\gccCyBLEStack_BLE_SOC_PERIPHERAL.a(lec_hci_param_converter.o)
 .debug_frame   0x0000b270       0x3c D:\program\CY8\PSoC Creator\3.2\PSoC Creator\psoc\content\cycomponentlibrary\CyComponentLibrary.cylib\BLE_v2_0\Library\gccCyBLEStack_BLE_SOC_PERIPHERAL.a(lec_hci_param_converter.o)
 .debug_frame   0x0000b2ac       0x48 D:\program\CY8\PSoC Creator\3.2\PSoC Creator\psoc\content\cycomponentlibrary\CyComponentLibrary.cylib\BLE_v2_0\Library\gccCyBLEStack_BLE_SOC_PERIPHERAL.a(lec_hci_param_converter.o)
 .debug_frame   0x0000b2f4       0x3c D:\program\CY8\PSoC Creator\3.2\PSoC Creator\psoc\content\cycomponentlibrary\CyComponentLibrary.cylib\BLE_v2_0\Library\gccCyBLEStack_BLE_SOC_PERIPHERAL.a(lec_hci_param_converter.o)
 .debug_frame   0x0000b330       0x3c D:\program\CY8\PSoC Creator\3.2\PSoC Creator\psoc\content\cycomponentlibrary\CyComponentLibrary.cylib\BLE_v2_0\Library\gccCyBLEStack_BLE_SOC_PERIPHERAL.a(lec_hci_param_converter.o)
 .debug_frame   0x0000b36c       0x44 D:\program\CY8\PSoC Creator\3.2\PSoC Creator\psoc\content\cycomponentlibrary\CyComponentLibrary.cylib\BLE_v2_0\Library\gccCyBLEStack_BLE_SOC_PERIPHERAL.a(lec_hci_param_converter.o)
 .debug_frame   0x0000b3b0       0x3c D:\program\CY8\PSoC Creator\3.2\PSoC Creator\psoc\content\cycomponentlibrary\CyComponentLibrary.cylib\BLE_v2_0\Library\gccCyBLEStack_BLE_SOC_PERIPHERAL.a(lec_hci_param_converter.o)
 .debug_frame   0x0000b3ec       0x3c D:\program\CY8\PSoC Creator\3.2\PSoC Creator\psoc\content\cycomponentlibrary\CyComponentLibrary.cylib\BLE_v2_0\Library\gccCyBLEStack_BLE_SOC_PERIPHERAL.a(lec_hci_param_converter.o)
 .debug_frame   0x0000b428       0x3c D:\program\CY8\PSoC Creator\3.2\PSoC Creator\psoc\content\cycomponentlibrary\CyComponentLibrary.cylib\BLE_v2_0\Library\gccCyBLEStack_BLE_SOC_PERIPHERAL.a(lec_hci_param_converter.o)
 .debug_frame   0x0000b464       0x48 D:\program\CY8\PSoC Creator\3.2\PSoC Creator\psoc\content\cycomponentlibrary\CyComponentLibrary.cylib\BLE_v2_0\Library\gccCyBLEStack_BLE_SOC_PERIPHERAL.a(lec_hci_param_converter.o)
 .debug_frame   0x0000b4ac       0x44 D:\program\CY8\PSoC Creator\3.2\PSoC Creator\psoc\content\cycomponentlibrary\CyComponentLibrary.cylib\BLE_v2_0\Library\gccCyBLEStack_BLE_SOC_PERIPHERAL.a(lec_hci_param_converter.o)
 .debug_frame   0x0000b4f0       0x3c D:\program\CY8\PSoC Creator\3.2\PSoC Creator\psoc\content\cycomponentlibrary\CyComponentLibrary.cylib\BLE_v2_0\Library\gccCyBLEStack_BLE_SOC_PERIPHERAL.a(lec_hci_param_converter.o)
 .debug_frame   0x0000b52c       0x3c D:\program\CY8\PSoC Creator\3.2\PSoC Creator\psoc\content\cycomponentlibrary\CyComponentLibrary.cylib\BLE_v2_0\Library\gccCyBLEStack_BLE_SOC_PERIPHERAL.a(lec_hci_param_converter.o)
 .debug_frame   0x0000b568       0x3c D:\program\CY8\PSoC Creator\3.2\PSoC Creator\psoc\content\cycomponentlibrary\CyComponentLibrary.cylib\BLE_v2_0\Library\gccCyBLEStack_BLE_SOC_PERIPHERAL.a(lec_hci_param_converter.o)
 .debug_frame   0x0000b5a4       0x3c D:\program\CY8\PSoC Creator\3.2\PSoC Creator\psoc\content\cycomponentlibrary\CyComponentLibrary.cylib\BLE_v2_0\Library\gccCyBLEStack_BLE_SOC_PERIPHERAL.a(lec_hci_param_converter.o)
 .debug_frame   0x0000b5e0       0x3c D:\program\CY8\PSoC Creator\3.2\PSoC Creator\psoc\content\cycomponentlibrary\CyComponentLibrary.cylib\BLE_v2_0\Library\gccCyBLEStack_BLE_SOC_PERIPHERAL.a(lec_hci_param_converter.o)
 .debug_frame   0x0000b61c       0x3c D:\program\CY8\PSoC Creator\3.2\PSoC Creator\psoc\content\cycomponentlibrary\CyComponentLibrary.cylib\BLE_v2_0\Library\gccCyBLEStack_BLE_SOC_PERIPHERAL.a(lec_hci_param_converter.o)
 .debug_frame   0x0000b658       0x3c D:\program\CY8\PSoC Creator\3.2\PSoC Creator\psoc\content\cycomponentlibrary\CyComponentLibrary.cylib\BLE_v2_0\Library\gccCyBLEStack_BLE_SOC_PERIPHERAL.a(lec_hci_param_converter.o)
 .debug_frame   0x0000b694       0x3c D:\program\CY8\PSoC Creator\3.2\PSoC Creator\psoc\content\cycomponentlibrary\CyComponentLibrary.cylib\BLE_v2_0\Library\gccCyBLEStack_BLE_SOC_PERIPHERAL.a(lec_hci_param_validation.o)
 .debug_frame   0x0000b6d0       0x3c D:\program\CY8\PSoC Creator\3.2\PSoC Creator\psoc\content\cycomponentlibrary\CyComponentLibrary.cylib\BLE_v2_0\Library\gccCyBLEStack_BLE_SOC_PERIPHERAL.a(lec_hci_param_validation.o)
 .debug_frame   0x0000b70c       0x44 D:\program\CY8\PSoC Creator\3.2\PSoC Creator\psoc\content\cycomponentlibrary\CyComponentLibrary.cylib\BLE_v2_0\Library\gccCyBLEStack_BLE_SOC_PERIPHERAL.a(lec_hci_param_validation.o)
 .debug_frame   0x0000b750       0x3c D:\program\CY8\PSoC Creator\3.2\PSoC Creator\psoc\content\cycomponentlibrary\CyComponentLibrary.cylib\BLE_v2_0\Library\gccCyBLEStack_BLE_SOC_PERIPHERAL.a(lec_hci_param_validation.o)
 .debug_frame   0x0000b78c       0x3c D:\program\CY8\PSoC Creator\3.2\PSoC Creator\psoc\content\cycomponentlibrary\CyComponentLibrary.cylib\BLE_v2_0\Library\gccCyBLEStack_BLE_SOC_PERIPHERAL.a(lec_hci_param_validation.o)
 .debug_frame   0x0000b7c8       0x3c D:\program\CY8\PSoC Creator\3.2\PSoC Creator\psoc\content\cycomponentlibrary\CyComponentLibrary.cylib\BLE_v2_0\Library\gccCyBLEStack_BLE_SOC_PERIPHERAL.a(lec_hci_param_validation.o)
 .debug_frame   0x0000b804       0x3c D:\program\CY8\PSoC Creator\3.2\PSoC Creator\psoc\content\cycomponentlibrary\CyComponentLibrary.cylib\BLE_v2_0\Library\gccCyBLEStack_BLE_SOC_PERIPHERAL.a(lec_hci_param_validation.o)
 .debug_frame   0x0000b840       0x3c D:\program\CY8\PSoC Creator\3.2\PSoC Creator\psoc\content\cycomponentlibrary\CyComponentLibrary.cylib\BLE_v2_0\Library\gccCyBLEStack_BLE_SOC_PERIPHERAL.a(lec_hci_param_validation.o)
 .debug_frame   0x0000b87c       0x44 D:\program\CY8\PSoC Creator\3.2\PSoC Creator\psoc\content\cycomponentlibrary\CyComponentLibrary.cylib\BLE_v2_0\Library\gccCyBLEStack_BLE_SOC_PERIPHERAL.a(lec_hci_param_validation.o)
 .debug_frame   0x0000b8c0       0x44 D:\program\CY8\PSoC Creator\3.2\PSoC Creator\psoc\content\cycomponentlibrary\CyComponentLibrary.cylib\BLE_v2_0\Library\gccCyBLEStack_BLE_SOC_PERIPHERAL.a(lec_hci_param_validation.o)
 .debug_frame   0x0000b904       0x44 D:\program\CY8\PSoC Creator\3.2\PSoC Creator\psoc\content\cycomponentlibrary\CyComponentLibrary.cylib\BLE_v2_0\Library\gccCyBLEStack_BLE_SOC_PERIPHERAL.a(lec_hci_param_validation.o)
 .debug_frame   0x0000b948       0x44 D:\program\CY8\PSoC Creator\3.2\PSoC Creator\psoc\content\cycomponentlibrary\CyComponentLibrary.cylib\BLE_v2_0\Library\gccCyBLEStack_BLE_SOC_PERIPHERAL.a(lec_hci_param_validation.o)
 .debug_frame   0x0000b98c       0x44 D:\program\CY8\PSoC Creator\3.2\PSoC Creator\psoc\content\cycomponentlibrary\CyComponentLibrary.cylib\BLE_v2_0\Library\gccCyBLEStack_BLE_SOC_PERIPHERAL.a(lec_hci_param_validation.o)
 .debug_frame   0x0000b9d0       0x3c D:\program\CY8\PSoC Creator\3.2\PSoC Creator\psoc\content\cycomponentlibrary\CyComponentLibrary.cylib\BLE_v2_0\Library\gccCyBLEStack_BLE_SOC_PERIPHERAL.a(lec_hci_param_validation.o)
 .debug_frame   0x0000ba0c       0x3c D:\program\CY8\PSoC Creator\3.2\PSoC Creator\psoc\content\cycomponentlibrary\CyComponentLibrary.cylib\BLE_v2_0\Library\gccCyBLEStack_BLE_SOC_PERIPHERAL.a(lec_hci_param_validation.o)
 .debug_frame   0x0000ba48       0x3c D:\program\CY8\PSoC Creator\3.2\PSoC Creator\psoc\content\cycomponentlibrary\CyComponentLibrary.cylib\BLE_v2_0\Library\gccCyBLEStack_BLE_SOC_PERIPHERAL.a(lec_hci_param_validation.o)
 .debug_frame   0x0000ba84       0x3c D:\program\CY8\PSoC Creator\3.2\PSoC Creator\psoc\content\cycomponentlibrary\CyComponentLibrary.cylib\BLE_v2_0\Library\gccCyBLEStack_BLE_SOC_PERIPHERAL.a(lec_hci_param_validation.o)
 .debug_frame   0x0000bac0       0x3c D:\program\CY8\PSoC Creator\3.2\PSoC Creator\psoc\content\cycomponentlibrary\CyComponentLibrary.cylib\BLE_v2_0\Library\gccCyBLEStack_BLE_SOC_PERIPHERAL.a(lec_hci_param_validation.o)
 .debug_frame   0x0000bafc       0x44 D:\program\CY8\PSoC Creator\3.2\PSoC Creator\psoc\content\cycomponentlibrary\CyComponentLibrary.cylib\BLE_v2_0\Library\gccCyBLEStack_BLE_SOC_PERIPHERAL.a(lec_hci_param_validation.o)
 .debug_frame   0x0000bb40       0x3c D:\program\CY8\PSoC Creator\3.2\PSoC Creator\psoc\content\cycomponentlibrary\CyComponentLibrary.cylib\BLE_v2_0\Library\gccCyBLEStack_BLE_SOC_PERIPHERAL.a(lec_hci_param_validation.o)
 .debug_frame   0x0000bb7c       0x3c D:\program\CY8\PSoC Creator\3.2\PSoC Creator\psoc\content\cycomponentlibrary\CyComponentLibrary.cylib\BLE_v2_0\Library\gccCyBLEStack_BLE_SOC_PERIPHERAL.a(lec_hci_param_validation.o)
 .debug_frame   0x0000bbb8       0x3c D:\program\CY8\PSoC Creator\3.2\PSoC Creator\psoc\content\cycomponentlibrary\CyComponentLibrary.cylib\BLE_v2_0\Library\gccCyBLEStack_BLE_SOC_PERIPHERAL.a(lec_hci_param_validation.o)
 .debug_frame   0x0000bbf4       0x3c D:\program\CY8\PSoC Creator\3.2\PSoC Creator\psoc\content\cycomponentlibrary\CyComponentLibrary.cylib\BLE_v2_0\Library\gccCyBLEStack_BLE_SOC_PERIPHERAL.a(lec_hci_param_validation.o)
 .debug_frame   0x0000bc30       0x44 D:\program\CY8\PSoC Creator\3.2\PSoC Creator\psoc\content\cycomponentlibrary\CyComponentLibrary.cylib\BLE_v2_0\Library\gccCyBLEStack_BLE_SOC_PERIPHERAL.a(lec_hci_param_validation.o)
 .debug_frame   0x0000bc74       0x44 D:\program\CY8\PSoC Creator\3.2\PSoC Creator\psoc\content\cycomponentlibrary\CyComponentLibrary.cylib\BLE_v2_0\Library\gccCyBLEStack_BLE_SOC_PERIPHERAL.a(lec_hci_param_validation.o)
 .debug_frame   0x0000bcb8       0x3c D:\program\CY8\PSoC Creator\3.2\PSoC Creator\psoc\content\cycomponentlibrary\CyComponentLibrary.cylib\BLE_v2_0\Library\gccCyBLEStack_BLE_SOC_PERIPHERAL.a(hci_td.o)
 .debug_frame   0x0000bcf4       0x3c D:\program\CY8\PSoC Creator\3.2\PSoC Creator\psoc\content\cycomponentlibrary\CyComponentLibrary.cylib\BLE_v2_0\Library\gccCyBLEStack_BLE_SOC_PERIPHERAL.a(hci_td.o)
 .debug_frame   0x0000bd30       0x44 D:\program\CY8\PSoC Creator\3.2\PSoC Creator\psoc\content\cycomponentlibrary\CyComponentLibrary.cylib\BLE_v2_0\Library\gccCyBLEStack_BLE_SOC_PERIPHERAL.a(hci_td.o)
 .debug_frame   0x0000bd74       0x44 D:\program\CY8\PSoC Creator\3.2\PSoC Creator\psoc\content\cycomponentlibrary\CyComponentLibrary.cylib\BLE_v2_0\Library\gccCyBLEStack_BLE_SOC_PERIPHERAL.a(hci_td.o)
 .debug_frame   0x0000bdb8       0x3c D:\program\CY8\PSoC Creator\3.2\PSoC Creator\psoc\content\cycomponentlibrary\CyComponentLibrary.cylib\BLE_v2_0\Library\gccCyBLEStack_BLE_SOC_PERIPHERAL.a(hci_td.o)
 .debug_frame   0x0000bdf4       0x48 D:\program\CY8\PSoC Creator\3.2\PSoC Creator\psoc\content\cycomponentlibrary\CyComponentLibrary.cylib\BLE_v2_0\Library\gccCyBLEStack_BLE_SOC_PERIPHERAL.a(hci_td.o)
 .debug_frame   0x0000be3c       0x44 D:\program\CY8\PSoC Creator\3.2\PSoC Creator\psoc\content\cycomponentlibrary\CyComponentLibrary.cylib\BLE_v2_0\Library\gccCyBLEStack_BLE_SOC_PERIPHERAL.a(hci_td.o)
 .debug_frame   0x0000be80       0x48 D:\program\CY8\PSoC Creator\3.2\PSoC Creator\psoc\content\cycomponentlibrary\CyComponentLibrary.cylib\BLE_v2_0\Library\gccCyBLEStack_BLE_SOC_PERIPHERAL.a(hci_td.o)
 .debug_frame   0x0000bec8       0x44 D:\program\CY8\PSoC Creator\3.2\PSoC Creator\psoc\content\cycomponentlibrary\CyComponentLibrary.cylib\BLE_v2_0\Library\gccCyBLEStack_BLE_SOC_PERIPHERAL.a(hci_td.o)
 .debug_frame   0x0000bf0c       0x4c D:\program\CY8\PSoC Creator\3.2\PSoC Creator\psoc\content\cycomponentlibrary\CyComponentLibrary.cylib\BLE_v2_0\Library\gccCyBLEStack_BLE_SOC_PERIPHERAL.a(hci_td.o)
 .debug_frame   0x0000bf58       0x44 D:\program\CY8\PSoC Creator\3.2\PSoC Creator\psoc\content\cycomponentlibrary\CyComponentLibrary.cylib\BLE_v2_0\Library\gccCyBLEStack_BLE_SOC_PERIPHERAL.a(hci_td.o)
 .debug_frame   0x0000bf9c       0x44 D:\program\CY8\PSoC Creator\3.2\PSoC Creator\psoc\content\cycomponentlibrary\CyComponentLibrary.cylib\BLE_v2_0\Library\gccCyBLEStack_BLE_SOC_PERIPHERAL.a(hci_td_api.o)
 .debug_frame   0x0000bfe0       0x44 D:\program\CY8\PSoC Creator\3.2\PSoC Creator\psoc\content\cycomponentlibrary\CyComponentLibrary.cylib\BLE_v2_0\Library\gccCyBLEStack_BLE_SOC_PERIPHERAL.a(hci_td_api.o)
 .debug_frame   0x0000c024       0x44 D:\program\CY8\PSoC Creator\3.2\PSoC Creator\psoc\content\cycomponentlibrary\CyComponentLibrary.cylib\BLE_v2_0\Library\gccCyBLEStack_BLE_SOC_PERIPHERAL.a(hci_td_api.o)
 .debug_frame   0x0000c068       0x48 D:\program\CY8\PSoC Creator\3.2\PSoC Creator\psoc\content\cycomponentlibrary\CyComponentLibrary.cylib\BLE_v2_0\Library\gccCyBLEStack_BLE_SOC_PERIPHERAL.a(hci_td_api.o)
 .debug_frame   0x0000c0b0       0x44 D:\program\CY8\PSoC Creator\3.2\PSoC Creator\psoc\content\cycomponentlibrary\CyComponentLibrary.cylib\BLE_v2_0\Library\gccCyBLEStack_BLE_SOC_PERIPHERAL.a(hci_td_api.o)
 .debug_frame   0x0000c0f4       0x44 D:\program\CY8\PSoC Creator\3.2\PSoC Creator\psoc\content\cycomponentlibrary\CyComponentLibrary.cylib\BLE_v2_0\Library\gccCyBLEStack_BLE_SOC_PERIPHERAL.a(hci_td_task.o)
 .debug_frame   0x0000c138       0x3c D:\program\CY8\PSoC Creator\3.2\PSoC Creator\psoc\content\cycomponentlibrary\CyComponentLibrary.cylib\BLE_v2_0\Library\gccCyBLEStack_BLE_SOC_PERIPHERAL.a(host_main.o)
 .debug_frame   0x0000c174       0x44 D:\program\CY8\PSoC Creator\3.2\PSoC Creator\psoc\content\cycomponentlibrary\CyComponentLibrary.cylib\BLE_v2_0\Library\gccCyBLEStack_BLE_SOC_PERIPHERAL.a(host_main.o)
 .debug_frame   0x0000c1b8       0x50 D:\program\CY8\PSoC Creator\3.2\PSoC Creator\psoc\content\cycomponentlibrary\CyComponentLibrary.cylib\BLE_v2_0\Library\gccCyBLEStack_BLE_SOC_PERIPHERAL.a(host_main.o)
 .debug_frame   0x0000c208       0x44 D:\program\CY8\PSoC Creator\3.2\PSoC Creator\psoc\content\cycomponentlibrary\CyComponentLibrary.cylib\BLE_v2_0\Library\gccCyBLEStack_BLE_SOC_PERIPHERAL.a(host_main.o)
 .debug_frame   0x0000c24c       0x44 D:\program\CY8\PSoC Creator\3.2\PSoC Creator\psoc\content\cycomponentlibrary\CyComponentLibrary.cylib\BLE_v2_0\Library\gccCyBLEStack_BLE_SOC_PERIPHERAL.a(host_main.o)
 .debug_frame   0x0000c290       0x44 D:\program\CY8\PSoC Creator\3.2\PSoC Creator\psoc\content\cycomponentlibrary\CyComponentLibrary.cylib\BLE_v2_0\Library\gccCyBLEStack_BLE_SOC_PERIPHERAL.a(host_main.o)
 .debug_frame   0x0000c2d4       0x44 D:\program\CY8\PSoC Creator\3.2\PSoC Creator\psoc\content\cycomponentlibrary\CyComponentLibrary.cylib\BLE_v2_0\Library\gccCyBLEStack_BLE_SOC_PERIPHERAL.a(host_main.o)
 .debug_frame   0x0000c318       0x4c D:\program\CY8\PSoC Creator\3.2\PSoC Creator\psoc\content\cycomponentlibrary\CyComponentLibrary.cylib\BLE_v2_0\Library\gccCyBLEStack_BLE_SOC_PERIPHERAL.a(host_main.o)
 .debug_frame   0x0000c364       0x44 D:\program\CY8\PSoC Creator\3.2\PSoC Creator\psoc\content\cycomponentlibrary\CyComponentLibrary.cylib\BLE_v2_0\Library\gccCyBLEStack_BLE_SOC_PERIPHERAL.a(host_main.o)
 .debug_frame   0x0000c3a8       0x44 D:\program\CY8\PSoC Creator\3.2\PSoC Creator\psoc\content\cycomponentlibrary\CyComponentLibrary.cylib\BLE_v2_0\Library\gccCyBLEStack_BLE_SOC_PERIPHERAL.a(host_main.o)
 .debug_frame   0x0000c3ec       0x3c D:\program\CY8\PSoC Creator\3.2\PSoC Creator\psoc\content\cycomponentlibrary\CyComponentLibrary.cylib\BLE_v2_0\Library\gccCyBLEStack_BLE_SOC_PERIPHERAL.a(att_api.o)
 .debug_frame   0x0000c428       0x54 D:\program\CY8\PSoC Creator\3.2\PSoC Creator\psoc\content\cycomponentlibrary\CyComponentLibrary.cylib\BLE_v2_0\Library\gccCyBLEStack_BLE_SOC_PERIPHERAL.a(att_api.o)
 .debug_frame   0x0000c47c       0x3c D:\program\CY8\PSoC Creator\3.2\PSoC Creator\psoc\content\cycomponentlibrary\CyComponentLibrary.cylib\BLE_v2_0\Library\gccCyBLEStack_BLE_SOC_PERIPHERAL.a(att_api.o)
 .debug_frame   0x0000c4b8       0x3c D:\program\CY8\PSoC Creator\3.2\PSoC Creator\psoc\content\cycomponentlibrary\CyComponentLibrary.cylib\BLE_v2_0\Library\gccCyBLEStack_BLE_SOC_PERIPHERAL.a(att_init.o)
 .debug_frame   0x0000c4f4       0x44 D:\program\CY8\PSoC Creator\3.2\PSoC Creator\psoc\content\cycomponentlibrary\CyComponentLibrary.cylib\BLE_v2_0\Library\gccCyBLEStack_BLE_SOC_PERIPHERAL.a(att_init.o)
 .debug_frame   0x0000c538       0x3c D:\program\CY8\PSoC Creator\3.2\PSoC Creator\psoc\content\cycomponentlibrary\CyComponentLibrary.cylib\BLE_v2_0\Library\gccCyBLEStack_BLE_SOC_PERIPHERAL.a(att_init.o)
 .debug_frame   0x0000c574       0x3c D:\program\CY8\PSoC Creator\3.2\PSoC Creator\psoc\content\cycomponentlibrary\CyComponentLibrary.cylib\BLE_v2_0\Library\gccCyBLEStack_BLE_SOC_PERIPHERAL.a(att_internal.o)
 .debug_frame   0x0000c5b0       0x48 D:\program\CY8\PSoC Creator\3.2\PSoC Creator\psoc\content\cycomponentlibrary\CyComponentLibrary.cylib\BLE_v2_0\Library\gccCyBLEStack_BLE_SOC_PERIPHERAL.a(att_internal.o)
 .debug_frame   0x0000c5f8       0x54 D:\program\CY8\PSoC Creator\3.2\PSoC Creator\psoc\content\cycomponentlibrary\CyComponentLibrary.cylib\BLE_v2_0\Library\gccCyBLEStack_BLE_SOC_PERIPHERAL.a(att_internal.o)
 .debug_frame   0x0000c64c       0x4c D:\program\CY8\PSoC Creator\3.2\PSoC Creator\psoc\content\cycomponentlibrary\CyComponentLibrary.cylib\BLE_v2_0\Library\gccCyBLEStack_BLE_SOC_PERIPHERAL.a(att_internal.o)
 .debug_frame   0x0000c698       0x54 D:\program\CY8\PSoC Creator\3.2\PSoC Creator\psoc\content\cycomponentlibrary\CyComponentLibrary.cylib\BLE_v2_0\Library\gccCyBLEStack_BLE_SOC_PERIPHERAL.a(att_internal.o)
 .debug_frame   0x0000c6ec       0x4c D:\program\CY8\PSoC Creator\3.2\PSoC Creator\psoc\content\cycomponentlibrary\CyComponentLibrary.cylib\BLE_v2_0\Library\gccCyBLEStack_BLE_SOC_PERIPHERAL.a(att_internal.o)
 .debug_frame   0x0000c738       0x4c D:\program\CY8\PSoC Creator\3.2\PSoC Creator\psoc\content\cycomponentlibrary\CyComponentLibrary.cylib\BLE_v2_0\Library\gccCyBLEStack_BLE_SOC_PERIPHERAL.a(att_internal.o)
 .debug_frame   0x0000c784       0x4c D:\program\CY8\PSoC Creator\3.2\PSoC Creator\psoc\content\cycomponentlibrary\CyComponentLibrary.cylib\BLE_v2_0\Library\gccCyBLEStack_BLE_SOC_PERIPHERAL.a(att_internal.o)
 .debug_frame   0x0000c7d0       0x48 D:\program\CY8\PSoC Creator\3.2\PSoC Creator\psoc\content\cycomponentlibrary\CyComponentLibrary.cylib\BLE_v2_0\Library\gccCyBLEStack_BLE_SOC_PERIPHERAL.a(att_internal.o)
 .debug_frame   0x0000c818       0x4c D:\program\CY8\PSoC Creator\3.2\PSoC Creator\psoc\content\cycomponentlibrary\CyComponentLibrary.cylib\BLE_v2_0\Library\gccCyBLEStack_BLE_SOC_PERIPHERAL.a(att_internal.o)
 .debug_frame   0x0000c864       0x48 D:\program\CY8\PSoC Creator\3.2\PSoC Creator\psoc\content\cycomponentlibrary\CyComponentLibrary.cylib\BLE_v2_0\Library\gccCyBLEStack_BLE_SOC_PERIPHERAL.a(att_internal.o)
 .debug_frame   0x0000c8ac       0x3c D:\program\CY8\PSoC Creator\3.2\PSoC Creator\psoc\content\cycomponentlibrary\CyComponentLibrary.cylib\BLE_v2_0\Library\gccCyBLEStack_BLE_SOC_PERIPHERAL.a(att_internal.o)
 .debug_frame   0x0000c8e8       0x44 D:\program\CY8\PSoC Creator\3.2\PSoC Creator\psoc\content\cycomponentlibrary\CyComponentLibrary.cylib\BLE_v2_0\Library\gccCyBLEStack_BLE_SOC_PERIPHERAL.a(BT_common.o)
 .debug_frame   0x0000c92c       0x48 D:\program\CY8\PSoC Creator\3.2\PSoC Creator\psoc\content\cycomponentlibrary\CyComponentLibrary.cylib\BLE_v2_0\Library\gccCyBLEStack_BLE_SOC_PERIPHERAL.a(BT_common.o)
 .debug_frame   0x0000c974       0x44 D:\program\CY8\PSoC Creator\3.2\PSoC Creator\psoc\content\cycomponentlibrary\CyComponentLibrary.cylib\BLE_v2_0\Library\gccCyBLEStack_BLE_SOC_PERIPHERAL.a(BT_common.o)
 .debug_frame   0x0000c9b8       0x44 D:\program\CY8\PSoC Creator\3.2\PSoC Creator\psoc\content\cycomponentlibrary\CyComponentLibrary.cylib\BLE_v2_0\Library\gccCyBLEStack_BLE_SOC_PERIPHERAL.a(BT_common.o)
 .debug_frame   0x0000c9fc       0x3c D:\program\CY8\PSoC Creator\3.2\PSoC Creator\psoc\content\cycomponentlibrary\CyComponentLibrary.cylib\BLE_v2_0\Library\gccCyBLEStack_BLE_SOC_PERIPHERAL.a(BT_common.o)
 .debug_frame   0x0000ca38       0x48 D:\program\CY8\PSoC Creator\3.2\PSoC Creator\psoc\content\cycomponentlibrary\CyComponentLibrary.cylib\BLE_v2_0\Library\gccCyBLEStack_BLE_SOC_PERIPHERAL.a(device_queue.o)
 .debug_frame   0x0000ca80       0x44 D:\program\CY8\PSoC Creator\3.2\PSoC Creator\psoc\content\cycomponentlibrary\CyComponentLibrary.cylib\BLE_v2_0\Library\gccCyBLEStack_BLE_SOC_PERIPHERAL.a(device_queue.o)
 .debug_frame   0x0000cac4       0x4c D:\program\CY8\PSoC Creator\3.2\PSoC Creator\psoc\content\cycomponentlibrary\CyComponentLibrary.cylib\BLE_v2_0\Library\gccCyBLEStack_BLE_SOC_PERIPHERAL.a(device_queue.o)
 .debug_frame   0x0000cb10       0x44 D:\program\CY8\PSoC Creator\3.2\PSoC Creator\psoc\content\cycomponentlibrary\CyComponentLibrary.cylib\BLE_v2_0\Library\gccCyBLEStack_BLE_SOC_PERIPHERAL.a(device_queue.o)
 .debug_frame   0x0000cb54       0x54 D:\program\CY8\PSoC Creator\3.2\PSoC Creator\psoc\content\cycomponentlibrary\CyComponentLibrary.cylib\BLE_v2_0\Library\gccCyBLEStack_BLE_SOC_PERIPHERAL.a(device_queue.o)
 .debug_frame   0x0000cba8       0x48 D:\program\CY8\PSoC Creator\3.2\PSoC Creator\psoc\content\cycomponentlibrary\CyComponentLibrary.cylib\BLE_v2_0\Library\gccCyBLEStack_BLE_SOC_PERIPHERAL.a(device_queue.o)
 .debug_frame   0x0000cbf0       0x48 D:\program\CY8\PSoC Creator\3.2\PSoC Creator\psoc\content\cycomponentlibrary\CyComponentLibrary.cylib\BLE_v2_0\Library\gccCyBLEStack_BLE_SOC_PERIPHERAL.a(device_queue.o)
 .debug_frame   0x0000cc38       0x44 D:\program\CY8\PSoC Creator\3.2\PSoC Creator\psoc\content\cycomponentlibrary\CyComponentLibrary.cylib\BLE_v2_0\Library\gccCyBLEStack_BLE_SOC_PERIPHERAL.a(device_queue.o)
 .debug_frame   0x0000cc7c       0x44 D:\program\CY8\PSoC Creator\3.2\PSoC Creator\psoc\content\cycomponentlibrary\CyComponentLibrary.cylib\BLE_v2_0\Library\gccCyBLEStack_BLE_SOC_PERIPHERAL.a(device_queue.o)
 .debug_frame   0x0000ccc0       0x44 D:\program\CY8\PSoC Creator\3.2\PSoC Creator\psoc\content\cycomponentlibrary\CyComponentLibrary.cylib\BLE_v2_0\Library\gccCyBLEStack_BLE_SOC_PERIPHERAL.a(device_queue.o)
 .debug_frame   0x0000cd04       0x44 D:\program\CY8\PSoC Creator\3.2\PSoC Creator\psoc\content\cycomponentlibrary\CyComponentLibrary.cylib\BLE_v2_0\Library\gccCyBLEStack_BLE_SOC_PERIPHERAL.a(device_queue.o)
 .debug_frame   0x0000cd48       0x44 D:\program\CY8\PSoC Creator\3.2\PSoC Creator\psoc\content\cycomponentlibrary\CyComponentLibrary.cylib\BLE_v2_0\Library\gccCyBLEStack_BLE_SOC_PERIPHERAL.a(l2cap.o)
 .debug_frame   0x0000cd8c       0x48 D:\program\CY8\PSoC Creator\3.2\PSoC Creator\psoc\content\cycomponentlibrary\CyComponentLibrary.cylib\BLE_v2_0\Library\gccCyBLEStack_BLE_SOC_PERIPHERAL.a(l2cap.o)
 .debug_frame   0x0000cdd4       0x48 D:\program\CY8\PSoC Creator\3.2\PSoC Creator\psoc\content\cycomponentlibrary\CyComponentLibrary.cylib\BLE_v2_0\Library\gccCyBLEStack_BLE_SOC_PERIPHERAL.a(l2cap.o)
 .debug_frame   0x0000ce1c       0x44 D:\program\CY8\PSoC Creator\3.2\PSoC Creator\psoc\content\cycomponentlibrary\CyComponentLibrary.cylib\BLE_v2_0\Library\gccCyBLEStack_BLE_SOC_PERIPHERAL.a(l2cap.o)
 .debug_frame   0x0000ce60       0x44 D:\program\CY8\PSoC Creator\3.2\PSoC Creator\psoc\content\cycomponentlibrary\CyComponentLibrary.cylib\BLE_v2_0\Library\gccCyBLEStack_BLE_SOC_PERIPHERAL.a(l2cap.o)
 .debug_frame   0x0000cea4       0x48 D:\program\CY8\PSoC Creator\3.2\PSoC Creator\psoc\content\cycomponentlibrary\CyComponentLibrary.cylib\BLE_v2_0\Library\gccCyBLEStack_BLE_SOC_PERIPHERAL.a(l2cap.o)
 .debug_frame   0x0000ceec       0x44 D:\program\CY8\PSoC Creator\3.2\PSoC Creator\psoc\content\cycomponentlibrary\CyComponentLibrary.cylib\BLE_v2_0\Library\gccCyBLEStack_BLE_SOC_PERIPHERAL.a(l2cap.o)
 .debug_frame   0x0000cf30       0x44 D:\program\CY8\PSoC Creator\3.2\PSoC Creator\psoc\content\cycomponentlibrary\CyComponentLibrary.cylib\BLE_v2_0\Library\gccCyBLEStack_BLE_SOC_PERIPHERAL.a(l2cap.o)
 .debug_frame   0x0000cf74       0x48 D:\program\CY8\PSoC Creator\3.2\PSoC Creator\psoc\content\cycomponentlibrary\CyComponentLibrary.cylib\BLE_v2_0\Library\gccCyBLEStack_BLE_SOC_PERIPHERAL.a(l2cap.o)
 .debug_frame   0x0000cfbc       0x44 D:\program\CY8\PSoC Creator\3.2\PSoC Creator\psoc\content\cycomponentlibrary\CyComponentLibrary.cylib\BLE_v2_0\Library\gccCyBLEStack_BLE_SOC_PERIPHERAL.a(l2cap.o)
 .debug_frame   0x0000d000       0x44 D:\program\CY8\PSoC Creator\3.2\PSoC Creator\psoc\content\cycomponentlibrary\CyComponentLibrary.cylib\BLE_v2_0\Library\gccCyBLEStack_BLE_SOC_PERIPHERAL.a(l2cap.o)
 .debug_frame   0x0000d044       0x4c D:\program\CY8\PSoC Creator\3.2\PSoC Creator\psoc\content\cycomponentlibrary\CyComponentLibrary.cylib\BLE_v2_0\Library\gccCyBLEStack_BLE_SOC_PERIPHERAL.a(l2cap.o)
 .debug_frame   0x0000d090       0x44 D:\program\CY8\PSoC Creator\3.2\PSoC Creator\psoc\content\cycomponentlibrary\CyComponentLibrary.cylib\BLE_v2_0\Library\gccCyBLEStack_BLE_SOC_PERIPHERAL.a(l2cap.o)
 .debug_frame   0x0000d0d4       0x44 D:\program\CY8\PSoC Creator\3.2\PSoC Creator\psoc\content\cycomponentlibrary\CyComponentLibrary.cylib\BLE_v2_0\Library\gccCyBLEStack_BLE_SOC_PERIPHERAL.a(l2cap.o)
 .debug_frame   0x0000d118       0x4c D:\program\CY8\PSoC Creator\3.2\PSoC Creator\psoc\content\cycomponentlibrary\CyComponentLibrary.cylib\BLE_v2_0\Library\gccCyBLEStack_BLE_SOC_PERIPHERAL.a(l2cap.o)
 .debug_frame   0x0000d164       0x44 D:\program\CY8\PSoC Creator\3.2\PSoC Creator\psoc\content\cycomponentlibrary\CyComponentLibrary.cylib\BLE_v2_0\Library\gccCyBLEStack_BLE_SOC_PERIPHERAL.a(l2cap.o)
 .debug_frame   0x0000d1a8       0x4c D:\program\CY8\PSoC Creator\3.2\PSoC Creator\psoc\content\cycomponentlibrary\CyComponentLibrary.cylib\BLE_v2_0\Library\gccCyBLEStack_BLE_SOC_PERIPHERAL.a(l2cap.o)
 .debug_frame   0x0000d1f4       0x44 D:\program\CY8\PSoC Creator\3.2\PSoC Creator\psoc\content\cycomponentlibrary\CyComponentLibrary.cylib\BLE_v2_0\Library\gccCyBLEStack_BLE_SOC_PERIPHERAL.a(l2cap.o)
 .debug_frame   0x0000d238       0x44 D:\program\CY8\PSoC Creator\3.2\PSoC Creator\psoc\content\cycomponentlibrary\CyComponentLibrary.cylib\BLE_v2_0\Library\gccCyBLEStack_BLE_SOC_PERIPHERAL.a(l2cap.o)
 .debug_frame   0x0000d27c       0x4c D:\program\CY8\PSoC Creator\3.2\PSoC Creator\psoc\content\cycomponentlibrary\CyComponentLibrary.cylib\BLE_v2_0\Library\gccCyBLEStack_BLE_SOC_PERIPHERAL.a(l2cap.o)
 .debug_frame   0x0000d2c8       0x44 D:\program\CY8\PSoC Creator\3.2\PSoC Creator\psoc\content\cycomponentlibrary\CyComponentLibrary.cylib\BLE_v2_0\Library\gccCyBLEStack_BLE_SOC_PERIPHERAL.a(l2cap.o)
 .debug_frame   0x0000d30c       0x44 D:\program\CY8\PSoC Creator\3.2\PSoC Creator\psoc\content\cycomponentlibrary\CyComponentLibrary.cylib\BLE_v2_0\Library\gccCyBLEStack_BLE_SOC_PERIPHERAL.a(l2cap.o)
 .debug_frame   0x0000d350       0x4c D:\program\CY8\PSoC Creator\3.2\PSoC Creator\psoc\content\cycomponentlibrary\CyComponentLibrary.cylib\BLE_v2_0\Library\gccCyBLEStack_BLE_SOC_PERIPHERAL.a(l2cap.o)
 .debug_frame   0x0000d39c       0x44 D:\program\CY8\PSoC Creator\3.2\PSoC Creator\psoc\content\cycomponentlibrary\CyComponentLibrary.cylib\BLE_v2_0\Library\gccCyBLEStack_BLE_SOC_PERIPHERAL.a(l2cap.o)
 .debug_frame   0x0000d3e0       0x4c D:\program\CY8\PSoC Creator\3.2\PSoC Creator\psoc\content\cycomponentlibrary\CyComponentLibrary.cylib\BLE_v2_0\Library\gccCyBLEStack_BLE_SOC_PERIPHERAL.a(l2cap_disconnect.o)
 .debug_frame   0x0000d42c       0x54 D:\program\CY8\PSoC Creator\3.2\PSoC Creator\psoc\content\cycomponentlibrary\CyComponentLibrary.cylib\BLE_v2_0\Library\gccCyBLEStack_BLE_SOC_PERIPHERAL.a(l2cap_disconnect.o)
 .debug_frame   0x0000d480       0x48 D:\program\CY8\PSoC Creator\3.2\PSoC Creator\psoc\content\cycomponentlibrary\CyComponentLibrary.cylib\BLE_v2_0\Library\gccCyBLEStack_BLE_SOC_PERIPHERAL.a(l2cap_disconnect.o)
 .debug_frame   0x0000d4c8       0x4c D:\program\CY8\PSoC Creator\3.2\PSoC Creator\psoc\content\cycomponentlibrary\CyComponentLibrary.cylib\BLE_v2_0\Library\gccCyBLEStack_BLE_SOC_PERIPHERAL.a(l2cap_disconnect.o)
 .debug_frame   0x0000d514       0x50 D:\program\CY8\PSoC Creator\3.2\PSoC Creator\psoc\content\cycomponentlibrary\CyComponentLibrary.cylib\BLE_v2_0\Library\gccCyBLEStack_BLE_SOC_PERIPHERAL.a(l2cap_disconnect.o)
 .debug_frame   0x0000d564       0x3c D:\program\CY8\PSoC Creator\3.2\PSoC Creator\psoc\content\cycomponentlibrary\CyComponentLibrary.cylib\BLE_v2_0\Library\gccCyBLEStack_BLE_SOC_PERIPHERAL.a(l2cap_init.o)
 .debug_frame   0x0000d5a0       0x48 D:\program\CY8\PSoC Creator\3.2\PSoC Creator\psoc\content\cycomponentlibrary\CyComponentLibrary.cylib\BLE_v2_0\Library\gccCyBLEStack_BLE_SOC_PERIPHERAL.a(l2cap_init.o)
 .debug_frame   0x0000d5e8       0x48 D:\program\CY8\PSoC Creator\3.2\PSoC Creator\psoc\content\cycomponentlibrary\CyComponentLibrary.cylib\BLE_v2_0\Library\gccCyBLEStack_BLE_SOC_PERIPHERAL.a(l2cap_init.o)
 .debug_frame   0x0000d630       0x3c D:\program\CY8\PSoC Creator\3.2\PSoC Creator\psoc\content\cycomponentlibrary\CyComponentLibrary.cylib\BLE_v2_0\Library\gccCyBLEStack_BLE_SOC_PERIPHERAL.a(l2cap_init.o)
 .debug_frame   0x0000d66c       0x3c D:\program\CY8\PSoC Creator\3.2\PSoC Creator\psoc\content\cycomponentlibrary\CyComponentLibrary.cylib\BLE_v2_0\Library\gccCyBLEStack_BLE_SOC_PERIPHERAL.a(l2cap_init.o)
 .debug_frame   0x0000d6a8       0x44 D:\program\CY8\PSoC Creator\3.2\PSoC Creator\psoc\content\cycomponentlibrary\CyComponentLibrary.cylib\BLE_v2_0\Library\gccCyBLEStack_BLE_SOC_PERIPHERAL.a(l2cap_init.o)
 .debug_frame   0x0000d6ec       0x44 D:\program\CY8\PSoC Creator\3.2\PSoC Creator\psoc\content\cycomponentlibrary\CyComponentLibrary.cylib\BLE_v2_0\Library\gccCyBLEStack_BLE_SOC_PERIPHERAL.a(l2cap_init.o)
 .debug_frame   0x0000d730       0x4c D:\program\CY8\PSoC Creator\3.2\PSoC Creator\psoc\content\cycomponentlibrary\CyComponentLibrary.cylib\BLE_v2_0\Library\gccCyBLEStack_BLE_SOC_PERIPHERAL.a(l2cap_init.o)
 .debug_frame   0x0000d77c       0x44 D:\program\CY8\PSoC Creator\3.2\PSoC Creator\psoc\content\cycomponentlibrary\CyComponentLibrary.cylib\BLE_v2_0\Library\gccCyBLEStack_BLE_SOC_PERIPHERAL.a(l2cap_utils.o)
 .debug_frame   0x0000d7c0       0x3c D:\program\CY8\PSoC Creator\3.2\PSoC Creator\psoc\content\cycomponentlibrary\CyComponentLibrary.cylib\BLE_v2_0\Library\gccCyBLEStack_BLE_SOC_PERIPHERAL.a(l2cap_utils.o)
 .debug_frame   0x0000d7fc       0x50 D:\program\CY8\PSoC Creator\3.2\PSoC Creator\psoc\content\cycomponentlibrary\CyComponentLibrary.cylib\BLE_v2_0\Library\gccCyBLEStack_BLE_SOC_PERIPHERAL.a(l2cap_utils.o)
 .debug_frame   0x0000d84c       0x48 D:\program\CY8\PSoC Creator\3.2\PSoC Creator\psoc\content\cycomponentlibrary\CyComponentLibrary.cylib\BLE_v2_0\Library\gccCyBLEStack_BLE_SOC_PERIPHERAL.a(l2cap_utils.o)
 .debug_frame   0x0000d894       0x48 D:\program\CY8\PSoC Creator\3.2\PSoC Creator\psoc\content\cycomponentlibrary\CyComponentLibrary.cylib\BLE_v2_0\Library\gccCyBLEStack_BLE_SOC_PERIPHERAL.a(l2cap_utils.o)
 .debug_frame   0x0000d8dc       0x44 D:\program\CY8\PSoC Creator\3.2\PSoC Creator\psoc\content\cycomponentlibrary\CyComponentLibrary.cylib\BLE_v2_0\Library\gccCyBLEStack_BLE_SOC_PERIPHERAL.a(l2cap_utils.o)
 .debug_frame   0x0000d920       0x4c D:\program\CY8\PSoC Creator\3.2\PSoC Creator\psoc\content\cycomponentlibrary\CyComponentLibrary.cylib\BLE_v2_0\Library\gccCyBLEStack_BLE_SOC_PERIPHERAL.a(l2cap_utils.o)
 .debug_frame   0x0000d96c       0x3c D:\program\CY8\PSoC Creator\3.2\PSoC Creator\psoc\content\cycomponentlibrary\CyComponentLibrary.cylib\BLE_v2_0\Library\gccCyBLEStack_BLE_SOC_PERIPHERAL.a(l2cap_lmp.o)
 .debug_frame   0x0000d9a8       0x54 D:\program\CY8\PSoC Creator\3.2\PSoC Creator\psoc\content\cycomponentlibrary\CyComponentLibrary.cylib\BLE_v2_0\Library\gccCyBLEStack_BLE_SOC_PERIPHERAL.a(l2cap_lmp.o)
 .debug_frame   0x0000d9fc       0x44 D:\program\CY8\PSoC Creator\3.2\PSoC Creator\psoc\content\cycomponentlibrary\CyComponentLibrary.cylib\BLE_v2_0\Library\gccCyBLEStack_BLE_SOC_PERIPHERAL.a(l2cap_lmp.o)
 .debug_frame   0x0000da40       0x4c D:\program\CY8\PSoC Creator\3.2\PSoC Creator\psoc\content\cycomponentlibrary\CyComponentLibrary.cylib\BLE_v2_0\Library\gccCyBLEStack_BLE_SOC_PERIPHERAL.a(l2cap_lmp.o)
 .debug_frame   0x0000da8c       0x44 D:\program\CY8\PSoC Creator\3.2\PSoC Creator\psoc\content\cycomponentlibrary\CyComponentLibrary.cylib\BLE_v2_0\Library\gccCyBLEStack_BLE_SOC_PERIPHERAL.a(l2cap_lmp.o)
 .debug_frame   0x0000dad0       0x48 D:\program\CY8\PSoC Creator\3.2\PSoC Creator\psoc\content\cycomponentlibrary\CyComponentLibrary.cylib\BLE_v2_0\Library\gccCyBLEStack_BLE_SOC_PERIPHERAL.a(l2cap_lmp.o)
 .debug_frame   0x0000db18       0x54 D:\program\CY8\PSoC Creator\3.2\PSoC Creator\psoc\content\cycomponentlibrary\CyComponentLibrary.cylib\BLE_v2_0\Library\gccCyBLEStack_BLE_SOC_PERIPHERAL.a(l2cap_le.o)
 .debug_frame   0x0000db6c       0x3c D:\program\CY8\PSoC Creator\3.2\PSoC Creator\psoc\content\cycomponentlibrary\CyComponentLibrary.cylib\BLE_v2_0\Library\gccCyBLEStack_BLE_SOC_PERIPHERAL.a(l2cap_le.o)
 .debug_frame   0x0000dba8       0x4c D:\program\CY8\PSoC Creator\3.2\PSoC Creator\psoc\content\cycomponentlibrary\CyComponentLibrary.cylib\BLE_v2_0\Library\gccCyBLEStack_BLE_SOC_PERIPHERAL.a(l2cap_fixed_channel.o)
 .debug_frame   0x0000dbf4       0x3c D:\program\CY8\PSoC Creator\3.2\PSoC Creator\psoc\content\cycomponentlibrary\CyComponentLibrary.cylib\BLE_v2_0\Library\gccCyBLEStack_BLE_SOC_PERIPHERAL.a(l2cap_fixed_channel.o)
 .debug_frame   0x0000dc30       0x48 D:\program\CY8\PSoC Creator\3.2\PSoC Creator\psoc\content\cycomponentlibrary\CyComponentLibrary.cylib\BLE_v2_0\Library\gccCyBLEStack_BLE_SOC_PERIPHERAL.a(l2cap_fixed_channel.o)
 .debug_frame   0x0000dc78       0x50 D:\program\CY8\PSoC Creator\3.2\PSoC Creator\psoc\content\cycomponentlibrary\CyComponentLibrary.cylib\BLE_v2_0\Library\gccCyBLEStack_BLE_SOC_PERIPHERAL.a(l2cap_channels.o)
 .debug_frame   0x0000dcc8       0x48 D:\program\CY8\PSoC Creator\3.2\PSoC Creator\psoc\content\cycomponentlibrary\CyComponentLibrary.cylib\BLE_v2_0\Library\gccCyBLEStack_BLE_SOC_PERIPHERAL.a(l2cap_channels.o)
 .debug_frame   0x0000dd10       0x4c D:\program\CY8\PSoC Creator\3.2\PSoC Creator\psoc\content\cycomponentlibrary\CyComponentLibrary.cylib\BLE_v2_0\Library\gccCyBLEStack_BLE_SOC_PERIPHERAL.a(l2cap_channels.o)
 .debug_frame   0x0000dd5c       0x4c D:\program\CY8\PSoC Creator\3.2\PSoC Creator\psoc\content\cycomponentlibrary\CyComponentLibrary.cylib\BLE_v2_0\Library\gccCyBLEStack_BLE_SOC_PERIPHERAL.a(l2cap_channels.o)
 .debug_frame   0x0000dda8       0x3c D:\program\CY8\PSoC Creator\3.2\PSoC Creator\psoc\content\cycomponentlibrary\CyComponentLibrary.cylib\BLE_v2_0\Library\gccCyBLEStack_BLE_SOC_PERIPHERAL.a(l2cap_credit_mode.o)
 .debug_frame   0x0000dde4       0x3c D:\program\CY8\PSoC Creator\3.2\PSoC Creator\psoc\content\cycomponentlibrary\CyComponentLibrary.cylib\BLE_v2_0\Library\gccCyBLEStack_BLE_SOC_PERIPHERAL.a(l2cap_credit_mode.o)
 .debug_frame   0x0000de20       0x4c D:\program\CY8\PSoC Creator\3.2\PSoC Creator\psoc\content\cycomponentlibrary\CyComponentLibrary.cylib\BLE_v2_0\Library\gccCyBLEStack_BLE_SOC_PERIPHERAL.a(l2cap_credit_mode.o)
 .debug_frame   0x0000de6c       0x50 D:\program\CY8\PSoC Creator\3.2\PSoC Creator\psoc\content\cycomponentlibrary\CyComponentLibrary.cylib\BLE_v2_0\Library\gccCyBLEStack_BLE_SOC_PERIPHERAL.a(l2cap_credit_mode.o)
 .debug_frame   0x0000debc       0x54 D:\program\CY8\PSoC Creator\3.2\PSoC Creator\psoc\content\cycomponentlibrary\CyComponentLibrary.cylib\BLE_v2_0\Library\gccCyBLEStack_BLE_SOC_PERIPHERAL.a(l2cap_credit_mode.o)
 .debug_frame   0x0000df10       0x50 D:\program\CY8\PSoC Creator\3.2\PSoC Creator\psoc\content\cycomponentlibrary\CyComponentLibrary.cylib\BLE_v2_0\Library\gccCyBLEStack_BLE_SOC_PERIPHERAL.a(l2cap_credit_mode.o)
 .debug_frame   0x0000df60       0x54 D:\program\CY8\PSoC Creator\3.2\PSoC Creator\psoc\content\cycomponentlibrary\CyComponentLibrary.cylib\BLE_v2_0\Library\gccCyBLEStack_BLE_SOC_PERIPHERAL.a(l2cap_credit_mode.o)
 .debug_frame   0x0000dfb4       0x44 D:\program\CY8\PSoC Creator\3.2\PSoC Creator\psoc\content\cycomponentlibrary\CyComponentLibrary.cylib\BLE_v2_0\Library\gccCyBLEStack_BLE_SOC_PERIPHERAL.a(l2cap_credit_mode.o)
 .debug_frame   0x0000dff8       0x54 D:\program\CY8\PSoC Creator\3.2\PSoC Creator\psoc\content\cycomponentlibrary\CyComponentLibrary.cylib\BLE_v2_0\Library\gccCyBLEStack_BLE_SOC_PERIPHERAL.a(l2cap_credit_mode.o)
 .debug_frame   0x0000e04c       0x4c D:\program\CY8\PSoC Creator\3.2\PSoC Creator\psoc\content\cycomponentlibrary\CyComponentLibrary.cylib\BLE_v2_0\Library\gccCyBLEStack_BLE_SOC_PERIPHERAL.a(l2cap_credit_mode.o)
 .debug_frame   0x0000e098       0x54 D:\program\CY8\PSoC Creator\3.2\PSoC Creator\psoc\content\cycomponentlibrary\CyComponentLibrary.cylib\BLE_v2_0\Library\gccCyBLEStack_BLE_SOC_PERIPHERAL.a(l2cap_credit_mode.o)
 .debug_frame   0x0000e0ec       0x54 D:\program\CY8\PSoC Creator\3.2\PSoC Creator\psoc\content\cycomponentlibrary\CyComponentLibrary.cylib\BLE_v2_0\Library\gccCyBLEStack_BLE_SOC_PERIPHERAL.a(l2cap_credit_mode.o)
 .debug_frame   0x0000e140       0x50 D:\program\CY8\PSoC Creator\3.2\PSoC Creator\psoc\content\cycomponentlibrary\CyComponentLibrary.cylib\BLE_v2_0\Library\gccCyBLEStack_BLE_SOC_PERIPHERAL.a(l2cap_credit_mode.o)
 .debug_frame   0x0000e190       0x4c D:\program\CY8\PSoC Creator\3.2\PSoC Creator\psoc\content\cycomponentlibrary\CyComponentLibrary.cylib\BLE_v2_0\Library\gccCyBLEStack_BLE_SOC_PERIPHERAL.a(l2cap_command.o)
 .debug_frame   0x0000e1dc       0x48 D:\program\CY8\PSoC Creator\3.2\PSoC Creator\psoc\content\cycomponentlibrary\CyComponentLibrary.cylib\BLE_v2_0\Library\gccCyBLEStack_BLE_SOC_PERIPHERAL.a(l2cap_command.o)
 .debug_frame   0x0000e224       0x44 D:\program\CY8\PSoC Creator\3.2\PSoC Creator\psoc\content\cycomponentlibrary\CyComponentLibrary.cylib\BLE_v2_0\Library\gccCyBLEStack_BLE_SOC_PERIPHERAL.a(l2cap_command.o)
 .debug_frame   0x0000e268       0x4c D:\program\CY8\PSoC Creator\3.2\PSoC Creator\psoc\content\cycomponentlibrary\CyComponentLibrary.cylib\BLE_v2_0\Library\gccCyBLEStack_BLE_SOC_PERIPHERAL.a(l2cap_command.o)
 .debug_frame   0x0000e2b4       0x4c D:\program\CY8\PSoC Creator\3.2\PSoC Creator\psoc\content\cycomponentlibrary\CyComponentLibrary.cylib\BLE_v2_0\Library\gccCyBLEStack_BLE_SOC_PERIPHERAL.a(l2cap_command.o)
 .debug_frame   0x0000e300       0x44 D:\program\CY8\PSoC Creator\3.2\PSoC Creator\psoc\content\cycomponentlibrary\CyComponentLibrary.cylib\BLE_v2_0\Library\gccCyBLEStack_BLE_SOC_PERIPHERAL.a(l2cap_command.o)
 .debug_frame   0x0000e344       0x4c D:\program\CY8\PSoC Creator\3.2\PSoC Creator\psoc\content\cycomponentlibrary\CyComponentLibrary.cylib\BLE_v2_0\Library\gccCyBLEStack_BLE_SOC_PERIPHERAL.a(l2cap_command.o)
 .debug_frame   0x0000e390       0x50 D:\program\CY8\PSoC Creator\3.2\PSoC Creator\psoc\content\cycomponentlibrary\CyComponentLibrary.cylib\BLE_v2_0\Library\gccCyBLEStack_BLE_SOC_PERIPHERAL.a(l2cap_command.o)
 .debug_frame   0x0000e3e0       0x44 D:\program\CY8\PSoC Creator\3.2\PSoC Creator\psoc\content\cycomponentlibrary\CyComponentLibrary.cylib\BLE_v2_0\Library\gccCyBLEStack_BLE_SOC_PERIPHERAL.a(l2cap_command.o)
 .debug_frame   0x0000e424       0x4c D:\program\CY8\PSoC Creator\3.2\PSoC Creator\psoc\content\cycomponentlibrary\CyComponentLibrary.cylib\BLE_v2_0\Library\gccCyBLEStack_BLE_SOC_PERIPHERAL.a(l2cap_command.o)
 .debug_frame   0x0000e470       0x4c D:\program\CY8\PSoC Creator\3.2\PSoC Creator\psoc\content\cycomponentlibrary\CyComponentLibrary.cylib\BLE_v2_0\Library\gccCyBLEStack_BLE_SOC_PERIPHERAL.a(l2cap_command.o)
 .debug_frame   0x0000e4bc       0x54 D:\program\CY8\PSoC Creator\3.2\PSoC Creator\psoc\content\cycomponentlibrary\CyComponentLibrary.cylib\BLE_v2_0\Library\gccCyBLEStack_BLE_SOC_PERIPHERAL.a(fsm_engine.o)
 .debug_frame   0x0000e510       0x3c D:\program\CY8\PSoC Creator\3.2\PSoC Creator\psoc\content\cycomponentlibrary\CyComponentLibrary.cylib\BLE_v2_0\Library\gccCyBLEStack_BLE_SOC_PERIPHERAL.a(gap.o)
 .debug_frame   0x0000e54c       0x44 D:\program\CY8\PSoC Creator\3.2\PSoC Creator\psoc\content\cycomponentlibrary\CyComponentLibrary.cylib\BLE_v2_0\Library\gccCyBLEStack_BLE_SOC_PERIPHERAL.a(gap.o)
 .debug_frame   0x0000e590       0x50 D:\program\CY8\PSoC Creator\3.2\PSoC Creator\psoc\content\cycomponentlibrary\CyComponentLibrary.cylib\BLE_v2_0\Library\gccCyBLEStack_BLE_SOC_PERIPHERAL.a(gap.o)
 .debug_frame   0x0000e5e0       0x48 D:\program\CY8\PSoC Creator\3.2\PSoC Creator\psoc\content\cycomponentlibrary\CyComponentLibrary.cylib\BLE_v2_0\Library\gccCyBLEStack_BLE_SOC_PERIPHERAL.a(gap.o)
 .debug_frame   0x0000e628       0x50 D:\program\CY8\PSoC Creator\3.2\PSoC Creator\psoc\content\cycomponentlibrary\CyComponentLibrary.cylib\BLE_v2_0\Library\gccCyBLEStack_BLE_SOC_PERIPHERAL.a(gap.o)
 .debug_frame   0x0000e678       0x48 D:\program\CY8\PSoC Creator\3.2\PSoC Creator\psoc\content\cycomponentlibrary\CyComponentLibrary.cylib\BLE_v2_0\Library\gccCyBLEStack_BLE_SOC_PERIPHERAL.a(gap.o)
 .debug_frame   0x0000e6c0       0x44 D:\program\CY8\PSoC Creator\3.2\PSoC Creator\psoc\content\cycomponentlibrary\CyComponentLibrary.cylib\BLE_v2_0\Library\gccCyBLEStack_BLE_SOC_PERIPHERAL.a(gap.o)
 .debug_frame   0x0000e704       0x44 D:\program\CY8\PSoC Creator\3.2\PSoC Creator\psoc\content\cycomponentlibrary\CyComponentLibrary.cylib\BLE_v2_0\Library\gccCyBLEStack_BLE_SOC_PERIPHERAL.a(gap.o)
 .debug_frame   0x0000e748       0x50 D:\program\CY8\PSoC Creator\3.2\PSoC Creator\psoc\content\cycomponentlibrary\CyComponentLibrary.cylib\BLE_v2_0\Library\gccCyBLEStack_BLE_SOC_PERIPHERAL.a(gap.o)
 .debug_frame   0x0000e798       0x44 D:\program\CY8\PSoC Creator\3.2\PSoC Creator\psoc\content\cycomponentlibrary\CyComponentLibrary.cylib\BLE_v2_0\Library\gccCyBLEStack_BLE_SOC_PERIPHERAL.a(gap.o)
 .debug_frame   0x0000e7dc       0x4c D:\program\CY8\PSoC Creator\3.2\PSoC Creator\psoc\content\cycomponentlibrary\CyComponentLibrary.cylib\BLE_v2_0\Library\gccCyBLEStack_BLE_SOC_PERIPHERAL.a(gap.o)
 .debug_frame   0x0000e828       0x4c D:\program\CY8\PSoC Creator\3.2\PSoC Creator\psoc\content\cycomponentlibrary\CyComponentLibrary.cylib\BLE_v2_0\Library\gccCyBLEStack_BLE_SOC_PERIPHERAL.a(gap.o)
 .debug_frame   0x0000e874       0x4c D:\program\CY8\PSoC Creator\3.2\PSoC Creator\psoc\content\cycomponentlibrary\CyComponentLibrary.cylib\BLE_v2_0\Library\gccCyBLEStack_BLE_SOC_PERIPHERAL.a(gap.o)
 .debug_frame   0x0000e8c0       0x48 D:\program\CY8\PSoC Creator\3.2\PSoC Creator\psoc\content\cycomponentlibrary\CyComponentLibrary.cylib\BLE_v2_0\Library\gccCyBLEStack_BLE_SOC_PERIPHERAL.a(gap.o)
 .debug_frame   0x0000e908       0x4c D:\program\CY8\PSoC Creator\3.2\PSoC Creator\psoc\content\cycomponentlibrary\CyComponentLibrary.cylib\BLE_v2_0\Library\gccCyBLEStack_BLE_SOC_PERIPHERAL.a(gap.o)
 .debug_frame   0x0000e954       0x50 D:\program\CY8\PSoC Creator\3.2\PSoC Creator\psoc\content\cycomponentlibrary\CyComponentLibrary.cylib\BLE_v2_0\Library\gccCyBLEStack_BLE_SOC_PERIPHERAL.a(gap.o)
 .debug_frame   0x0000e9a4       0x44 D:\program\CY8\PSoC Creator\3.2\PSoC Creator\psoc\content\cycomponentlibrary\CyComponentLibrary.cylib\BLE_v2_0\Library\gccCyBLEStack_BLE_SOC_PERIPHERAL.a(gap.o)
 .debug_frame   0x0000e9e8       0x48 D:\program\CY8\PSoC Creator\3.2\PSoC Creator\psoc\content\cycomponentlibrary\CyComponentLibrary.cylib\BLE_v2_0\Library\gccCyBLEStack_BLE_SOC_PERIPHERAL.a(gap.o)
 .debug_frame   0x0000ea30       0x54 D:\program\CY8\PSoC Creator\3.2\PSoC Creator\psoc\content\cycomponentlibrary\CyComponentLibrary.cylib\BLE_v2_0\Library\gccCyBLEStack_BLE_SOC_PERIPHERAL.a(gap.o)
 .debug_frame   0x0000ea84       0x50 D:\program\CY8\PSoC Creator\3.2\PSoC Creator\psoc\content\cycomponentlibrary\CyComponentLibrary.cylib\BLE_v2_0\Library\gccCyBLEStack_BLE_SOC_PERIPHERAL.a(gap.o)
 .debug_frame   0x0000ead4       0x44 D:\program\CY8\PSoC Creator\3.2\PSoC Creator\psoc\content\cycomponentlibrary\CyComponentLibrary.cylib\BLE_v2_0\Library\gccCyBLEStack_BLE_SOC_PERIPHERAL.a(gap.o)
 .debug_frame   0x0000eb18       0x48 D:\program\CY8\PSoC Creator\3.2\PSoC Creator\psoc\content\cycomponentlibrary\CyComponentLibrary.cylib\BLE_v2_0\Library\gccCyBLEStack_BLE_SOC_PERIPHERAL.a(gap.o)
 .debug_frame   0x0000eb60       0x4c D:\program\CY8\PSoC Creator\3.2\PSoC Creator\psoc\content\cycomponentlibrary\CyComponentLibrary.cylib\BLE_v2_0\Library\gccCyBLEStack_BLE_SOC_PERIPHERAL.a(gap.o)
 .debug_frame   0x0000ebac       0x44 D:\program\CY8\PSoC Creator\3.2\PSoC Creator\psoc\content\cycomponentlibrary\CyComponentLibrary.cylib\BLE_v2_0\Library\gccCyBLEStack_BLE_SOC_PERIPHERAL.a(gap.o)
 .debug_frame   0x0000ebf0       0x50 D:\program\CY8\PSoC Creator\3.2\PSoC Creator\psoc\content\cycomponentlibrary\CyComponentLibrary.cylib\BLE_v2_0\Library\gccCyBLEStack_BLE_SOC_PERIPHERAL.a(gap.o)
 .debug_frame   0x0000ec40       0x44 D:\program\CY8\PSoC Creator\3.2\PSoC Creator\psoc\content\cycomponentlibrary\CyComponentLibrary.cylib\BLE_v2_0\Library\gccCyBLEStack_BLE_SOC_PERIPHERAL.a(gap.o)
 .debug_frame   0x0000ec84       0x48 D:\program\CY8\PSoC Creator\3.2\PSoC Creator\psoc\content\cycomponentlibrary\CyComponentLibrary.cylib\BLE_v2_0\Library\gccCyBLEStack_BLE_SOC_PERIPHERAL.a(gap.o)
 .debug_frame   0x0000eccc       0x54 D:\program\CY8\PSoC Creator\3.2\PSoC Creator\psoc\content\cycomponentlibrary\CyComponentLibrary.cylib\BLE_v2_0\Library\gccCyBLEStack_BLE_SOC_PERIPHERAL.a(gap.o)
 .debug_frame   0x0000ed20       0x4c D:\program\CY8\PSoC Creator\3.2\PSoC Creator\psoc\content\cycomponentlibrary\CyComponentLibrary.cylib\BLE_v2_0\Library\gccCyBLEStack_BLE_SOC_PERIPHERAL.a(gap.o)
 .debug_frame   0x0000ed6c       0x44 D:\program\CY8\PSoC Creator\3.2\PSoC Creator\psoc\content\cycomponentlibrary\CyComponentLibrary.cylib\BLE_v2_0\Library\gccCyBLEStack_BLE_SOC_PERIPHERAL.a(gap.o)
 .debug_frame   0x0000edb0       0x44 D:\program\CY8\PSoC Creator\3.2\PSoC Creator\psoc\content\cycomponentlibrary\CyComponentLibrary.cylib\BLE_v2_0\Library\gccCyBLEStack_BLE_SOC_PERIPHERAL.a(gap.o)
 .debug_frame   0x0000edf4       0x44 D:\program\CY8\PSoC Creator\3.2\PSoC Creator\psoc\content\cycomponentlibrary\CyComponentLibrary.cylib\BLE_v2_0\Library\gccCyBLEStack_BLE_SOC_PERIPHERAL.a(gap.o)
 .debug_frame   0x0000ee38       0x4c D:\program\CY8\PSoC Creator\3.2\PSoC Creator\psoc\content\cycomponentlibrary\CyComponentLibrary.cylib\BLE_v2_0\Library\gccCyBLEStack_BLE_SOC_PERIPHERAL.a(gatt.o)
 .debug_frame   0x0000ee84       0x3c D:\program\CY8\PSoC Creator\3.2\PSoC Creator\psoc\content\cycomponentlibrary\CyComponentLibrary.cylib\BLE_v2_0\Library\gccCyBLEStack_BLE_SOC_PERIPHERAL.a(gatt.o)
 .debug_frame   0x0000eec0       0x4c D:\program\CY8\PSoC Creator\3.2\PSoC Creator\psoc\content\cycomponentlibrary\CyComponentLibrary.cylib\BLE_v2_0\Library\gccCyBLEStack_BLE_SOC_PERIPHERAL.a(gatt.o)
 .debug_frame   0x0000ef0c       0x44 D:\program\CY8\PSoC Creator\3.2\PSoC Creator\psoc\content\cycomponentlibrary\CyComponentLibrary.cylib\BLE_v2_0\Library\gccCyBLEStack_BLE_SOC_PERIPHERAL.a(gatt.o)
 .debug_frame   0x0000ef50       0x54 D:\program\CY8\PSoC Creator\3.2\PSoC Creator\psoc\content\cycomponentlibrary\CyComponentLibrary.cylib\BLE_v2_0\Library\gccCyBLEStack_BLE_SOC_PERIPHERAL.a(gatt.o)
 .debug_frame   0x0000efa4       0x44 D:\program\CY8\PSoC Creator\3.2\PSoC Creator\psoc\content\cycomponentlibrary\CyComponentLibrary.cylib\BLE_v2_0\Library\gccCyBLEStack_BLE_SOC_PERIPHERAL.a(gatt.o)
 .debug_frame   0x0000efe8       0x44 D:\program\CY8\PSoC Creator\3.2\PSoC Creator\psoc\content\cycomponentlibrary\CyComponentLibrary.cylib\BLE_v2_0\Library\gccCyBLEStack_BLE_SOC_PERIPHERAL.a(gatt.o)
 .debug_frame   0x0000f02c       0x48 D:\program\CY8\PSoC Creator\3.2\PSoC Creator\psoc\content\cycomponentlibrary\CyComponentLibrary.cylib\BLE_v2_0\Library\gccCyBLEStack_BLE_SOC_PERIPHERAL.a(gattClient.o)
 .debug_frame   0x0000f074       0x4c D:\program\CY8\PSoC Creator\3.2\PSoC Creator\psoc\content\cycomponentlibrary\CyComponentLibrary.cylib\BLE_v2_0\Library\gccCyBLEStack_BLE_SOC_PERIPHERAL.a(gattClient.o)
 .debug_frame   0x0000f0c0       0x48 D:\program\CY8\PSoC Creator\3.2\PSoC Creator\psoc\content\cycomponentlibrary\CyComponentLibrary.cylib\BLE_v2_0\Library\gccCyBLEStack_BLE_SOC_PERIPHERAL.a(gattClient.o)
 .debug_frame   0x0000f108       0x54 D:\program\CY8\PSoC Creator\3.2\PSoC Creator\psoc\content\cycomponentlibrary\CyComponentLibrary.cylib\BLE_v2_0\Library\gccCyBLEStack_BLE_SOC_PERIPHERAL.a(gattClient.o)
 .debug_frame   0x0000f15c       0x54 D:\program\CY8\PSoC Creator\3.2\PSoC Creator\psoc\content\cycomponentlibrary\CyComponentLibrary.cylib\BLE_v2_0\Library\gccCyBLEStack_BLE_SOC_PERIPHERAL.a(gattClient.o)
 .debug_frame   0x0000f1b0       0x54 D:\program\CY8\PSoC Creator\3.2\PSoC Creator\psoc\content\cycomponentlibrary\CyComponentLibrary.cylib\BLE_v2_0\Library\gccCyBLEStack_BLE_SOC_PERIPHERAL.a(gattClient.o)
 .debug_frame   0x0000f204       0x4c D:\program\CY8\PSoC Creator\3.2\PSoC Creator\psoc\content\cycomponentlibrary\CyComponentLibrary.cylib\BLE_v2_0\Library\gccCyBLEStack_BLE_SOC_PERIPHERAL.a(gattClient.o)
 .debug_frame   0x0000f250       0x48 D:\program\CY8\PSoC Creator\3.2\PSoC Creator\psoc\content\cycomponentlibrary\CyComponentLibrary.cylib\BLE_v2_0\Library\gccCyBLEStack_BLE_SOC_PERIPHERAL.a(gattClient.o)
 .debug_frame   0x0000f298       0x50 D:\program\CY8\PSoC Creator\3.2\PSoC Creator\psoc\content\cycomponentlibrary\CyComponentLibrary.cylib\BLE_v2_0\Library\gccCyBLEStack_BLE_SOC_PERIPHERAL.a(gattClient.o)
 .debug_frame   0x0000f2e8       0x44 D:\program\CY8\PSoC Creator\3.2\PSoC Creator\psoc\content\cycomponentlibrary\CyComponentLibrary.cylib\BLE_v2_0\Library\gccCyBLEStack_BLE_SOC_PERIPHERAL.a(gattClient.o)
 .debug_frame   0x0000f32c       0x44 D:\program\CY8\PSoC Creator\3.2\PSoC Creator\psoc\content\cycomponentlibrary\CyComponentLibrary.cylib\BLE_v2_0\Library\gccCyBLEStack_BLE_SOC_PERIPHERAL.a(gattClient.o)
 .debug_frame   0x0000f370       0x3c D:\program\CY8\PSoC Creator\3.2\PSoC Creator\psoc\content\cycomponentlibrary\CyComponentLibrary.cylib\BLE_v2_0\Library\gccCyBLEStack_BLE_SOC_PERIPHERAL.a(gattClient.o)
 .debug_frame   0x0000f3ac       0x44 D:\program\CY8\PSoC Creator\3.2\PSoC Creator\psoc\content\cycomponentlibrary\CyComponentLibrary.cylib\BLE_v2_0\Library\gccCyBLEStack_BLE_SOC_PERIPHERAL.a(gattClient.o)
 .debug_frame   0x0000f3f0       0x44 D:\program\CY8\PSoC Creator\3.2\PSoC Creator\psoc\content\cycomponentlibrary\CyComponentLibrary.cylib\BLE_v2_0\Library\gccCyBLEStack_BLE_SOC_PERIPHERAL.a(gattClient.o)
 .debug_frame   0x0000f434       0x44 D:\program\CY8\PSoC Creator\3.2\PSoC Creator\psoc\content\cycomponentlibrary\CyComponentLibrary.cylib\BLE_v2_0\Library\gccCyBLEStack_BLE_SOC_PERIPHERAL.a(gattClient.o)
 .debug_frame   0x0000f478       0x44 D:\program\CY8\PSoC Creator\3.2\PSoC Creator\psoc\content\cycomponentlibrary\CyComponentLibrary.cylib\BLE_v2_0\Library\gccCyBLEStack_BLE_SOC_PERIPHERAL.a(gattClient.o)
 .debug_frame   0x0000f4bc       0x44 D:\program\CY8\PSoC Creator\3.2\PSoC Creator\psoc\content\cycomponentlibrary\CyComponentLibrary.cylib\BLE_v2_0\Library\gccCyBLEStack_BLE_SOC_PERIPHERAL.a(gattClient.o)
 .debug_frame   0x0000f500       0x48 D:\program\CY8\PSoC Creator\3.2\PSoC Creator\psoc\content\cycomponentlibrary\CyComponentLibrary.cylib\BLE_v2_0\Library\gccCyBLEStack_BLE_SOC_PERIPHERAL.a(gattClient.o)
 .debug_frame   0x0000f548       0x44 D:\program\CY8\PSoC Creator\3.2\PSoC Creator\psoc\content\cycomponentlibrary\CyComponentLibrary.cylib\BLE_v2_0\Library\gccCyBLEStack_BLE_SOC_PERIPHERAL.a(gattClient.o)
 .debug_frame   0x0000f58c       0x44 D:\program\CY8\PSoC Creator\3.2\PSoC Creator\psoc\content\cycomponentlibrary\CyComponentLibrary.cylib\BLE_v2_0\Library\gccCyBLEStack_BLE_SOC_PERIPHERAL.a(gattClient.o)
 .debug_frame   0x0000f5d0       0x48 D:\program\CY8\PSoC Creator\3.2\PSoC Creator\psoc\content\cycomponentlibrary\CyComponentLibrary.cylib\BLE_v2_0\Library\gccCyBLEStack_BLE_SOC_PERIPHERAL.a(gattClient.o)
 .debug_frame   0x0000f618       0x44 D:\program\CY8\PSoC Creator\3.2\PSoC Creator\psoc\content\cycomponentlibrary\CyComponentLibrary.cylib\BLE_v2_0\Library\gccCyBLEStack_BLE_SOC_PERIPHERAL.a(gattClient.o)
 .debug_frame   0x0000f65c       0x44 D:\program\CY8\PSoC Creator\3.2\PSoC Creator\psoc\content\cycomponentlibrary\CyComponentLibrary.cylib\BLE_v2_0\Library\gccCyBLEStack_BLE_SOC_PERIPHERAL.a(gattClient.o)
 .debug_frame   0x0000f6a0       0x44 D:\program\CY8\PSoC Creator\3.2\PSoC Creator\psoc\content\cycomponentlibrary\CyComponentLibrary.cylib\BLE_v2_0\Library\gccCyBLEStack_BLE_SOC_PERIPHERAL.a(gattClient.o)
 .debug_frame   0x0000f6e4       0x4c D:\program\CY8\PSoC Creator\3.2\PSoC Creator\psoc\content\cycomponentlibrary\CyComponentLibrary.cylib\BLE_v2_0\Library\gccCyBLEStack_BLE_SOC_PERIPHERAL.a(gattClient.o)
 .debug_frame   0x0000f730       0x44 D:\program\CY8\PSoC Creator\3.2\PSoC Creator\psoc\content\cycomponentlibrary\CyComponentLibrary.cylib\BLE_v2_0\Library\gccCyBLEStack_BLE_SOC_PERIPHERAL.a(gattClient.o)
 .debug_frame   0x0000f774       0x44 D:\program\CY8\PSoC Creator\3.2\PSoC Creator\psoc\content\cycomponentlibrary\CyComponentLibrary.cylib\BLE_v2_0\Library\gccCyBLEStack_BLE_SOC_PERIPHERAL.a(gattClient.o)
 .debug_frame   0x0000f7b8       0x48 D:\program\CY8\PSoC Creator\3.2\PSoC Creator\psoc\content\cycomponentlibrary\CyComponentLibrary.cylib\BLE_v2_0\Library\gccCyBLEStack_BLE_SOC_PERIPHERAL.a(gattClient.o)
 .debug_frame   0x0000f800       0x44 D:\program\CY8\PSoC Creator\3.2\PSoC Creator\psoc\content\cycomponentlibrary\CyComponentLibrary.cylib\BLE_v2_0\Library\gccCyBLEStack_BLE_SOC_PERIPHERAL.a(gattClient.o)
 .debug_frame   0x0000f844       0x44 D:\program\CY8\PSoC Creator\3.2\PSoC Creator\psoc\content\cycomponentlibrary\CyComponentLibrary.cylib\BLE_v2_0\Library\gccCyBLEStack_BLE_SOC_PERIPHERAL.a(gattClient.o)
 .debug_frame   0x0000f888       0x44 D:\program\CY8\PSoC Creator\3.2\PSoC Creator\psoc\content\cycomponentlibrary\CyComponentLibrary.cylib\BLE_v2_0\Library\gccCyBLEStack_BLE_SOC_PERIPHERAL.a(gattClient.o)
 .debug_frame   0x0000f8cc       0x44 D:\program\CY8\PSoC Creator\3.2\PSoC Creator\psoc\content\cycomponentlibrary\CyComponentLibrary.cylib\BLE_v2_0\Library\gccCyBLEStack_BLE_SOC_PERIPHERAL.a(gattClient.o)
 .debug_frame   0x0000f910       0x44 D:\program\CY8\PSoC Creator\3.2\PSoC Creator\psoc\content\cycomponentlibrary\CyComponentLibrary.cylib\BLE_v2_0\Library\gccCyBLEStack_BLE_SOC_PERIPHERAL.a(gattClient.o)
 .debug_frame   0x0000f954       0x44 D:\program\CY8\PSoC Creator\3.2\PSoC Creator\psoc\content\cycomponentlibrary\CyComponentLibrary.cylib\BLE_v2_0\Library\gccCyBLEStack_BLE_SOC_PERIPHERAL.a(gattClient.o)
 .debug_frame   0x0000f998       0x44 D:\program\CY8\PSoC Creator\3.2\PSoC Creator\psoc\content\cycomponentlibrary\CyComponentLibrary.cylib\BLE_v2_0\Library\gccCyBLEStack_BLE_SOC_PERIPHERAL.a(gattClient.o)
 .debug_frame   0x0000f9dc       0x44 D:\program\CY8\PSoC Creator\3.2\PSoC Creator\psoc\content\cycomponentlibrary\CyComponentLibrary.cylib\BLE_v2_0\Library\gccCyBLEStack_BLE_SOC_PERIPHERAL.a(gattClient.o)
 .debug_frame   0x0000fa20       0x4c D:\program\CY8\PSoC Creator\3.2\PSoC Creator\psoc\content\cycomponentlibrary\CyComponentLibrary.cylib\BLE_v2_0\Library\gccCyBLEStack_BLE_SOC_PERIPHERAL.a(gattClient.o)
 .debug_frame   0x0000fa6c       0x48 D:\program\CY8\PSoC Creator\3.2\PSoC Creator\psoc\content\cycomponentlibrary\CyComponentLibrary.cylib\BLE_v2_0\Library\gccCyBLEStack_BLE_SOC_PERIPHERAL.a(gattServer.o)
 .debug_frame   0x0000fab4       0x4c D:\program\CY8\PSoC Creator\3.2\PSoC Creator\psoc\content\cycomponentlibrary\CyComponentLibrary.cylib\BLE_v2_0\Library\gccCyBLEStack_BLE_SOC_PERIPHERAL.a(gattServer.o)
 .debug_frame   0x0000fb00       0x3c D:\program\CY8\PSoC Creator\3.2\PSoC Creator\psoc\content\cycomponentlibrary\CyComponentLibrary.cylib\BLE_v2_0\Library\gccCyBLEStack_BLE_SOC_PERIPHERAL.a(gattServer.o)
 .debug_frame   0x0000fb3c       0x50 D:\program\CY8\PSoC Creator\3.2\PSoC Creator\psoc\content\cycomponentlibrary\CyComponentLibrary.cylib\BLE_v2_0\Library\gccCyBLEStack_BLE_SOC_PERIPHERAL.a(gattServer.o)
 .debug_frame   0x0000fb8c       0x50 D:\program\CY8\PSoC Creator\3.2\PSoC Creator\psoc\content\cycomponentlibrary\CyComponentLibrary.cylib\BLE_v2_0\Library\gccCyBLEStack_BLE_SOC_PERIPHERAL.a(gattServer.o)
 .debug_frame   0x0000fbdc       0x50 D:\program\CY8\PSoC Creator\3.2\PSoC Creator\psoc\content\cycomponentlibrary\CyComponentLibrary.cylib\BLE_v2_0\Library\gccCyBLEStack_BLE_SOC_PERIPHERAL.a(gattServer.o)
 .debug_frame   0x0000fc2c       0x50 D:\program\CY8\PSoC Creator\3.2\PSoC Creator\psoc\content\cycomponentlibrary\CyComponentLibrary.cylib\BLE_v2_0\Library\gccCyBLEStack_BLE_SOC_PERIPHERAL.a(gattServer.o)
 .debug_frame   0x0000fc7c       0x54 D:\program\CY8\PSoC Creator\3.2\PSoC Creator\psoc\content\cycomponentlibrary\CyComponentLibrary.cylib\BLE_v2_0\Library\gccCyBLEStack_BLE_SOC_PERIPHERAL.a(gattServer.o)
 .debug_frame   0x0000fcd0       0x54 D:\program\CY8\PSoC Creator\3.2\PSoC Creator\psoc\content\cycomponentlibrary\CyComponentLibrary.cylib\BLE_v2_0\Library\gccCyBLEStack_BLE_SOC_PERIPHERAL.a(gattServer.o)
 .debug_frame   0x0000fd24       0x50 D:\program\CY8\PSoC Creator\3.2\PSoC Creator\psoc\content\cycomponentlibrary\CyComponentLibrary.cylib\BLE_v2_0\Library\gccCyBLEStack_BLE_SOC_PERIPHERAL.a(gattServer.o)
 .debug_frame   0x0000fd74       0x54 D:\program\CY8\PSoC Creator\3.2\PSoC Creator\psoc\content\cycomponentlibrary\CyComponentLibrary.cylib\BLE_v2_0\Library\gccCyBLEStack_BLE_SOC_PERIPHERAL.a(gattServer.o)
 .debug_frame   0x0000fdc8       0x44 D:\program\CY8\PSoC Creator\3.2\PSoC Creator\psoc\content\cycomponentlibrary\CyComponentLibrary.cylib\BLE_v2_0\Library\gccCyBLEStack_BLE_SOC_PERIPHERAL.a(gattServer.o)
 .debug_frame   0x0000fe0c       0x44 D:\program\CY8\PSoC Creator\3.2\PSoC Creator\psoc\content\cycomponentlibrary\CyComponentLibrary.cylib\BLE_v2_0\Library\gccCyBLEStack_BLE_SOC_PERIPHERAL.a(gattServer.o)
 .debug_frame   0x0000fe50       0x44 D:\program\CY8\PSoC Creator\3.2\PSoC Creator\psoc\content\cycomponentlibrary\CyComponentLibrary.cylib\BLE_v2_0\Library\gccCyBLEStack_BLE_SOC_PERIPHERAL.a(gattServer.o)
 .debug_frame   0x0000fe94       0x44 D:\program\CY8\PSoC Creator\3.2\PSoC Creator\psoc\content\cycomponentlibrary\CyComponentLibrary.cylib\BLE_v2_0\Library\gccCyBLEStack_BLE_SOC_PERIPHERAL.a(gattServer.o)
 .debug_frame   0x0000fed8       0x44 D:\program\CY8\PSoC Creator\3.2\PSoC Creator\psoc\content\cycomponentlibrary\CyComponentLibrary.cylib\BLE_v2_0\Library\gccCyBLEStack_BLE_SOC_PERIPHERAL.a(gattServer.o)
 .debug_frame   0x0000ff1c       0x44 D:\program\CY8\PSoC Creator\3.2\PSoC Creator\psoc\content\cycomponentlibrary\CyComponentLibrary.cylib\BLE_v2_0\Library\gccCyBLEStack_BLE_SOC_PERIPHERAL.a(gattServer.o)
 .debug_frame   0x0000ff60       0x44 D:\program\CY8\PSoC Creator\3.2\PSoC Creator\psoc\content\cycomponentlibrary\CyComponentLibrary.cylib\BLE_v2_0\Library\gccCyBLEStack_BLE_SOC_PERIPHERAL.a(gattServer.o)
 .debug_frame   0x0000ffa4       0x44 D:\program\CY8\PSoC Creator\3.2\PSoC Creator\psoc\content\cycomponentlibrary\CyComponentLibrary.cylib\BLE_v2_0\Library\gccCyBLEStack_BLE_SOC_PERIPHERAL.a(gattServer.o)
 .debug_frame   0x0000ffe8       0x44 D:\program\CY8\PSoC Creator\3.2\PSoC Creator\psoc\content\cycomponentlibrary\CyComponentLibrary.cylib\BLE_v2_0\Library\gccCyBLEStack_BLE_SOC_PERIPHERAL.a(gattServer.o)
 .debug_frame   0x0001002c       0x48 D:\program\CY8\PSoC Creator\3.2\PSoC Creator\psoc\content\cycomponentlibrary\CyComponentLibrary.cylib\BLE_v2_0\Library\gccCyBLEStack_BLE_SOC_PERIPHERAL.a(gattServer.o)
 .debug_frame   0x00010074       0x44 D:\program\CY8\PSoC Creator\3.2\PSoC Creator\psoc\content\cycomponentlibrary\CyComponentLibrary.cylib\BLE_v2_0\Library\gccCyBLEStack_BLE_SOC_PERIPHERAL.a(gattServer.o)
 .debug_frame   0x000100b8       0x44 D:\program\CY8\PSoC Creator\3.2\PSoC Creator\psoc\content\cycomponentlibrary\CyComponentLibrary.cylib\BLE_v2_0\Library\gccCyBLEStack_BLE_SOC_PERIPHERAL.a(gattDbHandler.o)
 .debug_frame   0x000100fc       0x50 D:\program\CY8\PSoC Creator\3.2\PSoC Creator\psoc\content\cycomponentlibrary\CyComponentLibrary.cylib\BLE_v2_0\Library\gccCyBLEStack_BLE_SOC_PERIPHERAL.a(gattDbHandler.o)
 .debug_frame   0x0001014c       0x4c D:\program\CY8\PSoC Creator\3.2\PSoC Creator\psoc\content\cycomponentlibrary\CyComponentLibrary.cylib\BLE_v2_0\Library\gccCyBLEStack_BLE_SOC_PERIPHERAL.a(gattDbHandler.o)
 .debug_frame   0x00010198       0x50 D:\program\CY8\PSoC Creator\3.2\PSoC Creator\psoc\content\cycomponentlibrary\CyComponentLibrary.cylib\BLE_v2_0\Library\gccCyBLEStack_BLE_SOC_PERIPHERAL.a(gattDbHandler.o)
 .debug_frame   0x000101e8       0x48 D:\program\CY8\PSoC Creator\3.2\PSoC Creator\psoc\content\cycomponentlibrary\CyComponentLibrary.cylib\BLE_v2_0\Library\gccCyBLEStack_BLE_SOC_PERIPHERAL.a(gattDbHandler.o)
 .debug_frame   0x00010230       0x4c D:\program\CY8\PSoC Creator\3.2\PSoC Creator\psoc\content\cycomponentlibrary\CyComponentLibrary.cylib\BLE_v2_0\Library\gccCyBLEStack_BLE_SOC_PERIPHERAL.a(gattDbHandler.o)
 .debug_frame   0x0001027c       0x44 D:\program\CY8\PSoC Creator\3.2\PSoC Creator\psoc\content\cycomponentlibrary\CyComponentLibrary.cylib\BLE_v2_0\Library\gccCyBLEStack_BLE_SOC_PERIPHERAL.a(gattDbHandler.o)
 .debug_frame   0x000102c0       0x44 D:\program\CY8\PSoC Creator\3.2\PSoC Creator\psoc\content\cycomponentlibrary\CyComponentLibrary.cylib\BLE_v2_0\Library\gccCyBLEStack_BLE_SOC_PERIPHERAL.a(gattDbHandler.o)
 .debug_frame   0x00010304       0x3c D:\program\CY8\PSoC Creator\3.2\PSoC Creator\psoc\content\cycomponentlibrary\CyComponentLibrary.cylib\BLE_v2_0\Library\gccCyBLEStack_BLE_SOC_PERIPHERAL.a(hci_api.o)
 .debug_frame   0x00010340       0x44 D:\program\CY8\PSoC Creator\3.2\PSoC Creator\psoc\content\cycomponentlibrary\CyComponentLibrary.cylib\BLE_v2_0\Library\gccCyBLEStack_BLE_SOC_PERIPHERAL.a(hci_api.o)
 .debug_frame   0x00010384       0x48 D:\program\CY8\PSoC Creator\3.2\PSoC Creator\psoc\content\cycomponentlibrary\CyComponentLibrary.cylib\BLE_v2_0\Library\gccCyBLEStack_BLE_SOC_PERIPHERAL.a(hci_api.o)
 .debug_frame   0x000103cc       0x44 D:\program\CY8\PSoC Creator\3.2\PSoC Creator\psoc\content\cycomponentlibrary\CyComponentLibrary.cylib\BLE_v2_0\Library\gccCyBLEStack_BLE_SOC_PERIPHERAL.a(hci_api.o)
 .debug_frame   0x00010410       0x44 D:\program\CY8\PSoC Creator\3.2\PSoC Creator\psoc\content\cycomponentlibrary\CyComponentLibrary.cylib\BLE_v2_0\Library\gccCyBLEStack_BLE_SOC_PERIPHERAL.a(hci_api.o)
 .debug_frame   0x00010454       0x44 D:\program\CY8\PSoC Creator\3.2\PSoC Creator\psoc\content\cycomponentlibrary\CyComponentLibrary.cylib\BLE_v2_0\Library\gccCyBLEStack_BLE_SOC_PERIPHERAL.a(hci_api.o)
 .debug_frame   0x00010498       0x44 D:\program\CY8\PSoC Creator\3.2\PSoC Creator\psoc\content\cycomponentlibrary\CyComponentLibrary.cylib\BLE_v2_0\Library\gccCyBLEStack_BLE_SOC_PERIPHERAL.a(hci_api.o)
 .debug_frame   0x000104dc       0x50 D:\program\CY8\PSoC Creator\3.2\PSoC Creator\psoc\content\cycomponentlibrary\CyComponentLibrary.cylib\BLE_v2_0\Library\gccCyBLEStack_BLE_SOC_PERIPHERAL.a(hci_api.o)
 .debug_frame   0x0001052c       0x4c D:\program\CY8\PSoC Creator\3.2\PSoC Creator\psoc\content\cycomponentlibrary\CyComponentLibrary.cylib\BLE_v2_0\Library\gccCyBLEStack_BLE_SOC_PERIPHERAL.a(hci_api.o)
 .debug_frame   0x00010578       0x44 D:\program\CY8\PSoC Creator\3.2\PSoC Creator\psoc\content\cycomponentlibrary\CyComponentLibrary.cylib\BLE_v2_0\Library\gccCyBLEStack_BLE_SOC_PERIPHERAL.a(hci_link_control_api.o)
 .debug_frame   0x000105bc       0x48 D:\program\CY8\PSoC Creator\3.2\PSoC Creator\psoc\content\cycomponentlibrary\CyComponentLibrary.cylib\BLE_v2_0\Library\gccCyBLEStack_BLE_SOC_PERIPHERAL.a(hci_link_control_api.o)
 .debug_frame   0x00010604       0x4c D:\program\CY8\PSoC Creator\3.2\PSoC Creator\psoc\content\cycomponentlibrary\CyComponentLibrary.cylib\BLE_v2_0\Library\gccCyBLEStack_BLE_SOC_PERIPHERAL.a(hci_commands.o)
 .debug_frame   0x00010650       0x44 D:\program\CY8\PSoC Creator\3.2\PSoC Creator\psoc\content\cycomponentlibrary\CyComponentLibrary.cylib\BLE_v2_0\Library\gccCyBLEStack_BLE_SOC_PERIPHERAL.a(hci_commands.o)
 .debug_frame   0x00010694       0x48 D:\program\CY8\PSoC Creator\3.2\PSoC Creator\psoc\content\cycomponentlibrary\CyComponentLibrary.cylib\BLE_v2_0\Library\gccCyBLEStack_BLE_SOC_PERIPHERAL.a(hci_events.o)
 .debug_frame   0x000106dc       0x44 D:\program\CY8\PSoC Creator\3.2\PSoC Creator\psoc\content\cycomponentlibrary\CyComponentLibrary.cylib\BLE_v2_0\Library\gccCyBLEStack_BLE_SOC_PERIPHERAL.a(hci_events.o)
 .debug_frame   0x00010720       0x44 D:\program\CY8\PSoC Creator\3.2\PSoC Creator\psoc\content\cycomponentlibrary\CyComponentLibrary.cylib\BLE_v2_0\Library\gccCyBLEStack_BLE_SOC_PERIPHERAL.a(hci_events.o)
 .debug_frame   0x00010764       0x48 D:\program\CY8\PSoC Creator\3.2\PSoC Creator\psoc\content\cycomponentlibrary\CyComponentLibrary.cylib\BLE_v2_0\Library\gccCyBLEStack_BLE_SOC_PERIPHERAL.a(hci_events.o)
 .debug_frame   0x000107ac       0x48 D:\program\CY8\PSoC Creator\3.2\PSoC Creator\psoc\content\cycomponentlibrary\CyComponentLibrary.cylib\BLE_v2_0\Library\gccCyBLEStack_BLE_SOC_PERIPHERAL.a(hci_events.o)
 .debug_frame   0x000107f4       0x44 D:\program\CY8\PSoC Creator\3.2\PSoC Creator\psoc\content\cycomponentlibrary\CyComponentLibrary.cylib\BLE_v2_0\Library\gccCyBLEStack_BLE_SOC_PERIPHERAL.a(hci_events.o)
 .debug_frame   0x00010838       0x48 D:\program\CY8\PSoC Creator\3.2\PSoC Creator\psoc\content\cycomponentlibrary\CyComponentLibrary.cylib\BLE_v2_0\Library\gccCyBLEStack_BLE_SOC_PERIPHERAL.a(hci_events.o)
 .debug_frame   0x00010880       0x4c D:\program\CY8\PSoC Creator\3.2\PSoC Creator\psoc\content\cycomponentlibrary\CyComponentLibrary.cylib\BLE_v2_0\Library\gccCyBLEStack_BLE_SOC_PERIPHERAL.a(hci_events.o)
 .debug_frame   0x000108cc       0x50 D:\program\CY8\PSoC Creator\3.2\PSoC Creator\psoc\content\cycomponentlibrary\CyComponentLibrary.cylib\BLE_v2_0\Library\gccCyBLEStack_BLE_SOC_PERIPHERAL.a(hci_events.o)
 .debug_frame   0x0001091c       0x48 D:\program\CY8\PSoC Creator\3.2\PSoC Creator\psoc\content\cycomponentlibrary\CyComponentLibrary.cylib\BLE_v2_0\Library\gccCyBLEStack_BLE_SOC_PERIPHERAL.a(hci_events.o)
 .debug_frame   0x00010964       0x3c D:\program\CY8\PSoC Creator\3.2\PSoC Creator\psoc\content\cycomponentlibrary\CyComponentLibrary.cylib\BLE_v2_0\Library\gccCyBLEStack_BLE_SOC_PERIPHERAL.a(hci_init.o)
 .debug_frame   0x000109a0       0x48 D:\program\CY8\PSoC Creator\3.2\PSoC Creator\psoc\content\cycomponentlibrary\CyComponentLibrary.cylib\BLE_v2_0\Library\gccCyBLEStack_BLE_SOC_PERIPHERAL.a(hci_init.o)
 .debug_frame   0x000109e8       0x50 D:\program\CY8\PSoC Creator\3.2\PSoC Creator\psoc\content\cycomponentlibrary\CyComponentLibrary.cylib\BLE_v2_0\Library\gccCyBLEStack_BLE_SOC_PERIPHERAL.a(hci_init.o)
 .debug_frame   0x00010a38       0x44 D:\program\CY8\PSoC Creator\3.2\PSoC Creator\psoc\content\cycomponentlibrary\CyComponentLibrary.cylib\BLE_v2_0\Library\gccCyBLEStack_BLE_SOC_PERIPHERAL.a(hci_init.o)
 .debug_frame   0x00010a7c       0x4c D:\program\CY8\PSoC Creator\3.2\PSoC Creator\psoc\content\cycomponentlibrary\CyComponentLibrary.cylib\BLE_v2_0\Library\gccCyBLEStack_BLE_SOC_PERIPHERAL.a(hci_init.o)
 .debug_frame   0x00010ac8       0x54 D:\program\CY8\PSoC Creator\3.2\PSoC Creator\psoc\content\cycomponentlibrary\CyComponentLibrary.cylib\BLE_v2_0\Library\gccCyBLEStack_BLE_SOC_PERIPHERAL.a(hci_le_api.o)
 .debug_frame   0x00010b1c       0x50 D:\program\CY8\PSoC Creator\3.2\PSoC Creator\psoc\content\cycomponentlibrary\CyComponentLibrary.cylib\BLE_v2_0\Library\gccCyBLEStack_BLE_SOC_PERIPHERAL.a(hci_le_api.o)
 .debug_frame   0x00010b6c       0x4c D:\program\CY8\PSoC Creator\3.2\PSoC Creator\psoc\content\cycomponentlibrary\CyComponentLibrary.cylib\BLE_v2_0\Library\gccCyBLEStack_BLE_SOC_PERIPHERAL.a(hci_le_api.o)
 .debug_frame   0x00010bb8       0x4c D:\program\CY8\PSoC Creator\3.2\PSoC Creator\psoc\content\cycomponentlibrary\CyComponentLibrary.cylib\BLE_v2_0\Library\gccCyBLEStack_BLE_SOC_PERIPHERAL.a(hci_le_api.o)
 .debug_frame   0x00010c04       0x48 D:\program\CY8\PSoC Creator\3.2\PSoC Creator\psoc\content\cycomponentlibrary\CyComponentLibrary.cylib\BLE_v2_0\Library\gccCyBLEStack_BLE_SOC_PERIPHERAL.a(hci_utils.o)
 .debug_frame   0x00010c4c       0x44 D:\program\CY8\PSoC Creator\3.2\PSoC Creator\psoc\content\cycomponentlibrary\CyComponentLibrary.cylib\BLE_v2_0\Library\gccCyBLEStack_BLE_SOC_PERIPHERAL.a(hci_utils.o)
 .debug_frame   0x00010c90       0x44 D:\program\CY8\PSoC Creator\3.2\PSoC Creator\psoc\content\cycomponentlibrary\CyComponentLibrary.cylib\BLE_v2_0\Library\gccCyBLEStack_BLE_SOC_PERIPHERAL.a(hci_utils.o)
 .debug_frame   0x00010cd4       0x3c D:\program\CY8\PSoC Creator\3.2\PSoC Creator\psoc\content\cycomponentlibrary\CyComponentLibrary.cylib\BLE_v2_0\Library\gccCyBLEStack_BLE_SOC_PERIPHERAL.a(smp_api.o)
 .debug_frame   0x00010d10       0x4c D:\program\CY8\PSoC Creator\3.2\PSoC Creator\psoc\content\cycomponentlibrary\CyComponentLibrary.cylib\BLE_v2_0\Library\gccCyBLEStack_BLE_SOC_PERIPHERAL.a(smp_api.o)
 .debug_frame   0x00010d5c       0x54 D:\program\CY8\PSoC Creator\3.2\PSoC Creator\psoc\content\cycomponentlibrary\CyComponentLibrary.cylib\BLE_v2_0\Library\gccCyBLEStack_BLE_SOC_PERIPHERAL.a(smp_api.o)
 .debug_frame   0x00010db0       0x44 D:\program\CY8\PSoC Creator\3.2\PSoC Creator\psoc\content\cycomponentlibrary\CyComponentLibrary.cylib\BLE_v2_0\Library\gccCyBLEStack_BLE_SOC_PERIPHERAL.a(smp_api.o)
 .debug_frame   0x00010df4       0x50 D:\program\CY8\PSoC Creator\3.2\PSoC Creator\psoc\content\cycomponentlibrary\CyComponentLibrary.cylib\BLE_v2_0\Library\gccCyBLEStack_BLE_SOC_PERIPHERAL.a(smp_api.o)
 .debug_frame   0x00010e44       0x48 D:\program\CY8\PSoC Creator\3.2\PSoC Creator\psoc\content\cycomponentlibrary\CyComponentLibrary.cylib\BLE_v2_0\Library\gccCyBLEStack_BLE_SOC_PERIPHERAL.a(smp_api.o)
 .debug_frame   0x00010e8c       0x48 D:\program\CY8\PSoC Creator\3.2\PSoC Creator\psoc\content\cycomponentlibrary\CyComponentLibrary.cylib\BLE_v2_0\Library\gccCyBLEStack_BLE_SOC_PERIPHERAL.a(smp_api.o)
 .debug_frame   0x00010ed4       0x48 D:\program\CY8\PSoC Creator\3.2\PSoC Creator\psoc\content\cycomponentlibrary\CyComponentLibrary.cylib\BLE_v2_0\Library\gccCyBLEStack_BLE_SOC_PERIPHERAL.a(smp_api.o)
 .debug_frame   0x00010f1c       0x48 D:\program\CY8\PSoC Creator\3.2\PSoC Creator\psoc\content\cycomponentlibrary\CyComponentLibrary.cylib\BLE_v2_0\Library\gccCyBLEStack_BLE_SOC_PERIPHERAL.a(smp_api.o)
 .debug_frame   0x00010f64       0x4c D:\program\CY8\PSoC Creator\3.2\PSoC Creator\psoc\content\cycomponentlibrary\CyComponentLibrary.cylib\BLE_v2_0\Library\gccCyBLEStack_BLE_SOC_PERIPHERAL.a(smp_api.o)
 .debug_frame   0x00010fb0       0x4c D:\program\CY8\PSoC Creator\3.2\PSoC Creator\psoc\content\cycomponentlibrary\CyComponentLibrary.cylib\BLE_v2_0\Library\gccCyBLEStack_BLE_SOC_PERIPHERAL.a(smp_core.o)
 .debug_frame   0x00010ffc       0x3c D:\program\CY8\PSoC Creator\3.2\PSoC Creator\psoc\content\cycomponentlibrary\CyComponentLibrary.cylib\BLE_v2_0\Library\gccCyBLEStack_BLE_SOC_PERIPHERAL.a(smp_core.o)
 .debug_frame   0x00011038       0x44 D:\program\CY8\PSoC Creator\3.2\PSoC Creator\psoc\content\cycomponentlibrary\CyComponentLibrary.cylib\BLE_v2_0\Library\gccCyBLEStack_BLE_SOC_PERIPHERAL.a(smp_core.o)
 .debug_frame   0x0001107c       0x50 D:\program\CY8\PSoC Creator\3.2\PSoC Creator\psoc\content\cycomponentlibrary\CyComponentLibrary.cylib\BLE_v2_0\Library\gccCyBLEStack_BLE_SOC_PERIPHERAL.a(smp_core.o)
 .debug_frame   0x000110cc       0x44 D:\program\CY8\PSoC Creator\3.2\PSoC Creator\psoc\content\cycomponentlibrary\CyComponentLibrary.cylib\BLE_v2_0\Library\gccCyBLEStack_BLE_SOC_PERIPHERAL.a(smp_core.o)
 .debug_frame   0x00011110       0x44 D:\program\CY8\PSoC Creator\3.2\PSoC Creator\psoc\content\cycomponentlibrary\CyComponentLibrary.cylib\BLE_v2_0\Library\gccCyBLEStack_BLE_SOC_PERIPHERAL.a(smp_core.o)
 .debug_frame   0x00011154       0x54 D:\program\CY8\PSoC Creator\3.2\PSoC Creator\psoc\content\cycomponentlibrary\CyComponentLibrary.cylib\BLE_v2_0\Library\gccCyBLEStack_BLE_SOC_PERIPHERAL.a(smp_core.o)
 .debug_frame   0x000111a8       0x3c D:\program\CY8\PSoC Creator\3.2\PSoC Creator\psoc\content\cycomponentlibrary\CyComponentLibrary.cylib\BLE_v2_0\Library\gccCyBLEStack_BLE_SOC_PERIPHERAL.a(smp_core.o)
 .debug_frame   0x000111e4       0x48 D:\program\CY8\PSoC Creator\3.2\PSoC Creator\psoc\content\cycomponentlibrary\CyComponentLibrary.cylib\BLE_v2_0\Library\gccCyBLEStack_BLE_SOC_PERIPHERAL.a(smp_core.o)
 .debug_frame   0x0001122c       0x3c D:\program\CY8\PSoC Creator\3.2\PSoC Creator\psoc\content\cycomponentlibrary\CyComponentLibrary.cylib\BLE_v2_0\Library\gccCyBLEStack_BLE_SOC_PERIPHERAL.a(smp_core.o)
 .debug_frame   0x00011268       0x4c D:\program\CY8\PSoC Creator\3.2\PSoC Creator\psoc\content\cycomponentlibrary\CyComponentLibrary.cylib\BLE_v2_0\Library\gccCyBLEStack_BLE_SOC_PERIPHERAL.a(smp_core.o)
 .debug_frame   0x000112b4       0x44 D:\program\CY8\PSoC Creator\3.2\PSoC Creator\psoc\content\cycomponentlibrary\CyComponentLibrary.cylib\BLE_v2_0\Library\gccCyBLEStack_BLE_SOC_PERIPHERAL.a(smp_core.o)
 .debug_frame   0x000112f8       0x48 D:\program\CY8\PSoC Creator\3.2\PSoC Creator\psoc\content\cycomponentlibrary\CyComponentLibrary.cylib\BLE_v2_0\Library\gccCyBLEStack_BLE_SOC_PERIPHERAL.a(smp_core.o)
 .debug_frame   0x00011340       0x54 D:\program\CY8\PSoC Creator\3.2\PSoC Creator\psoc\content\cycomponentlibrary\CyComponentLibrary.cylib\BLE_v2_0\Library\gccCyBLEStack_BLE_SOC_PERIPHERAL.a(smp_core.o)
 .debug_frame   0x00011394       0x3c D:\program\CY8\PSoC Creator\3.2\PSoC Creator\psoc\content\cycomponentlibrary\CyComponentLibrary.cylib\BLE_v2_0\Library\gccCyBLEStack_BLE_SOC_PERIPHERAL.a(smp_core.o)
 .debug_frame   0x000113d0       0x48 D:\program\CY8\PSoC Creator\3.2\PSoC Creator\psoc\content\cycomponentlibrary\CyComponentLibrary.cylib\BLE_v2_0\Library\gccCyBLEStack_BLE_SOC_PERIPHERAL.a(smp_core.o)
 .debug_frame   0x00011418       0x48 D:\program\CY8\PSoC Creator\3.2\PSoC Creator\psoc\content\cycomponentlibrary\CyComponentLibrary.cylib\BLE_v2_0\Library\gccCyBLEStack_BLE_SOC_PERIPHERAL.a(smp_core.o)
 .debug_frame   0x00011460       0x44 D:\program\CY8\PSoC Creator\3.2\PSoC Creator\psoc\content\cycomponentlibrary\CyComponentLibrary.cylib\BLE_v2_0\Library\gccCyBLEStack_BLE_SOC_PERIPHERAL.a(smp_init.o)
 .debug_frame   0x000114a4       0x4c D:\program\CY8\PSoC Creator\3.2\PSoC Creator\psoc\content\cycomponentlibrary\CyComponentLibrary.cylib\BLE_v2_0\Library\gccCyBLEStack_BLE_SOC_PERIPHERAL.a(smp_init.o)
 .debug_frame   0x000114f0       0x48 D:\program\CY8\PSoC Creator\3.2\PSoC Creator\psoc\content\cycomponentlibrary\CyComponentLibrary.cylib\BLE_v2_0\Library\gccCyBLEStack_BLE_SOC_PERIPHERAL.a(smp_init.o)
 .debug_frame   0x00011538       0x48 D:\program\CY8\PSoC Creator\3.2\PSoC Creator\psoc\content\cycomponentlibrary\CyComponentLibrary.cylib\BLE_v2_0\Library\gccCyBLEStack_BLE_SOC_PERIPHERAL.a(smp_interface.o)
 .debug_frame   0x00011580       0x54 D:\program\CY8\PSoC Creator\3.2\PSoC Creator\psoc\content\cycomponentlibrary\CyComponentLibrary.cylib\BLE_v2_0\Library\gccCyBLEStack_BLE_SOC_PERIPHERAL.a(smp_interface.o)
 .debug_frame   0x000115d4       0x4c D:\program\CY8\PSoC Creator\3.2\PSoC Creator\psoc\content\cycomponentlibrary\CyComponentLibrary.cylib\BLE_v2_0\Library\gccCyBLEStack_BLE_SOC_PERIPHERAL.a(smp_interface.o)
 .debug_frame   0x00011620       0x44 D:\program\CY8\PSoC Creator\3.2\PSoC Creator\psoc\content\cycomponentlibrary\CyComponentLibrary.cylib\BLE_v2_0\Library\gccCyBLEStack_BLE_SOC_PERIPHERAL.a(smp_interface.o)
 .debug_frame   0x00011664       0x48 D:\program\CY8\PSoC Creator\3.2\PSoC Creator\psoc\content\cycomponentlibrary\CyComponentLibrary.cylib\BLE_v2_0\Library\gccCyBLEStack_BLE_SOC_PERIPHERAL.a(smp_interface.o)
 .debug_frame   0x000116ac       0x4c D:\program\CY8\PSoC Creator\3.2\PSoC Creator\psoc\content\cycomponentlibrary\CyComponentLibrary.cylib\BLE_v2_0\Library\gccCyBLEStack_BLE_SOC_PERIPHERAL.a(smp_interface.o)
 .debug_frame   0x000116f8       0x48 D:\program\CY8\PSoC Creator\3.2\PSoC Creator\psoc\content\cycomponentlibrary\CyComponentLibrary.cylib\BLE_v2_0\Library\gccCyBLEStack_BLE_SOC_PERIPHERAL.a(smp_interface.o)
 .debug_frame   0x00011740       0x48 D:\program\CY8\PSoC Creator\3.2\PSoC Creator\psoc\content\cycomponentlibrary\CyComponentLibrary.cylib\BLE_v2_0\Library\gccCyBLEStack_BLE_SOC_PERIPHERAL.a(smp_utils.o)
 .debug_frame   0x00011788       0x44 D:\program\CY8\PSoC Creator\3.2\PSoC Creator\psoc\content\cycomponentlibrary\CyComponentLibrary.cylib\BLE_v2_0\Library\gccCyBLEStack_BLE_SOC_PERIPHERAL.a(smp_utils.o)
 .debug_frame   0x000117cc       0x4c D:\program\CY8\PSoC Creator\3.2\PSoC Creator\psoc\content\cycomponentlibrary\CyComponentLibrary.cylib\BLE_v2_0\Library\gccCyBLEStack_BLE_SOC_PERIPHERAL.a(smp_utils.o)
 .debug_frame   0x00011818       0x48 D:\program\CY8\PSoC Creator\3.2\PSoC Creator\psoc\content\cycomponentlibrary\CyComponentLibrary.cylib\BLE_v2_0\Library\gccCyBLEStack_BLE_SOC_PERIPHERAL.a(smp_utils.o)
 .debug_frame   0x00011860       0x44 D:\program\CY8\PSoC Creator\3.2\PSoC Creator\psoc\content\cycomponentlibrary\CyComponentLibrary.cylib\BLE_v2_0\Library\gccCyBLEStack_BLE_SOC_PERIPHERAL.a(smp_utils.o)
 .debug_frame   0x000118a4       0x44 D:\program\CY8\PSoC Creator\3.2\PSoC Creator\psoc\content\cycomponentlibrary\CyComponentLibrary.cylib\BLE_v2_0\Library\gccCyBLEStack_BLE_SOC_PERIPHERAL.a(smp_utils.o)
 .debug_frame   0x000118e8       0x48 D:\program\CY8\PSoC Creator\3.2\PSoC Creator\psoc\content\cycomponentlibrary\CyComponentLibrary.cylib\BLE_v2_0\Library\gccCyBLEStack_BLE_SOC_PERIPHERAL.a(smp_utils.o)
 .debug_frame   0x00011930       0x44 D:\program\CY8\PSoC Creator\3.2\PSoC Creator\psoc\content\cycomponentlibrary\CyComponentLibrary.cylib\BLE_v2_0\Library\gccCyBLEStack_BLE_SOC_PERIPHERAL.a(smp_utils.o)
 .debug_frame   0x00011974       0x3c D:\program\CY8\PSoC Creator\3.2\PSoC Creator\psoc\content\cycomponentlibrary\CyComponentLibrary.cylib\BLE_v2_0\Library\gccCyBLEStack_BLE_SOC_PERIPHERAL.a(smp_utils.o)
 .debug_frame   0x000119b0       0x44 D:\program\CY8\PSoC Creator\3.2\PSoC Creator\psoc\content\cycomponentlibrary\CyComponentLibrary.cylib\BLE_v2_0\Library\gccCyBLEStack_BLE_SOC_PERIPHERAL.a(smp_fsm_engine.o)
 .debug_frame   0x000119f4       0x3c D:\program\CY8\PSoC Creator\3.2\PSoC Creator\psoc\content\cycomponentlibrary\CyComponentLibrary.cylib\BLE_v2_0\Library\gccCyBLEStack_BLE_SOC_PERIPHERAL.a(smp_fsm_engine.o)
 .debug_frame   0x00011a30       0x4c D:\program\CY8\PSoC Creator\3.2\PSoC Creator\psoc\content\cycomponentlibrary\CyComponentLibrary.cylib\BLE_v2_0\Library\gccCyBLEStack_BLE_SOC_PERIPHERAL.a(smp_tools.o)
 .debug_frame   0x00011a7c       0x54 D:\program\CY8\PSoC Creator\3.2\PSoC Creator\psoc\content\cycomponentlibrary\CyComponentLibrary.cylib\BLE_v2_0\Library\gccCyBLEStack_BLE_SOC_PERIPHERAL.a(smp_tools.o)
 .debug_frame   0x00011ad0       0x50 D:\program\CY8\PSoC Creator\3.2\PSoC Creator\psoc\content\cycomponentlibrary\CyComponentLibrary.cylib\BLE_v2_0\Library\gccCyBLEStack_BLE_SOC_PERIPHERAL.a(smp_tools.o)
 .debug_frame   0x00011b20       0x50 D:\program\CY8\PSoC Creator\3.2\PSoC Creator\psoc\content\cycomponentlibrary\CyComponentLibrary.cylib\BLE_v2_0\Library\gccCyBLEStack_BLE_SOC_PERIPHERAL.a(smp_tools.o)
 .debug_frame   0x00011b70       0x48 D:\program\CY8\PSoC Creator\3.2\PSoC Creator\psoc\content\cycomponentlibrary\CyComponentLibrary.cylib\BLE_v2_0\Library\gccCyBLEStack_BLE_SOC_PERIPHERAL.a(smp_tools.o)
 .debug_frame   0x00011bb8       0x48 D:\program\CY8\PSoC Creator\3.2\PSoC Creator\psoc\content\cycomponentlibrary\CyComponentLibrary.cylib\BLE_v2_0\Library\gccCyBLEStack_BLE_SOC_PERIPHERAL.a(smp_psstore.o)
 .debug_frame   0x00011c00       0x4c D:\program\CY8\PSoC Creator\3.2\PSoC Creator\psoc\content\cycomponentlibrary\CyComponentLibrary.cylib\BLE_v2_0\Library\gccCyBLEStack_BLE_SOC_PERIPHERAL.a(smp_psstore.o)
 .debug_frame   0x00011c4c       0x44 D:\program\CY8\PSoC Creator\3.2\PSoC Creator\psoc\content\cycomponentlibrary\CyComponentLibrary.cylib\BLE_v2_0\Library\gccCyBLEStack_BLE_SOC_PERIPHERAL.a(smp_psstore.o)
 .debug_frame   0x00011c90       0x44 D:\program\CY8\PSoC Creator\3.2\PSoC Creator\psoc\content\cycomponentlibrary\CyComponentLibrary.cylib\BLE_v2_0\Library\gccCyBLEStack_BLE_SOC_PERIPHERAL.a(write_task.o)
 .debug_frame   0x00011cd4       0x44 D:\program\CY8\PSoC Creator\3.2\PSoC Creator\psoc\content\cycomponentlibrary\CyComponentLibrary.cylib\BLE_v2_0\Library\gccCyBLEStack_BLE_SOC_PERIPHERAL.a(write_task.o)
 .debug_frame   0x00011d18       0x48 D:\program\CY8\PSoC Creator\3.2\PSoC Creator\psoc\content\cycomponentlibrary\CyComponentLibrary.cylib\BLE_v2_0\Library\gccCyBLEStack_BLE_SOC_PERIPHERAL.a(write_task.o)
 .debug_frame   0x00011d60       0x4c D:\program\CY8\PSoC Creator\3.2\PSoC Creator\psoc\content\cycomponentlibrary\CyComponentLibrary.cylib\BLE_v2_0\Library\gccCyBLEStack_BLE_SOC_PERIPHERAL.a(write_task.o)
 .debug_frame   0x00011dac       0x4c D:\program\CY8\PSoC Creator\3.2\PSoC Creator\psoc\content\cycomponentlibrary\CyComponentLibrary.cylib\BLE_v2_0\Library\gccCyBLEStack_BLE_SOC_PERIPHERAL.a(write_task.o)
 .debug_frame   0x00011df8       0x4c D:\program\CY8\PSoC Creator\3.2\PSoC Creator\psoc\content\cycomponentlibrary\CyComponentLibrary.cylib\BLE_v2_0\Library\gccCyBLEStack_BLE_SOC_PERIPHERAL.a(write_task.o)
 .debug_frame   0x00011e44       0x44 D:\program\CY8\PSoC Creator\3.2\PSoC Creator\psoc\content\cycomponentlibrary\CyComponentLibrary.cylib\BLE_v2_0\Library\gccCyBLEStack_BLE_SOC_PERIPHERAL.a(aes_cmac.o)
 .debug_frame   0x00011e88       0x3c D:\program\CY8\PSoC Creator\3.2\PSoC Creator\psoc\content\cycomponentlibrary\CyComponentLibrary.cylib\BLE_v2_0\Library\gccCyBLEStack_BLE_SOC_PERIPHERAL.a(aes_cmac.o)
 .debug_frame   0x00011ec4       0x48 D:\program\CY8\PSoC Creator\3.2\PSoC Creator\psoc\content\cycomponentlibrary\CyComponentLibrary.cylib\BLE_v2_0\Library\gccCyBLEStack_BLE_SOC_PERIPHERAL.a(aes_cmac.o)
 .debug_frame   0x00011f0c       0x4c D:\program\CY8\PSoC Creator\3.2\PSoC Creator\psoc\content\cycomponentlibrary\CyComponentLibrary.cylib\BLE_v2_0\Library\gccCyBLEStack_BLE_SOC_PERIPHERAL.a(aes_cmac.o)
 .debug_frame   0x00011f58       0x4c D:\program\CY8\PSoC Creator\3.2\PSoC Creator\psoc\content\cycomponentlibrary\CyComponentLibrary.cylib\BLE_v2_0\Library\gccCyBLEStack_BLE_SOC_PERIPHERAL.a(aes_cmac.o)
 .debug_frame   0x00011fa4       0x48 D:\program\CY8\PSoC Creator\3.2\PSoC Creator\psoc\content\cycomponentlibrary\CyComponentLibrary.cylib\BLE_v2_0\Library\gccCyBLEStack_BLE_SOC_PERIPHERAL.a(aes_cmac.o)
 .debug_frame   0x00011fec       0x48 D:\program\CY8\PSoC Creator\3.2\PSoC Creator\psoc\content\cycomponentlibrary\CyComponentLibrary.cylib\BLE_v2_0\Library\gccCyBLEStack_BLE_SOC_PERIPHERAL.a(aes_cmac.o)
 .debug_frame   0x00012034       0x54 D:\program\CY8\PSoC Creator\3.2\PSoC Creator\psoc\content\cycomponentlibrary\CyComponentLibrary.cylib\BLE_v2_0\Library\gccCyBLEStack_BLE_SOC_PERIPHERAL.a(aes_cmac.o)
 .debug_frame   0x00012088       0x48 D:\program\CY8\PSoC Creator\3.2\PSoC Creator\psoc\content\cycomponentlibrary\CyComponentLibrary.cylib\BLE_v2_0\Library\gccCyBLEStack_BLE_SOC_PERIPHERAL.a(aes_cmac.o)
 .debug_frame   0x000120d0       0x48 D:\program\CY8\PSoC Creator\3.2\PSoC Creator\psoc\content\cycomponentlibrary\CyComponentLibrary.cylib\BLE_v2_0\Library\gccCyBLEStack_BLE_SOC_PERIPHERAL.a(aes_cmac.o)
 .debug_frame   0x00012118       0x3c D:\program\CY8\PSoC Creator\3.2\PSoC Creator\psoc\content\cycomponentlibrary\CyComponentLibrary.cylib\BLE_v2_0\Library\gccCyBLEStack_BLE_SOC_PERIPHERAL.a(aes_cmac_pl.o)
 .debug_frame   0x00012154       0x44 D:\program\CY8\PSoC Creator\3.2\PSoC Creator\psoc\content\cycomponentlibrary\CyComponentLibrary.cylib\BLE_v2_0\Library\gccCyBLEStack_BLE_SOC_PERIPHERAL.a(aes_cmac_pl.o)
 .debug_frame   0x00012198       0x44 D:\program\CY8\PSoC Creator\3.2\PSoC Creator\psoc\content\cycomponentlibrary\CyComponentLibrary.cylib\BLE_v2_0\Library\gccCyBLEStack_BLE_SOC_PERIPHERAL.a(aes_cmac_pl.o)
 .debug_frame   0x000121dc       0x3c D:\program\CY8\PSoC Creator\3.2\PSoC Creator\psoc\content\cycomponentlibrary\CyComponentLibrary.cylib\BLE_v2_0\Library\gccCyBLEStack_BLE_SOC_PERIPHERAL.a(status.o)
 .debug_frame   0x00012218       0x3c D:\program\CY8\PSoC Creator\3.2\PSoC Creator\psoc\content\cycomponentlibrary\CyComponentLibrary.cylib\BLE_v2_0\Library\gccCyBLEStack_BLE_SOC_PERIPHERAL.a(status.o)
 .debug_frame   0x00012254       0x3c D:\program\CY8\PSoC Creator\3.2\PSoC Creator\psoc\content\cycomponentlibrary\CyComponentLibrary.cylib\BLE_v2_0\Library\gccCyBLEStack_BLE_SOC_PERIPHERAL.a(status.o)
 .debug_frame   0x00012290       0x3c D:\program\CY8\PSoC Creator\3.2\PSoC Creator\psoc\content\cycomponentlibrary\CyComponentLibrary.cylib\BLE_v2_0\Library\gccCyBLEStack_BLE_SOC_PERIPHERAL.a(storage.o)
 .debug_frame   0x000122cc       0x3c D:\program\CY8\PSoC Creator\3.2\PSoC Creator\psoc\content\cycomponentlibrary\CyComponentLibrary.cylib\BLE_v2_0\Library\gccCyBLEStack_BLE_SOC_PERIPHERAL.a(storage.o)
 .debug_frame   0x00012308       0x48 D:\program\CY8\PSoC Creator\3.2\PSoC Creator\psoc\content\cycomponentlibrary\CyComponentLibrary.cylib\BLE_v2_0\Library\gccCyBLEStack_BLE_SOC_PERIPHERAL.a(storage.o)
 .debug_frame   0x00012350       0x44 D:\program\CY8\PSoC Creator\3.2\PSoC Creator\psoc\content\cycomponentlibrary\CyComponentLibrary.cylib\BLE_v2_0\Library\gccCyBLEStack_BLE_SOC_PERIPHERAL.a(storage.o)
 .debug_frame   0x00012394       0x48 D:\program\CY8\PSoC Creator\3.2\PSoC Creator\psoc\content\cycomponentlibrary\CyComponentLibrary.cylib\BLE_v2_0\Library\gccCyBLEStack_BLE_SOC_PERIPHERAL.a(storage.o)
 .debug_frame   0x000123dc       0x44 D:\program\CY8\PSoC Creator\3.2\PSoC Creator\psoc\content\cycomponentlibrary\CyComponentLibrary.cylib\BLE_v2_0\Library\gccCyBLEStack_BLE_SOC_PERIPHERAL.a(storage.o)
 .debug_frame   0x00012420       0x48 D:\program\CY8\PSoC Creator\3.2\PSoC Creator\psoc\content\cycomponentlibrary\CyComponentLibrary.cylib\BLE_v2_0\Library\gccCyBLEStack_BLE_SOC_PERIPHERAL.a(storage.o)
 .debug_frame   0x00012468       0x4c D:\program\CY8\PSoC Creator\3.2\PSoC Creator\psoc\content\cycomponentlibrary\CyComponentLibrary.cylib\BLE_v2_0\Library\gccCyBLEStack_BLE_SOC_PERIPHERAL.a(storage.o)
 .debug_frame   0x000124b4       0x44 D:\program\CY8\PSoC Creator\3.2\PSoC Creator\psoc\content\cycomponentlibrary\CyComponentLibrary.cylib\BLE_v2_0\Library\gccCyBLEStack_BLE_SOC_PERIPHERAL.a(storage.o)
 .debug_frame   0x000124f8       0x44 D:\program\CY8\PSoC Creator\3.2\PSoC Creator\psoc\content\cycomponentlibrary\CyComponentLibrary.cylib\BLE_v2_0\Library\gccCyBLEStack_BLE_SOC_PERIPHERAL.a(storage.o)
 .debug_frame   0x0001253c       0x3c D:\program\CY8\PSoC Creator\3.2\PSoC Creator\psoc\content\cycomponentlibrary\CyComponentLibrary.cylib\BLE_v2_0\Library\gccCyBLEStack_BLE_SOC_PERIPHERAL.a(storage.o)
 .debug_frame   0x00012578       0x48 D:\program\CY8\PSoC Creator\3.2\PSoC Creator\psoc\content\cycomponentlibrary\CyComponentLibrary.cylib\BLE_v2_0\Library\gccCyBLEStack_BLE_SOC_PERIPHERAL.a(storage.o)
 .debug_frame   0x000125c0       0x48 D:\program\CY8\PSoC Creator\3.2\PSoC Creator\psoc\content\cycomponentlibrary\CyComponentLibrary.cylib\BLE_v2_0\Library\gccCyBLEStack_BLE_SOC_PERIPHERAL.a(bt_os_common.o)
 .debug_frame   0x00012608       0x3c D:\program\CY8\PSoC Creator\3.2\PSoC Creator\psoc\content\cycomponentlibrary\CyComponentLibrary.cylib\BLE_v2_0\Library\gccCyBLEStack_BLE_SOC_PERIPHERAL.a(bt_os_common.o)
 .debug_frame   0x00012644       0x3c D:\program\CY8\PSoC Creator\3.2\PSoC Creator\psoc\content\cycomponentlibrary\CyComponentLibrary.cylib\BLE_v2_0\Library\gccCyBLEStack_BLE_SOC_PERIPHERAL.a(bt_os_common.o)
 .debug_frame   0x00012680       0x3c D:\program\CY8\PSoC Creator\3.2\PSoC Creator\psoc\content\cycomponentlibrary\CyComponentLibrary.cylib\BLE_v2_0\Library\gccCyBLEStack_BLE_SOC_PERIPHERAL.a(bt_os_common.o)
 .debug_frame   0x000126bc       0x3c D:\program\CY8\PSoC Creator\3.2\PSoC Creator\psoc\content\cycomponentlibrary\CyComponentLibrary.cylib\BLE_v2_0\Library\gccCyBLEStack_BLE_SOC_PERIPHERAL.a(bt_os_common.o)
 .debug_frame   0x000126f8       0x3c D:\program\CY8\PSoC Creator\3.2\PSoC Creator\psoc\content\cycomponentlibrary\CyComponentLibrary.cylib\BLE_v2_0\Library\gccCyBLEStack_BLE_SOC_PERIPHERAL.a(bt_os_common.o)
 .debug_frame   0x00012734       0x3c D:\program\CY8\PSoC Creator\3.2\PSoC Creator\psoc\content\cycomponentlibrary\CyComponentLibrary.cylib\BLE_v2_0\Library\gccCyBLEStack_BLE_SOC_PERIPHERAL.a(bt_os_common.o)
 .debug_frame   0x00012770       0x3c D:\program\CY8\PSoC Creator\3.2\PSoC Creator\psoc\content\cycomponentlibrary\CyComponentLibrary.cylib\BLE_v2_0\Library\gccCyBLEStack_BLE_SOC_PERIPHERAL.a(bt_os_common.o)
 .debug_frame   0x000127ac       0x3c D:\program\CY8\PSoC Creator\3.2\PSoC Creator\psoc\content\cycomponentlibrary\CyComponentLibrary.cylib\BLE_v2_0\Library\gccCyBLEStack_BLE_SOC_PERIPHERAL.a(bt_os_common.o)
 .debug_frame   0x000127e8       0x44 D:\program\CY8\PSoC Creator\3.2\PSoC Creator\psoc\content\cycomponentlibrary\CyComponentLibrary.cylib\BLE_v2_0\Library\gccCyBLEStack_BLE_SOC_PERIPHERAL.a(bt_os_common.o)
 .debug_frame   0x0001282c       0x44 D:\program\CY8\PSoC Creator\3.2\PSoC Creator\psoc\content\cycomponentlibrary\CyComponentLibrary.cylib\BLE_v2_0\Library\gccCyBLEStack_BLE_SOC_PERIPHERAL.a(bt_os_common.o)
 .debug_frame   0x00012870       0x44 D:\program\CY8\PSoC Creator\3.2\PSoC Creator\psoc\content\cycomponentlibrary\CyComponentLibrary.cylib\BLE_v2_0\Library\gccCyBLEStack_BLE_SOC_PERIPHERAL.a(bt_os_common.o)
 .debug_frame   0x000128b4       0x44 D:\program\CY8\PSoC Creator\3.2\PSoC Creator\psoc\content\cycomponentlibrary\CyComponentLibrary.cylib\BLE_v2_0\Library\gccCyBLEStack_BLE_SOC_PERIPHERAL.a(BT_timer.o)
 .debug_frame   0x000128f8       0x44 D:\program\CY8\PSoC Creator\3.2\PSoC Creator\psoc\content\cycomponentlibrary\CyComponentLibrary.cylib\BLE_v2_0\Library\gccCyBLEStack_BLE_SOC_PERIPHERAL.a(BT_timer.o)
 .debug_frame   0x0001293c       0x44 D:\program\CY8\PSoC Creator\3.2\PSoC Creator\psoc\content\cycomponentlibrary\CyComponentLibrary.cylib\BLE_v2_0\Library\gccCyBLEStack_BLE_SOC_PERIPHERAL.a(BT_timer.o)
 .debug_frame   0x00012980       0x3c D:\program\CY8\PSoC Creator\3.2\PSoC Creator\psoc\content\cycomponentlibrary\CyComponentLibrary.cylib\BLE_v2_0\Library\gccCyBLEStack_BLE_SOC_PERIPHERAL.a(BT_timer.o)
 .debug_frame   0x000129bc       0x4c D:\program\CY8\PSoC Creator\3.2\PSoC Creator\psoc\content\cycomponentlibrary\CyComponentLibrary.cylib\BLE_v2_0\Library\gccCyBLEStack_BLE_SOC_PERIPHERAL.a(BT_timer.o)
 .debug_frame   0x00012a08       0x48 D:\program\CY8\PSoC Creator\3.2\PSoC Creator\psoc\content\cycomponentlibrary\CyComponentLibrary.cylib\BLE_v2_0\Library\gccCyBLEStack_BLE_SOC_PERIPHERAL.a(BT_timer.o)
 .debug_frame   0x00012a50       0x3c D:\program\CY8\PSoC Creator\3.2\PSoC Creator\psoc\content\cycomponentlibrary\CyComponentLibrary.cylib\BLE_v2_0\Library\gccCyBLEStack_BLE_SOC_PERIPHERAL.a(BT_timer.o)
 .debug_frame   0x00012a8c       0x3c D:\program\CY8\PSoC Creator\3.2\PSoC Creator\psoc\content\cycomponentlibrary\CyComponentLibrary.cylib\BLE_v2_0\Library\gccCyBLEStack_BLE_SOC_PERIPHERAL.a(BT_timer.o)
 .debug_frame   0x00012ac8       0x3c D:\program\CY8\PSoC Creator\3.2\PSoC Creator\psoc\content\cycomponentlibrary\CyComponentLibrary.cylib\BLE_v2_0\Library\gccCyBLEStack_BLE_SOC_PERIPHERAL.a(BT_timer.o)
 .debug_frame   0x00012b04       0x54 D:\program\CY8\PSoC Creator\3.2\PSoC Creator\psoc\content\cycomponentlibrary\CyComponentLibrary.cylib\BLE_v2_0\Library\gccCyBLEStack_BLE_SOC_PERIPHERAL.a(BT_timer.o)
 .debug_frame   0x00012b58       0x4c D:\program\CY8\PSoC Creator\3.2\PSoC Creator\psoc\content\cycomponentlibrary\CyComponentLibrary.cylib\BLE_v2_0\Library\gccCyBLEStack_BLE_SOC_PERIPHERAL.a(BT_timer.o)
 .debug_frame   0x00012ba4       0x4c D:\program\CY8\PSoC Creator\3.2\PSoC Creator\psoc\content\cycomponentlibrary\CyComponentLibrary.cylib\BLE_v2_0\Library\gccCyBLEStack_BLE_SOC_PERIPHERAL.a(BT_timer.o)
 .debug_frame   0x00012bf0       0x44 D:\program\CY8\PSoC Creator\3.2\PSoC Creator\psoc\content\cycomponentlibrary\CyComponentLibrary.cylib\BLE_v2_0\Library\gccCyBLEStack_BLE_SOC_PERIPHERAL.a(BT_timer.o)
 .debug_frame   0x00012c34       0x3c D:\program\CY8\PSoC Creator\3.2\PSoC Creator\psoc\content\cycomponentlibrary\CyComponentLibrary.cylib\BLE_v2_0\Library\gccCyBLEStack_BLE_SOC_PERIPHERAL.a(storage_pl.o)
 .debug_frame   0x00012c70       0x3c D:\program\CY8\PSoC Creator\3.2\PSoC Creator\psoc\content\cycomponentlibrary\CyComponentLibrary.cylib\BLE_v2_0\Library\gccCyBLEStack_BLE_SOC_PERIPHERAL.a(storage_pl.o)
 .debug_frame   0x00012cac       0x4c D:\program\CY8\PSoC Creator\3.2\PSoC Creator\psoc\content\cycomponentlibrary\CyComponentLibrary.cylib\BLE_v2_0\Library\gccCyBLEStack_BLE_SOC_PERIPHERAL.a(storage_pl.o)
 .debug_frame   0x00012cf8       0x44 D:\program\CY8\PSoC Creator\3.2\PSoC Creator\psoc\content\cycomponentlibrary\CyComponentLibrary.cylib\BLE_v2_0\Library\gccCyBLEStack_BLE_SOC_PERIPHERAL.a(storage_pl.o)
 .debug_frame   0x00012d3c       0x44 D:\program\CY8\PSoC Creator\3.2\PSoC Creator\psoc\content\cycomponentlibrary\CyComponentLibrary.cylib\BLE_v2_0\Library\gccCyBLEStack_BLE_SOC_PERIPHERAL.a(storage_pl.o)
 .debug_frame   0x00012d80       0x3c D:\program\CY8\PSoC Creator\3.2\PSoC Creator\psoc\content\cycomponentlibrary\CyComponentLibrary.cylib\BLE_v2_0\Library\gccCyBLEStack_BLE_SOC_PERIPHERAL.a(storage_pl.o)
 .debug_frame   0x00012dbc       0x3c D:\program\CY8\PSoC Creator\3.2\PSoC Creator\psoc\content\cycomponentlibrary\CyComponentLibrary.cylib\BLE_v2_0\Library\gccCyBLEStack_BLE_SOC_PERIPHERAL.a(storage_pl.o)
 .debug_frame   0x00012df8       0x4c D:\program\CY8\PSoC Creator\3.2\PSoC Creator\psoc\content\cycomponentlibrary\CyComponentLibrary.cylib\BLE_v2_0\Library\gccCyBLEStack_BLE_SOC_PERIPHERAL.a(storage_pl.o)
 .debug_frame   0x00012e44       0x48 D:\program\CY8\PSoC Creator\3.2\PSoC Creator\psoc\content\cycomponentlibrary\CyComponentLibrary.cylib\BLE_v2_0\Library\gccCyBLEStack_BLE_SOC_PERIPHERAL.a(storage_pl.o)
 .debug_frame   0x00012e8c       0x48 D:\program\CY8\PSoC Creator\3.2\PSoC Creator\psoc\content\cycomponentlibrary\CyComponentLibrary.cylib\BLE_v2_0\Library\gccCyBLEStack_BLE_SOC_PERIPHERAL.a(storage_pl.o)
 .debug_frame   0x00012ed4       0x44 D:\program\CY8\PSoC Creator\3.2\PSoC Creator\psoc\content\cycomponentlibrary\CyComponentLibrary.cylib\BLE_v2_0\Library\gccCyBLEStack_BLE_SOC_PERIPHERAL.a(storage_pl.o)
 .debug_frame   0x00012f18       0x48 D:\program\CY8\PSoC Creator\3.2\PSoC Creator\psoc\content\cycomponentlibrary\CyComponentLibrary.cylib\BLE_v2_0\Library\gccCyBLEStack_BLE_SOC_PERIPHERAL.a(storage_pl.o)
 .debug_frame   0x00012f60       0x4c D:\program\CY8\PSoC Creator\3.2\PSoC Creator\psoc\content\cycomponentlibrary\CyComponentLibrary.cylib\BLE_v2_0\Library\gccCyBLEStack_BLE_SOC_PERIPHERAL.a(storage_pl.o)
 .debug_frame   0x00012fac       0x3c D:\program\CY8\PSoC Creator\3.2\PSoC Creator\psoc\content\cycomponentlibrary\CyComponentLibrary.cylib\BLE_v2_0\Library\gccCyBLEStack_BLE_SOC_PERIPHERAL.a(storage_pl.o)
 .debug_frame   0x00012fe8       0x3c D:\program\CY8\PSoC Creator\3.2\PSoC Creator\psoc\content\cycomponentlibrary\CyComponentLibrary.cylib\BLE_v2_0\Library\gccCyBLEStack_BLE_SOC_PERIPHERAL.a(storage_pl.o)
 .debug_frame   0x00013024       0x54 D:\program\CY8\PSoC Creator\3.2\PSoC Creator\psoc\content\cycomponentlibrary\CyComponentLibrary.cylib\BLE_v2_0\Library\gccCyBLEStack_BLE_SOC_PERIPHERAL.a(drbg.o)
 .debug_frame   0x00013078       0x50 D:\program\CY8\PSoC Creator\3.2\PSoC Creator\psoc\content\cycomponentlibrary\CyComponentLibrary.cylib\BLE_v2_0\Library\gccCyBLEStack_BLE_SOC_PERIPHERAL.a(drbg.o)
 .debug_frame   0x000130c8       0x4c D:\program\CY8\PSoC Creator\3.2\PSoC Creator\psoc\content\cycomponentlibrary\CyComponentLibrary.cylib\BLE_v2_0\Library\gccCyBLEStack_BLE_SOC_PERIPHERAL.a(drbg.o)
 .debug_frame   0x00013114       0x44 D:\program\CY8\PSoC Creator\3.2\PSoC Creator\psoc\content\cycomponentlibrary\CyComponentLibrary.cylib\BLE_v2_0\Library\gccCyBLEStack_BLE_SOC_PERIPHERAL.a(bt_fw_os_al.o)
 .debug_frame   0x00013158       0x44 D:\program\CY8\PSoC Creator\3.2\PSoC Creator\psoc\content\cycomponentlibrary\CyComponentLibrary.cylib\BLE_v2_0\Library\gccCyBLEStack_BLE_SOC_PERIPHERAL.a(bt_fw_os_al.o)
 .debug_frame   0x0001319c       0x44 D:\program\CY8\PSoC Creator\3.2\PSoC Creator\psoc\content\cycomponentlibrary\CyComponentLibrary.cylib\BLE_v2_0\Library\gccCyBLEStack_BLE_SOC_PERIPHERAL.a(bt_fw_os_al.o)
 .debug_frame   0x000131e0       0x44 D:\program\CY8\PSoC Creator\3.2\PSoC Creator\psoc\content\cycomponentlibrary\CyComponentLibrary.cylib\BLE_v2_0\Library\gccCyBLEStack_BLE_SOC_PERIPHERAL.a(bt_fw_os_al.o)
 .debug_frame   0x00013224       0x48 D:\program\CY8\PSoC Creator\3.2\PSoC Creator\psoc\content\cycomponentlibrary\CyComponentLibrary.cylib\BLE_v2_0\Library\gccCyBLEStack_BLE_SOC_PERIPHERAL.a(bt_fw_os_al.o)
 .debug_frame   0x0001326c       0x48 D:\program\CY8\PSoC Creator\3.2\PSoC Creator\psoc\content\cycomponentlibrary\CyComponentLibrary.cylib\BLE_v2_0\Library\gccCyBLEStack_BLE_SOC_PERIPHERAL.a(bt_fw_os_al.o)
 .debug_frame   0x000132b4       0x44 D:\program\CY8\PSoC Creator\3.2\PSoC Creator\psoc\content\cycomponentlibrary\CyComponentLibrary.cylib\BLE_v2_0\Library\gccCyBLEStack_BLE_SOC_PERIPHERAL.a(bt_fw_os_al.o)
 .debug_frame   0x000132f8       0x44 D:\program\CY8\PSoC Creator\3.2\PSoC Creator\psoc\content\cycomponentlibrary\CyComponentLibrary.cylib\BLE_v2_0\Library\gccCyBLEStack_BLE_SOC_PERIPHERAL.a(bt_fw_os_al.o)
 .debug_frame   0x0001333c       0x44 D:\program\CY8\PSoC Creator\3.2\PSoC Creator\psoc\content\cycomponentlibrary\CyComponentLibrary.cylib\BLE_v2_0\Library\gccCyBLEStack_BLE_SOC_PERIPHERAL.a(bt_fw_os_al.o)
 .debug_frame   0x00013380       0x44 D:\program\CY8\PSoC Creator\3.2\PSoC Creator\psoc\content\cycomponentlibrary\CyComponentLibrary.cylib\BLE_v2_0\Library\gccCyBLEStack_BLE_SOC_PERIPHERAL.a(bt_fw_os_al.o)
 .debug_frame   0x000133c4       0x44 D:\program\CY8\PSoC Creator\3.2\PSoC Creator\psoc\content\cycomponentlibrary\CyComponentLibrary.cylib\BLE_v2_0\Library\gccCyBLEStack_BLE_SOC_PERIPHERAL.a(bt_fw_os_al.o)
 .debug_frame   0x00013408       0x44 D:\program\CY8\PSoC Creator\3.2\PSoC Creator\psoc\content\cycomponentlibrary\CyComponentLibrary.cylib\BLE_v2_0\Library\gccCyBLEStack_BLE_SOC_PERIPHERAL.a(bt_fw_os_al.o)
 .debug_frame   0x0001344c       0x44 D:\program\CY8\PSoC Creator\3.2\PSoC Creator\psoc\content\cycomponentlibrary\CyComponentLibrary.cylib\BLE_v2_0\Library\gccCyBLEStack_BLE_SOC_PERIPHERAL.a(bt_fw_os_al.o)
 .debug_frame   0x00013490       0x44 D:\program\CY8\PSoC Creator\3.2\PSoC Creator\psoc\content\cycomponentlibrary\CyComponentLibrary.cylib\BLE_v2_0\Library\gccCyBLEStack_BLE_SOC_PERIPHERAL.a(bt_fw_os_al.o)
 .debug_frame   0x000134d4       0x44 D:\program\CY8\PSoC Creator\3.2\PSoC Creator\psoc\content\cycomponentlibrary\CyComponentLibrary.cylib\BLE_v2_0\Library\gccCyBLEStack_BLE_SOC_PERIPHERAL.a(bt_fw_os_al.o)
 .debug_frame   0x00013518       0x44 D:\program\CY8\PSoC Creator\3.2\PSoC Creator\psoc\content\cycomponentlibrary\CyComponentLibrary.cylib\BLE_v2_0\Library\gccCyBLEStack_BLE_SOC_PERIPHERAL.a(bt_fw_os_al.o)
 .debug_frame   0x0001355c       0x44 D:\program\CY8\PSoC Creator\3.2\PSoC Creator\psoc\content\cycomponentlibrary\CyComponentLibrary.cylib\BLE_v2_0\Library\gccCyBLEStack_BLE_SOC_PERIPHERAL.a(bt_fw_os_al.o)
 .debug_frame   0x000135a0       0x44 D:\program\CY8\PSoC Creator\3.2\PSoC Creator\psoc\content\cycomponentlibrary\CyComponentLibrary.cylib\BLE_v2_0\Library\gccCyBLEStack_BLE_SOC_PERIPHERAL.a(bt_fw_os_al.o)
 .debug_frame   0x000135e4       0x48 D:\program\CY8\PSoC Creator\3.2\PSoC Creator\psoc\content\cycomponentlibrary\CyComponentLibrary.cylib\BLE_v2_0\Library\gccCyBLEStack_BLE_SOC_PERIPHERAL.a(bt_fw_os_al.o)
 .debug_frame   0x0001362c       0x48 D:\program\CY8\PSoC Creator\3.2\PSoC Creator\psoc\content\cycomponentlibrary\CyComponentLibrary.cylib\BLE_v2_0\Library\gccCyBLEStack_BLE_SOC_PERIPHERAL.a(bt_fw_os_al.o)
 .debug_frame   0x00013674       0x48 D:\program\CY8\PSoC Creator\3.2\PSoC Creator\psoc\content\cycomponentlibrary\CyComponentLibrary.cylib\BLE_v2_0\Library\gccCyBLEStack_BLE_SOC_PERIPHERAL.a(bt_fw_os_al.o)
 .debug_frame   0x000136bc       0x44 D:\program\CY8\PSoC Creator\3.2\PSoC Creator\psoc\content\cycomponentlibrary\CyComponentLibrary.cylib\BLE_v2_0\Library\gccCyBLEStack_BLE_SOC_PERIPHERAL.a(lec_hci_br_edr_commands.o)
 .debug_frame   0x00013700       0x3c D:\program\CY8\PSoC Creator\3.2\PSoC Creator\psoc\content\cycomponentlibrary\CyComponentLibrary.cylib\BLE_v2_0\Library\gccCyBLEStack_BLE_SOC_PERIPHERAL.a(lec_hci_br_edr_commands.o)
 .debug_frame   0x0001373c       0x48 D:\program\CY8\PSoC Creator\3.2\PSoC Creator\psoc\content\cycomponentlibrary\CyComponentLibrary.cylib\BLE_v2_0\Library\gccCyBLEStack_BLE_SOC_PERIPHERAL.a(lec_hci_br_edr_commands.o)
 .debug_frame   0x00013784       0x48 D:\program\CY8\PSoC Creator\3.2\PSoC Creator\psoc\content\cycomponentlibrary\CyComponentLibrary.cylib\BLE_v2_0\Library\gccCyBLEStack_BLE_SOC_PERIPHERAL.a(lec_hci_br_edr_commands.o)
 .debug_frame   0x000137cc       0x44 D:\program\CY8\PSoC Creator\3.2\PSoC Creator\psoc\content\cycomponentlibrary\CyComponentLibrary.cylib\BLE_v2_0\Library\gccCyBLEStack_BLE_SOC_PERIPHERAL.a(lec_hci_br_edr_commands.o)
 .debug_frame   0x00013810       0x48 D:\program\CY8\PSoC Creator\3.2\PSoC Creator\psoc\content\cycomponentlibrary\CyComponentLibrary.cylib\BLE_v2_0\Library\gccCyBLEStack_BLE_SOC_PERIPHERAL.a(lec_hci_br_edr_commands.o)
 .debug_frame   0x00013858       0x48 D:\program\CY8\PSoC Creator\3.2\PSoC Creator\psoc\content\cycomponentlibrary\CyComponentLibrary.cylib\BLE_v2_0\Library\gccCyBLEStack_BLE_SOC_PERIPHERAL.a(lec_hci_br_edr_commands.o)
 .debug_frame   0x000138a0       0x44 D:\program\CY8\PSoC Creator\3.2\PSoC Creator\psoc\content\cycomponentlibrary\CyComponentLibrary.cylib\BLE_v2_0\Library\gccCyBLEStack_BLE_SOC_PERIPHERAL.a(lec_hci_br_edr_commands.o)
 .debug_frame   0x000138e4       0x44 D:\program\CY8\PSoC Creator\3.2\PSoC Creator\psoc\content\cycomponentlibrary\CyComponentLibrary.cylib\BLE_v2_0\Library\gccCyBLEStack_BLE_SOC_PERIPHERAL.a(lec_hci_br_edr_commands.o)
 .debug_frame   0x00013928       0x44 D:\program\CY8\PSoC Creator\3.2\PSoC Creator\psoc\content\cycomponentlibrary\CyComponentLibrary.cylib\BLE_v2_0\Library\gccCyBLEStack_BLE_SOC_PERIPHERAL.a(lec_hci_br_edr_commands.o)
 .debug_frame   0x0001396c       0x48 D:\program\CY8\PSoC Creator\3.2\PSoC Creator\psoc\content\cycomponentlibrary\CyComponentLibrary.cylib\BLE_v2_0\Library\gccCyBLEStack_BLE_SOC_PERIPHERAL.a(lec_hci_br_edr_commands.o)
 .debug_frame   0x000139b4       0x48 D:\program\CY8\PSoC Creator\3.2\PSoC Creator\psoc\content\cycomponentlibrary\CyComponentLibrary.cylib\BLE_v2_0\Library\gccCyBLEStack_BLE_SOC_PERIPHERAL.a(lec_hci_br_edr_commands.o)
 .debug_frame   0x000139fc       0x54 D:\program\CY8\PSoC Creator\3.2\PSoC Creator\psoc\content\cycomponentlibrary\CyComponentLibrary.cylib\BLE_v2_0\Library\gccCyBLEStack_BLE_SOC_PERIPHERAL.a(lec_hci_br_edr_commands.o)
 .debug_frame   0x00013a50       0x44 D:\program\CY8\PSoC Creator\3.2\PSoC Creator\psoc\content\cycomponentlibrary\CyComponentLibrary.cylib\BLE_v2_0\Library\gccCyBLEStack_BLE_SOC_PERIPHERAL.a(lec_hci_le_adv_commands.o)
 .debug_frame   0x00013a94       0x44 D:\program\CY8\PSoC Creator\3.2\PSoC Creator\psoc\content\cycomponentlibrary\CyComponentLibrary.cylib\BLE_v2_0\Library\gccCyBLEStack_BLE_SOC_PERIPHERAL.a(lec_hci_le_adv_commands.o)
 .debug_frame   0x00013ad8       0x44 D:\program\CY8\PSoC Creator\3.2\PSoC Creator\psoc\content\cycomponentlibrary\CyComponentLibrary.cylib\BLE_v2_0\Library\gccCyBLEStack_BLE_SOC_PERIPHERAL.a(lec_hci_le_adv_commands.o)
 .debug_frame   0x00013b1c       0x44 D:\program\CY8\PSoC Creator\3.2\PSoC Creator\psoc\content\cycomponentlibrary\CyComponentLibrary.cylib\BLE_v2_0\Library\gccCyBLEStack_BLE_SOC_PERIPHERAL.a(lec_hci_le_adv_commands.o)
 .debug_frame   0x00013b60       0x3c D:\program\CY8\PSoC Creator\3.2\PSoC Creator\psoc\content\cycomponentlibrary\CyComponentLibrary.cylib\BLE_v2_0\Library\gccCyBLEStack_BLE_SOC_PERIPHERAL.a(BT_common_pl.o)
 .debug_frame   0x00013b9c       0x44 D:\program\CY8\PSoC Creator\3.2\PSoC Creator\psoc\content\cycomponentlibrary\CyComponentLibrary.cylib\BLE_v2_0\Library\gccCyBLEStack_BLE_SOC_PERIPHERAL.a(BT_common_pl.o)
 .debug_frame   0x00013be0       0x3c D:\program\CY8\PSoC Creator\3.2\PSoC Creator\psoc\content\cycomponentlibrary\CyComponentLibrary.cylib\BLE_v2_0\Library\gccCyBLEStack_BLE_SOC_PERIPHERAL.a(BT_common_pl.o)
 .debug_frame   0x00013c1c       0x44 D:\program\CY8\PSoC Creator\3.2\PSoC Creator\psoc\content\cycomponentlibrary\CyComponentLibrary.cylib\BLE_v2_0\Library\gccCyBLEStack_BLE_SOC_PERIPHERAL.a(BT_common_pl.o)
 .debug_frame   0x00013c60       0x3c D:\program\CY8\PSoC Creator\3.2\PSoC Creator\psoc\content\cycomponentlibrary\CyComponentLibrary.cylib\BLE_v2_0\Library\gccCyBLEStack_BLE_SOC_PERIPHERAL.a(BT_common_pl.o)
 .debug_frame   0x00013c9c       0x44 D:\program\CY8\PSoC Creator\3.2\PSoC Creator\psoc\content\cycomponentlibrary\CyComponentLibrary.cylib\BLE_v2_0\Library\gccCyBLEStack_BLE_SOC_PERIPHERAL.a(BT_common_pl.o)
 .debug_frame   0x00013ce0       0x3c D:\program\CY8\PSoC Creator\3.2\PSoC Creator\psoc\content\cycomponentlibrary\CyComponentLibrary.cylib\BLE_v2_0\Library\gccCyBLEStack_BLE_SOC_PERIPHERAL.a(device_queue_pl.o)
 .debug_frame   0x00013d1c       0x3c D:\program\CY8\PSoC Creator\3.2\PSoC Creator\psoc\content\cycomponentlibrary\CyComponentLibrary.cylib\BLE_v2_0\Library\gccCyBLEStack_BLE_SOC_PERIPHERAL.a(device_queue_pl.o)
 .debug_frame   0x00013d58       0x3c D:\program\CY8\PSoC Creator\3.2\PSoC Creator\psoc\content\cycomponentlibrary\CyComponentLibrary.cylib\BLE_v2_0\Library\gccCyBLEStack_BLE_SOC_PERIPHERAL.a(device_queue_pl.o)
 .debug_frame   0x00013d94       0x3c D:\program\CY8\PSoC Creator\3.2\PSoC Creator\psoc\content\cycomponentlibrary\CyComponentLibrary.cylib\BLE_v2_0\Library\gccCyBLEStack_BLE_SOC_PERIPHERAL.a(device_queue_pl.o)
 .debug_frame   0x00013dd0       0x3c D:\program\CY8\PSoC Creator\3.2\PSoC Creator\psoc\content\cycomponentlibrary\CyComponentLibrary.cylib\BLE_v2_0\Library\gccCyBLEStack_BLE_SOC_PERIPHERAL.a(device_queue_pl.o)
 .debug_frame   0x00013e0c       0x44 D:\program\CY8\PSoC Creator\3.2\PSoC Creator\psoc\content\cycomponentlibrary\CyComponentLibrary.cylib\BLE_v2_0\Library\gccCyBLEStack_BLE_SOC_PERIPHERAL.a(smp_pl.o)
 .debug_frame   0x00013e50       0x44 D:\program\CY8\PSoC Creator\3.2\PSoC Creator\psoc\content\cycomponentlibrary\CyComponentLibrary.cylib\BLE_v2_0\Library\gccCyBLEStack_BLE_SOC_PERIPHERAL.a(smp_pl.o)
 .debug_frame   0x00013e94       0x48 D:\program\CY8\PSoC Creator\3.2\PSoC Creator\psoc\content\cycomponentlibrary\CyComponentLibrary.cylib\BLE_v2_0\Library\gccCyBLEStack_BLE_SOC_PERIPHERAL.a(smp_pl.o)
 .debug_frame   0x00013edc       0x44 D:\program\CY8\PSoC Creator\3.2\PSoC Creator\psoc\content\cycomponentlibrary\CyComponentLibrary.cylib\BLE_v2_0\Library\gccCyBLEStack_BLE_SOC_PERIPHERAL.a(smp_pl.o)
 .debug_frame   0x00013f20       0x48 D:\program\CY8\PSoC Creator\3.2\PSoC Creator\psoc\content\cycomponentlibrary\CyComponentLibrary.cylib\BLE_v2_0\Library\gccCyBLEStack_BLE_SOC_PERIPHERAL.a(smp_pl.o)
 .debug_frame   0x00013f68       0x48 D:\program\CY8\PSoC Creator\3.2\PSoC Creator\psoc\content\cycomponentlibrary\CyComponentLibrary.cylib\BLE_v2_0\Library\gccCyBLEStack_BLE_SOC_PERIPHERAL.a(smp_pl.o)
 .debug_frame   0x00013fb0       0x3c D:\program\CY8\PSoC Creator\3.2\PSoC Creator\psoc\content\cycomponentlibrary\CyComponentLibrary.cylib\BLE_v2_0\Library\gccCyBLEStack_BLE_SOC_PERIPHERAL.a(smp_pl.o)
 .debug_frame   0x00013fec       0x48 D:\program\CY8\PSoC Creator\3.2\PSoC Creator\psoc\content\cycomponentlibrary\CyComponentLibrary.cylib\BLE_v2_0\Library\gccCyBLEStack_BLE_SOC_PERIPHERAL.a(smp_pl.o)
 .debug_frame   0x00014034       0x48 D:\program\CY8\PSoC Creator\3.2\PSoC Creator\psoc\content\cycomponentlibrary\CyComponentLibrary.cylib\BLE_v2_0\Library\gccCyBLEStack_BLE_SOC_PERIPHERAL.a(smp_pl.o)
 .debug_frame   0x0001407c       0x44 D:\program\CY8\PSoC Creator\3.2\PSoC Creator\psoc\content\cycomponentlibrary\CyComponentLibrary.cylib\BLE_v2_0\Library\gccCyBLEStack_BLE_SOC_PERIPHERAL.a(smp_pl.o)
 .debug_frame   0x000140c0       0x3c D:\program\CY8\PSoC Creator\3.2\PSoC Creator\psoc\content\cycomponentlibrary\CyComponentLibrary.cylib\BLE_v2_0\Library\gccCyBLEStack_BLE_SOC_PERIPHERAL.a(smp_pl.o)
 .debug_frame   0x000140fc       0x3c D:\program\CY8\PSoC Creator\3.2\PSoC Creator\psoc\content\cycomponentlibrary\CyComponentLibrary.cylib\BLE_v2_0\Library\gccCyBLEStack_BLE_SOC_PERIPHERAL.a(smp_pl.o)
 .debug_frame   0x00014138       0x3c D:\program\CY8\PSoC Creator\3.2\PSoC Creator\psoc\content\cycomponentlibrary\CyComponentLibrary.cylib\BLE_v2_0\Library\gccCyBLEStack_BLE_SOC_PERIPHERAL.a(smp_pl.o)
 .debug_frame   0x00014174       0x54 D:\program\CY8\PSoC Creator\3.2\PSoC Creator\psoc\content\cycomponentlibrary\CyComponentLibrary.cylib\BLE_v2_0\Library\gccCyBLEStack_BLE_SOC_PERIPHERAL.a(smp_pl.o)
 .debug_frame   0x000141c8       0x54 D:\program\CY8\PSoC Creator\3.2\PSoC Creator\psoc\content\cycomponentlibrary\CyComponentLibrary.cylib\BLE_v2_0\Library\gccCyBLEStack_BLE_SOC_PERIPHERAL.a(smp_pl.o)
 .debug_frame   0x0001421c       0x4c D:\program\CY8\PSoC Creator\3.2\PSoC Creator\psoc\content\cycomponentlibrary\CyComponentLibrary.cylib\BLE_v2_0\Library\gccCyBLEStack_BLE_SOC_PERIPHERAL.a(smp_pl.o)
 .debug_frame   0x00014268       0x3c D:\program\CY8\PSoC Creator\3.2\PSoC Creator\psoc\content\cycomponentlibrary\CyComponentLibrary.cylib\BLE_v2_0\Library\gccCyBLEStack_BLE_SOC_PERIPHERAL.a(smp_pl.o)
 .debug_frame   0x000142a4       0x44 D:\program\CY8\PSoC Creator\3.2\PSoC Creator\psoc\content\cycomponentlibrary\CyComponentLibrary.cylib\BLE_v2_0\Library\gccCyBLEStack_BLE_SOC_PERIPHERAL.a(smp_pl.o)
 .debug_frame   0x000142e8       0x48 D:\program\CY8\PSoC Creator\3.2\PSoC Creator\psoc\content\cycomponentlibrary\CyComponentLibrary.cylib\BLE_v2_0\Library\gccCyBLEStack_BLE_SOC_PERIPHERAL.a(smp_pl.o)
 .debug_frame   0x00014330       0x44 D:\program\CY8\PSoC Creator\3.2\PSoC Creator\psoc\content\cycomponentlibrary\CyComponentLibrary.cylib\BLE_v2_0\Library\gccCyBLEStack_BLE_SOC_PERIPHERAL.a(smp_pl.o)
 .debug_frame   0x00014374       0x44 D:\program\CY8\PSoC Creator\3.2\PSoC Creator\psoc\content\cycomponentlibrary\CyComponentLibrary.cylib\BLE_v2_0\Library\gccCyBLEStack_BLE_SOC_PERIPHERAL.a(smp_pl.o)
 .debug_frame   0x000143b8       0x44 D:\program\CY8\PSoC Creator\3.2\PSoC Creator\psoc\content\cycomponentlibrary\CyComponentLibrary.cylib\BLE_v2_0\Library\gccCyBLEStack_BLE_SOC_PERIPHERAL.a(smp_pl.o)
 .debug_frame   0x000143fc       0x44 D:\program\CY8\PSoC Creator\3.2\PSoC Creator\psoc\content\cycomponentlibrary\CyComponentLibrary.cylib\BLE_v2_0\Library\gccCyBLEStack_BLE_SOC_PERIPHERAL.a(smp_pl.o)
 .debug_frame   0x00014440       0x48 D:\program\CY8\PSoC Creator\3.2\PSoC Creator\psoc\content\cycomponentlibrary\CyComponentLibrary.cylib\BLE_v2_0\Library\gccCyBLEStack_BLE_SOC_PERIPHERAL.a(l2cap_data_recv.o)
 .debug_frame   0x00014488       0x44 D:\program\CY8\PSoC Creator\3.2\PSoC Creator\psoc\content\cycomponentlibrary\CyComponentLibrary.cylib\BLE_v2_0\Library\gccCyBLEStack_BLE_SOC_PERIPHERAL.a(l2cap_data_recv.o)
 .debug_frame   0x000144cc       0x48 D:\program\CY8\PSoC Creator\3.2\PSoC Creator\psoc\content\cycomponentlibrary\CyComponentLibrary.cylib\BLE_v2_0\Library\gccCyBLEStack_BLE_SOC_PERIPHERAL.a(l2cap_data_recv.o)
 .debug_frame   0x00014514       0x54 D:\program\CY8\PSoC Creator\3.2\PSoC Creator\psoc\content\cycomponentlibrary\CyComponentLibrary.cylib\BLE_v2_0\Library\gccCyBLEStack_BLE_SOC_PERIPHERAL.a(l2cap_data_recv.o)
 .debug_frame   0x00014568       0x48 D:\program\CY8\PSoC Creator\3.2\PSoC Creator\psoc\content\cycomponentlibrary\CyComponentLibrary.cylib\BLE_v2_0\Library\gccCyBLEStack_BLE_SOC_PERIPHERAL.a(gattDbInternal.o)
 .debug_frame   0x000145b0       0x50 D:\program\CY8\PSoC Creator\3.2\PSoC Creator\psoc\content\cycomponentlibrary\CyComponentLibrary.cylib\BLE_v2_0\Library\gccCyBLEStack_BLE_SOC_PERIPHERAL.a(gattDbInternal.o)
 .debug_frame   0x00014600       0x4c D:\program\CY8\PSoC Creator\3.2\PSoC Creator\psoc\content\cycomponentlibrary\CyComponentLibrary.cylib\BLE_v2_0\Library\gccCyBLEStack_BLE_SOC_PERIPHERAL.a(gattDbInternal.o)
 .debug_frame   0x0001464c       0x4c D:\program\CY8\PSoC Creator\3.2\PSoC Creator\psoc\content\cycomponentlibrary\CyComponentLibrary.cylib\BLE_v2_0\Library\gccCyBLEStack_BLE_SOC_PERIPHERAL.a(gattDbInternal.o)
 .debug_frame   0x00014698       0x4c D:\program\CY8\PSoC Creator\3.2\PSoC Creator\psoc\content\cycomponentlibrary\CyComponentLibrary.cylib\BLE_v2_0\Library\gccCyBLEStack_BLE_SOC_PERIPHERAL.a(gattDbInternal.o)
 .debug_frame   0x000146e4       0x4c D:\program\CY8\PSoC Creator\3.2\PSoC Creator\psoc\content\cycomponentlibrary\CyComponentLibrary.cylib\BLE_v2_0\Library\gccCyBLEStack_BLE_SOC_PERIPHERAL.a(gattDbInternal.o)
 .debug_frame   0x00014730       0x4c D:\program\CY8\PSoC Creator\3.2\PSoC Creator\psoc\content\cycomponentlibrary\CyComponentLibrary.cylib\BLE_v2_0\Library\gccCyBLEStack_BLE_SOC_PERIPHERAL.a(gattDbInternal.o)
 .debug_frame   0x0001477c       0x4c D:\program\CY8\PSoC Creator\3.2\PSoC Creator\psoc\content\cycomponentlibrary\CyComponentLibrary.cylib\BLE_v2_0\Library\gccCyBLEStack_BLE_SOC_PERIPHERAL.a(gattDbInternal.o)
 .debug_frame   0x000147c8       0x4c D:\program\CY8\PSoC Creator\3.2\PSoC Creator\psoc\content\cycomponentlibrary\CyComponentLibrary.cylib\BLE_v2_0\Library\gccCyBLEStack_BLE_SOC_PERIPHERAL.a(gattDbInternal.o)
 .debug_frame   0x00014814       0x50 D:\program\CY8\PSoC Creator\3.2\PSoC Creator\psoc\content\cycomponentlibrary\CyComponentLibrary.cylib\BLE_v2_0\Library\gccCyBLEStack_BLE_SOC_PERIPHERAL.a(gattDbInternal.o)
 .debug_frame   0x00014864       0x50 D:\program\CY8\PSoC Creator\3.2\PSoC Creator\psoc\content\cycomponentlibrary\CyComponentLibrary.cylib\BLE_v2_0\Library\gccCyBLEStack_BLE_SOC_PERIPHERAL.a(gattDbInternal.o)
 .debug_frame   0x000148b4       0x3c D:\program\CY8\PSoC Creator\3.2\PSoC Creator\psoc\content\cycomponentlibrary\CyComponentLibrary.cylib\BLE_v2_0\Library\gccCyBLEStack_BLE_SOC_PERIPHERAL.a(gattDbInternal.o)
 .debug_frame   0x000148f0       0x50 D:\program\CY8\PSoC Creator\3.2\PSoC Creator\psoc\content\cycomponentlibrary\CyComponentLibrary.cylib\BLE_v2_0\Library\gccCyBLEStack_BLE_SOC_PERIPHERAL.a(hci_command_queue.o)
 .debug_frame   0x00014940       0x44 D:\program\CY8\PSoC Creator\3.2\PSoC Creator\psoc\content\cycomponentlibrary\CyComponentLibrary.cylib\BLE_v2_0\Library\gccCyBLEStack_BLE_SOC_PERIPHERAL.a(hci_command_queue.o)
 .debug_frame   0x00014984       0x4c D:\program\CY8\PSoC Creator\3.2\PSoC Creator\psoc\content\cycomponentlibrary\CyComponentLibrary.cylib\BLE_v2_0\Library\gccCyBLEStack_BLE_SOC_PERIPHERAL.a(hci_command_queue.o)
 .debug_frame   0x000149d0       0x44 D:\program\CY8\PSoC Creator\3.2\PSoC Creator\psoc\content\cycomponentlibrary\CyComponentLibrary.cylib\BLE_v2_0\Library\gccCyBLEStack_BLE_SOC_PERIPHERAL.a(hci_connect.o)
 .debug_frame   0x00014a14       0x4c D:\program\CY8\PSoC Creator\3.2\PSoC Creator\psoc\content\cycomponentlibrary\CyComponentLibrary.cylib\BLE_v2_0\Library\gccCyBLEStack_BLE_SOC_PERIPHERAL.a(hci_connect.o)
 .debug_frame   0x00014a60       0x44 D:\program\CY8\PSoC Creator\3.2\PSoC Creator\psoc\content\cycomponentlibrary\CyComponentLibrary.cylib\BLE_v2_0\Library\gccCyBLEStack_BLE_SOC_PERIPHERAL.a(hci_connect.o)
 .debug_frame   0x00014aa4       0x48 D:\program\CY8\PSoC Creator\3.2\PSoC Creator\psoc\content\cycomponentlibrary\CyComponentLibrary.cylib\BLE_v2_0\Library\gccCyBLEStack_BLE_SOC_PERIPHERAL.a(hci_disconnect.o)
 .debug_frame   0x00014aec       0x54 D:\program\CY8\PSoC Creator\3.2\PSoC Creator\psoc\content\cycomponentlibrary\CyComponentLibrary.cylib\BLE_v2_0\Library\gccCyBLEStack_BLE_SOC_PERIPHERAL.a(smp_fsm_handlers.o)
 .debug_frame   0x00014b40       0x3c D:\program\CY8\PSoC Creator\3.2\PSoC Creator\psoc\content\cycomponentlibrary\CyComponentLibrary.cylib\BLE_v2_0\Library\gccCyBLEStack_BLE_SOC_PERIPHERAL.a(smp_fsm_handlers.o)
 .debug_frame   0x00014b7c       0x4c D:\program\CY8\PSoC Creator\3.2\PSoC Creator\psoc\content\cycomponentlibrary\CyComponentLibrary.cylib\BLE_v2_0\Library\gccCyBLEStack_BLE_SOC_PERIPHERAL.a(smp_fsm_handlers.o)
 .debug_frame   0x00014bc8       0x4c D:\program\CY8\PSoC Creator\3.2\PSoC Creator\psoc\content\cycomponentlibrary\CyComponentLibrary.cylib\BLE_v2_0\Library\gccCyBLEStack_BLE_SOC_PERIPHERAL.a(smp_fsm_handlers.o)
 .debug_frame   0x00014c14       0x4c D:\program\CY8\PSoC Creator\3.2\PSoC Creator\psoc\content\cycomponentlibrary\CyComponentLibrary.cylib\BLE_v2_0\Library\gccCyBLEStack_BLE_SOC_PERIPHERAL.a(smp_fsm_handlers.o)
 .debug_frame   0x00014c60       0x48 D:\program\CY8\PSoC Creator\3.2\PSoC Creator\psoc\content\cycomponentlibrary\CyComponentLibrary.cylib\BLE_v2_0\Library\gccCyBLEStack_BLE_SOC_PERIPHERAL.a(smp_fsm_handlers.o)
 .debug_frame   0x00014ca8       0x4c D:\program\CY8\PSoC Creator\3.2\PSoC Creator\psoc\content\cycomponentlibrary\CyComponentLibrary.cylib\BLE_v2_0\Library\gccCyBLEStack_BLE_SOC_PERIPHERAL.a(smp_fsm_handlers.o)
 .debug_frame   0x00014cf4       0x4c D:\program\CY8\PSoC Creator\3.2\PSoC Creator\psoc\content\cycomponentlibrary\CyComponentLibrary.cylib\BLE_v2_0\Library\gccCyBLEStack_BLE_SOC_PERIPHERAL.a(smp_fsm_handlers.o)
 .debug_frame   0x00014d40       0x44 D:\program\CY8\PSoC Creator\3.2\PSoC Creator\psoc\content\cycomponentlibrary\CyComponentLibrary.cylib\BLE_v2_0\Library\gccCyBLEStack_BLE_SOC_PERIPHERAL.a(smp_fsm_handlers.o)
 .debug_frame   0x00014d84       0x44 D:\program\CY8\PSoC Creator\3.2\PSoC Creator\psoc\content\cycomponentlibrary\CyComponentLibrary.cylib\BLE_v2_0\Library\gccCyBLEStack_BLE_SOC_PERIPHERAL.a(smp_fsm_handlers.o)
 .debug_frame   0x00014dc8       0x48 D:\program\CY8\PSoC Creator\3.2\PSoC Creator\psoc\content\cycomponentlibrary\CyComponentLibrary.cylib\BLE_v2_0\Library\gccCyBLEStack_BLE_SOC_PERIPHERAL.a(smp_fsm_handlers.o)
 .debug_frame   0x00014e10       0x4c D:\program\CY8\PSoC Creator\3.2\PSoC Creator\psoc\content\cycomponentlibrary\CyComponentLibrary.cylib\BLE_v2_0\Library\gccCyBLEStack_BLE_SOC_PERIPHERAL.a(smp_fsm_handlers.o)
 .debug_frame   0x00014e5c       0x44 D:\program\CY8\PSoC Creator\3.2\PSoC Creator\psoc\content\cycomponentlibrary\CyComponentLibrary.cylib\BLE_v2_0\Library\gccCyBLEStack_BLE_SOC_PERIPHERAL.a(smp_fsm_handlers.o)
 .debug_frame   0x00014ea0       0x4c D:\program\CY8\PSoC Creator\3.2\PSoC Creator\psoc\content\cycomponentlibrary\CyComponentLibrary.cylib\BLE_v2_0\Library\gccCyBLEStack_BLE_SOC_PERIPHERAL.a(smp_fsm_handlers.o)
 .debug_frame   0x00014eec       0x4c D:\program\CY8\PSoC Creator\3.2\PSoC Creator\psoc\content\cycomponentlibrary\CyComponentLibrary.cylib\BLE_v2_0\Library\gccCyBLEStack_BLE_SOC_PERIPHERAL.a(smp_fsm_handlers.o)
 .debug_frame   0x00014f38       0x50 D:\program\CY8\PSoC Creator\3.2\PSoC Creator\psoc\content\cycomponentlibrary\CyComponentLibrary.cylib\BLE_v2_0\Library\gccCyBLEStack_BLE_SOC_PERIPHERAL.a(smp_fsm_handlers.o)
 .debug_frame   0x00014f88       0x44 D:\program\CY8\PSoC Creator\3.2\PSoC Creator\psoc\content\cycomponentlibrary\CyComponentLibrary.cylib\BLE_v2_0\Library\gccCyBLEStack_BLE_SOC_PERIPHERAL.a(smp_fsm_handlers.o)
 .debug_frame   0x00014fcc       0x3c D:\program\CY8\PSoC Creator\3.2\PSoC Creator\psoc\content\cycomponentlibrary\CyComponentLibrary.cylib\BLE_v2_0\Library\gccCyBLEStack_BLE_SOC_PERIPHERAL.a(smp_fsm_handlers.o)
 .debug_frame   0x00015008       0x44 D:\program\CY8\PSoC Creator\3.2\PSoC Creator\psoc\content\cycomponentlibrary\CyComponentLibrary.cylib\BLE_v2_0\Library\gccCyBLEStack_BLE_SOC_PERIPHERAL.a(att_fsm_handlers.o)
 .debug_frame   0x0001504c       0x48 D:\program\CY8\PSoC Creator\3.2\PSoC Creator\psoc\content\cycomponentlibrary\CyComponentLibrary.cylib\BLE_v2_0\Library\gccCyBLEStack_BLE_SOC_PERIPHERAL.a(att_fsm_handlers.o)
 .debug_frame   0x00015094       0x44 D:\program\CY8\PSoC Creator\3.2\PSoC Creator\psoc\content\cycomponentlibrary\CyComponentLibrary.cylib\BLE_v2_0\Library\gccCyBLEStack_BLE_SOC_PERIPHERAL.a(att_fsm_handlers.o)
 .debug_frame   0x000150d8       0x44 D:\program\CY8\PSoC Creator\3.2\PSoC Creator\psoc\content\cycomponentlibrary\CyComponentLibrary.cylib\BLE_v2_0\Library\gccCyBLEStack_BLE_SOC_PERIPHERAL.a(att_fsm_handlers.o)
 .debug_frame   0x0001511c       0x4c D:\program\CY8\PSoC Creator\3.2\PSoC Creator\psoc\content\cycomponentlibrary\CyComponentLibrary.cylib\BLE_v2_0\Library\gccCyBLEStack_BLE_SOC_PERIPHERAL.a(att_fsm_handlers.o)
 .debug_frame   0x00015168       0x44 D:\program\CY8\PSoC Creator\3.2\PSoC Creator\psoc\content\cycomponentlibrary\CyComponentLibrary.cylib\BLE_v2_0\Library\gccCyBLEStack_BLE_SOC_PERIPHERAL.a(att_fsm_handlers.o)
 .debug_frame   0x000151ac       0x44 D:\program\CY8\PSoC Creator\3.2\PSoC Creator\psoc\content\cycomponentlibrary\CyComponentLibrary.cylib\BLE_v2_0\Library\gccCyBLEStack_BLE_SOC_PERIPHERAL.a(att_fsm_handlers.o)
 .debug_frame   0x000151f0       0x4c D:\program\CY8\PSoC Creator\3.2\PSoC Creator\psoc\content\cycomponentlibrary\CyComponentLibrary.cylib\BLE_v2_0\Library\gccCyBLEStack_BLE_SOC_PERIPHERAL.a(l2cap_connect.o)
 .debug_frame   0x0001523c      0x1a0 .\CortexM0\ARM_GCC_484\Debug\BLE Lab 2.a(BLE_HAL_PVT.o)
 .debug_frame   0x000153dc      0x190 .\CortexM0\ARM_GCC_484\Debug\BLE Lab 2.a(BLE_bless_isr.o)
 .debug_frame   0x0001556c       0xb8 .\CortexM0\ARM_GCC_484\Debug\BLE Lab 2.a(CyFlash.o)
 .debug_frame   0x00015624       0x2c .\CortexM0\ARM_GCC_484\Debug\BLE Lab 2.a(BLE_HAL_INT.o)
 .debug_frame   0x00015650       0x44 D:\program\CY8\PSoC Creator\3.2\PSoC Creator\psoc\content\cycomponentlibrary\CyComponentLibrary.cylib\BLE_v2_0\Library\gccCyBLEStack_BLE_SOC_PERIPHERAL.a(ll_isr.o)
 .debug_frame   0x00015694       0x20 d:/program/cy8/psoc creator/3.2/psoc creator/import/gnu/arm/4.8.4/bin/../lib/gcc/arm-none-eabi/4.8.4/armv6-m\libgcc.a(_udivsi3.o)
 .debug_frame   0x000156b4       0x20 d:/program/cy8/psoc creator/3.2/psoc creator/import/gnu/arm/4.8.4/bin/../lib/gcc/arm-none-eabi/4.8.4/armv6-m\libgcc.a(_divsi3.o)
 .debug_frame   0x000156d4       0x30 d:/program/cy8/psoc creator/3.2/psoc creator/import/gnu/arm/4.8.4/bin/../lib/gcc/arm-none-eabi/4.8.4/armv6-m\libgcc.a(_muldi3.o)
 .debug_frame   0x00015704       0x50 d:/program/cy8/psoc creator/3.2/psoc creator/import/gnu/arm/4.8.4/bin/../lib/gcc/arm-none-eabi/4.8.4/armv6-m\libgcc.a(bpabi.o)
 .debug_frame   0x00015754       0x3c d:/program/cy8/psoc creator/3.2/psoc creator/import/gnu/arm/4.8.4/bin/../lib/gcc/arm-none-eabi/4.8.4/armv6-m\libgcc.a(divsf3.o)
 .debug_frame   0x00015790       0x3c d:/program/cy8/psoc creator/3.2/psoc creator/import/gnu/arm/4.8.4/bin/../lib/gcc/arm-none-eabi/4.8.4/armv6-m\libgcc.a(mulsf3.o)
 .debug_frame   0x000157cc       0x2c d:/program/cy8/psoc creator/3.2/psoc creator/import/gnu/arm/4.8.4/bin/../lib/gcc/arm-none-eabi/4.8.4/armv6-m\libgcc.a(floatsisf.o)
 .debug_frame   0x000157f8       0x3c d:/program/cy8/psoc creator/3.2/psoc creator/import/gnu/arm/4.8.4/bin/../lib/gcc/arm-none-eabi/4.8.4/armv6-m\libgcc.a(_divdi3.o)
 .debug_frame   0x00015834       0x3c d:/program/cy8/psoc creator/3.2/psoc creator/import/gnu/arm/4.8.4/bin/../lib/gcc/arm-none-eabi/4.8.4/armv6-m\libgcc.a(_udivdi3.o)
 .debug_frame   0x00015870       0x20 d:/program/cy8/psoc creator/3.2/psoc creator/import/gnu/arm/4.8.4/bin/../lib/gcc/arm-none-eabi/4.8.4/../../../../arm-none-eabi/lib/armv6-m\libg_s.a(lib_a-errno.o)
 .debug_frame   0x00015890       0x28 d:/program/cy8/psoc creator/3.2/psoc creator/import/gnu/arm/4.8.4/bin/../lib/gcc/arm-none-eabi/4.8.4/../../../../arm-none-eabi/lib/armv6-m\libg_s.a(lib_a-exit.o)
 .debug_frame   0x000158b8       0x2c d:/program/cy8/psoc creator/3.2/psoc creator/import/gnu/arm/4.8.4/bin/../lib/gcc/arm-none-eabi/4.8.4/../../../../arm-none-eabi/lib/armv6-m\libg_s.a(lib_a-init.o)
 .debug_frame   0x000158e4       0x2c d:/program/cy8/psoc creator/3.2/psoc creator/import/gnu/arm/4.8.4/bin/../lib/gcc/arm-none-eabi/4.8.4/../../../../arm-none-eabi/lib/armv6-m\libg_s.a(lib_a-memcmp.o)
 .debug_frame   0x00015910       0x28 d:/program/cy8/psoc creator/3.2/psoc creator/import/gnu/arm/4.8.4/bin/../lib/gcc/arm-none-eabi/4.8.4/../../../../arm-none-eabi/lib/armv6-m\libg_s.a(lib_a-memcpy-stub.o)
 .debug_frame   0x00015938       0x20 d:/program/cy8/psoc creator/3.2/psoc creator/import/gnu/arm/4.8.4/bin/../lib/gcc/arm-none-eabi/4.8.4/../../../../arm-none-eabi/lib/armv6-m\libg_s.a(lib_a-memset.o)

.debug_str      0x00000000     0x645f
 *(.debug_str)
 .debug_str     0x00000000      0x329 .\CortexM0\ARM_GCC_484\Debug\main.o
                                0x362 (size before relaxing)
 .debug_str     0x00000329      0x87e .\CortexM0\ARM_GCC_484\Debug\HeartRateProcessing.o
                                0xa2d (size before relaxing)
 .debug_str     0x00000ba7     0x2278 .\CortexM0\ARM_GCC_484\Debug\BleProcessing.o
                               0x2c3f (size before relaxing)
 .debug_str     0x00002e1f       0x65 .\CortexM0\ARM_GCC_484\Debug\WatchdogTimer.o
                                0xa03 (size before relaxing)
 .debug_str     0x00002e84       0x5b .\CortexM0\ARM_GCC_484\Debug\cymetadata.o
                                0x1f7 (size before relaxing)
 .debug_str     0x00002edf      0x12e .\CortexM0\ARM_GCC_484\Debug\Cm0Start.o
                                0x2eb (size before relaxing)
 .debug_str     0x0000300d      0x124 .\CortexM0\ARM_GCC_484\Debug\BLE Lab 2.a(cyfitter_cfg.o)
                                0x304 (size before relaxing)
 .debug_str     0x00003131       0xa8 .\CortexM0\ARM_GCC_484\Debug\BLE Lab 2.a(SW2_Switch.o)
                                0x24e (size before relaxing)
 .debug_str     0x000031d9      0x155 .\CortexM0\ARM_GCC_484\Debug\BLE Lab 2.a(Wakeup_ISR.o)
                                0x320 (size before relaxing)
 .debug_str     0x0000332e       0xd2 .\CortexM0\ARM_GCC_484\Debug\BLE Lab 2.a(Led_Advertising_Green.o)
                                0x290 (size before relaxing)
 .debug_str     0x00003400       0xc0 .\CortexM0\ARM_GCC_484\Debug\BLE Lab 2.a(Led_Connected_Blue.o)
                                0x27e (size before relaxing)
 .debug_str     0x000034c0      0xc3c .\CortexM0\ARM_GCC_484\Debug\BLE Lab 2.a(BLE_hrs.o)
                               0x37de (size before relaxing)
 .debug_str     0x000040fc      0x456 .\CortexM0\ARM_GCC_484\Debug\BLE Lab 2.a(BLE.o)
                               0x1382 (size before relaxing)
 .debug_str     0x00004552       0xe9 .\CortexM0\ARM_GCC_484\Debug\BLE Lab 2.a(BLE_gatt.o)
                               0x3699 (size before relaxing)
 .debug_str     0x0000463b      0xa79 .\CortexM0\ARM_GCC_484\Debug\BLE Lab 2.a(BLE_eventHandler.o)
                               0x1b60 (size before relaxing)
 .debug_str     0x000050b4       0xc0 .\CortexM0\ARM_GCC_484\Debug\BLE Lab 2.a(BLE_dis.o)
                               0x1357 (size before relaxing)
 .debug_str     0x00005174       0x9f .\CortexM0\ARM_GCC_484\Debug\BLE Lab 2.a(Opamp.o)
                                0x23f (size before relaxing)
 .debug_str     0x00005213       0x8f .\CortexM0\ARM_GCC_484\Debug\BLE Lab 2.a(Opamp_PM.o)
                                0x22f (size before relaxing)
 .debug_str     0x000052a2      0x1d8 .\CortexM0\ARM_GCC_484\Debug\BLE Lab 2.a(ADC.o)
                                0x3b0 (size before relaxing)
 .debug_str     0x0000547a       0x75 .\CortexM0\ARM_GCC_484\Debug\BLE Lab 2.a(ADC_PM.o)
                                0x22a (size before relaxing)
 .debug_str     0x000054ef       0x37 .\CortexM0\ARM_GCC_484\Debug\BLE Lab 2.a(ADC_INT.o)
                                0x1da (size before relaxing)
 .debug_str     0x00005526      0x4a4 .\CortexM0\ARM_GCC_484\Debug\BLE Lab 2.a(CyLib.o)
                                0x698 (size before relaxing)
 .debug_str     0x000059ca       0xc8 .\CortexM0\ARM_GCC_484\Debug\BLE Lab 2.a(cyPm.o)
                                0x28e (size before relaxing)
 .debug_str     0x00005a92      0x52c .\CortexM0\ARM_GCC_484\Debug\BLE Lab 2.a(CyLFClk.o)
                                0x709 (size before relaxing)
 .debug_str     0x00005fbe      0x1ed .\CortexM0\ARM_GCC_484\Debug\BLE Lab 2.a(BLE_HAL_PVT.o)
                                0x3b4 (size before relaxing)
 .debug_str     0x000061ab      0x158 .\CortexM0\ARM_GCC_484\Debug\BLE Lab 2.a(BLE_bless_isr.o)
                                0x34a (size before relaxing)
 .debug_str     0x00006303      0x11f .\CortexM0\ARM_GCC_484\Debug\BLE Lab 2.a(CyFlash.o)
                                0x2f7 (size before relaxing)
 .debug_str     0x00006422       0x3d .\CortexM0\ARM_GCC_484\Debug\BLE Lab 2.a(BLE_HAL_INT.o)
                                0x1d3 (size before relaxing)

.debug_loc
 *(.debug_loc)

.debug_macinfo
 *(.debug_macinfo)

.debug_ranges   0x00000000      0x890
 *(.debug_ranges)
 .debug_ranges  0x00000000       0x18 .\CortexM0\ARM_GCC_484\Debug\main.o
 .debug_ranges  0x00000018       0x10 .\CortexM0\ARM_GCC_484\Debug\HeartRateProcessing.o
 .debug_ranges  0x00000028       0x20 .\CortexM0\ARM_GCC_484\Debug\BleProcessing.o
 .debug_ranges  0x00000048       0x20 .\CortexM0\ARM_GCC_484\Debug\WatchdogTimer.o
 .debug_ranges  0x00000068       0x38 .\CortexM0\ARM_GCC_484\Debug\Cm0Start.o
 .debug_ranges  0x000000a0       0x48 .\CortexM0\ARM_GCC_484\Debug\BLE Lab 2.a(cyfitter_cfg.o)
 .debug_ranges  0x000000e8       0x30 .\CortexM0\ARM_GCC_484\Debug\BLE Lab 2.a(SW2_Switch.o)
 .debug_ranges  0x00000118       0x70 .\CortexM0\ARM_GCC_484\Debug\BLE Lab 2.a(Wakeup_ISR.o)
 .debug_ranges  0x00000188       0x30 .\CortexM0\ARM_GCC_484\Debug\BLE Lab 2.a(Led_Advertising_Green.o)
 .debug_ranges  0x000001b8       0x30 .\CortexM0\ARM_GCC_484\Debug\BLE Lab 2.a(Led_Connected_Blue.o)
 .debug_ranges  0x000001e8       0x40 .\CortexM0\ARM_GCC_484\Debug\BLE Lab 2.a(BLE_hrs.o)
 .debug_ranges  0x00000228       0x68 .\CortexM0\ARM_GCC_484\Debug\BLE Lab 2.a(BLE.o)
 .debug_ranges  0x00000290       0x18 .\CortexM0\ARM_GCC_484\Debug\BLE Lab 2.a(BLE_gatt.o)
 .debug_ranges  0x000002a8       0x50 .\CortexM0\ARM_GCC_484\Debug\BLE Lab 2.a(BLE_eventHandler.o)
 .debug_ranges  0x000002f8       0x28 .\CortexM0\ARM_GCC_484\Debug\BLE Lab 2.a(BLE_dis.o)
 .debug_ranges  0x00000320       0x38 .\CortexM0\ARM_GCC_484\Debug\BLE Lab 2.a(Opamp.o)
 .debug_ranges  0x00000358       0x28 .\CortexM0\ARM_GCC_484\Debug\BLE Lab 2.a(Opamp_PM.o)
 .debug_ranges  0x00000380       0x98 .\CortexM0\ARM_GCC_484\Debug\BLE Lab 2.a(ADC.o)
 .debug_ranges  0x00000418       0x28 .\CortexM0\ARM_GCC_484\Debug\BLE Lab 2.a(ADC_PM.o)
 .debug_ranges  0x00000440       0x10 .\CortexM0\ARM_GCC_484\Debug\BLE Lab 2.a(ADC_INT.o)
 .debug_ranges  0x00000450      0x188 .\CortexM0\ARM_GCC_484\Debug\BLE Lab 2.a(CyLib.o)
 .debug_ranges  0x000005d8       0x48 .\CortexM0\ARM_GCC_484\Debug\BLE Lab 2.a(cyPm.o)
 .debug_ranges  0x00000620      0x150 .\CortexM0\ARM_GCC_484\Debug\BLE Lab 2.a(CyLFClk.o)
 .debug_ranges  0x00000770       0x70 .\CortexM0\ARM_GCC_484\Debug\BLE Lab 2.a(BLE_HAL_PVT.o)
 .debug_ranges  0x000007e0       0x70 .\CortexM0\ARM_GCC_484\Debug\BLE Lab 2.a(BLE_bless_isr.o)
 .debug_ranges  0x00000850       0x30 .\CortexM0\ARM_GCC_484\Debug\BLE Lab 2.a(CyFlash.o)
 .debug_ranges  0x00000880       0x10 .\CortexM0\ARM_GCC_484\Debug\BLE Lab 2.a(BLE_HAL_INT.o)

.comment        0x00000000    0x1c6c4
 .comment       0x00000000       0x70 .\CortexM0\ARM_GCC_484\Debug\main.o
                                 0x71 (size before relaxing)
 .comment       0x00000000       0x71 .\CortexM0\ARM_GCC_484\Debug\HeartRateProcessing.o
 .comment       0x00000000       0x71 .\CortexM0\ARM_GCC_484\Debug\BleProcessing.o
 .comment       0x00000000       0x71 .\CortexM0\ARM_GCC_484\Debug\WatchdogTimer.o
 .comment       0x00000000       0x71 .\CortexM0\ARM_GCC_484\Debug\cymetadata.o
 .comment       0x00000000       0x71 .\CortexM0\ARM_GCC_484\Debug\Cm0Start.o
 .comment       0x00000000       0x71 .\CortexM0\ARM_GCC_484\Debug\BLE Lab 2.a(cyfitter_cfg.o)
 .comment       0x00000000       0x71 .\CortexM0\ARM_GCC_484\Debug\BLE Lab 2.a(SW2_Switch.o)
 .comment       0x00000000       0x71 .\CortexM0\ARM_GCC_484\Debug\BLE Lab 2.a(Wakeup_ISR.o)
 .comment       0x00000000       0x71 .\CortexM0\ARM_GCC_484\Debug\BLE Lab 2.a(Led_Advertising_Green.o)
 .comment       0x00000000       0x71 .\CortexM0\ARM_GCC_484\Debug\BLE Lab 2.a(Led_Connected_Blue.o)
 .comment       0x00000000       0x71 .\CortexM0\ARM_GCC_484\Debug\BLE Lab 2.a(BLE_hrs.o)
 .comment       0x00000000       0x71 .\CortexM0\ARM_GCC_484\Debug\BLE Lab 2.a(BLE.o)
 .comment       0x00000000       0x71 .\CortexM0\ARM_GCC_484\Debug\BLE Lab 2.a(BLE_gatt.o)
 .comment       0x00000000       0x71 .\CortexM0\ARM_GCC_484\Debug\BLE Lab 2.a(BLE_eventHandler.o)
 .comment       0x00000000       0x71 .\CortexM0\ARM_GCC_484\Debug\BLE Lab 2.a(BLE_dis.o)
 .comment       0x00000000       0x71 .\CortexM0\ARM_GCC_484\Debug\BLE Lab 2.a(Opamp.o)
 .comment       0x00000000       0x71 .\CortexM0\ARM_GCC_484\Debug\BLE Lab 2.a(Opamp_PM.o)
 .comment       0x00000000       0x71 .\CortexM0\ARM_GCC_484\Debug\BLE Lab 2.a(ADC.o)
 .comment       0x00000000       0x71 .\CortexM0\ARM_GCC_484\Debug\BLE Lab 2.a(ADC_PM.o)
 .comment       0x00000000       0x71 .\CortexM0\ARM_GCC_484\Debug\BLE Lab 2.a(ADC_INT.o)
 .comment       0x00000000       0x71 .\CortexM0\ARM_GCC_484\Debug\BLE Lab 2.a(CyLib.o)
 .comment       0x00000000       0x71 .\CortexM0\ARM_GCC_484\Debug\BLE Lab 2.a(cyPm.o)
 .comment       0x00000000       0x71 .\CortexM0\ARM_GCC_484\Debug\BLE Lab 2.a(CyLFClk.o)
 .comment       0x00000070      0x228 D:\program\CY8\PSoC Creator\3.2\PSoC Creator\psoc\content\cycomponentlibrary\CyComponentLibrary.cylib\BLE_v2_0\Library\gccCyBLEStack_BLE_SOC_PERIPHERAL.a(CyBle.o)
 .comment       0x00000298      0x35b D:\program\CY8\PSoC Creator\3.2\PSoC Creator\psoc\content\cycomponentlibrary\CyComponentLibrary.cylib\BLE_v2_0\Library\gccCyBLEStack_BLE_SOC_PERIPHERAL.a(CyBleStackMgrIP_Interface.o)
 .comment       0x000005f3      0x338 D:\program\CY8\PSoC Creator\3.2\PSoC Creator\psoc\content\cycomponentlibrary\CyComponentLibrary.cylib\BLE_v2_0\Library\gccCyBLEStack_BLE_SOC_PERIPHERAL.a(BT_os.o)
 .comment       0x0000092b      0x36a D:\program\CY8\PSoC Creator\3.2\PSoC Creator\psoc\content\cycomponentlibrary\CyComponentLibrary.cylib\BLE_v2_0\Library\gccCyBLEStack_BLE_SOC_PERIPHERAL.a(CyBleStackMgr_StackTaskHandler.o)
 .comment       0x00000c95      0x346 D:\program\CY8\PSoC Creator\3.2\PSoC Creator\psoc\content\cycomponentlibrary\CyComponentLibrary.cylib\BLE_v2_0\Library\gccCyBLEStack_BLE_SOC_PERIPHERAL.a(transport_sf.o)
 .comment       0x00000fdb      0x35f D:\program\CY8\PSoC Creator\3.2\PSoC Creator\psoc\content\cycomponentlibrary\CyComponentLibrary.cylib\BLE_v2_0\Library\gccCyBLEStack_BLE_SOC_PERIPHERAL.a(CyBleStackMgr_PSoCHal.o)
 .comment       0x0000133a      0x367 D:\program\CY8\PSoC Creator\3.2\PSoC Creator\psoc\content\cycomponentlibrary\CyComponentLibrary.cylib\BLE_v2_0\Library\gccCyBLEStack_BLE_SOC_PERIPHERAL.a(CyBleStackMgr_BleSSDriver.o)
 .comment       0x000016a1      0x349 D:\program\CY8\PSoC Creator\3.2\PSoC Creator\psoc\content\cycomponentlibrary\CyComponentLibrary.cylib\BLE_v2_0\Library\gccCyBLEStack_BLE_SOC_PERIPHERAL.a(config_bin.o)
 .comment       0x000019ea      0x342 D:\program\CY8\PSoC Creator\3.2\PSoC Creator\psoc\content\cycomponentlibrary\CyComponentLibrary.cylib\BLE_v2_0\Library\gccCyBLEStack_BLE_SOC_PERIPHERAL.a(mint_os.o)
 .comment       0x00001d2c      0x34e D:\program\CY8\PSoC Creator\3.2\PSoC Creator\psoc\content\cycomponentlibrary\CyComponentLibrary.cylib\BLE_v2_0\Library\gccCyBLEStack_BLE_SOC_PERIPHERAL.a(mint_os_queue.o)
 .comment       0x0000207a      0x34c D:\program\CY8\PSoC Creator\3.2\PSoC Creator\psoc\content\cycomponentlibrary\CyComponentLibrary.cylib\BLE_v2_0\Library\gccCyBLEStack_BLE_SOC_PERIPHERAL.a(mint_os_task.o)
 .comment       0x000023c6      0x34e D:\program\CY8\PSoC Creator\3.2\PSoC Creator\psoc\content\cycomponentlibrary\CyComponentLibrary.cylib\BLE_v2_0\Library\gccCyBLEStack_BLE_SOC_PERIPHERAL.a(mint_buf_mgmt.o)
 .comment       0x00002714      0x3d1 D:\program\CY8\PSoC Creator\3.2\PSoC Creator\psoc\content\cycomponentlibrary\CyComponentLibrary.cylib\BLE_v2_0\Library\gccCyBLEStack_BLE_SOC_PERIPHERAL.a(CyBleControllerIP_Interface.o)
 .comment       0x00002ae5      0x3a2 D:\program\CY8\PSoC Creator\3.2\PSoC Creator\psoc\content\cycomponentlibrary\CyComponentLibrary.cylib\BLE_v2_0\Library\gccCyBLEStack_BLE_SOC_PERIPHERAL.a(ll.o)
 .comment       0x00002e87      0x3b8 D:\program\CY8\PSoC Creator\3.2\PSoC Creator\psoc\content\cycomponentlibrary\CyComponentLibrary.cylib\BLE_v2_0\Library\gccCyBLEStack_BLE_SOC_PERIPHERAL.a(ll_advertiser.o)
 .comment       0x0000323f      0x3b8 D:\program\CY8\PSoC Creator\3.2\PSoC Creator\psoc\content\cycomponentlibrary\CyComponentLibrary.cylib\BLE_v2_0\Library\gccCyBLEStack_BLE_SOC_PERIPHERAL.a(ll_connection.o)
 .comment       0x000035f7      0x3ad D:\program\CY8\PSoC Creator\3.2\PSoC Creator\psoc\content\cycomponentlibrary\CyComponentLibrary.cylib\BLE_v2_0\Library\gccCyBLEStack_BLE_SOC_PERIPHERAL.a(llh_api.o)
 .comment       0x000039a4      0x3b1 D:\program\CY8\PSoC Creator\3.2\PSoC Creator\psoc\content\cycomponentlibrary\CyComponentLibrary.cylib\BLE_v2_0\Library\gccCyBLEStack_BLE_SOC_PERIPHERAL.a(llh_utils.o)
 .comment       0x00003d55      0x3aa D:\program\CY8\PSoC Creator\3.2\PSoC Creator\psoc\content\cycomponentlibrary\CyComponentLibrary.cylib\BLE_v2_0\Library\gccCyBLEStack_BLE_SOC_PERIPHERAL.a(ll_pdu.o)
 .comment       0x000040ff      0x3b4 D:\program\CY8\PSoC Creator\3.2\PSoC Creator\psoc\content\cycomponentlibrary\CyComponentLibrary.cylib\BLE_v2_0\Library\gccCyBLEStack_BLE_SOC_PERIPHERAL.a(ll_policies.o)
 .comment       0x000044b3      0x3ae D:\program\CY8\PSoC Creator\3.2\PSoC Creator\psoc\content\cycomponentlibrary\CyComponentLibrary.cylib\BLE_v2_0\Library\gccCyBLEStack_BLE_SOC_PERIPHERAL.a(ll_tasks.o)
 .comment       0x00004861      0x3ae D:\program\CY8\PSoC Creator\3.2\PSoC Creator\psoc\content\cycomponentlibrary\CyComponentLibrary.cylib\BLE_v2_0\Library\gccCyBLEStack_BLE_SOC_PERIPHERAL.a(ll_utils.o)
 .comment       0x00004c0f      0x3b4 D:\program\CY8\PSoC Creator\3.2\PSoC Creator\psoc\content\cycomponentlibrary\CyComponentLibrary.cylib\BLE_v2_0\Library\gccCyBLEStack_BLE_SOC_PERIPHERAL.a(llf_task.o)
 .comment       0x00004fc3      0x3b3 D:\program\CY8\PSoC Creator\3.2\PSoC Creator\psoc\content\cycomponentlibrary\CyComponentLibrary.cylib\BLE_v2_0\Library\gccCyBLEStack_BLE_SOC_PERIPHERAL.a(lec_hci_le.o)
 .comment       0x00005376      0x3c5 D:\program\CY8\PSoC Creator\3.2\PSoC Creator\psoc\content\cycomponentlibrary\CyComponentLibrary.cylib\BLE_v2_0\Library\gccCyBLEStack_BLE_SOC_PERIPHERAL.a(lec_hci_le_commands.o)
 .comment       0x0000573b      0x3d3 D:\program\CY8\PSoC Creator\3.2\PSoC Creator\psoc\content\cycomponentlibrary\CyComponentLibrary.cylib\BLE_v2_0\Library\gccCyBLEStack_BLE_SOC_PERIPHERAL.a(lec_hci_le_common_commands.o)
 .comment       0x00005b0e      0x3cf D:\program\CY8\PSoC Creator\3.2\PSoC Creator\psoc\content\cycomponentlibrary\CyComponentLibrary.cylib\BLE_v2_0\Library\gccCyBLEStack_BLE_SOC_PERIPHERAL.a(lec_hci_le_conn_commands.o)
 .comment       0x00005edd      0x3db D:\program\CY8\PSoC Creator\3.2\PSoC Creator\psoc\content\cycomponentlibrary\CyComponentLibrary.cylib\BLE_v2_0\Library\gccCyBLEStack_BLE_SOC_PERIPHERAL.a(lec_hci_le_encryption_commands.o)
 .comment       0x000062b8      0x3bf D:\program\CY8\PSoC Creator\3.2\PSoC Creator\psoc\content\cycomponentlibrary\CyComponentLibrary.cylib\BLE_v2_0\Library\gccCyBLEStack_BLE_SOC_PERIPHERAL.a(lec_hci_le_utils.o)
 .comment       0x00006677      0x3cd D:\program\CY8\PSoC Creator\3.2\PSoC Creator\psoc\content\cycomponentlibrary\CyComponentLibrary.cylib\BLE_v2_0\Library\gccCyBLEStack_BLE_SOC_PERIPHERAL.a(lec_hci_param_converter.o)
 .comment       0x00006a44      0x3cf D:\program\CY8\PSoC Creator\3.2\PSoC Creator\psoc\content\cycomponentlibrary\CyComponentLibrary.cylib\BLE_v2_0\Library\gccCyBLEStack_BLE_SOC_PERIPHERAL.a(lec_hci_param_validation.o)
 .comment       0x00006e13      0x3ae D:\program\CY8\PSoC Creator\3.2\PSoC Creator\psoc\content\cycomponentlibrary\CyComponentLibrary.cylib\BLE_v2_0\Library\gccCyBLEStack_BLE_SOC_PERIPHERAL.a(hci_td.o)
 .comment       0x000071c1      0x3b6 D:\program\CY8\PSoC Creator\3.2\PSoC Creator\psoc\content\cycomponentlibrary\CyComponentLibrary.cylib\BLE_v2_0\Library\gccCyBLEStack_BLE_SOC_PERIPHERAL.a(hci_td_api.o)
 .comment       0x00007577      0x3b8 D:\program\CY8\PSoC Creator\3.2\PSoC Creator\psoc\content\cycomponentlibrary\CyComponentLibrary.cylib\BLE_v2_0\Library\gccCyBLEStack_BLE_SOC_PERIPHERAL.a(hci_td_task.o)
 .comment       0x0000792f      0x569 D:\program\CY8\PSoC Creator\3.2\PSoC Creator\psoc\content\cycomponentlibrary\CyComponentLibrary.cylib\BLE_v2_0\Library\gccCyBLEStack_BLE_SOC_PERIPHERAL.a(host_main.o)
 .comment       0x00007e98      0x569 D:\program\CY8\PSoC Creator\3.2\PSoC Creator\psoc\content\cycomponentlibrary\CyComponentLibrary.cylib\BLE_v2_0\Library\gccCyBLEStack_BLE_SOC_PERIPHERAL.a(att_api.o)
 .comment       0x00008401      0x56b D:\program\CY8\PSoC Creator\3.2\PSoC Creator\psoc\content\cycomponentlibrary\CyComponentLibrary.cylib\BLE_v2_0\Library\gccCyBLEStack_BLE_SOC_PERIPHERAL.a(att_init.o)
 .comment       0x0000896c      0x573 D:\program\CY8\PSoC Creator\3.2\PSoC Creator\psoc\content\cycomponentlibrary\CyComponentLibrary.cylib\BLE_v2_0\Library\gccCyBLEStack_BLE_SOC_PERIPHERAL.a(att_internal.o)
 .comment       0x00008edf      0x570 D:\program\CY8\PSoC Creator\3.2\PSoC Creator\psoc\content\cycomponentlibrary\CyComponentLibrary.cylib\BLE_v2_0\Library\gccCyBLEStack_BLE_SOC_PERIPHERAL.a(BT_common.o)
 .comment       0x0000944f      0x57c D:\program\CY8\PSoC Creator\3.2\PSoC Creator\psoc\content\cycomponentlibrary\CyComponentLibrary.cylib\BLE_v2_0\Library\gccCyBLEStack_BLE_SOC_PERIPHERAL.a(device_queue.o)
 .comment       0x000099cb      0x56b D:\program\CY8\PSoC Creator\3.2\PSoC Creator\psoc\content\cycomponentlibrary\CyComponentLibrary.cylib\BLE_v2_0\Library\gccCyBLEStack_BLE_SOC_PERIPHERAL.a(l2cap.o)
 .comment       0x00009f36      0x581 D:\program\CY8\PSoC Creator\3.2\PSoC Creator\psoc\content\cycomponentlibrary\CyComponentLibrary.cylib\BLE_v2_0\Library\gccCyBLEStack_BLE_SOC_PERIPHERAL.a(l2cap_disconnect.o)
 .comment       0x0000a4b7      0x575 D:\program\CY8\PSoC Creator\3.2\PSoC Creator\psoc\content\cycomponentlibrary\CyComponentLibrary.cylib\BLE_v2_0\Library\gccCyBLEStack_BLE_SOC_PERIPHERAL.a(l2cap_init.o)
 .comment       0x0000aa2c      0x577 D:\program\CY8\PSoC Creator\3.2\PSoC Creator\psoc\content\cycomponentlibrary\CyComponentLibrary.cylib\BLE_v2_0\Library\gccCyBLEStack_BLE_SOC_PERIPHERAL.a(l2cap_utils.o)
 .comment       0x0000afa3      0x573 D:\program\CY8\PSoC Creator\3.2\PSoC Creator\psoc\content\cycomponentlibrary\CyComponentLibrary.cylib\BLE_v2_0\Library\gccCyBLEStack_BLE_SOC_PERIPHERAL.a(l2cap_lmp.o)
 .comment       0x0000b516      0x571 D:\program\CY8\PSoC Creator\3.2\PSoC Creator\psoc\content\cycomponentlibrary\CyComponentLibrary.cylib\BLE_v2_0\Library\gccCyBLEStack_BLE_SOC_PERIPHERAL.a(l2cap_le.o)
 .comment       0x0000ba87      0x587 D:\program\CY8\PSoC Creator\3.2\PSoC Creator\psoc\content\cycomponentlibrary\CyComponentLibrary.cylib\BLE_v2_0\Library\gccCyBLEStack_BLE_SOC_PERIPHERAL.a(l2cap_fixed_channel.o)
 .comment       0x0000c00e      0x57d D:\program\CY8\PSoC Creator\3.2\PSoC Creator\psoc\content\cycomponentlibrary\CyComponentLibrary.cylib\BLE_v2_0\Library\gccCyBLEStack_BLE_SOC_PERIPHERAL.a(l2cap_channels.o)
 .comment       0x0000c58b      0x583 D:\program\CY8\PSoC Creator\3.2\PSoC Creator\psoc\content\cycomponentlibrary\CyComponentLibrary.cylib\BLE_v2_0\Library\gccCyBLEStack_BLE_SOC_PERIPHERAL.a(l2cap_credit_mode.o)
 .comment       0x0000cb0e      0x57b D:\program\CY8\PSoC Creator\3.2\PSoC Creator\psoc\content\cycomponentlibrary\CyComponentLibrary.cylib\BLE_v2_0\Library\gccCyBLEStack_BLE_SOC_PERIPHERAL.a(l2cap_command.o)
 .comment       0x0000d089      0x576 D:\program\CY8\PSoC Creator\3.2\PSoC Creator\psoc\content\cycomponentlibrary\CyComponentLibrary.cylib\BLE_v2_0\Library\gccCyBLEStack_BLE_SOC_PERIPHERAL.a(fsm_engine.o)
 .comment       0x0000d5ff      0x574 D:\program\CY8\PSoC Creator\3.2\PSoC Creator\psoc\content\cycomponentlibrary\CyComponentLibrary.cylib\BLE_v2_0\Library\gccCyBLEStack_BLE_SOC_PERIPHERAL.a(fsm_engine_pl.o)
 .comment       0x0000db73      0x561 D:\program\CY8\PSoC Creator\3.2\PSoC Creator\psoc\content\cycomponentlibrary\CyComponentLibrary.cylib\BLE_v2_0\Library\gccCyBLEStack_BLE_SOC_PERIPHERAL.a(gap.o)
 .comment       0x0000e0d4      0x564 D:\program\CY8\PSoC Creator\3.2\PSoC Creator\psoc\content\cycomponentlibrary\CyComponentLibrary.cylib\BLE_v2_0\Library\gccCyBLEStack_BLE_SOC_PERIPHERAL.a(gatt.o)
 .comment       0x0000e638      0x570 D:\program\CY8\PSoC Creator\3.2\PSoC Creator\psoc\content\cycomponentlibrary\CyComponentLibrary.cylib\BLE_v2_0\Library\gccCyBLEStack_BLE_SOC_PERIPHERAL.a(gattClient.o)
 .comment       0x0000eba8      0x570 D:\program\CY8\PSoC Creator\3.2\PSoC Creator\psoc\content\cycomponentlibrary\CyComponentLibrary.cylib\BLE_v2_0\Library\gccCyBLEStack_BLE_SOC_PERIPHERAL.a(gattServer.o)
 .comment       0x0000f118      0x576 D:\program\CY8\PSoC Creator\3.2\PSoC Creator\psoc\content\cycomponentlibrary\CyComponentLibrary.cylib\BLE_v2_0\Library\gccCyBLEStack_BLE_SOC_PERIPHERAL.a(gattDbHandler.o)
 .comment       0x0000f68e      0x56c D:\program\CY8\PSoC Creator\3.2\PSoC Creator\psoc\content\cycomponentlibrary\CyComponentLibrary.cylib\BLE_v2_0\Library\gccCyBLEStack_BLE_SOC_PERIPHERAL.a(hci_api.o)
 .comment       0x0000fbfa      0x586 D:\program\CY8\PSoC Creator\3.2\PSoC Creator\psoc\content\cycomponentlibrary\CyComponentLibrary.cylib\BLE_v2_0\Library\gccCyBLEStack_BLE_SOC_PERIPHERAL.a(hci_link_control_api.o)
 .comment       0x00010180      0x576 D:\program\CY8\PSoC Creator\3.2\PSoC Creator\psoc\content\cycomponentlibrary\CyComponentLibrary.cylib\BLE_v2_0\Library\gccCyBLEStack_BLE_SOC_PERIPHERAL.a(hci_commands.o)
 .comment       0x000106f6      0x572 D:\program\CY8\PSoC Creator\3.2\PSoC Creator\psoc\content\cycomponentlibrary\CyComponentLibrary.cylib\BLE_v2_0\Library\gccCyBLEStack_BLE_SOC_PERIPHERAL.a(hci_events.o)
 .comment       0x00010c68      0x56e D:\program\CY8\PSoC Creator\3.2\PSoC Creator\psoc\content\cycomponentlibrary\CyComponentLibrary.cylib\BLE_v2_0\Library\gccCyBLEStack_BLE_SOC_PERIPHERAL.a(hci_init.o)
 .comment       0x000111d6      0x572 D:\program\CY8\PSoC Creator\3.2\PSoC Creator\psoc\content\cycomponentlibrary\CyComponentLibrary.cylib\BLE_v2_0\Library\gccCyBLEStack_BLE_SOC_PERIPHERAL.a(hci_le_api.o)
 .comment       0x00011748      0x570 D:\program\CY8\PSoC Creator\3.2\PSoC Creator\psoc\content\cycomponentlibrary\CyComponentLibrary.cylib\BLE_v2_0\Library\gccCyBLEStack_BLE_SOC_PERIPHERAL.a(hci_utils.o)
 .comment       0x00011cb8      0x569 D:\program\CY8\PSoC Creator\3.2\PSoC Creator\psoc\content\cycomponentlibrary\CyComponentLibrary.cylib\BLE_v2_0\Library\gccCyBLEStack_BLE_SOC_PERIPHERAL.a(smp_api.o)
 .comment       0x00012221      0x56b D:\program\CY8\PSoC Creator\3.2\PSoC Creator\psoc\content\cycomponentlibrary\CyComponentLibrary.cylib\BLE_v2_0\Library\gccCyBLEStack_BLE_SOC_PERIPHERAL.a(smp_core.o)
 .comment       0x0001278c      0x56b D:\program\CY8\PSoC Creator\3.2\PSoC Creator\psoc\content\cycomponentlibrary\CyComponentLibrary.cylib\BLE_v2_0\Library\gccCyBLEStack_BLE_SOC_PERIPHERAL.a(smp_init.o)
 .comment       0x00012cf7      0x575 D:\program\CY8\PSoC Creator\3.2\PSoC Creator\psoc\content\cycomponentlibrary\CyComponentLibrary.cylib\BLE_v2_0\Library\gccCyBLEStack_BLE_SOC_PERIPHERAL.a(smp_interface.o)
 .comment       0x0001326c      0x56d D:\program\CY8\PSoC Creator\3.2\PSoC Creator\psoc\content\cycomponentlibrary\CyComponentLibrary.cylib\BLE_v2_0\Library\gccCyBLEStack_BLE_SOC_PERIPHERAL.a(smp_utils.o)
 .comment       0x000137d9      0x577 D:\program\CY8\PSoC Creator\3.2\PSoC Creator\psoc\content\cycomponentlibrary\CyComponentLibrary.cylib\BLE_v2_0\Library\gccCyBLEStack_BLE_SOC_PERIPHERAL.a(smp_fsm_engine.o)
 .comment       0x00013d50      0x575 D:\program\CY8\PSoC Creator\3.2\PSoC Creator\psoc\content\cycomponentlibrary\CyComponentLibrary.cylib\BLE_v2_0\Library\gccCyBLEStack_BLE_SOC_PERIPHERAL.a(smp_fsm_table.o)
 .comment       0x000142c5      0x56d D:\program\CY8\PSoC Creator\3.2\PSoC Creator\psoc\content\cycomponentlibrary\CyComponentLibrary.cylib\BLE_v2_0\Library\gccCyBLEStack_BLE_SOC_PERIPHERAL.a(smp_tools.o)
 .comment       0x00014832      0x571 D:\program\CY8\PSoC Creator\3.2\PSoC Creator\psoc\content\cycomponentlibrary\CyComponentLibrary.cylib\BLE_v2_0\Library\gccCyBLEStack_BLE_SOC_PERIPHERAL.a(smp_psstore.o)
 .comment       0x00014da3      0x576 D:\program\CY8\PSoC Creator\3.2\PSoC Creator\psoc\content\cycomponentlibrary\CyComponentLibrary.cylib\BLE_v2_0\Library\gccCyBLEStack_BLE_SOC_PERIPHERAL.a(write_task.o)
 .comment       0x00015319      0x56c D:\program\CY8\PSoC Creator\3.2\PSoC Creator\psoc\content\cycomponentlibrary\CyComponentLibrary.cylib\BLE_v2_0\Library\gccCyBLEStack_BLE_SOC_PERIPHERAL.a(aes_cmac.o)
 .comment       0x00015885      0x572 D:\program\CY8\PSoC Creator\3.2\PSoC Creator\psoc\content\cycomponentlibrary\CyComponentLibrary.cylib\BLE_v2_0\Library\gccCyBLEStack_BLE_SOC_PERIPHERAL.a(aes_cmac_pl.o)
 .comment       0x00015df7      0x566 D:\program\CY8\PSoC Creator\3.2\PSoC Creator\psoc\content\cycomponentlibrary\CyComponentLibrary.cylib\BLE_v2_0\Library\gccCyBLEStack_BLE_SOC_PERIPHERAL.a(status.o)
 .comment       0x0001635d      0x569 D:\program\CY8\PSoC Creator\3.2\PSoC Creator\psoc\content\cycomponentlibrary\CyComponentLibrary.cylib\BLE_v2_0\Library\gccCyBLEStack_BLE_SOC_PERIPHERAL.a(storage.o)
 .comment       0x000168c6      0x346 D:\program\CY8\PSoC Creator\3.2\PSoC Creator\psoc\content\cycomponentlibrary\CyComponentLibrary.cylib\BLE_v2_0\Library\gccCyBLEStack_BLE_SOC_PERIPHERAL.a(bt_os_common.o)
 .comment       0x00016c0c      0x33e D:\program\CY8\PSoC Creator\3.2\PSoC Creator\psoc\content\cycomponentlibrary\CyComponentLibrary.cylib\BLE_v2_0\Library\gccCyBLEStack_BLE_SOC_PERIPHERAL.a(BT_timer.o)
 .comment       0x00016f4a      0x342 D:\program\CY8\PSoC Creator\3.2\PSoC Creator\psoc\content\cycomponentlibrary\CyComponentLibrary.cylib\BLE_v2_0\Library\gccCyBLEStack_BLE_SOC_PERIPHERAL.a(storage_pl.o)
 .comment       0x0001728c      0x3a8 D:\program\CY8\PSoC Creator\3.2\PSoC Creator\psoc\content\cycomponentlibrary\CyComponentLibrary.cylib\BLE_v2_0\Library\gccCyBLEStack_BLE_SOC_PERIPHERAL.a(drbg.o)
 .comment       0x00017634      0x3b1 D:\program\CY8\PSoC Creator\3.2\PSoC Creator\psoc\content\cycomponentlibrary\CyComponentLibrary.cylib\BLE_v2_0\Library\gccCyBLEStack_BLE_SOC_PERIPHERAL.a(bt_fw_os_al.o)
 .comment       0x000179e5      0x3cd D:\program\CY8\PSoC Creator\3.2\PSoC Creator\psoc\content\cycomponentlibrary\CyComponentLibrary.cylib\BLE_v2_0\Library\gccCyBLEStack_BLE_SOC_PERIPHERAL.a(lec_hci_br_edr_commands.o)
 .comment       0x00017db2      0x3cd D:\program\CY8\PSoC Creator\3.2\PSoC Creator\psoc\content\cycomponentlibrary\CyComponentLibrary.cylib\BLE_v2_0\Library\gccCyBLEStack_BLE_SOC_PERIPHERAL.a(lec_hci_le_adv_commands.o)
 .comment       0x0001817f      0x572 D:\program\CY8\PSoC Creator\3.2\PSoC Creator\psoc\content\cycomponentlibrary\CyComponentLibrary.cylib\BLE_v2_0\Library\gccCyBLEStack_BLE_SOC_PERIPHERAL.a(BT_common_pl.o)
 .comment       0x000186f1      0x578 D:\program\CY8\PSoC Creator\3.2\PSoC Creator\psoc\content\cycomponentlibrary\CyComponentLibrary.cylib\BLE_v2_0\Library\gccCyBLEStack_BLE_SOC_PERIPHERAL.a(device_queue_pl.o)
 .comment       0x00018c69      0x566 D:\program\CY8\PSoC Creator\3.2\PSoC Creator\psoc\content\cycomponentlibrary\CyComponentLibrary.cylib\BLE_v2_0\Library\gccCyBLEStack_BLE_SOC_PERIPHERAL.a(smp_pl.o)
 .comment       0x000191cf      0x575 D:\program\CY8\PSoC Creator\3.2\PSoC Creator\psoc\content\cycomponentlibrary\CyComponentLibrary.cylib\BLE_v2_0\Library\gccCyBLEStack_BLE_SOC_PERIPHERAL.a(att_fsm_table.o)
 .comment       0x00019744      0x57f D:\program\CY8\PSoC Creator\3.2\PSoC Creator\psoc\content\cycomponentlibrary\CyComponentLibrary.cylib\BLE_v2_0\Library\gccCyBLEStack_BLE_SOC_PERIPHERAL.a(l2cap_data_recv.o)
 .comment       0x00019cc3      0x578 D:\program\CY8\PSoC Creator\3.2\PSoC Creator\psoc\content\cycomponentlibrary\CyComponentLibrary.cylib\BLE_v2_0\Library\gccCyBLEStack_BLE_SOC_PERIPHERAL.a(gattDbInternal.o)
 .comment       0x0001a23b      0x580 D:\program\CY8\PSoC Creator\3.2\PSoC Creator\psoc\content\cycomponentlibrary\CyComponentLibrary.cylib\BLE_v2_0\Library\gccCyBLEStack_BLE_SOC_PERIPHERAL.a(hci_command_queue.o)
 .comment       0x0001a7bb      0x574 D:\program\CY8\PSoC Creator\3.2\PSoC Creator\psoc\content\cycomponentlibrary\CyComponentLibrary.cylib\BLE_v2_0\Library\gccCyBLEStack_BLE_SOC_PERIPHERAL.a(hci_connect.o)
 .comment       0x0001ad2f      0x57a D:\program\CY8\PSoC Creator\3.2\PSoC Creator\psoc\content\cycomponentlibrary\CyComponentLibrary.cylib\BLE_v2_0\Library\gccCyBLEStack_BLE_SOC_PERIPHERAL.a(hci_disconnect.o)
 .comment       0x0001b2a9      0x57b D:\program\CY8\PSoC Creator\3.2\PSoC Creator\psoc\content\cycomponentlibrary\CyComponentLibrary.cylib\BLE_v2_0\Library\gccCyBLEStack_BLE_SOC_PERIPHERAL.a(smp_fsm_handlers.o)
 .comment       0x0001b824      0x57b D:\program\CY8\PSoC Creator\3.2\PSoC Creator\psoc\content\cycomponentlibrary\CyComponentLibrary.cylib\BLE_v2_0\Library\gccCyBLEStack_BLE_SOC_PERIPHERAL.a(att_fsm_handlers.o)
 .comment       0x0001bd9f      0x57b D:\program\CY8\PSoC Creator\3.2\PSoC Creator\psoc\content\cycomponentlibrary\CyComponentLibrary.cylib\BLE_v2_0\Library\gccCyBLEStack_BLE_SOC_PERIPHERAL.a(l2cap_connect.o)
 .comment       0x00000000       0x71 .\CortexM0\ARM_GCC_484\Debug\BLE Lab 2.a(BLE_HAL_PVT.o)
 .comment       0x00000000       0x71 .\CortexM0\ARM_GCC_484\Debug\BLE Lab 2.a(BLE_bless_isr.o)
 .comment       0x00000000       0x71 .\CortexM0\ARM_GCC_484\Debug\BLE Lab 2.a(CyFlash.o)
 .comment       0x00000000       0x71 .\CortexM0\ARM_GCC_484\Debug\BLE Lab 2.a(BLE_HAL_INT.o)
 .comment       0x0001c31a      0x3aa D:\program\CY8\PSoC Creator\3.2\PSoC Creator\psoc\content\cycomponentlibrary\CyComponentLibrary.cylib\BLE_v2_0\Library\gccCyBLEStack_BLE_SOC_PERIPHERAL.a(ll_isr.o)

.arm_vfe_header
                0x00000000      0x188
 .arm_vfe_header
                0x00000000        0x4 D:\program\CY8\PSoC Creator\3.2\PSoC Creator\psoc\content\cycomponentlibrary\CyComponentLibrary.cylib\BLE_v2_0\Library\gccCyBLEStack_BLE_SOC_PERIPHERAL.a(CyBle.o)
 .arm_vfe_header
                0x00000004        0x4 D:\program\CY8\PSoC Creator\3.2\PSoC Creator\psoc\content\cycomponentlibrary\CyComponentLibrary.cylib\BLE_v2_0\Library\gccCyBLEStack_BLE_SOC_PERIPHERAL.a(CyBleStackMgrIP_Interface.o)
 .arm_vfe_header
                0x00000008        0x4 D:\program\CY8\PSoC Creator\3.2\PSoC Creator\psoc\content\cycomponentlibrary\CyComponentLibrary.cylib\BLE_v2_0\Library\gccCyBLEStack_BLE_SOC_PERIPHERAL.a(BT_os.o)
 .arm_vfe_header
                0x0000000c        0x4 D:\program\CY8\PSoC Creator\3.2\PSoC Creator\psoc\content\cycomponentlibrary\CyComponentLibrary.cylib\BLE_v2_0\Library\gccCyBLEStack_BLE_SOC_PERIPHERAL.a(CyBleStackMgr_StackTaskHandler.o)
 .arm_vfe_header
                0x00000010        0x4 D:\program\CY8\PSoC Creator\3.2\PSoC Creator\psoc\content\cycomponentlibrary\CyComponentLibrary.cylib\BLE_v2_0\Library\gccCyBLEStack_BLE_SOC_PERIPHERAL.a(transport_sf.o)
 .arm_vfe_header
                0x00000014        0x4 D:\program\CY8\PSoC Creator\3.2\PSoC Creator\psoc\content\cycomponentlibrary\CyComponentLibrary.cylib\BLE_v2_0\Library\gccCyBLEStack_BLE_SOC_PERIPHERAL.a(CyBleStackMgr_PSoCHal.o)
 .arm_vfe_header
                0x00000018        0x4 D:\program\CY8\PSoC Creator\3.2\PSoC Creator\psoc\content\cycomponentlibrary\CyComponentLibrary.cylib\BLE_v2_0\Library\gccCyBLEStack_BLE_SOC_PERIPHERAL.a(CyBleStackMgr_BleSSDriver.o)
 .arm_vfe_header
                0x0000001c        0x4 D:\program\CY8\PSoC Creator\3.2\PSoC Creator\psoc\content\cycomponentlibrary\CyComponentLibrary.cylib\BLE_v2_0\Library\gccCyBLEStack_BLE_SOC_PERIPHERAL.a(config_bin.o)
 .arm_vfe_header
                0x00000020        0x4 D:\program\CY8\PSoC Creator\3.2\PSoC Creator\psoc\content\cycomponentlibrary\CyComponentLibrary.cylib\BLE_v2_0\Library\gccCyBLEStack_BLE_SOC_PERIPHERAL.a(mint_os.o)
 .arm_vfe_header
                0x00000024        0x4 D:\program\CY8\PSoC Creator\3.2\PSoC Creator\psoc\content\cycomponentlibrary\CyComponentLibrary.cylib\BLE_v2_0\Library\gccCyBLEStack_BLE_SOC_PERIPHERAL.a(mint_os_queue.o)
 .arm_vfe_header
                0x00000028        0x4 D:\program\CY8\PSoC Creator\3.2\PSoC Creator\psoc\content\cycomponentlibrary\CyComponentLibrary.cylib\BLE_v2_0\Library\gccCyBLEStack_BLE_SOC_PERIPHERAL.a(mint_os_task.o)
 .arm_vfe_header
                0x0000002c        0x4 D:\program\CY8\PSoC Creator\3.2\PSoC Creator\psoc\content\cycomponentlibrary\CyComponentLibrary.cylib\BLE_v2_0\Library\gccCyBLEStack_BLE_SOC_PERIPHERAL.a(mint_buf_mgmt.o)
 .arm_vfe_header
                0x00000030        0x4 D:\program\CY8\PSoC Creator\3.2\PSoC Creator\psoc\content\cycomponentlibrary\CyComponentLibrary.cylib\BLE_v2_0\Library\gccCyBLEStack_BLE_SOC_PERIPHERAL.a(CyBleControllerIP_Interface.o)
 .arm_vfe_header
                0x00000034        0x4 D:\program\CY8\PSoC Creator\3.2\PSoC Creator\psoc\content\cycomponentlibrary\CyComponentLibrary.cylib\BLE_v2_0\Library\gccCyBLEStack_BLE_SOC_PERIPHERAL.a(ll.o)
 .arm_vfe_header
                0x00000038        0x4 D:\program\CY8\PSoC Creator\3.2\PSoC Creator\psoc\content\cycomponentlibrary\CyComponentLibrary.cylib\BLE_v2_0\Library\gccCyBLEStack_BLE_SOC_PERIPHERAL.a(ll_advertiser.o)
 .arm_vfe_header
                0x0000003c        0x4 D:\program\CY8\PSoC Creator\3.2\PSoC Creator\psoc\content\cycomponentlibrary\CyComponentLibrary.cylib\BLE_v2_0\Library\gccCyBLEStack_BLE_SOC_PERIPHERAL.a(ll_connection.o)
 .arm_vfe_header
                0x00000040        0x4 D:\program\CY8\PSoC Creator\3.2\PSoC Creator\psoc\content\cycomponentlibrary\CyComponentLibrary.cylib\BLE_v2_0\Library\gccCyBLEStack_BLE_SOC_PERIPHERAL.a(llh_api.o)
 .arm_vfe_header
                0x00000044        0x4 D:\program\CY8\PSoC Creator\3.2\PSoC Creator\psoc\content\cycomponentlibrary\CyComponentLibrary.cylib\BLE_v2_0\Library\gccCyBLEStack_BLE_SOC_PERIPHERAL.a(llh_utils.o)
 .arm_vfe_header
                0x00000048        0x4 D:\program\CY8\PSoC Creator\3.2\PSoC Creator\psoc\content\cycomponentlibrary\CyComponentLibrary.cylib\BLE_v2_0\Library\gccCyBLEStack_BLE_SOC_PERIPHERAL.a(ll_pdu.o)
 .arm_vfe_header
                0x0000004c        0x4 D:\program\CY8\PSoC Creator\3.2\PSoC Creator\psoc\content\cycomponentlibrary\CyComponentLibrary.cylib\BLE_v2_0\Library\gccCyBLEStack_BLE_SOC_PERIPHERAL.a(ll_policies.o)
 .arm_vfe_header
                0x00000050        0x4 D:\program\CY8\PSoC Creator\3.2\PSoC Creator\psoc\content\cycomponentlibrary\CyComponentLibrary.cylib\BLE_v2_0\Library\gccCyBLEStack_BLE_SOC_PERIPHERAL.a(ll_tasks.o)
 .arm_vfe_header
                0x00000054        0x4 D:\program\CY8\PSoC Creator\3.2\PSoC Creator\psoc\content\cycomponentlibrary\CyComponentLibrary.cylib\BLE_v2_0\Library\gccCyBLEStack_BLE_SOC_PERIPHERAL.a(ll_utils.o)
 .arm_vfe_header
                0x00000058        0x4 D:\program\CY8\PSoC Creator\3.2\PSoC Creator\psoc\content\cycomponentlibrary\CyComponentLibrary.cylib\BLE_v2_0\Library\gccCyBLEStack_BLE_SOC_PERIPHERAL.a(llf_task.o)
 .arm_vfe_header
                0x0000005c        0x4 D:\program\CY8\PSoC Creator\3.2\PSoC Creator\psoc\content\cycomponentlibrary\CyComponentLibrary.cylib\BLE_v2_0\Library\gccCyBLEStack_BLE_SOC_PERIPHERAL.a(lec_hci_le.o)
 .arm_vfe_header
                0x00000060        0x4 D:\program\CY8\PSoC Creator\3.2\PSoC Creator\psoc\content\cycomponentlibrary\CyComponentLibrary.cylib\BLE_v2_0\Library\gccCyBLEStack_BLE_SOC_PERIPHERAL.a(lec_hci_le_commands.o)
 .arm_vfe_header
                0x00000064        0x4 D:\program\CY8\PSoC Creator\3.2\PSoC Creator\psoc\content\cycomponentlibrary\CyComponentLibrary.cylib\BLE_v2_0\Library\gccCyBLEStack_BLE_SOC_PERIPHERAL.a(lec_hci_le_common_commands.o)
 .arm_vfe_header
                0x00000068        0x4 D:\program\CY8\PSoC Creator\3.2\PSoC Creator\psoc\content\cycomponentlibrary\CyComponentLibrary.cylib\BLE_v2_0\Library\gccCyBLEStack_BLE_SOC_PERIPHERAL.a(lec_hci_le_conn_commands.o)
 .arm_vfe_header
                0x0000006c        0x4 D:\program\CY8\PSoC Creator\3.2\PSoC Creator\psoc\content\cycomponentlibrary\CyComponentLibrary.cylib\BLE_v2_0\Library\gccCyBLEStack_BLE_SOC_PERIPHERAL.a(lec_hci_le_encryption_commands.o)
 .arm_vfe_header
                0x00000070        0x4 D:\program\CY8\PSoC Creator\3.2\PSoC Creator\psoc\content\cycomponentlibrary\CyComponentLibrary.cylib\BLE_v2_0\Library\gccCyBLEStack_BLE_SOC_PERIPHERAL.a(lec_hci_le_utils.o)
 .arm_vfe_header
                0x00000074        0x4 D:\program\CY8\PSoC Creator\3.2\PSoC Creator\psoc\content\cycomponentlibrary\CyComponentLibrary.cylib\BLE_v2_0\Library\gccCyBLEStack_BLE_SOC_PERIPHERAL.a(lec_hci_param_converter.o)
 .arm_vfe_header
                0x00000078        0x4 D:\program\CY8\PSoC Creator\3.2\PSoC Creator\psoc\content\cycomponentlibrary\CyComponentLibrary.cylib\BLE_v2_0\Library\gccCyBLEStack_BLE_SOC_PERIPHERAL.a(lec_hci_param_validation.o)
 .arm_vfe_header
                0x0000007c        0x4 D:\program\CY8\PSoC Creator\3.2\PSoC Creator\psoc\content\cycomponentlibrary\CyComponentLibrary.cylib\BLE_v2_0\Library\gccCyBLEStack_BLE_SOC_PERIPHERAL.a(hci_td.o)
 .arm_vfe_header
                0x00000080        0x4 D:\program\CY8\PSoC Creator\3.2\PSoC Creator\psoc\content\cycomponentlibrary\CyComponentLibrary.cylib\BLE_v2_0\Library\gccCyBLEStack_BLE_SOC_PERIPHERAL.a(hci_td_api.o)
 .arm_vfe_header
                0x00000084        0x4 D:\program\CY8\PSoC Creator\3.2\PSoC Creator\psoc\content\cycomponentlibrary\CyComponentLibrary.cylib\BLE_v2_0\Library\gccCyBLEStack_BLE_SOC_PERIPHERAL.a(hci_td_task.o)
 .arm_vfe_header
                0x00000088        0x4 D:\program\CY8\PSoC Creator\3.2\PSoC Creator\psoc\content\cycomponentlibrary\CyComponentLibrary.cylib\BLE_v2_0\Library\gccCyBLEStack_BLE_SOC_PERIPHERAL.a(host_main.o)
 .arm_vfe_header
                0x0000008c        0x4 D:\program\CY8\PSoC Creator\3.2\PSoC Creator\psoc\content\cycomponentlibrary\CyComponentLibrary.cylib\BLE_v2_0\Library\gccCyBLEStack_BLE_SOC_PERIPHERAL.a(att_api.o)
 .arm_vfe_header
                0x00000090        0x4 D:\program\CY8\PSoC Creator\3.2\PSoC Creator\psoc\content\cycomponentlibrary\CyComponentLibrary.cylib\BLE_v2_0\Library\gccCyBLEStack_BLE_SOC_PERIPHERAL.a(att_init.o)
 .arm_vfe_header
                0x00000094        0x4 D:\program\CY8\PSoC Creator\3.2\PSoC Creator\psoc\content\cycomponentlibrary\CyComponentLibrary.cylib\BLE_v2_0\Library\gccCyBLEStack_BLE_SOC_PERIPHERAL.a(att_internal.o)
 .arm_vfe_header
                0x00000098        0x4 D:\program\CY8\PSoC Creator\3.2\PSoC Creator\psoc\content\cycomponentlibrary\CyComponentLibrary.cylib\BLE_v2_0\Library\gccCyBLEStack_BLE_SOC_PERIPHERAL.a(BT_common.o)
 .arm_vfe_header
                0x0000009c        0x4 D:\program\CY8\PSoC Creator\3.2\PSoC Creator\psoc\content\cycomponentlibrary\CyComponentLibrary.cylib\BLE_v2_0\Library\gccCyBLEStack_BLE_SOC_PERIPHERAL.a(device_queue.o)
 .arm_vfe_header
                0x000000a0        0x4 D:\program\CY8\PSoC Creator\3.2\PSoC Creator\psoc\content\cycomponentlibrary\CyComponentLibrary.cylib\BLE_v2_0\Library\gccCyBLEStack_BLE_SOC_PERIPHERAL.a(l2cap.o)
 .arm_vfe_header
                0x000000a4        0x4 D:\program\CY8\PSoC Creator\3.2\PSoC Creator\psoc\content\cycomponentlibrary\CyComponentLibrary.cylib\BLE_v2_0\Library\gccCyBLEStack_BLE_SOC_PERIPHERAL.a(l2cap_disconnect.o)
 .arm_vfe_header
                0x000000a8        0x4 D:\program\CY8\PSoC Creator\3.2\PSoC Creator\psoc\content\cycomponentlibrary\CyComponentLibrary.cylib\BLE_v2_0\Library\gccCyBLEStack_BLE_SOC_PERIPHERAL.a(l2cap_init.o)
 .arm_vfe_header
                0x000000ac        0x4 D:\program\CY8\PSoC Creator\3.2\PSoC Creator\psoc\content\cycomponentlibrary\CyComponentLibrary.cylib\BLE_v2_0\Library\gccCyBLEStack_BLE_SOC_PERIPHERAL.a(l2cap_utils.o)
 .arm_vfe_header
                0x000000b0        0x4 D:\program\CY8\PSoC Creator\3.2\PSoC Creator\psoc\content\cycomponentlibrary\CyComponentLibrary.cylib\BLE_v2_0\Library\gccCyBLEStack_BLE_SOC_PERIPHERAL.a(l2cap_lmp.o)
 .arm_vfe_header
                0x000000b4        0x4 D:\program\CY8\PSoC Creator\3.2\PSoC Creator\psoc\content\cycomponentlibrary\CyComponentLibrary.cylib\BLE_v2_0\Library\gccCyBLEStack_BLE_SOC_PERIPHERAL.a(l2cap_le.o)
 .arm_vfe_header
                0x000000b8        0x4 D:\program\CY8\PSoC Creator\3.2\PSoC Creator\psoc\content\cycomponentlibrary\CyComponentLibrary.cylib\BLE_v2_0\Library\gccCyBLEStack_BLE_SOC_PERIPHERAL.a(l2cap_fixed_channel.o)
 .arm_vfe_header
                0x000000bc        0x4 D:\program\CY8\PSoC Creator\3.2\PSoC Creator\psoc\content\cycomponentlibrary\CyComponentLibrary.cylib\BLE_v2_0\Library\gccCyBLEStack_BLE_SOC_PERIPHERAL.a(l2cap_channels.o)
 .arm_vfe_header
                0x000000c0        0x4 D:\program\CY8\PSoC Creator\3.2\PSoC Creator\psoc\content\cycomponentlibrary\CyComponentLibrary.cylib\BLE_v2_0\Library\gccCyBLEStack_BLE_SOC_PERIPHERAL.a(l2cap_credit_mode.o)
 .arm_vfe_header
                0x000000c4        0x4 D:\program\CY8\PSoC Creator\3.2\PSoC Creator\psoc\content\cycomponentlibrary\CyComponentLibrary.cylib\BLE_v2_0\Library\gccCyBLEStack_BLE_SOC_PERIPHERAL.a(l2cap_command.o)
 .arm_vfe_header
                0x000000c8        0x4 D:\program\CY8\PSoC Creator\3.2\PSoC Creator\psoc\content\cycomponentlibrary\CyComponentLibrary.cylib\BLE_v2_0\Library\gccCyBLEStack_BLE_SOC_PERIPHERAL.a(fsm_engine.o)
 .arm_vfe_header
                0x000000cc        0x4 D:\program\CY8\PSoC Creator\3.2\PSoC Creator\psoc\content\cycomponentlibrary\CyComponentLibrary.cylib\BLE_v2_0\Library\gccCyBLEStack_BLE_SOC_PERIPHERAL.a(fsm_engine_pl.o)
 .arm_vfe_header
                0x000000d0        0x4 D:\program\CY8\PSoC Creator\3.2\PSoC Creator\psoc\content\cycomponentlibrary\CyComponentLibrary.cylib\BLE_v2_0\Library\gccCyBLEStack_BLE_SOC_PERIPHERAL.a(gap.o)
 .arm_vfe_header
                0x000000d4        0x4 D:\program\CY8\PSoC Creator\3.2\PSoC Creator\psoc\content\cycomponentlibrary\CyComponentLibrary.cylib\BLE_v2_0\Library\gccCyBLEStack_BLE_SOC_PERIPHERAL.a(gatt.o)
 .arm_vfe_header
                0x000000d8        0x4 D:\program\CY8\PSoC Creator\3.2\PSoC Creator\psoc\content\cycomponentlibrary\CyComponentLibrary.cylib\BLE_v2_0\Library\gccCyBLEStack_BLE_SOC_PERIPHERAL.a(gattClient.o)
 .arm_vfe_header
                0x000000dc        0x4 D:\program\CY8\PSoC Creator\3.2\PSoC Creator\psoc\content\cycomponentlibrary\CyComponentLibrary.cylib\BLE_v2_0\Library\gccCyBLEStack_BLE_SOC_PERIPHERAL.a(gattServer.o)
 .arm_vfe_header
                0x000000e0        0x4 D:\program\CY8\PSoC Creator\3.2\PSoC Creator\psoc\content\cycomponentlibrary\CyComponentLibrary.cylib\BLE_v2_0\Library\gccCyBLEStack_BLE_SOC_PERIPHERAL.a(gattDbHandler.o)
 .arm_vfe_header
                0x000000e4        0x4 D:\program\CY8\PSoC Creator\3.2\PSoC Creator\psoc\content\cycomponentlibrary\CyComponentLibrary.cylib\BLE_v2_0\Library\gccCyBLEStack_BLE_SOC_PERIPHERAL.a(hci_api.o)
 .arm_vfe_header
                0x000000e8        0x4 D:\program\CY8\PSoC Creator\3.2\PSoC Creator\psoc\content\cycomponentlibrary\CyComponentLibrary.cylib\BLE_v2_0\Library\gccCyBLEStack_BLE_SOC_PERIPHERAL.a(hci_link_control_api.o)
 .arm_vfe_header
                0x000000ec        0x4 D:\program\CY8\PSoC Creator\3.2\PSoC Creator\psoc\content\cycomponentlibrary\CyComponentLibrary.cylib\BLE_v2_0\Library\gccCyBLEStack_BLE_SOC_PERIPHERAL.a(hci_commands.o)
 .arm_vfe_header
                0x000000f0        0x4 D:\program\CY8\PSoC Creator\3.2\PSoC Creator\psoc\content\cycomponentlibrary\CyComponentLibrary.cylib\BLE_v2_0\Library\gccCyBLEStack_BLE_SOC_PERIPHERAL.a(hci_events.o)
 .arm_vfe_header
                0x000000f4        0x4 D:\program\CY8\PSoC Creator\3.2\PSoC Creator\psoc\content\cycomponentlibrary\CyComponentLibrary.cylib\BLE_v2_0\Library\gccCyBLEStack_BLE_SOC_PERIPHERAL.a(hci_init.o)
 .arm_vfe_header
                0x000000f8        0x4 D:\program\CY8\PSoC Creator\3.2\PSoC Creator\psoc\content\cycomponentlibrary\CyComponentLibrary.cylib\BLE_v2_0\Library\gccCyBLEStack_BLE_SOC_PERIPHERAL.a(hci_le_api.o)
 .arm_vfe_header
                0x000000fc        0x4 D:\program\CY8\PSoC Creator\3.2\PSoC Creator\psoc\content\cycomponentlibrary\CyComponentLibrary.cylib\BLE_v2_0\Library\gccCyBLEStack_BLE_SOC_PERIPHERAL.a(hci_utils.o)
 .arm_vfe_header
                0x00000100        0x4 D:\program\CY8\PSoC Creator\3.2\PSoC Creator\psoc\content\cycomponentlibrary\CyComponentLibrary.cylib\BLE_v2_0\Library\gccCyBLEStack_BLE_SOC_PERIPHERAL.a(smp_api.o)
 .arm_vfe_header
                0x00000104        0x4 D:\program\CY8\PSoC Creator\3.2\PSoC Creator\psoc\content\cycomponentlibrary\CyComponentLibrary.cylib\BLE_v2_0\Library\gccCyBLEStack_BLE_SOC_PERIPHERAL.a(smp_core.o)
 .arm_vfe_header
                0x00000108        0x4 D:\program\CY8\PSoC Creator\3.2\PSoC Creator\psoc\content\cycomponentlibrary\CyComponentLibrary.cylib\BLE_v2_0\Library\gccCyBLEStack_BLE_SOC_PERIPHERAL.a(smp_init.o)
 .arm_vfe_header
                0x0000010c        0x4 D:\program\CY8\PSoC Creator\3.2\PSoC Creator\psoc\content\cycomponentlibrary\CyComponentLibrary.cylib\BLE_v2_0\Library\gccCyBLEStack_BLE_SOC_PERIPHERAL.a(smp_interface.o)
 .arm_vfe_header
                0x00000110        0x4 D:\program\CY8\PSoC Creator\3.2\PSoC Creator\psoc\content\cycomponentlibrary\CyComponentLibrary.cylib\BLE_v2_0\Library\gccCyBLEStack_BLE_SOC_PERIPHERAL.a(smp_utils.o)
 .arm_vfe_header
                0x00000114        0x4 D:\program\CY8\PSoC Creator\3.2\PSoC Creator\psoc\content\cycomponentlibrary\CyComponentLibrary.cylib\BLE_v2_0\Library\gccCyBLEStack_BLE_SOC_PERIPHERAL.a(smp_fsm_engine.o)
 .arm_vfe_header
                0x00000118        0x4 D:\program\CY8\PSoC Creator\3.2\PSoC Creator\psoc\content\cycomponentlibrary\CyComponentLibrary.cylib\BLE_v2_0\Library\gccCyBLEStack_BLE_SOC_PERIPHERAL.a(smp_fsm_table.o)
 .arm_vfe_header
                0x0000011c        0x4 D:\program\CY8\PSoC Creator\3.2\PSoC Creator\psoc\content\cycomponentlibrary\CyComponentLibrary.cylib\BLE_v2_0\Library\gccCyBLEStack_BLE_SOC_PERIPHERAL.a(smp_tools.o)
 .arm_vfe_header
                0x00000120        0x4 D:\program\CY8\PSoC Creator\3.2\PSoC Creator\psoc\content\cycomponentlibrary\CyComponentLibrary.cylib\BLE_v2_0\Library\gccCyBLEStack_BLE_SOC_PERIPHERAL.a(smp_psstore.o)
 .arm_vfe_header
                0x00000124        0x4 D:\program\CY8\PSoC Creator\3.2\PSoC Creator\psoc\content\cycomponentlibrary\CyComponentLibrary.cylib\BLE_v2_0\Library\gccCyBLEStack_BLE_SOC_PERIPHERAL.a(write_task.o)
 .arm_vfe_header
                0x00000128        0x4 D:\program\CY8\PSoC Creator\3.2\PSoC Creator\psoc\content\cycomponentlibrary\CyComponentLibrary.cylib\BLE_v2_0\Library\gccCyBLEStack_BLE_SOC_PERIPHERAL.a(aes_cmac.o)
 .arm_vfe_header
                0x0000012c        0x4 D:\program\CY8\PSoC Creator\3.2\PSoC Creator\psoc\content\cycomponentlibrary\CyComponentLibrary.cylib\BLE_v2_0\Library\gccCyBLEStack_BLE_SOC_PERIPHERAL.a(aes_cmac_pl.o)
 .arm_vfe_header
                0x00000130        0x4 D:\program\CY8\PSoC Creator\3.2\PSoC Creator\psoc\content\cycomponentlibrary\CyComponentLibrary.cylib\BLE_v2_0\Library\gccCyBLEStack_BLE_SOC_PERIPHERAL.a(status.o)
 .arm_vfe_header
                0x00000134        0x4 D:\program\CY8\PSoC Creator\3.2\PSoC Creator\psoc\content\cycomponentlibrary\CyComponentLibrary.cylib\BLE_v2_0\Library\gccCyBLEStack_BLE_SOC_PERIPHERAL.a(storage.o)
 .arm_vfe_header
                0x00000138        0x4 D:\program\CY8\PSoC Creator\3.2\PSoC Creator\psoc\content\cycomponentlibrary\CyComponentLibrary.cylib\BLE_v2_0\Library\gccCyBLEStack_BLE_SOC_PERIPHERAL.a(bt_os_common.o)
 .arm_vfe_header
                0x0000013c        0x4 D:\program\CY8\PSoC Creator\3.2\PSoC Creator\psoc\content\cycomponentlibrary\CyComponentLibrary.cylib\BLE_v2_0\Library\gccCyBLEStack_BLE_SOC_PERIPHERAL.a(BT_timer.o)
 .arm_vfe_header
                0x00000140        0x4 D:\program\CY8\PSoC Creator\3.2\PSoC Creator\psoc\content\cycomponentlibrary\CyComponentLibrary.cylib\BLE_v2_0\Library\gccCyBLEStack_BLE_SOC_PERIPHERAL.a(storage_pl.o)
 .arm_vfe_header
                0x00000144        0x4 D:\program\CY8\PSoC Creator\3.2\PSoC Creator\psoc\content\cycomponentlibrary\CyComponentLibrary.cylib\BLE_v2_0\Library\gccCyBLEStack_BLE_SOC_PERIPHERAL.a(drbg.o)
 .arm_vfe_header
                0x00000148        0x4 D:\program\CY8\PSoC Creator\3.2\PSoC Creator\psoc\content\cycomponentlibrary\CyComponentLibrary.cylib\BLE_v2_0\Library\gccCyBLEStack_BLE_SOC_PERIPHERAL.a(bt_fw_os_al.o)
 .arm_vfe_header
                0x0000014c        0x4 D:\program\CY8\PSoC Creator\3.2\PSoC Creator\psoc\content\cycomponentlibrary\CyComponentLibrary.cylib\BLE_v2_0\Library\gccCyBLEStack_BLE_SOC_PERIPHERAL.a(lec_hci_br_edr_commands.o)
 .arm_vfe_header
                0x00000150        0x4 D:\program\CY8\PSoC Creator\3.2\PSoC Creator\psoc\content\cycomponentlibrary\CyComponentLibrary.cylib\BLE_v2_0\Library\gccCyBLEStack_BLE_SOC_PERIPHERAL.a(lec_hci_le_adv_commands.o)
 .arm_vfe_header
                0x00000154        0x4 D:\program\CY8\PSoC Creator\3.2\PSoC Creator\psoc\content\cycomponentlibrary\CyComponentLibrary.cylib\BLE_v2_0\Library\gccCyBLEStack_BLE_SOC_PERIPHERAL.a(BT_common_pl.o)
 .arm_vfe_header
                0x00000158        0x4 D:\program\CY8\PSoC Creator\3.2\PSoC Creator\psoc\content\cycomponentlibrary\CyComponentLibrary.cylib\BLE_v2_0\Library\gccCyBLEStack_BLE_SOC_PERIPHERAL.a(device_queue_pl.o)
 .arm_vfe_header
                0x0000015c        0x4 D:\program\CY8\PSoC Creator\3.2\PSoC Creator\psoc\content\cycomponentlibrary\CyComponentLibrary.cylib\BLE_v2_0\Library\gccCyBLEStack_BLE_SOC_PERIPHERAL.a(smp_pl.o)
 .arm_vfe_header
                0x00000160        0x4 D:\program\CY8\PSoC Creator\3.2\PSoC Creator\psoc\content\cycomponentlibrary\CyComponentLibrary.cylib\BLE_v2_0\Library\gccCyBLEStack_BLE_SOC_PERIPHERAL.a(att_fsm_table.o)
 .arm_vfe_header
                0x00000164        0x4 D:\program\CY8\PSoC Creator\3.2\PSoC Creator\psoc\content\cycomponentlibrary\CyComponentLibrary.cylib\BLE_v2_0\Library\gccCyBLEStack_BLE_SOC_PERIPHERAL.a(l2cap_data_recv.o)
 .arm_vfe_header
                0x00000168        0x4 D:\program\CY8\PSoC Creator\3.2\PSoC Creator\psoc\content\cycomponentlibrary\CyComponentLibrary.cylib\BLE_v2_0\Library\gccCyBLEStack_BLE_SOC_PERIPHERAL.a(gattDbInternal.o)
 .arm_vfe_header
                0x0000016c        0x4 D:\program\CY8\PSoC Creator\3.2\PSoC Creator\psoc\content\cycomponentlibrary\CyComponentLibrary.cylib\BLE_v2_0\Library\gccCyBLEStack_BLE_SOC_PERIPHERAL.a(hci_command_queue.o)
 .arm_vfe_header
                0x00000170        0x4 D:\program\CY8\PSoC Creator\3.2\PSoC Creator\psoc\content\cycomponentlibrary\CyComponentLibrary.cylib\BLE_v2_0\Library\gccCyBLEStack_BLE_SOC_PERIPHERAL.a(hci_connect.o)
 .arm_vfe_header
                0x00000174        0x4 D:\program\CY8\PSoC Creator\3.2\PSoC Creator\psoc\content\cycomponentlibrary\CyComponentLibrary.cylib\BLE_v2_0\Library\gccCyBLEStack_BLE_SOC_PERIPHERAL.a(hci_disconnect.o)
 .arm_vfe_header
                0x00000178        0x4 D:\program\CY8\PSoC Creator\3.2\PSoC Creator\psoc\content\cycomponentlibrary\CyComponentLibrary.cylib\BLE_v2_0\Library\gccCyBLEStack_BLE_SOC_PERIPHERAL.a(smp_fsm_handlers.o)
 .arm_vfe_header
                0x0000017c        0x4 D:\program\CY8\PSoC Creator\3.2\PSoC Creator\psoc\content\cycomponentlibrary\CyComponentLibrary.cylib\BLE_v2_0\Library\gccCyBLEStack_BLE_SOC_PERIPHERAL.a(att_fsm_handlers.o)
 .arm_vfe_header
                0x00000180        0x4 D:\program\CY8\PSoC Creator\3.2\PSoC Creator\psoc\content\cycomponentlibrary\CyComponentLibrary.cylib\BLE_v2_0\Library\gccCyBLEStack_BLE_SOC_PERIPHERAL.a(l2cap_connect.o)
 .arm_vfe_header
                0x00000184        0x4 D:\program\CY8\PSoC Creator\3.2\PSoC Creator\psoc\content\cycomponentlibrary\CyComponentLibrary.cylib\BLE_v2_0\Library\gccCyBLEStack_BLE_SOC_PERIPHERAL.a(ll_isr.o)

.debug_weaknames
 *(.debug_weaknames)

.debug_funcnames
 *(.debug_funcnames)

.debug_typenames
 *(.debug_typenames)

.debug_varnames
 *(.debug_varnames)

.note.gnu.arm.ident
 *(.note.gnu.arm.ident)

.ARM.attributes
                0x00000000       0x2a
 *(.ARM.attributes)
 .ARM.attributes
                0x00000000       0x1e d:/program/cy8/psoc creator/3.2/psoc creator/import/gnu/arm/4.8.4/bin/../lib/gcc/arm-none-eabi/4.8.4/armv6-m/crti.o
 .ARM.attributes
                0x0000001e       0x2c d:/program/cy8/psoc creator/3.2/psoc creator/import/gnu/arm/4.8.4/bin/../lib/gcc/arm-none-eabi/4.8.4/armv6-m/crtbegin.o
 .ARM.attributes
                0x0000004a       0x1b d:/program/cy8/psoc creator/3.2/psoc creator/import/gnu/arm/4.8.4/bin/../lib/gcc/arm-none-eabi/4.8.4/../../../../arm-none-eabi/lib/armv6-m/crt0.o
 .ARM.attributes
                0x00000065       0x31 .\CortexM0\ARM_GCC_484\Debug\main.o
 .ARM.attributes
                0x00000096       0x31 .\CortexM0\ARM_GCC_484\Debug\HeartRateProcessing.o
 .ARM.attributes
                0x000000c7       0x31 .\CortexM0\ARM_GCC_484\Debug\BleProcessing.o
 .ARM.attributes
                0x000000f8       0x31 .\CortexM0\ARM_GCC_484\Debug\WatchdogTimer.o
 .ARM.attributes
                0x00000129       0x31 .\CortexM0\ARM_GCC_484\Debug\cymetadata.o
 .ARM.attributes
                0x0000015a       0x31 .\CortexM0\ARM_GCC_484\Debug\Cm0Start.o
 .ARM.attributes
                0x0000018b       0x31 .\CortexM0\ARM_GCC_484\Debug\BLE Lab 2.a(cyfitter_cfg.o)
 .ARM.attributes
                0x000001bc       0x31 .\CortexM0\ARM_GCC_484\Debug\BLE Lab 2.a(SW2_Switch.o)
 .ARM.attributes
                0x000001ed       0x31 .\CortexM0\ARM_GCC_484\Debug\BLE Lab 2.a(Wakeup_ISR.o)
 .ARM.attributes
                0x0000021e       0x31 .\CortexM0\ARM_GCC_484\Debug\BLE Lab 2.a(Led_Advertising_Green.o)
 .ARM.attributes
                0x0000024f       0x31 .\CortexM0\ARM_GCC_484\Debug\BLE Lab 2.a(Led_Connected_Blue.o)
 .ARM.attributes
                0x00000280       0x31 .\CortexM0\ARM_GCC_484\Debug\BLE Lab 2.a(BLE_hrs.o)
 .ARM.attributes
                0x000002b1       0x31 .\CortexM0\ARM_GCC_484\Debug\BLE Lab 2.a(BLE.o)
 .ARM.attributes
                0x000002e2       0x31 .\CortexM0\ARM_GCC_484\Debug\BLE Lab 2.a(BLE_gatt.o)
 .ARM.attributes
                0x00000313       0x31 .\CortexM0\ARM_GCC_484\Debug\BLE Lab 2.a(BLE_eventHandler.o)
 .ARM.attributes
                0x00000344       0x31 .\CortexM0\ARM_GCC_484\Debug\BLE Lab 2.a(BLE_dis.o)
 .ARM.attributes
                0x00000375       0x31 .\CortexM0\ARM_GCC_484\Debug\BLE Lab 2.a(Opamp.o)
 .ARM.attributes
                0x000003a6       0x31 .\CortexM0\ARM_GCC_484\Debug\BLE Lab 2.a(Opamp_PM.o)
 .ARM.attributes
                0x000003d7       0x31 .\CortexM0\ARM_GCC_484\Debug\BLE Lab 2.a(ADC.o)
 .ARM.attributes
                0x00000408       0x31 .\CortexM0\ARM_GCC_484\Debug\BLE Lab 2.a(ADC_PM.o)
 .ARM.attributes
                0x00000439       0x31 .\CortexM0\ARM_GCC_484\Debug\BLE Lab 2.a(ADC_INT.o)
 .ARM.attributes
                0x0000046a       0x21 .\CortexM0\ARM_GCC_484\Debug\BLE Lab 2.a(CyBootAsmGnu.o)
 .ARM.attributes
                0x0000048b       0x31 .\CortexM0\ARM_GCC_484\Debug\BLE Lab 2.a(CyLib.o)
 .ARM.attributes
                0x000004bc       0x31 .\CortexM0\ARM_GCC_484\Debug\BLE Lab 2.a(cyPm.o)
 .ARM.attributes
                0x000004ed       0x31 .\CortexM0\ARM_GCC_484\Debug\BLE Lab 2.a(CyLFClk.o)
 .ARM.attributes
                0x0000051e       0x44 D:\program\CY8\PSoC Creator\3.2\PSoC Creator\psoc\content\cycomponentlibrary\CyComponentLibrary.cylib\BLE_v2_0\Library\gccCyBLEStack_BLE_SOC_PERIPHERAL.a(CyBle.o)
 .ARM.attributes
                0x00000562       0x44 D:\program\CY8\PSoC Creator\3.2\PSoC Creator\psoc\content\cycomponentlibrary\CyComponentLibrary.cylib\BLE_v2_0\Library\gccCyBLEStack_BLE_SOC_PERIPHERAL.a(CyBleStackMgrIP_Interface.o)
 .ARM.attributes
                0x000005a6       0x44 D:\program\CY8\PSoC Creator\3.2\PSoC Creator\psoc\content\cycomponentlibrary\CyComponentLibrary.cylib\BLE_v2_0\Library\gccCyBLEStack_BLE_SOC_PERIPHERAL.a(BT_os.o)
 .ARM.attributes
                0x000005ea       0x44 D:\program\CY8\PSoC Creator\3.2\PSoC Creator\psoc\content\cycomponentlibrary\CyComponentLibrary.cylib\BLE_v2_0\Library\gccCyBLEStack_BLE_SOC_PERIPHERAL.a(CyBleStackMgr_StackTaskHandler.o)
 .ARM.attributes
                0x0000062e       0x44 D:\program\CY8\PSoC Creator\3.2\PSoC Creator\psoc\content\cycomponentlibrary\CyComponentLibrary.cylib\BLE_v2_0\Library\gccCyBLEStack_BLE_SOC_PERIPHERAL.a(transport_sf.o)
 .ARM.attributes
                0x00000672       0x44 D:\program\CY8\PSoC Creator\3.2\PSoC Creator\psoc\content\cycomponentlibrary\CyComponentLibrary.cylib\BLE_v2_0\Library\gccCyBLEStack_BLE_SOC_PERIPHERAL.a(CyBleStackMgr_PSoCHal.o)
 .ARM.attributes
                0x000006b6       0x44 D:\program\CY8\PSoC Creator\3.2\PSoC Creator\psoc\content\cycomponentlibrary\CyComponentLibrary.cylib\BLE_v2_0\Library\gccCyBLEStack_BLE_SOC_PERIPHERAL.a(CyBleStackMgr_BleSSDriver.o)
 .ARM.attributes
                0x000006fa       0x44 D:\program\CY8\PSoC Creator\3.2\PSoC Creator\psoc\content\cycomponentlibrary\CyComponentLibrary.cylib\BLE_v2_0\Library\gccCyBLEStack_BLE_SOC_PERIPHERAL.a(config_bin.o)
 .ARM.attributes
                0x0000073e       0x44 D:\program\CY8\PSoC Creator\3.2\PSoC Creator\psoc\content\cycomponentlibrary\CyComponentLibrary.cylib\BLE_v2_0\Library\gccCyBLEStack_BLE_SOC_PERIPHERAL.a(mint_os.o)
 .ARM.attributes
                0x00000782       0x44 D:\program\CY8\PSoC Creator\3.2\PSoC Creator\psoc\content\cycomponentlibrary\CyComponentLibrary.cylib\BLE_v2_0\Library\gccCyBLEStack_BLE_SOC_PERIPHERAL.a(mint_os_queue.o)
 .ARM.attributes
                0x000007c6       0x44 D:\program\CY8\PSoC Creator\3.2\PSoC Creator\psoc\content\cycomponentlibrary\CyComponentLibrary.cylib\BLE_v2_0\Library\gccCyBLEStack_BLE_SOC_PERIPHERAL.a(mint_os_task.o)
 .ARM.attributes
                0x0000080a       0x44 D:\program\CY8\PSoC Creator\3.2\PSoC Creator\psoc\content\cycomponentlibrary\CyComponentLibrary.cylib\BLE_v2_0\Library\gccCyBLEStack_BLE_SOC_PERIPHERAL.a(mint_buf_mgmt.o)
 .ARM.attributes
                0x0000084e       0x44 D:\program\CY8\PSoC Creator\3.2\PSoC Creator\psoc\content\cycomponentlibrary\CyComponentLibrary.cylib\BLE_v2_0\Library\gccCyBLEStack_BLE_SOC_PERIPHERAL.a(CyBleControllerIP_Interface.o)
 .ARM.attributes
                0x00000892       0x44 D:\program\CY8\PSoC Creator\3.2\PSoC Creator\psoc\content\cycomponentlibrary\CyComponentLibrary.cylib\BLE_v2_0\Library\gccCyBLEStack_BLE_SOC_PERIPHERAL.a(ll.o)
 .ARM.attributes
                0x000008d6       0x44 D:\program\CY8\PSoC Creator\3.2\PSoC Creator\psoc\content\cycomponentlibrary\CyComponentLibrary.cylib\BLE_v2_0\Library\gccCyBLEStack_BLE_SOC_PERIPHERAL.a(ll_advertiser.o)
 .ARM.attributes
                0x0000091a       0x44 D:\program\CY8\PSoC Creator\3.2\PSoC Creator\psoc\content\cycomponentlibrary\CyComponentLibrary.cylib\BLE_v2_0\Library\gccCyBLEStack_BLE_SOC_PERIPHERAL.a(ll_connection.o)
 .ARM.attributes
                0x0000095e       0x44 D:\program\CY8\PSoC Creator\3.2\PSoC Creator\psoc\content\cycomponentlibrary\CyComponentLibrary.cylib\BLE_v2_0\Library\gccCyBLEStack_BLE_SOC_PERIPHERAL.a(llh_api.o)
 .ARM.attributes
                0x000009a2       0x44 D:\program\CY8\PSoC Creator\3.2\PSoC Creator\psoc\content\cycomponentlibrary\CyComponentLibrary.cylib\BLE_v2_0\Library\gccCyBLEStack_BLE_SOC_PERIPHERAL.a(llh_utils.o)
 .ARM.attributes
                0x000009e6       0x44 D:\program\CY8\PSoC Creator\3.2\PSoC Creator\psoc\content\cycomponentlibrary\CyComponentLibrary.cylib\BLE_v2_0\Library\gccCyBLEStack_BLE_SOC_PERIPHERAL.a(ll_pdu.o)
 .ARM.attributes
                0x00000a2a       0x44 D:\program\CY8\PSoC Creator\3.2\PSoC Creator\psoc\content\cycomponentlibrary\CyComponentLibrary.cylib\BLE_v2_0\Library\gccCyBLEStack_BLE_SOC_PERIPHERAL.a(ll_policies.o)
 .ARM.attributes
                0x00000a6e       0x44 D:\program\CY8\PSoC Creator\3.2\PSoC Creator\psoc\content\cycomponentlibrary\CyComponentLibrary.cylib\BLE_v2_0\Library\gccCyBLEStack_BLE_SOC_PERIPHERAL.a(ll_tasks.o)
 .ARM.attributes
                0x00000ab2       0x44 D:\program\CY8\PSoC Creator\3.2\PSoC Creator\psoc\content\cycomponentlibrary\CyComponentLibrary.cylib\BLE_v2_0\Library\gccCyBLEStack_BLE_SOC_PERIPHERAL.a(ll_utils.o)
 .ARM.attributes
                0x00000af6       0x44 D:\program\CY8\PSoC Creator\3.2\PSoC Creator\psoc\content\cycomponentlibrary\CyComponentLibrary.cylib\BLE_v2_0\Library\gccCyBLEStack_BLE_SOC_PERIPHERAL.a(llf_task.o)
 .ARM.attributes
                0x00000b3a       0x44 D:\program\CY8\PSoC Creator\3.2\PSoC Creator\psoc\content\cycomponentlibrary\CyComponentLibrary.cylib\BLE_v2_0\Library\gccCyBLEStack_BLE_SOC_PERIPHERAL.a(lec_hci_le.o)
 .ARM.attributes
                0x00000b7e       0x44 D:\program\CY8\PSoC Creator\3.2\PSoC Creator\psoc\content\cycomponentlibrary\CyComponentLibrary.cylib\BLE_v2_0\Library\gccCyBLEStack_BLE_SOC_PERIPHERAL.a(lec_hci_le_commands.o)
 .ARM.attributes
                0x00000bc2       0x44 D:\program\CY8\PSoC Creator\3.2\PSoC Creator\psoc\content\cycomponentlibrary\CyComponentLibrary.cylib\BLE_v2_0\Library\gccCyBLEStack_BLE_SOC_PERIPHERAL.a(lec_hci_le_common_commands.o)
 .ARM.attributes
                0x00000c06       0x44 D:\program\CY8\PSoC Creator\3.2\PSoC Creator\psoc\content\cycomponentlibrary\CyComponentLibrary.cylib\BLE_v2_0\Library\gccCyBLEStack_BLE_SOC_PERIPHERAL.a(lec_hci_le_conn_commands.o)
 .ARM.attributes
                0x00000c4a       0x44 D:\program\CY8\PSoC Creator\3.2\PSoC Creator\psoc\content\cycomponentlibrary\CyComponentLibrary.cylib\BLE_v2_0\Library\gccCyBLEStack_BLE_SOC_PERIPHERAL.a(lec_hci_le_encryption_commands.o)
 .ARM.attributes
                0x00000c8e       0x44 D:\program\CY8\PSoC Creator\3.2\PSoC Creator\psoc\content\cycomponentlibrary\CyComponentLibrary.cylib\BLE_v2_0\Library\gccCyBLEStack_BLE_SOC_PERIPHERAL.a(lec_hci_le_utils.o)
 .ARM.attributes
                0x00000cd2       0x44 D:\program\CY8\PSoC Creator\3.2\PSoC Creator\psoc\content\cycomponentlibrary\CyComponentLibrary.cylib\BLE_v2_0\Library\gccCyBLEStack_BLE_SOC_PERIPHERAL.a(lec_hci_param_converter.o)
 .ARM.attributes
                0x00000d16       0x44 D:\program\CY8\PSoC Creator\3.2\PSoC Creator\psoc\content\cycomponentlibrary\CyComponentLibrary.cylib\BLE_v2_0\Library\gccCyBLEStack_BLE_SOC_PERIPHERAL.a(lec_hci_param_validation.o)
 .ARM.attributes
                0x00000d5a       0x44 D:\program\CY8\PSoC Creator\3.2\PSoC Creator\psoc\content\cycomponentlibrary\CyComponentLibrary.cylib\BLE_v2_0\Library\gccCyBLEStack_BLE_SOC_PERIPHERAL.a(hci_td.o)
 .ARM.attributes
                0x00000d9e       0x44 D:\program\CY8\PSoC Creator\3.2\PSoC Creator\psoc\content\cycomponentlibrary\CyComponentLibrary.cylib\BLE_v2_0\Library\gccCyBLEStack_BLE_SOC_PERIPHERAL.a(hci_td_api.o)
 .ARM.attributes
                0x00000de2       0x44 D:\program\CY8\PSoC Creator\3.2\PSoC Creator\psoc\content\cycomponentlibrary\CyComponentLibrary.cylib\BLE_v2_0\Library\gccCyBLEStack_BLE_SOC_PERIPHERAL.a(hci_td_task.o)
 .ARM.attributes
                0x00000e26       0x44 D:\program\CY8\PSoC Creator\3.2\PSoC Creator\psoc\content\cycomponentlibrary\CyComponentLibrary.cylib\BLE_v2_0\Library\gccCyBLEStack_BLE_SOC_PERIPHERAL.a(host_main.o)
 .ARM.attributes
                0x00000e6a       0x44 D:\program\CY8\PSoC Creator\3.2\PSoC Creator\psoc\content\cycomponentlibrary\CyComponentLibrary.cylib\BLE_v2_0\Library\gccCyBLEStack_BLE_SOC_PERIPHERAL.a(att_api.o)
 .ARM.attributes
                0x00000eae       0x44 D:\program\CY8\PSoC Creator\3.2\PSoC Creator\psoc\content\cycomponentlibrary\CyComponentLibrary.cylib\BLE_v2_0\Library\gccCyBLEStack_BLE_SOC_PERIPHERAL.a(att_init.o)
 .ARM.attributes
                0x00000ef2       0x44 D:\program\CY8\PSoC Creator\3.2\PSoC Creator\psoc\content\cycomponentlibrary\CyComponentLibrary.cylib\BLE_v2_0\Library\gccCyBLEStack_BLE_SOC_PERIPHERAL.a(att_internal.o)
 .ARM.attributes
                0x00000f36       0x44 D:\program\CY8\PSoC Creator\3.2\PSoC Creator\psoc\content\cycomponentlibrary\CyComponentLibrary.cylib\BLE_v2_0\Library\gccCyBLEStack_BLE_SOC_PERIPHERAL.a(BT_common.o)
 .ARM.attributes
                0x00000f7a       0x44 D:\program\CY8\PSoC Creator\3.2\PSoC Creator\psoc\content\cycomponentlibrary\CyComponentLibrary.cylib\BLE_v2_0\Library\gccCyBLEStack_BLE_SOC_PERIPHERAL.a(device_queue.o)
 .ARM.attributes
                0x00000fbe       0x44 D:\program\CY8\PSoC Creator\3.2\PSoC Creator\psoc\content\cycomponentlibrary\CyComponentLibrary.cylib\BLE_v2_0\Library\gccCyBLEStack_BLE_SOC_PERIPHERAL.a(l2cap.o)
 .ARM.attributes
                0x00001002       0x44 D:\program\CY8\PSoC Creator\3.2\PSoC Creator\psoc\content\cycomponentlibrary\CyComponentLibrary.cylib\BLE_v2_0\Library\gccCyBLEStack_BLE_SOC_PERIPHERAL.a(l2cap_disconnect.o)
 .ARM.attributes
                0x00001046       0x44 D:\program\CY8\PSoC Creator\3.2\PSoC Creator\psoc\content\cycomponentlibrary\CyComponentLibrary.cylib\BLE_v2_0\Library\gccCyBLEStack_BLE_SOC_PERIPHERAL.a(l2cap_init.o)
 .ARM.attributes
                0x0000108a       0x44 D:\program\CY8\PSoC Creator\3.2\PSoC Creator\psoc\content\cycomponentlibrary\CyComponentLibrary.cylib\BLE_v2_0\Library\gccCyBLEStack_BLE_SOC_PERIPHERAL.a(l2cap_utils.o)
 .ARM.attributes
                0x000010ce       0x44 D:\program\CY8\PSoC Creator\3.2\PSoC Creator\psoc\content\cycomponentlibrary\CyComponentLibrary.cylib\BLE_v2_0\Library\gccCyBLEStack_BLE_SOC_PERIPHERAL.a(l2cap_lmp.o)
 .ARM.attributes
                0x00001112       0x44 D:\program\CY8\PSoC Creator\3.2\PSoC Creator\psoc\content\cycomponentlibrary\CyComponentLibrary.cylib\BLE_v2_0\Library\gccCyBLEStack_BLE_SOC_PERIPHERAL.a(l2cap_le.o)
 .ARM.attributes
                0x00001156       0x44 D:\program\CY8\PSoC Creator\3.2\PSoC Creator\psoc\content\cycomponentlibrary\CyComponentLibrary.cylib\BLE_v2_0\Library\gccCyBLEStack_BLE_SOC_PERIPHERAL.a(l2cap_fixed_channel.o)
 .ARM.attributes
                0x0000119a       0x44 D:\program\CY8\PSoC Creator\3.2\PSoC Creator\psoc\content\cycomponentlibrary\CyComponentLibrary.cylib\BLE_v2_0\Library\gccCyBLEStack_BLE_SOC_PERIPHERAL.a(l2cap_channels.o)
 .ARM.attributes
                0x000011de       0x44 D:\program\CY8\PSoC Creator\3.2\PSoC Creator\psoc\content\cycomponentlibrary\CyComponentLibrary.cylib\BLE_v2_0\Library\gccCyBLEStack_BLE_SOC_PERIPHERAL.a(l2cap_credit_mode.o)
 .ARM.attributes
                0x00001222       0x44 D:\program\CY8\PSoC Creator\3.2\PSoC Creator\psoc\content\cycomponentlibrary\CyComponentLibrary.cylib\BLE_v2_0\Library\gccCyBLEStack_BLE_SOC_PERIPHERAL.a(l2cap_command.o)
 .ARM.attributes
                0x00001266       0x44 D:\program\CY8\PSoC Creator\3.2\PSoC Creator\psoc\content\cycomponentlibrary\CyComponentLibrary.cylib\BLE_v2_0\Library\gccCyBLEStack_BLE_SOC_PERIPHERAL.a(fsm_engine.o)
 .ARM.attributes
                0x000012aa       0x44 D:\program\CY8\PSoC Creator\3.2\PSoC Creator\psoc\content\cycomponentlibrary\CyComponentLibrary.cylib\BLE_v2_0\Library\gccCyBLEStack_BLE_SOC_PERIPHERAL.a(fsm_engine_pl.o)
 .ARM.attributes
                0x000012ee       0x44 D:\program\CY8\PSoC Creator\3.2\PSoC Creator\psoc\content\cycomponentlibrary\CyComponentLibrary.cylib\BLE_v2_0\Library\gccCyBLEStack_BLE_SOC_PERIPHERAL.a(gap.o)
 .ARM.attributes
                0x00001332       0x44 D:\program\CY8\PSoC Creator\3.2\PSoC Creator\psoc\content\cycomponentlibrary\CyComponentLibrary.cylib\BLE_v2_0\Library\gccCyBLEStack_BLE_SOC_PERIPHERAL.a(gatt.o)
 .ARM.attributes
                0x00001376       0x44 D:\program\CY8\PSoC Creator\3.2\PSoC Creator\psoc\content\cycomponentlibrary\CyComponentLibrary.cylib\BLE_v2_0\Library\gccCyBLEStack_BLE_SOC_PERIPHERAL.a(gattClient.o)
 .ARM.attributes
                0x000013ba       0x44 D:\program\CY8\PSoC Creator\3.2\PSoC Creator\psoc\content\cycomponentlibrary\CyComponentLibrary.cylib\BLE_v2_0\Library\gccCyBLEStack_BLE_SOC_PERIPHERAL.a(gattServer.o)
 .ARM.attributes
                0x000013fe       0x44 D:\program\CY8\PSoC Creator\3.2\PSoC Creator\psoc\content\cycomponentlibrary\CyComponentLibrary.cylib\BLE_v2_0\Library\gccCyBLEStack_BLE_SOC_PERIPHERAL.a(gattDbHandler.o)
 .ARM.attributes
                0x00001442       0x44 D:\program\CY8\PSoC Creator\3.2\PSoC Creator\psoc\content\cycomponentlibrary\CyComponentLibrary.cylib\BLE_v2_0\Library\gccCyBLEStack_BLE_SOC_PERIPHERAL.a(hci_api.o)
 .ARM.attributes
                0x00001486       0x44 D:\program\CY8\PSoC Creator\3.2\PSoC Creator\psoc\content\cycomponentlibrary\CyComponentLibrary.cylib\BLE_v2_0\Library\gccCyBLEStack_BLE_SOC_PERIPHERAL.a(hci_link_control_api.o)
 .ARM.attributes
                0x000014ca       0x44 D:\program\CY8\PSoC Creator\3.2\PSoC Creator\psoc\content\cycomponentlibrary\CyComponentLibrary.cylib\BLE_v2_0\Library\gccCyBLEStack_BLE_SOC_PERIPHERAL.a(hci_commands.o)
 .ARM.attributes
                0x0000150e       0x44 D:\program\CY8\PSoC Creator\3.2\PSoC Creator\psoc\content\cycomponentlibrary\CyComponentLibrary.cylib\BLE_v2_0\Library\gccCyBLEStack_BLE_SOC_PERIPHERAL.a(hci_events.o)
 .ARM.attributes
                0x00001552       0x44 D:\program\CY8\PSoC Creator\3.2\PSoC Creator\psoc\content\cycomponentlibrary\CyComponentLibrary.cylib\BLE_v2_0\Library\gccCyBLEStack_BLE_SOC_PERIPHERAL.a(hci_init.o)
 .ARM.attributes
                0x00001596       0x44 D:\program\CY8\PSoC Creator\3.2\PSoC Creator\psoc\content\cycomponentlibrary\CyComponentLibrary.cylib\BLE_v2_0\Library\gccCyBLEStack_BLE_SOC_PERIPHERAL.a(hci_le_api.o)
 .ARM.attributes
                0x000015da       0x44 D:\program\CY8\PSoC Creator\3.2\PSoC Creator\psoc\content\cycomponentlibrary\CyComponentLibrary.cylib\BLE_v2_0\Library\gccCyBLEStack_BLE_SOC_PERIPHERAL.a(hci_utils.o)
 .ARM.attributes
                0x0000161e       0x44 D:\program\CY8\PSoC Creator\3.2\PSoC Creator\psoc\content\cycomponentlibrary\CyComponentLibrary.cylib\BLE_v2_0\Library\gccCyBLEStack_BLE_SOC_PERIPHERAL.a(smp_api.o)
 .ARM.attributes
                0x00001662       0x44 D:\program\CY8\PSoC Creator\3.2\PSoC Creator\psoc\content\cycomponentlibrary\CyComponentLibrary.cylib\BLE_v2_0\Library\gccCyBLEStack_BLE_SOC_PERIPHERAL.a(smp_core.o)
 .ARM.attributes
                0x000016a6       0x44 D:\program\CY8\PSoC Creator\3.2\PSoC Creator\psoc\content\cycomponentlibrary\CyComponentLibrary.cylib\BLE_v2_0\Library\gccCyBLEStack_BLE_SOC_PERIPHERAL.a(smp_init.o)
 .ARM.attributes
                0x000016ea       0x44 D:\program\CY8\PSoC Creator\3.2\PSoC Creator\psoc\content\cycomponentlibrary\CyComponentLibrary.cylib\BLE_v2_0\Library\gccCyBLEStack_BLE_SOC_PERIPHERAL.a(smp_interface.o)
 .ARM.attributes
                0x0000172e       0x44 D:\program\CY8\PSoC Creator\3.2\PSoC Creator\psoc\content\cycomponentlibrary\CyComponentLibrary.cylib\BLE_v2_0\Library\gccCyBLEStack_BLE_SOC_PERIPHERAL.a(smp_utils.o)
 .ARM.attributes
                0x00001772       0x44 D:\program\CY8\PSoC Creator\3.2\PSoC Creator\psoc\content\cycomponentlibrary\CyComponentLibrary.cylib\BLE_v2_0\Library\gccCyBLEStack_BLE_SOC_PERIPHERAL.a(smp_fsm_engine.o)
 .ARM.attributes
                0x000017b6       0x44 D:\program\CY8\PSoC Creator\3.2\PSoC Creator\psoc\content\cycomponentlibrary\CyComponentLibrary.cylib\BLE_v2_0\Library\gccCyBLEStack_BLE_SOC_PERIPHERAL.a(smp_fsm_table.o)
 .ARM.attributes
                0x000017fa       0x44 D:\program\CY8\PSoC Creator\3.2\PSoC Creator\psoc\content\cycomponentlibrary\CyComponentLibrary.cylib\BLE_v2_0\Library\gccCyBLEStack_BLE_SOC_PERIPHERAL.a(smp_tools.o)
 .ARM.attributes
                0x0000183e       0x44 D:\program\CY8\PSoC Creator\3.2\PSoC Creator\psoc\content\cycomponentlibrary\CyComponentLibrary.cylib\BLE_v2_0\Library\gccCyBLEStack_BLE_SOC_PERIPHERAL.a(smp_psstore.o)
 .ARM.attributes
                0x00001882       0x44 D:\program\CY8\PSoC Creator\3.2\PSoC Creator\psoc\content\cycomponentlibrary\CyComponentLibrary.cylib\BLE_v2_0\Library\gccCyBLEStack_BLE_SOC_PERIPHERAL.a(write_task.o)
 .ARM.attributes
                0x000018c6       0x44 D:\program\CY8\PSoC Creator\3.2\PSoC Creator\psoc\content\cycomponentlibrary\CyComponentLibrary.cylib\BLE_v2_0\Library\gccCyBLEStack_BLE_SOC_PERIPHERAL.a(aes_cmac.o)
 .ARM.attributes
                0x0000190a       0x44 D:\program\CY8\PSoC Creator\3.2\PSoC Creator\psoc\content\cycomponentlibrary\CyComponentLibrary.cylib\BLE_v2_0\Library\gccCyBLEStack_BLE_SOC_PERIPHERAL.a(aes_cmac_pl.o)
 .ARM.attributes
                0x0000194e       0x44 D:\program\CY8\PSoC Creator\3.2\PSoC Creator\psoc\content\cycomponentlibrary\CyComponentLibrary.cylib\BLE_v2_0\Library\gccCyBLEStack_BLE_SOC_PERIPHERAL.a(status.o)
 .ARM.attributes
                0x00001992       0x44 D:\program\CY8\PSoC Creator\3.2\PSoC Creator\psoc\content\cycomponentlibrary\CyComponentLibrary.cylib\BLE_v2_0\Library\gccCyBLEStack_BLE_SOC_PERIPHERAL.a(storage.o)
 .ARM.attributes
                0x000019d6       0x44 D:\program\CY8\PSoC Creator\3.2\PSoC Creator\psoc\content\cycomponentlibrary\CyComponentLibrary.cylib\BLE_v2_0\Library\gccCyBLEStack_BLE_SOC_PERIPHERAL.a(bt_os_common.o)
 .ARM.attributes
                0x00001a1a       0x44 D:\program\CY8\PSoC Creator\3.2\PSoC Creator\psoc\content\cycomponentlibrary\CyComponentLibrary.cylib\BLE_v2_0\Library\gccCyBLEStack_BLE_SOC_PERIPHERAL.a(BT_timer.o)
 .ARM.attributes
                0x00001a5e       0x44 D:\program\CY8\PSoC Creator\3.2\PSoC Creator\psoc\content\cycomponentlibrary\CyComponentLibrary.cylib\BLE_v2_0\Library\gccCyBLEStack_BLE_SOC_PERIPHERAL.a(storage_pl.o)
 .ARM.attributes
                0x00001aa2       0x44 D:\program\CY8\PSoC Creator\3.2\PSoC Creator\psoc\content\cycomponentlibrary\CyComponentLibrary.cylib\BLE_v2_0\Library\gccCyBLEStack_BLE_SOC_PERIPHERAL.a(drbg.o)
 .ARM.attributes
                0x00001ae6       0x44 D:\program\CY8\PSoC Creator\3.2\PSoC Creator\psoc\content\cycomponentlibrary\CyComponentLibrary.cylib\BLE_v2_0\Library\gccCyBLEStack_BLE_SOC_PERIPHERAL.a(bt_fw_os_al.o)
 .ARM.attributes
                0x00001b2a       0x44 D:\program\CY8\PSoC Creator\3.2\PSoC Creator\psoc\content\cycomponentlibrary\CyComponentLibrary.cylib\BLE_v2_0\Library\gccCyBLEStack_BLE_SOC_PERIPHERAL.a(lec_hci_br_edr_commands.o)
 .ARM.attributes
                0x00001b6e       0x44 D:\program\CY8\PSoC Creator\3.2\PSoC Creator\psoc\content\cycomponentlibrary\CyComponentLibrary.cylib\BLE_v2_0\Library\gccCyBLEStack_BLE_SOC_PERIPHERAL.a(lec_hci_le_adv_commands.o)
 .ARM.attributes
                0x00001bb2       0x44 D:\program\CY8\PSoC Creator\3.2\PSoC Creator\psoc\content\cycomponentlibrary\CyComponentLibrary.cylib\BLE_v2_0\Library\gccCyBLEStack_BLE_SOC_PERIPHERAL.a(BT_common_pl.o)
 .ARM.attributes
                0x00001bf6       0x44 D:\program\CY8\PSoC Creator\3.2\PSoC Creator\psoc\content\cycomponentlibrary\CyComponentLibrary.cylib\BLE_v2_0\Library\gccCyBLEStack_BLE_SOC_PERIPHERAL.a(device_queue_pl.o)
 .ARM.attributes
                0x00001c3a       0x44 D:\program\CY8\PSoC Creator\3.2\PSoC Creator\psoc\content\cycomponentlibrary\CyComponentLibrary.cylib\BLE_v2_0\Library\gccCyBLEStack_BLE_SOC_PERIPHERAL.a(smp_pl.o)
 .ARM.attributes
                0x00001c7e       0x44 D:\program\CY8\PSoC Creator\3.2\PSoC Creator\psoc\content\cycomponentlibrary\CyComponentLibrary.cylib\BLE_v2_0\Library\gccCyBLEStack_BLE_SOC_PERIPHERAL.a(att_fsm_table.o)
 .ARM.attributes
                0x00001cc2       0x44 D:\program\CY8\PSoC Creator\3.2\PSoC Creator\psoc\content\cycomponentlibrary\CyComponentLibrary.cylib\BLE_v2_0\Library\gccCyBLEStack_BLE_SOC_PERIPHERAL.a(l2cap_data_recv.o)
 .ARM.attributes
                0x00001d06       0x44 D:\program\CY8\PSoC Creator\3.2\PSoC Creator\psoc\content\cycomponentlibrary\CyComponentLibrary.cylib\BLE_v2_0\Library\gccCyBLEStack_BLE_SOC_PERIPHERAL.a(gattDbInternal.o)
 .ARM.attributes
                0x00001d4a       0x44 D:\program\CY8\PSoC Creator\3.2\PSoC Creator\psoc\content\cycomponentlibrary\CyComponentLibrary.cylib\BLE_v2_0\Library\gccCyBLEStack_BLE_SOC_PERIPHERAL.a(hci_command_queue.o)
 .ARM.attributes
                0x00001d8e       0x44 D:\program\CY8\PSoC Creator\3.2\PSoC Creator\psoc\content\cycomponentlibrary\CyComponentLibrary.cylib\BLE_v2_0\Library\gccCyBLEStack_BLE_SOC_PERIPHERAL.a(hci_connect.o)
 .ARM.attributes
                0x00001dd2       0x44 D:\program\CY8\PSoC Creator\3.2\PSoC Creator\psoc\content\cycomponentlibrary\CyComponentLibrary.cylib\BLE_v2_0\Library\gccCyBLEStack_BLE_SOC_PERIPHERAL.a(hci_disconnect.o)
 .ARM.attributes
                0x00001e16       0x44 D:\program\CY8\PSoC Creator\3.2\PSoC Creator\psoc\content\cycomponentlibrary\CyComponentLibrary.cylib\BLE_v2_0\Library\gccCyBLEStack_BLE_SOC_PERIPHERAL.a(smp_fsm_handlers.o)
 .ARM.attributes
                0x00001e5a       0x44 D:\program\CY8\PSoC Creator\3.2\PSoC Creator\psoc\content\cycomponentlibrary\CyComponentLibrary.cylib\BLE_v2_0\Library\gccCyBLEStack_BLE_SOC_PERIPHERAL.a(att_fsm_handlers.o)
 .ARM.attributes
                0x00001e9e       0x44 D:\program\CY8\PSoC Creator\3.2\PSoC Creator\psoc\content\cycomponentlibrary\CyComponentLibrary.cylib\BLE_v2_0\Library\gccCyBLEStack_BLE_SOC_PERIPHERAL.a(l2cap_connect.o)
 .ARM.attributes
                0x00001ee2       0x31 .\CortexM0\ARM_GCC_484\Debug\BLE Lab 2.a(BLE_HAL_PVT.o)
 .ARM.attributes
                0x00001f13       0x31 .\CortexM0\ARM_GCC_484\Debug\BLE Lab 2.a(BLE_bless_isr.o)
 .ARM.attributes
                0x00001f44       0x31 .\CortexM0\ARM_GCC_484\Debug\BLE Lab 2.a(CyFlash.o)
 .ARM.attributes
                0x00001f75       0x31 .\CortexM0\ARM_GCC_484\Debug\BLE Lab 2.a(BLE_HAL_INT.o)
 .ARM.attributes
                0x00001fa6       0x44 D:\program\CY8\PSoC Creator\3.2\PSoC Creator\psoc\content\cycomponentlibrary\CyComponentLibrary.cylib\BLE_v2_0\Library\gccCyBLEStack_BLE_SOC_PERIPHERAL.a(ll_isr.o)
 .ARM.attributes
                0x00001fea       0x1e d:/program/cy8/psoc creator/3.2/psoc creator/import/gnu/arm/4.8.4/bin/../lib/gcc/arm-none-eabi/4.8.4/armv6-m\libgcc.a(_udivsi3.o)
 .ARM.attributes
                0x00002008       0x1e d:/program/cy8/psoc creator/3.2/psoc creator/import/gnu/arm/4.8.4/bin/../lib/gcc/arm-none-eabi/4.8.4/armv6-m\libgcc.a(_divsi3.o)
 .ARM.attributes
                0x00002026       0x1e d:/program/cy8/psoc creator/3.2/psoc creator/import/gnu/arm/4.8.4/bin/../lib/gcc/arm-none-eabi/4.8.4/armv6-m\libgcc.a(_dvmd_tls.o)
 .ARM.attributes
                0x00002044       0x1e d:/program/cy8/psoc creator/3.2/psoc creator/import/gnu/arm/4.8.4/bin/../lib/gcc/arm-none-eabi/4.8.4/armv6-m\libgcc.a(_aeabi_ldivmod.o)
 .ARM.attributes
                0x00002062       0x2c d:/program/cy8/psoc creator/3.2/psoc creator/import/gnu/arm/4.8.4/bin/../lib/gcc/arm-none-eabi/4.8.4/armv6-m\libgcc.a(_muldi3.o)
 .ARM.attributes
                0x0000208e       0x2c d:/program/cy8/psoc creator/3.2/psoc creator/import/gnu/arm/4.8.4/bin/../lib/gcc/arm-none-eabi/4.8.4/armv6-m\libgcc.a(bpabi.o)
 .ARM.attributes
                0x000020ba       0x2c d:/program/cy8/psoc creator/3.2/psoc creator/import/gnu/arm/4.8.4/bin/../lib/gcc/arm-none-eabi/4.8.4/armv6-m\libgcc.a(divsf3.o)
 .ARM.attributes
                0x000020e6       0x2c d:/program/cy8/psoc creator/3.2/psoc creator/import/gnu/arm/4.8.4/bin/../lib/gcc/arm-none-eabi/4.8.4/armv6-m\libgcc.a(mulsf3.o)
 .ARM.attributes
                0x00002112       0x2c d:/program/cy8/psoc creator/3.2/psoc creator/import/gnu/arm/4.8.4/bin/../lib/gcc/arm-none-eabi/4.8.4/armv6-m\libgcc.a(floatsisf.o)
 .ARM.attributes
                0x0000213e       0x1e d:/program/cy8/psoc creator/3.2/psoc creator/import/gnu/arm/4.8.4/bin/../lib/gcc/arm-none-eabi/4.8.4/armv6-m\libgcc.a(_clzsi2.o)
 .ARM.attributes
                0x0000215c       0x2c d:/program/cy8/psoc creator/3.2/psoc creator/import/gnu/arm/4.8.4/bin/../lib/gcc/arm-none-eabi/4.8.4/armv6-m\libgcc.a(_divdi3.o)
 .ARM.attributes
                0x00002188       0x2c d:/program/cy8/psoc creator/3.2/psoc creator/import/gnu/arm/4.8.4/bin/../lib/gcc/arm-none-eabi/4.8.4/armv6-m\libgcc.a(_udivdi3.o)
 .ARM.attributes
                0x000021b4       0x2c d:/program/cy8/psoc creator/3.2/psoc creator/import/gnu/arm/4.8.4/bin/../lib/gcc/arm-none-eabi/4.8.4/../../../../arm-none-eabi/lib/armv6-m\libg_s.a(lib_a-errno.o)
 .ARM.attributes
                0x000021e0       0x2c d:/program/cy8/psoc creator/3.2/psoc creator/import/gnu/arm/4.8.4/bin/../lib/gcc/arm-none-eabi/4.8.4/../../../../arm-none-eabi/lib/armv6-m\libg_s.a(lib_a-exit.o)
 .ARM.attributes
                0x0000220c       0x2c d:/program/cy8/psoc creator/3.2/psoc creator/import/gnu/arm/4.8.4/bin/../lib/gcc/arm-none-eabi/4.8.4/../../../../arm-none-eabi/lib/armv6-m\libg_s.a(lib_a-impure.o)
 .ARM.attributes
                0x00002238       0x2c d:/program/cy8/psoc creator/3.2/psoc creator/import/gnu/arm/4.8.4/bin/../lib/gcc/arm-none-eabi/4.8.4/../../../../arm-none-eabi/lib/armv6-m\libg_s.a(lib_a-init.o)
 .ARM.attributes
                0x00002264       0x2c d:/program/cy8/psoc creator/3.2/psoc creator/import/gnu/arm/4.8.4/bin/../lib/gcc/arm-none-eabi/4.8.4/../../../../arm-none-eabi/lib/armv6-m\libg_s.a(lib_a-memcmp.o)
 .ARM.attributes
                0x00002290       0x2c d:/program/cy8/psoc creator/3.2/psoc creator/import/gnu/arm/4.8.4/bin/../lib/gcc/arm-none-eabi/4.8.4/../../../../arm-none-eabi/lib/armv6-m\libg_s.a(lib_a-memcpy-stub.o)
 .ARM.attributes
                0x000022bc       0x2c d:/program/cy8/psoc creator/3.2/psoc creator/import/gnu/arm/4.8.4/bin/../lib/gcc/arm-none-eabi/4.8.4/../../../../arm-none-eabi/lib/armv6-m\libg_s.a(lib_a-memset.o)
 .ARM.attributes
                0x000022e8       0x2c d:/program/cy8/psoc creator/3.2/psoc creator/import/gnu/arm/4.8.4/bin/../lib/gcc/arm-none-eabi/4.8.4/armv6-m/crtend.o
 .ARM.attributes
                0x00002314       0x1e d:/program/cy8/psoc creator/3.2/psoc creator/import/gnu/arm/4.8.4/bin/../lib/gcc/arm-none-eabi/4.8.4/armv6-m/crtn.o

/DISCARD/
 *(.note.GNU-stack)
OUTPUT(.\CortexM0\ARM_GCC_484\Debug\BLE Lab 2.elf elf32-littlearm)
