ARM GAS  C:\Users\KEVINH~1\AppData\Local\Temp\ccC6tirb.s 			page 1


   1              		.cpu cortex-m0
   2              		.fpu softvfp
   3              		.eabi_attribute 20, 1
   4              		.eabi_attribute 21, 1
   5              		.eabi_attribute 23, 3
   6              		.eabi_attribute 24, 1
   7              		.eabi_attribute 25, 1
   8              		.eabi_attribute 26, 1
   9              		.eabi_attribute 30, 6
  10              		.eabi_attribute 34, 0
  11              		.eabi_attribute 18, 4
  12              		.code	16
  13              		.file	"BLE_eventHandler.c"
  14              		.text
  15              	.Ltext0:
  16              		.cfi_sections	.debug_frame
  17              		.comm	cyBle_connHandle,2,4
  18              		.comm	cyBle_eventHandlerFlag,1,1
  19              		.comm	cyBle_busyStatus,1,1
  20              		.comm	cyBle_advertisingIntervalType,1,1
  21              		.global	cyBle_authInfo
  22              		.data
  23              		.align	2
  24              		.type	cyBle_authInfo, %object
  25              		.size	cyBle_authInfo, 4
  26              	cyBle_authInfo:
  27 0000 10       		.byte	16
  28 0001 00       		.byte	0
  29 0002 10       		.byte	16
  30 0003 00       		.byte	0
  31              		.section	.text.CyBle_WriteReqHandler,"ax",%progbits
  32              		.align	2
  33              		.code	16
  34              		.thumb_func
  35              		.type	CyBle_WriteReqHandler, %function
  36              	CyBle_WriteReqHandler:
  37              	.LFB2:
  38              		.file 1 ".\\Generated_Source\\PSoC4\\BLE_eventHandler.c"
   1:.\Generated_Source\PSoC4/BLE_eventHandler.c **** /*******************************************************************************
   2:.\Generated_Source\PSoC4/BLE_eventHandler.c **** File Name: CYBLE_eventHandler.c
   3:.\Generated_Source\PSoC4/BLE_eventHandler.c **** Version 2.0
   4:.\Generated_Source\PSoC4/BLE_eventHandler.c **** 
   5:.\Generated_Source\PSoC4/BLE_eventHandler.c **** Description:
   6:.\Generated_Source\PSoC4/BLE_eventHandler.c ****  This file contains the source code for the Event Handler State Machine
   7:.\Generated_Source\PSoC4/BLE_eventHandler.c ****  of the BLE Component.
   8:.\Generated_Source\PSoC4/BLE_eventHandler.c **** 
   9:.\Generated_Source\PSoC4/BLE_eventHandler.c **** ********************************************************************************
  10:.\Generated_Source\PSoC4/BLE_eventHandler.c **** Copyright 2014-2015, Cypress Semiconductor Corporation.  All rights reserved.
  11:.\Generated_Source\PSoC4/BLE_eventHandler.c **** You may use this file only in accordance with the license, terms, conditions,
  12:.\Generated_Source\PSoC4/BLE_eventHandler.c **** disclaimers, and limitations in the end user license agreement accompanying
  13:.\Generated_Source\PSoC4/BLE_eventHandler.c **** the software package with which this file was provided.
  14:.\Generated_Source\PSoC4/BLE_eventHandler.c **** *******************************************************************************/
  15:.\Generated_Source\PSoC4/BLE_eventHandler.c **** 
  16:.\Generated_Source\PSoC4/BLE_eventHandler.c **** #include "BLE_eventHandler.h"
  17:.\Generated_Source\PSoC4/BLE_eventHandler.c **** 
  18:.\Generated_Source\PSoC4/BLE_eventHandler.c **** 
  19:.\Generated_Source\PSoC4/BLE_eventHandler.c **** /***************************************
ARM GAS  C:\Users\KEVINH~1\AppData\Local\Temp\ccC6tirb.s 			page 2


  20:.\Generated_Source\PSoC4/BLE_eventHandler.c **** ##Private Function Prototypes
  21:.\Generated_Source\PSoC4/BLE_eventHandler.c **** ***************************************/
  22:.\Generated_Source\PSoC4/BLE_eventHandler.c **** 
  23:.\Generated_Source\PSoC4/BLE_eventHandler.c **** #if (CYBLE_GATT_ROLE_SERVER || CYBLE_GATT_ROLE_CLIENT)
  24:.\Generated_Source\PSoC4/BLE_eventHandler.c **** 
  25:.\Generated_Source\PSoC4/BLE_eventHandler.c **** static uint8 CyBle_IsDeviceAddressValid(const CYBLE_GAP_BD_ADDR_T *sflashDeviceAddress);
  26:.\Generated_Source\PSoC4/BLE_eventHandler.c **** 
  27:.\Generated_Source\PSoC4/BLE_eventHandler.c **** #endif /* CYBLE_GATT_ROLE_SERVER || CYBLE_GATT_ROLE_CLIENT */
  28:.\Generated_Source\PSoC4/BLE_eventHandler.c **** 
  29:.\Generated_Source\PSoC4/BLE_eventHandler.c **** static void CyBle_GattDisconnectEventHandler(void);
  30:.\Generated_Source\PSoC4/BLE_eventHandler.c **** static void CyBle_TimeOutEventHandler(const CYBLE_TO_REASON_CODE_T *eventParam);
  31:.\Generated_Source\PSoC4/BLE_eventHandler.c **** static void CyBle_GattConnectReqHandler(void);
  32:.\Generated_Source\PSoC4/BLE_eventHandler.c **** static void CyBle_L2Cap_ConnParamUpdateRspEventHandler(uint16 response);
  33:.\Generated_Source\PSoC4/BLE_eventHandler.c **** static void CyBle_GapConnUpdateCompleteEventHandler(const CYBLE_GAP_CONN_PARAM_UPDATED_IN_CONTROLLE
  34:.\Generated_Source\PSoC4/BLE_eventHandler.c **** 
  35:.\Generated_Source\PSoC4/BLE_eventHandler.c **** 
  36:.\Generated_Source\PSoC4/BLE_eventHandler.c **** #if (CYBLE_GATT_ROLE_SERVER)
  37:.\Generated_Source\PSoC4/BLE_eventHandler.c **** 
  38:.\Generated_Source\PSoC4/BLE_eventHandler.c **** static void CyBle_WriteReqHandler(CYBLE_GATTS_WRITE_REQ_PARAM_T *eventParam);
  39:.\Generated_Source\PSoC4/BLE_eventHandler.c **** static void CyBle_ValueConfirmation(const CYBLE_CONN_HANDLE_T *eventParam);
  40:.\Generated_Source\PSoC4/BLE_eventHandler.c **** 
  41:.\Generated_Source\PSoC4/BLE_eventHandler.c **** #endif /* CYBLE_GATT_ROLE_SERVER */
  42:.\Generated_Source\PSoC4/BLE_eventHandler.c **** 
  43:.\Generated_Source\PSoC4/BLE_eventHandler.c **** #if (CYBLE_GATT_ROLE_CLIENT)
  44:.\Generated_Source\PSoC4/BLE_eventHandler.c **** 
  45:.\Generated_Source\PSoC4/BLE_eventHandler.c **** static void CyBle_GapcDiscoverCharacteristicsEventHandler(CYBLE_DISC_CHAR_INFO_T *discCharInfo);
  46:.\Generated_Source\PSoC4/BLE_eventHandler.c **** static CYBLE_GATT_ATTR_HANDLE_RANGE_T CyBle_GetCharRange(void);
  47:.\Generated_Source\PSoC4/BLE_eventHandler.c **** static void CyBle_GattcWriteResponseEventHandler(const CYBLE_CONN_HANDLE_T *eventParam);
  48:.\Generated_Source\PSoC4/BLE_eventHandler.c **** static void CyBle_NotificationEventHandler(CYBLE_GATTC_HANDLE_VALUE_NTF_PARAM_T *eventParam);
  49:.\Generated_Source\PSoC4/BLE_eventHandler.c **** static void CyBle_IndicationEventHandler(CYBLE_GATTC_HANDLE_VALUE_IND_PARAM_T *eventParam);
  50:.\Generated_Source\PSoC4/BLE_eventHandler.c **** static void CyBle_ReadResponseEventHandler(CYBLE_GATTC_READ_RSP_PARAM_T *eventParam);
  51:.\Generated_Source\PSoC4/BLE_eventHandler.c **** 
  52:.\Generated_Source\PSoC4/BLE_eventHandler.c **** #endif /* CYBLE_GATT_ROLE_CLIENT */
  53:.\Generated_Source\PSoC4/BLE_eventHandler.c **** 
  54:.\Generated_Source\PSoC4/BLE_eventHandler.c **** 
  55:.\Generated_Source\PSoC4/BLE_eventHandler.c **** /***************************************
  56:.\Generated_Source\PSoC4/BLE_eventHandler.c **** ##Global Variables
  57:.\Generated_Source\PSoC4/BLE_eventHandler.c **** ***************************************/
  58:.\Generated_Source\PSoC4/BLE_eventHandler.c **** 
  59:.\Generated_Source\PSoC4/BLE_eventHandler.c **** /* This global variable is initialized after connection with peer device, 
  60:.\Generated_Source\PSoC4/BLE_eventHandler.c ****    after CYBLE_EVT_GATT_CONNECT_IND event, and could be used by application code
  61:.\Generated_Source\PSoC4/BLE_eventHandler.c ****    to send data to peer device. 
  62:.\Generated_Source\PSoC4/BLE_eventHandler.c **** */
  63:.\Generated_Source\PSoC4/BLE_eventHandler.c **** CYBLE_CONN_HANDLE_T cyBle_connHandle;
  64:.\Generated_Source\PSoC4/BLE_eventHandler.c **** 
  65:.\Generated_Source\PSoC4/BLE_eventHandler.c **** volatile uint8 cyBle_eventHandlerFlag;
  66:.\Generated_Source\PSoC4/BLE_eventHandler.c **** volatile uint8 cyBle_busyStatus;
  67:.\Generated_Source\PSoC4/BLE_eventHandler.c **** 
  68:.\Generated_Source\PSoC4/BLE_eventHandler.c **** #if(CYBLE_GAP_ROLE_PERIPHERAL || CYBLE_GAP_ROLE_BROADCASTER) 
  69:.\Generated_Source\PSoC4/BLE_eventHandler.c ****     uint8 cyBle_advertisingIntervalType;
  70:.\Generated_Source\PSoC4/BLE_eventHandler.c **** #endif /* CYBLE_GAP_ROLE_PERIPHERAL || CYBLE_GAP_ROLE_BROADCASTER) */
  71:.\Generated_Source\PSoC4/BLE_eventHandler.c **** 
  72:.\Generated_Source\PSoC4/BLE_eventHandler.c **** #if(CYBLE_GAP_ROLE_CENTRAL || CYBLE_GAP_ROLE_OBSERVER) 
  73:.\Generated_Source\PSoC4/BLE_eventHandler.c ****     uint8 cyBle_scanningIntervalType;
  74:.\Generated_Source\PSoC4/BLE_eventHandler.c **** #endif /* CYBLE_GAP_ROLE_CENTRAL || CYBLE_GAP_ROLE_OBSERVER */
  75:.\Generated_Source\PSoC4/BLE_eventHandler.c **** 
  76:.\Generated_Source\PSoC4/BLE_eventHandler.c **** #if(CYBLE_GATT_ROLE_SERVER)
ARM GAS  C:\Users\KEVINH~1\AppData\Local\Temp\ccC6tirb.s 			page 3


  77:.\Generated_Source\PSoC4/BLE_eventHandler.c **** #if defined CYBLE_CTS_SERVER || defined CYBLE_ESS_SERVER
  78:.\Generated_Source\PSoC4/BLE_eventHandler.c **** CYBLE_GATT_ERR_CODE_T cyBle_gattError;
  79:.\Generated_Source\PSoC4/BLE_eventHandler.c **** #endif /* defined CYBLE_CTS_SERVER || defined CYBLE_ESS_SERVER */
  80:.\Generated_Source\PSoC4/BLE_eventHandler.c **** #endif /* CYBLE_GATT_ROLE_SERVER */
  81:.\Generated_Source\PSoC4/BLE_eventHandler.c **** 
  82:.\Generated_Source\PSoC4/BLE_eventHandler.c **** #if(CYBLE_GATT_ROLE_CLIENT)
  83:.\Generated_Source\PSoC4/BLE_eventHandler.c **** uint8 cyBle_disCount; /* Counter for discovery procedures */
  84:.\Generated_Source\PSoC4/BLE_eventHandler.c **** static CYBLE_GATT_DB_ATTR_HANDLE_T cyBle_charEndHandle;
  85:.\Generated_Source\PSoC4/BLE_eventHandler.c **** /* Discovery included service information, used for 128-bit UUID read response handle 
  86:.\Generated_Source\PSoC4/BLE_eventHandler.c ****    and for continue discovery. 
  87:.\Generated_Source\PSoC4/BLE_eventHandler.c **** */
  88:.\Generated_Source\PSoC4/BLE_eventHandler.c **** static CYBLE_DISC_INCL_INFO_T cyBle_discInclInfo;
  89:.\Generated_Source\PSoC4/BLE_eventHandler.c **** #ifdef CYBLE_HIDS_CLIENT
  90:.\Generated_Source\PSoC4/BLE_eventHandler.c ****     static uint8 disServiceIndex;      /* To discovery descriptors for multiple HID service instanc
  91:.\Generated_Source\PSoC4/BLE_eventHandler.c **** #endif /* CYBLE_HIDS_CLIENT */
  92:.\Generated_Source\PSoC4/BLE_eventHandler.c **** 
  93:.\Generated_Source\PSoC4/BLE_eventHandler.c **** CYBLE_DISC_SRVC_INFO_T cyBle_serverInfo[CYBLE_SRVI_COUNT] = /*4*/
  94:.\Generated_Source\PSoC4/BLE_eventHandler.c **** {
  95:.\Generated_Source\PSoC4/BLE_eventHandler.c ****     {{CYBLE_GATT_INVALID_ATTR_HANDLE_VALUE, CYBLE_GATT_INVALID_ATTR_HANDLE_VALUE}, CYBLE_UUID_GAP_S
  96:.\Generated_Source\PSoC4/BLE_eventHandler.c ****     {{CYBLE_GATT_INVALID_ATTR_HANDLE_VALUE, CYBLE_GATT_INVALID_ATTR_HANDLE_VALUE}, CYBLE_UUID_GATT_
  97:.\Generated_Source\PSoC4/BLE_eventHandler.c **** #ifdef CYBLE_ANCS_CLIENT
  98:.\Generated_Source\PSoC4/BLE_eventHandler.c ****     {{CYBLE_GATT_INVALID_ATTR_HANDLE_VALUE, CYBLE_GATT_INVALID_ATTR_HANDLE_VALUE}, 0x0000u},
  99:.\Generated_Source\PSoC4/BLE_eventHandler.c **** #endif /* CYBLE_ANCS_CLIENT */
 100:.\Generated_Source\PSoC4/BLE_eventHandler.c **** #ifdef CYBLE_ANS_CLIENT
 101:.\Generated_Source\PSoC4/BLE_eventHandler.c ****     {{CYBLE_GATT_INVALID_ATTR_HANDLE_VALUE, CYBLE_GATT_INVALID_ATTR_HANDLE_VALUE}, 
 102:.\Generated_Source\PSoC4/BLE_eventHandler.c ****         CYBLE_UUID_ALERT_NOTIFICATION_SERVICE},
 103:.\Generated_Source\PSoC4/BLE_eventHandler.c **** #endif /* CYBLE_ANS_CLIENT */
 104:.\Generated_Source\PSoC4/BLE_eventHandler.c **** #ifdef CYBLE_BAS_CLIENT
 105:.\Generated_Source\PSoC4/BLE_eventHandler.c ****     {{CYBLE_GATT_INVALID_ATTR_HANDLE_VALUE, CYBLE_GATT_INVALID_ATTR_HANDLE_VALUE}, CYBLE_UUID_BAS_S
 106:.\Generated_Source\PSoC4/BLE_eventHandler.c ****     #if(CYBLE_BASC_SERVICE_COUNT > 1u) /* Generate it by GUI */
 107:.\Generated_Source\PSoC4/BLE_eventHandler.c ****         
 108:.\Generated_Source\PSoC4/BLE_eventHandler.c ****     #endif /* CYBLE_BASC_SERVICE_COUNT > 1u */
 109:.\Generated_Source\PSoC4/BLE_eventHandler.c **** #endif /* CYBLE_BAS_CLIENT */
 110:.\Generated_Source\PSoC4/BLE_eventHandler.c **** #ifdef CYBLE_BLS_CLIENT
 111:.\Generated_Source\PSoC4/BLE_eventHandler.c ****     {{CYBLE_GATT_INVALID_ATTR_HANDLE_VALUE, CYBLE_GATT_INVALID_ATTR_HANDLE_VALUE}, CYBLE_UUID_BLOOD
 112:.\Generated_Source\PSoC4/BLE_eventHandler.c **** #endif /* CYBLE_BLS_CLIENT */
 113:.\Generated_Source\PSoC4/BLE_eventHandler.c **** #ifdef CYBLE_BMS_CLIENT
 114:.\Generated_Source\PSoC4/BLE_eventHandler.c ****     {{CYBLE_GATT_INVALID_ATTR_HANDLE_VALUE, CYBLE_GATT_INVALID_ATTR_HANDLE_VALUE}, CYBLE_UUID_BOND_
 115:.\Generated_Source\PSoC4/BLE_eventHandler.c **** #endif /* CYBLE_BMS_CLIENT */
 116:.\Generated_Source\PSoC4/BLE_eventHandler.c **** #ifdef CYBLE_CGMS_CLIENT
 117:.\Generated_Source\PSoC4/BLE_eventHandler.c ****     {{CYBLE_GATT_INVALID_ATTR_HANDLE_VALUE, CYBLE_GATT_INVALID_ATTR_HANDLE_VALUE}, CYBLE_UUID_CGM_S
 118:.\Generated_Source\PSoC4/BLE_eventHandler.c **** #endif /* CYBLE_CGMS_CLIENT */
 119:.\Generated_Source\PSoC4/BLE_eventHandler.c **** #ifdef CYBLE_CPS_CLIENT
 120:.\Generated_Source\PSoC4/BLE_eventHandler.c ****     {{CYBLE_GATT_INVALID_ATTR_HANDLE_VALUE, CYBLE_GATT_INVALID_ATTR_HANDLE_VALUE}, CYBLE_UUID_CPS_S
 121:.\Generated_Source\PSoC4/BLE_eventHandler.c **** #endif /* CYBLE_CPS_CLIENT */
 122:.\Generated_Source\PSoC4/BLE_eventHandler.c **** #ifdef CYBLE_CSCS_CLIENT
 123:.\Generated_Source\PSoC4/BLE_eventHandler.c ****     {{CYBLE_GATT_INVALID_ATTR_HANDLE_VALUE, CYBLE_GATT_INVALID_ATTR_HANDLE_VALUE}, 
 124:.\Generated_Source\PSoC4/BLE_eventHandler.c ****         CYBLE_UUID_CYCLING_SPEED_AND_CADENCE_SERVICE},
 125:.\Generated_Source\PSoC4/BLE_eventHandler.c **** #endif /* CYBLE_CSCS_CLIENT */
 126:.\Generated_Source\PSoC4/BLE_eventHandler.c **** #ifdef CYBLE_CTS_CLIENT
 127:.\Generated_Source\PSoC4/BLE_eventHandler.c ****     {{CYBLE_GATT_INVALID_ATTR_HANDLE_VALUE, CYBLE_GATT_INVALID_ATTR_HANDLE_VALUE}, CYBLE_UUID_CURRE
 128:.\Generated_Source\PSoC4/BLE_eventHandler.c **** #endif /* CYBLE_CTS_CLIENT */
 129:.\Generated_Source\PSoC4/BLE_eventHandler.c **** #ifdef CYBLE_CUSTOM_CLIENT
 130:.\Generated_Source\PSoC4/BLE_eventHandler.c ****     
 131:.\Generated_Source\PSoC4/BLE_eventHandler.c **** #endif /* CYBLE_CUSTOM_CLIENT */
 132:.\Generated_Source\PSoC4/BLE_eventHandler.c **** #ifdef CYBLE_DIS_CLIENT
 133:.\Generated_Source\PSoC4/BLE_eventHandler.c ****     {{CYBLE_GATT_INVALID_ATTR_HANDLE_VALUE, CYBLE_GATT_INVALID_ATTR_HANDLE_VALUE}, CYBLE_UUID_DEVIC
ARM GAS  C:\Users\KEVINH~1\AppData\Local\Temp\ccC6tirb.s 			page 4


 134:.\Generated_Source\PSoC4/BLE_eventHandler.c **** #endif /* CYBLE_DIS_CLIENT */
 135:.\Generated_Source\PSoC4/BLE_eventHandler.c **** #ifdef CYBLE_ESS_CLIENT
 136:.\Generated_Source\PSoC4/BLE_eventHandler.c ****     {{CYBLE_GATT_INVALID_ATTR_HANDLE_VALUE, CYBLE_GATT_INVALID_ATTR_HANDLE_VALUE}, 
 137:.\Generated_Source\PSoC4/BLE_eventHandler.c ****         CYBLE_UUID_ENVIRONMENTAL_SENSING_SERVICE},
 138:.\Generated_Source\PSoC4/BLE_eventHandler.c **** #endif /* CYBLE_ESS_CLIENT */
 139:.\Generated_Source\PSoC4/BLE_eventHandler.c **** #ifdef CYBLE_GLS_CLIENT
 140:.\Generated_Source\PSoC4/BLE_eventHandler.c ****     {{CYBLE_GATT_INVALID_ATTR_HANDLE_VALUE, CYBLE_GATT_INVALID_ATTR_HANDLE_VALUE}, CYBLE_UUID_GLUCO
 141:.\Generated_Source\PSoC4/BLE_eventHandler.c **** #endif /* CYBLE_GLS_CLIENT */
 142:.\Generated_Source\PSoC4/BLE_eventHandler.c **** #ifdef CYBLE_HIDS_CLIENT
 143:.\Generated_Source\PSoC4/BLE_eventHandler.c ****     {{CYBLE_GATT_INVALID_ATTR_HANDLE_VALUE, CYBLE_GATT_INVALID_ATTR_HANDLE_VALUE}, CYBLE_UUID_HIDS_
 144:.\Generated_Source\PSoC4/BLE_eventHandler.c ****     #if(CYBLE_HIDSC_SERVICE_COUNT > 1u) /* Generate it by GUI */
 145:.\Generated_Source\PSoC4/BLE_eventHandler.c ****         
 146:.\Generated_Source\PSoC4/BLE_eventHandler.c ****     #endif /* CYBLE_HIDSC_SERVICE_COUNT > 1u */
 147:.\Generated_Source\PSoC4/BLE_eventHandler.c **** #endif /* CYBLE_HIDS_CLIENT */
 148:.\Generated_Source\PSoC4/BLE_eventHandler.c **** #ifdef CYBLE_HRS_CLIENT
 149:.\Generated_Source\PSoC4/BLE_eventHandler.c ****     {{CYBLE_GATT_INVALID_ATTR_HANDLE_VALUE, CYBLE_GATT_INVALID_ATTR_HANDLE_VALUE}, CYBLE_UUID_HEART
 150:.\Generated_Source\PSoC4/BLE_eventHandler.c **** #endif /* CYBLE_HRS_CLIENT */
 151:.\Generated_Source\PSoC4/BLE_eventHandler.c **** #ifdef CYBLE_HTS_CLIENT
 152:.\Generated_Source\PSoC4/BLE_eventHandler.c ****     {{CYBLE_GATT_INVALID_ATTR_HANDLE_VALUE, CYBLE_GATT_INVALID_ATTR_HANDLE_VALUE}, CYBLE_UUID_HEALT
 153:.\Generated_Source\PSoC4/BLE_eventHandler.c **** #endif /* CYBLE_HTS_CLIENT */
 154:.\Generated_Source\PSoC4/BLE_eventHandler.c **** #ifdef CYBLE_IAS_CLIENT
 155:.\Generated_Source\PSoC4/BLE_eventHandler.c ****     {{CYBLE_GATT_INVALID_ATTR_HANDLE_VALUE, CYBLE_GATT_INVALID_ATTR_HANDLE_VALUE}, CYBLE_UUID_IMMED
 156:.\Generated_Source\PSoC4/BLE_eventHandler.c **** #endif /* CYBLE_IAS_CLIENT */
 157:.\Generated_Source\PSoC4/BLE_eventHandler.c **** #ifdef CYBLE_LLS_CLIENT
 158:.\Generated_Source\PSoC4/BLE_eventHandler.c ****     {{CYBLE_GATT_INVALID_ATTR_HANDLE_VALUE, CYBLE_GATT_INVALID_ATTR_HANDLE_VALUE}, CYBLE_UUID_LINK_
 159:.\Generated_Source\PSoC4/BLE_eventHandler.c **** #endif /* CYBLE_LLS_CLIENT */
 160:.\Generated_Source\PSoC4/BLE_eventHandler.c **** #ifdef CYBLE_LNS_CLIENT
 161:.\Generated_Source\PSoC4/BLE_eventHandler.c ****     {{CYBLE_GATT_INVALID_ATTR_HANDLE_VALUE, CYBLE_GATT_INVALID_ATTR_HANDLE_VALUE}, CYBLE_UUID_LOCAT
 162:.\Generated_Source\PSoC4/BLE_eventHandler.c **** #endif /* CYBLE_LNS_CLIENT */
 163:.\Generated_Source\PSoC4/BLE_eventHandler.c **** #ifdef CYBLE_NDCS_CLIENT
 164:.\Generated_Source\PSoC4/BLE_eventHandler.c ****     {{CYBLE_GATT_INVALID_ATTR_HANDLE_VALUE, CYBLE_GATT_INVALID_ATTR_HANDLE_VALUE}, CYBLE_UUID_NEXT_
 165:.\Generated_Source\PSoC4/BLE_eventHandler.c **** #endif /* CYBLE_NDCS_CLIENT */
 166:.\Generated_Source\PSoC4/BLE_eventHandler.c **** #ifdef CYBLE_IPSS_CLIENT
 167:.\Generated_Source\PSoC4/BLE_eventHandler.c ****     {{CYBLE_GATT_INVALID_ATTR_HANDLE_VALUE, CYBLE_GATT_INVALID_ATTR_HANDLE_VALUE}, CYBLE_UUID_INTER
 168:.\Generated_Source\PSoC4/BLE_eventHandler.c **** #endif /* CYBLE_IPSS_CLIENT */
 169:.\Generated_Source\PSoC4/BLE_eventHandler.c **** #ifdef CYBLE_PASS_CLIENT
 170:.\Generated_Source\PSoC4/BLE_eventHandler.c ****     {{CYBLE_GATT_INVALID_ATTR_HANDLE_VALUE, CYBLE_GATT_INVALID_ATTR_HANDLE_VALUE}, CYBLE_UUID_PHONE
 171:.\Generated_Source\PSoC4/BLE_eventHandler.c **** #endif /* CYBLE_PASS_CLIENT */
 172:.\Generated_Source\PSoC4/BLE_eventHandler.c **** #ifdef CYBLE_RSCS_CLIENT
 173:.\Generated_Source\PSoC4/BLE_eventHandler.c ****     {{CYBLE_GATT_INVALID_ATTR_HANDLE_VALUE, CYBLE_GATT_INVALID_ATTR_HANDLE_VALUE}, CYBLE_UUID_RUNNI
 174:.\Generated_Source\PSoC4/BLE_eventHandler.c **** #endif /* CYBLE_RSCS_CLIENT */
 175:.\Generated_Source\PSoC4/BLE_eventHandler.c **** #ifdef CYBLE_RTUS_CLIENT
 176:.\Generated_Source\PSoC4/BLE_eventHandler.c ****     {{CYBLE_GATT_INVALID_ATTR_HANDLE_VALUE, CYBLE_GATT_INVALID_ATTR_HANDLE_VALUE}, CYBLE_UUID_REF_T
 177:.\Generated_Source\PSoC4/BLE_eventHandler.c **** #endif /* CYBLE_RTUS_CLIENT */
 178:.\Generated_Source\PSoC4/BLE_eventHandler.c **** #ifdef CYBLE_SCPS_CLIENT
 179:.\Generated_Source\PSoC4/BLE_eventHandler.c ****     {{CYBLE_GATT_INVALID_ATTR_HANDLE_VALUE, CYBLE_GATT_INVALID_ATTR_HANDLE_VALUE}, CYBLE_UUID_SCAN_
 180:.\Generated_Source\PSoC4/BLE_eventHandler.c **** #endif /* CYBLE_SCPS_CLIENT */
 181:.\Generated_Source\PSoC4/BLE_eventHandler.c **** #ifdef CYBLE_TPS_CLIENT
 182:.\Generated_Source\PSoC4/BLE_eventHandler.c ****     {{CYBLE_GATT_INVALID_ATTR_HANDLE_VALUE, CYBLE_GATT_INVALID_ATTR_HANDLE_VALUE}, CYBLE_UUID_TX_PO
 183:.\Generated_Source\PSoC4/BLE_eventHandler.c **** #endif /* CYBLE_TPS_CLIENT */
 184:.\Generated_Source\PSoC4/BLE_eventHandler.c **** #ifdef CYBLE_UDS_CLIENT
 185:.\Generated_Source\PSoC4/BLE_eventHandler.c ****     {{CYBLE_GATT_INVALID_ATTR_HANDLE_VALUE, CYBLE_GATT_INVALID_ATTR_HANDLE_VALUE}, CYBLE_UUID_USER_
 186:.\Generated_Source\PSoC4/BLE_eventHandler.c **** #endif /* CYBLE_UDS_CLIENT */
 187:.\Generated_Source\PSoC4/BLE_eventHandler.c **** #ifdef CYBLE_WPTS_CLIENT
 188:.\Generated_Source\PSoC4/BLE_eventHandler.c ****     {{CYBLE_GATT_INVALID_ATTR_HANDLE_VALUE, CYBLE_GATT_INVALID_ATTR_HANDLE_VALUE}, CYBLE_UUID_WIREL
 189:.\Generated_Source\PSoC4/BLE_eventHandler.c **** #endif /* CYBLE_WPTS_CLIENT */
 190:.\Generated_Source\PSoC4/BLE_eventHandler.c **** };
ARM GAS  C:\Users\KEVINH~1\AppData\Local\Temp\ccC6tirb.s 			page 5


 191:.\Generated_Source\PSoC4/BLE_eventHandler.c **** 
 192:.\Generated_Source\PSoC4/BLE_eventHandler.c **** CYBLE_GAPC_T cyBle_gapc;
 193:.\Generated_Source\PSoC4/BLE_eventHandler.c **** 
 194:.\Generated_Source\PSoC4/BLE_eventHandler.c **** #endif /* CYBLE_GATT_ROLE_CLIENT */
 195:.\Generated_Source\PSoC4/BLE_eventHandler.c **** 
 196:.\Generated_Source\PSoC4/BLE_eventHandler.c **** /* Default device security */
 197:.\Generated_Source\PSoC4/BLE_eventHandler.c **** CYBLE_GAP_AUTH_INFO_T cyBle_authInfo =
 198:.\Generated_Source\PSoC4/BLE_eventHandler.c **** {
 199:.\Generated_Source\PSoC4/BLE_eventHandler.c ****     (CYBLE_GAP_SEC_MODE_1 | CYBLE_GAP_SEC_LEVEL_1 ), /* uint8 security */
 200:.\Generated_Source\PSoC4/BLE_eventHandler.c ****     CYBLE_GAP_BONDING_NONE, /* uint8 bonding */
 201:.\Generated_Source\PSoC4/BLE_eventHandler.c ****     0x10u,      /* uint8 ekeySize */
 202:.\Generated_Source\PSoC4/BLE_eventHandler.c ****     CYBLE_GAP_AUTH_ERROR_NONE, /* CYBLE_AUTH_FAILED_REASON_T authErr */
 203:.\Generated_Source\PSoC4/BLE_eventHandler.c **** };
 204:.\Generated_Source\PSoC4/BLE_eventHandler.c **** 
 205:.\Generated_Source\PSoC4/BLE_eventHandler.c **** #if(CYBLE_GATT_ROLE_SERVER)
 206:.\Generated_Source\PSoC4/BLE_eventHandler.c **** 
 207:.\Generated_Source\PSoC4/BLE_eventHandler.c **** 
 208:.\Generated_Source\PSoC4/BLE_eventHandler.c **** /******************************************************************************    
 209:.\Generated_Source\PSoC4/BLE_eventHandler.c **** ##Function Name: CyBle_WriteReqHandler
 210:.\Generated_Source\PSoC4/BLE_eventHandler.c **** *******************************************************************************
 211:.\Generated_Source\PSoC4/BLE_eventHandler.c **** 
 212:.\Generated_Source\PSoC4/BLE_eventHandler.c **** Summary:
 213:.\Generated_Source\PSoC4/BLE_eventHandler.c ****  Handles the Write Request event from BLE stack.
 214:.\Generated_Source\PSoC4/BLE_eventHandler.c **** 
 215:.\Generated_Source\PSoC4/BLE_eventHandler.c **** Parameters:
 216:.\Generated_Source\PSoC4/BLE_eventHandler.c ****  CYBLE_GATTS_WRITE_REQ_PARAM_T * eventParam - event parameter
 217:.\Generated_Source\PSoC4/BLE_eventHandler.c **** 
 218:.\Generated_Source\PSoC4/BLE_eventHandler.c **** Return:
 219:.\Generated_Source\PSoC4/BLE_eventHandler.c ****  None
 220:.\Generated_Source\PSoC4/BLE_eventHandler.c **** 
 221:.\Generated_Source\PSoC4/BLE_eventHandler.c **** ******************************************************************************/
 222:.\Generated_Source\PSoC4/BLE_eventHandler.c **** static void CyBle_WriteReqHandler(CYBLE_GATTS_WRITE_REQ_PARAM_T *eventParam)
 223:.\Generated_Source\PSoC4/BLE_eventHandler.c **** {
  39              		.loc 1 223 0
  40              		.cfi_startproc
  41 0000 90B5     		push	{r4, r7, lr}
  42              		.cfi_def_cfa_offset 12
  43              		.cfi_offset 4, -12
  44              		.cfi_offset 7, -8
  45              		.cfi_offset 14, -4
  46 0002 85B0     		sub	sp, sp, #20
  47              		.cfi_def_cfa_offset 32
  48 0004 00AF     		add	r7, sp, #0
  49              		.cfi_def_cfa_register 7
  50 0006 7860     		str	r0, [r7, #4]
 224:.\Generated_Source\PSoC4/BLE_eventHandler.c ****     CYBLE_GATT_ERR_CODE_T gattErr;
 225:.\Generated_Source\PSoC4/BLE_eventHandler.c **** #if defined CYBLE_CTS_SERVER || defined CYBLE_ESS_SERVER
 226:.\Generated_Source\PSoC4/BLE_eventHandler.c ****     cyBle_gattError = CYBLE_GATT_ERR_NONE;
 227:.\Generated_Source\PSoC4/BLE_eventHandler.c **** #endif /* defined CYBLE_CTS_SERVER || defined CYBLE_ESS_SERVER */
 228:.\Generated_Source\PSoC4/BLE_eventHandler.c ****     
 229:.\Generated_Source\PSoC4/BLE_eventHandler.c ****     gattErr = CyBle_GattsWriteEventHandler(eventParam);
  51              		.loc 1 229 0
  52 0008 3C1C     		mov	r4, r7
  53 000a 0F34     		add	r4, r4, #15
  54 000c 7B68     		ldr	r3, [r7, #4]
  55 000e 181C     		mov	r0, r3
  56 0010 FFF7FEFF 		bl	CyBle_GattsWriteEventHandler
ARM GAS  C:\Users\KEVINH~1\AppData\Local\Temp\ccC6tirb.s 			page 6


  57 0014 031C     		mov	r3, r0
  58 0016 2370     		strb	r3, [r4]
 230:.\Generated_Source\PSoC4/BLE_eventHandler.c **** #ifdef CYBLE_ANCS_SERVER
 231:.\Generated_Source\PSoC4/BLE_eventHandler.c ****     if(((cyBle_eventHandlerFlag & CYBLE_CALLBACK) != 0u) && (gattErr == CYBLE_GATT_ERR_NONE))
 232:.\Generated_Source\PSoC4/BLE_eventHandler.c ****     {
 233:.\Generated_Source\PSoC4/BLE_eventHandler.c ****         gattErr = CyBle_AncssWriteEventHandler(eventParam);
 234:.\Generated_Source\PSoC4/BLE_eventHandler.c ****     }
 235:.\Generated_Source\PSoC4/BLE_eventHandler.c **** #endif /* CYBLE_ANCS_SERVER */
 236:.\Generated_Source\PSoC4/BLE_eventHandler.c **** #ifdef CYBLE_ANS_SERVER
 237:.\Generated_Source\PSoC4/BLE_eventHandler.c ****     if(((cyBle_eventHandlerFlag & CYBLE_CALLBACK) != 0u) && (gattErr == CYBLE_GATT_ERR_NONE))
 238:.\Generated_Source\PSoC4/BLE_eventHandler.c ****     {
 239:.\Generated_Source\PSoC4/BLE_eventHandler.c ****         gattErr = CyBle_AnssWriteEventHandler(eventParam);
 240:.\Generated_Source\PSoC4/BLE_eventHandler.c ****     }
 241:.\Generated_Source\PSoC4/BLE_eventHandler.c **** #endif /* CYBLE_ANS_SERVER */
 242:.\Generated_Source\PSoC4/BLE_eventHandler.c **** #ifdef CYBLE_BAS_SERVER
 243:.\Generated_Source\PSoC4/BLE_eventHandler.c ****     if(((cyBle_eventHandlerFlag & CYBLE_CALLBACK) != 0u) && (gattErr == CYBLE_GATT_ERR_NONE))
 244:.\Generated_Source\PSoC4/BLE_eventHandler.c ****     {
 245:.\Generated_Source\PSoC4/BLE_eventHandler.c ****         gattErr = CyBle_BassWriteEventHandler(eventParam);
 246:.\Generated_Source\PSoC4/BLE_eventHandler.c ****     }
 247:.\Generated_Source\PSoC4/BLE_eventHandler.c **** #endif /* CYBLE_BAS_SERVER */
 248:.\Generated_Source\PSoC4/BLE_eventHandler.c **** #ifdef CYBLE_BLS_SERVER
 249:.\Generated_Source\PSoC4/BLE_eventHandler.c ****     if(((cyBle_eventHandlerFlag & CYBLE_CALLBACK) != 0u) && (gattErr == CYBLE_GATT_ERR_NONE))
 250:.\Generated_Source\PSoC4/BLE_eventHandler.c ****     {
 251:.\Generated_Source\PSoC4/BLE_eventHandler.c ****         gattErr = CyBle_BlssWriteEventHandler(eventParam);
 252:.\Generated_Source\PSoC4/BLE_eventHandler.c ****     }
 253:.\Generated_Source\PSoC4/BLE_eventHandler.c **** #endif /* CYBLE_BLS_SERVER */
 254:.\Generated_Source\PSoC4/BLE_eventHandler.c **** #ifdef CYBLE_BMS_SERVER
 255:.\Generated_Source\PSoC4/BLE_eventHandler.c ****     if(((cyBle_eventHandlerFlag & CYBLE_CALLBACK) != 0u) && (gattErr == CYBLE_GATT_ERR_NONE))
 256:.\Generated_Source\PSoC4/BLE_eventHandler.c ****     {
 257:.\Generated_Source\PSoC4/BLE_eventHandler.c ****         gattErr = CyBle_BmssWriteEventHandler(eventParam);
 258:.\Generated_Source\PSoC4/BLE_eventHandler.c ****     }
 259:.\Generated_Source\PSoC4/BLE_eventHandler.c **** #endif /* CYBLE_BMS_SERVER */
 260:.\Generated_Source\PSoC4/BLE_eventHandler.c **** #ifdef CYBLE_BTS_SERVER
 261:.\Generated_Source\PSoC4/BLE_eventHandler.c ****     if((cyBle_eventHandlerFlag & CYBLE_CALLBACK) != 0u)
 262:.\Generated_Source\PSoC4/BLE_eventHandler.c ****     {
 263:.\Generated_Source\PSoC4/BLE_eventHandler.c ****         gattErr = CyBle_BtsWriteEventHandler(eventParam);
 264:.\Generated_Source\PSoC4/BLE_eventHandler.c ****     }
 265:.\Generated_Source\PSoC4/BLE_eventHandler.c **** #endif /* CYBLE_BTS_SERVER */
 266:.\Generated_Source\PSoC4/BLE_eventHandler.c **** #ifdef CYBLE_CGMS_SERVER
 267:.\Generated_Source\PSoC4/BLE_eventHandler.c ****     if(((cyBle_eventHandlerFlag & CYBLE_CALLBACK) != 0u) && (gattErr == CYBLE_GATT_ERR_NONE))
 268:.\Generated_Source\PSoC4/BLE_eventHandler.c ****     {
 269:.\Generated_Source\PSoC4/BLE_eventHandler.c ****         gattErr = CyBle_CgmssWriteEventHandler(eventParam);
 270:.\Generated_Source\PSoC4/BLE_eventHandler.c ****     }
 271:.\Generated_Source\PSoC4/BLE_eventHandler.c **** #endif /* CYBLE_CGMS_SERVER */
 272:.\Generated_Source\PSoC4/BLE_eventHandler.c **** #ifdef CYBLE_CPS_SERVER
 273:.\Generated_Source\PSoC4/BLE_eventHandler.c ****     if(((cyBle_eventHandlerFlag & CYBLE_CALLBACK) != 0u) && (gattErr == CYBLE_GATT_ERR_NONE))
 274:.\Generated_Source\PSoC4/BLE_eventHandler.c ****     {
 275:.\Generated_Source\PSoC4/BLE_eventHandler.c ****         gattErr = CyBle_CpssWriteEventHandler(eventParam);
 276:.\Generated_Source\PSoC4/BLE_eventHandler.c ****     }
 277:.\Generated_Source\PSoC4/BLE_eventHandler.c **** #endif /* CYBLE_CPS_SERVER */
 278:.\Generated_Source\PSoC4/BLE_eventHandler.c **** #ifdef CYBLE_CSCS_SERVER
 279:.\Generated_Source\PSoC4/BLE_eventHandler.c ****     if(((cyBle_eventHandlerFlag & CYBLE_CALLBACK) != 0u) && (gattErr == CYBLE_GATT_ERR_NONE))
 280:.\Generated_Source\PSoC4/BLE_eventHandler.c ****     {
 281:.\Generated_Source\PSoC4/BLE_eventHandler.c ****         gattErr = CyBle_CscssWriteEventHandler(eventParam);
 282:.\Generated_Source\PSoC4/BLE_eventHandler.c ****     }
 283:.\Generated_Source\PSoC4/BLE_eventHandler.c **** #endif /* CYBLE_CSCS_SERVER */
 284:.\Generated_Source\PSoC4/BLE_eventHandler.c **** #ifdef CYBLE_CTS_SERVER
ARM GAS  C:\Users\KEVINH~1\AppData\Local\Temp\ccC6tirb.s 			page 7


 285:.\Generated_Source\PSoC4/BLE_eventHandler.c ****     if(((cyBle_eventHandlerFlag & CYBLE_CALLBACK) != 0u) && (gattErr == CYBLE_GATT_ERR_NONE))
 286:.\Generated_Source\PSoC4/BLE_eventHandler.c ****     {
 287:.\Generated_Source\PSoC4/BLE_eventHandler.c ****         gattErr = CyBle_CtssWriteEventHandler(eventParam);
 288:.\Generated_Source\PSoC4/BLE_eventHandler.c ****     }
 289:.\Generated_Source\PSoC4/BLE_eventHandler.c **** #endif /* CYBLE_CTS_SERVER */
 290:.\Generated_Source\PSoC4/BLE_eventHandler.c **** #ifdef CYBLE_ESS_SERVER
 291:.\Generated_Source\PSoC4/BLE_eventHandler.c ****     if(((cyBle_eventHandlerFlag & CYBLE_CALLBACK) != 0u) && (gattErr == CYBLE_GATT_ERR_NONE))
 292:.\Generated_Source\PSoC4/BLE_eventHandler.c ****     {
 293:.\Generated_Source\PSoC4/BLE_eventHandler.c ****         gattErr = CyBle_EsssWriteEventHandler(eventParam);
 294:.\Generated_Source\PSoC4/BLE_eventHandler.c ****     }
 295:.\Generated_Source\PSoC4/BLE_eventHandler.c **** #endif /* CYBLE_ESS_SERVER */
 296:.\Generated_Source\PSoC4/BLE_eventHandler.c **** #ifdef CYBLE_GLS_SERVER
 297:.\Generated_Source\PSoC4/BLE_eventHandler.c ****     if(((cyBle_eventHandlerFlag & CYBLE_CALLBACK) != 0u) && (gattErr == CYBLE_GATT_ERR_NONE))
 298:.\Generated_Source\PSoC4/BLE_eventHandler.c ****     {
 299:.\Generated_Source\PSoC4/BLE_eventHandler.c ****         gattErr = CyBle_GlssWriteEventHandler(eventParam);
 300:.\Generated_Source\PSoC4/BLE_eventHandler.c ****     }
 301:.\Generated_Source\PSoC4/BLE_eventHandler.c **** #endif /* CYBLE_GLS_SERVER */
 302:.\Generated_Source\PSoC4/BLE_eventHandler.c **** #ifdef CYBLE_HIDS_SERVER
 303:.\Generated_Source\PSoC4/BLE_eventHandler.c ****     if(((cyBle_eventHandlerFlag & CYBLE_CALLBACK) != 0u) && (gattErr == CYBLE_GATT_ERR_NONE))
 304:.\Generated_Source\PSoC4/BLE_eventHandler.c ****     {
 305:.\Generated_Source\PSoC4/BLE_eventHandler.c ****         gattErr = CyBle_HidssWriteEventHandler(eventParam);
 306:.\Generated_Source\PSoC4/BLE_eventHandler.c ****     }
 307:.\Generated_Source\PSoC4/BLE_eventHandler.c **** #endif /* CYBLE_HIDS_SERVER */
 308:.\Generated_Source\PSoC4/BLE_eventHandler.c **** #ifdef CYBLE_HRS_SERVER
 309:.\Generated_Source\PSoC4/BLE_eventHandler.c ****     if(((cyBle_eventHandlerFlag & CYBLE_CALLBACK) != 0u) && (gattErr == CYBLE_GATT_ERR_NONE))
  59              		.loc 1 309 0
  60 0018 1E4B     		ldr	r3, .L5
  61 001a 1B78     		ldrb	r3, [r3]
  62 001c DBB2     		uxtb	r3, r3
  63 001e 1A1C     		mov	r2, r3
  64 0020 0123     		mov	r3, #1
  65 0022 1340     		and	r3, r2
  66 0024 0CD0     		beq	.L2
  67              		.loc 1 309 0 is_stmt 0 discriminator 1
  68 0026 3B1C     		mov	r3, r7
  69 0028 0F33     		add	r3, r3, #15
  70 002a 1B78     		ldrb	r3, [r3]
  71 002c 002B     		cmp	r3, #0
  72 002e 07D1     		bne	.L2
 310:.\Generated_Source\PSoC4/BLE_eventHandler.c ****     {
 311:.\Generated_Source\PSoC4/BLE_eventHandler.c ****         gattErr = CyBle_HrssWriteEventHandler(eventParam);
  73              		.loc 1 311 0 is_stmt 1
  74 0030 3C1C     		mov	r4, r7
  75 0032 0F34     		add	r4, r4, #15
  76 0034 7B68     		ldr	r3, [r7, #4]
  77 0036 181C     		mov	r0, r3
  78 0038 FFF7FEFF 		bl	CyBle_HrssWriteEventHandler
  79 003c 031C     		mov	r3, r0
  80 003e 2370     		strb	r3, [r4]
  81              	.L2:
 312:.\Generated_Source\PSoC4/BLE_eventHandler.c ****     }
 313:.\Generated_Source\PSoC4/BLE_eventHandler.c **** #endif /* CYBLE_HRS_SERVER */
 314:.\Generated_Source\PSoC4/BLE_eventHandler.c **** #ifdef CYBLE_HTS_SERVER
 315:.\Generated_Source\PSoC4/BLE_eventHandler.c ****     if(((cyBle_eventHandlerFlag & CYBLE_CALLBACK) != 0u) && (gattErr == CYBLE_GATT_ERR_NONE))
 316:.\Generated_Source\PSoC4/BLE_eventHandler.c ****     {
 317:.\Generated_Source\PSoC4/BLE_eventHandler.c ****         gattErr = CyBle_HtssWriteEventHandler(eventParam);
 318:.\Generated_Source\PSoC4/BLE_eventHandler.c ****     }
ARM GAS  C:\Users\KEVINH~1\AppData\Local\Temp\ccC6tirb.s 			page 8


 319:.\Generated_Source\PSoC4/BLE_eventHandler.c **** #endif /* CYBLE_HTS_SERVER */
 320:.\Generated_Source\PSoC4/BLE_eventHandler.c **** #ifdef CYBLE_LLS_SERVER
 321:.\Generated_Source\PSoC4/BLE_eventHandler.c ****     if(((cyBle_eventHandlerFlag & CYBLE_CALLBACK) != 0u) && (gattErr == CYBLE_GATT_ERR_NONE))
 322:.\Generated_Source\PSoC4/BLE_eventHandler.c ****     {
 323:.\Generated_Source\PSoC4/BLE_eventHandler.c ****         gattErr = CyBle_LlssWriteEventHandler(eventParam);
 324:.\Generated_Source\PSoC4/BLE_eventHandler.c ****     }
 325:.\Generated_Source\PSoC4/BLE_eventHandler.c **** #endif /* CYBLE_LLS_SERVER */
 326:.\Generated_Source\PSoC4/BLE_eventHandler.c **** #ifdef CYBLE_LNS_SERVER
 327:.\Generated_Source\PSoC4/BLE_eventHandler.c ****     if(((cyBle_eventHandlerFlag & CYBLE_CALLBACK) != 0u) && (gattErr == CYBLE_GATT_ERR_NONE))
 328:.\Generated_Source\PSoC4/BLE_eventHandler.c ****     {
 329:.\Generated_Source\PSoC4/BLE_eventHandler.c ****         gattErr = CyBle_LnssWriteEventHandler(eventParam);
 330:.\Generated_Source\PSoC4/BLE_eventHandler.c ****     }
 331:.\Generated_Source\PSoC4/BLE_eventHandler.c **** #endif /* CYBLE_LNS_SERVER */
 332:.\Generated_Source\PSoC4/BLE_eventHandler.c **** #ifdef CYBLE_PASS_SERVER
 333:.\Generated_Source\PSoC4/BLE_eventHandler.c ****     if(((cyBle_eventHandlerFlag & CYBLE_CALLBACK) != 0u) && (gattErr == CYBLE_GATT_ERR_NONE))
 334:.\Generated_Source\PSoC4/BLE_eventHandler.c ****     {
 335:.\Generated_Source\PSoC4/BLE_eventHandler.c ****         gattErr = CyBle_PasssWriteEventHandler(eventParam);
 336:.\Generated_Source\PSoC4/BLE_eventHandler.c ****     }
 337:.\Generated_Source\PSoC4/BLE_eventHandler.c **** #endif /* CYBLE_PASS_SERVER */
 338:.\Generated_Source\PSoC4/BLE_eventHandler.c **** #ifdef CYBLE_RSCS_SERVER
 339:.\Generated_Source\PSoC4/BLE_eventHandler.c ****     if(((cyBle_eventHandlerFlag & CYBLE_CALLBACK) != 0u) && (gattErr == CYBLE_GATT_ERR_NONE))
 340:.\Generated_Source\PSoC4/BLE_eventHandler.c ****     {
 341:.\Generated_Source\PSoC4/BLE_eventHandler.c ****         gattErr = CyBle_RscssWriteEventHandler(eventParam);
 342:.\Generated_Source\PSoC4/BLE_eventHandler.c ****     }
 343:.\Generated_Source\PSoC4/BLE_eventHandler.c **** #endif /* CYBLE_RSCS_SERVER */
 344:.\Generated_Source\PSoC4/BLE_eventHandler.c **** #ifdef CYBLE_SCPS_SERVER
 345:.\Generated_Source\PSoC4/BLE_eventHandler.c ****     if(((cyBle_eventHandlerFlag & CYBLE_CALLBACK) != 0u) && (gattErr == CYBLE_GATT_ERR_NONE))
 346:.\Generated_Source\PSoC4/BLE_eventHandler.c ****     {
 347:.\Generated_Source\PSoC4/BLE_eventHandler.c ****         gattErr = CyBle_ScpssWriteEventHandler(eventParam);
 348:.\Generated_Source\PSoC4/BLE_eventHandler.c ****     }
 349:.\Generated_Source\PSoC4/BLE_eventHandler.c **** #endif /* CYBLE_SCPS_SERVER */
 350:.\Generated_Source\PSoC4/BLE_eventHandler.c **** #ifdef CYBLE_TPS_SERVER
 351:.\Generated_Source\PSoC4/BLE_eventHandler.c ****     if(((cyBle_eventHandlerFlag & CYBLE_CALLBACK) != 0u) && (gattErr == CYBLE_GATT_ERR_NONE))
 352:.\Generated_Source\PSoC4/BLE_eventHandler.c ****     {
 353:.\Generated_Source\PSoC4/BLE_eventHandler.c ****         gattErr = CyBle_TpssWriteEventHandler(eventParam);
 354:.\Generated_Source\PSoC4/BLE_eventHandler.c ****     }
 355:.\Generated_Source\PSoC4/BLE_eventHandler.c **** #endif /* CYBLE_TPS_SERVER */
 356:.\Generated_Source\PSoC4/BLE_eventHandler.c **** #ifdef CYBLE_UDS_SERVER
 357:.\Generated_Source\PSoC4/BLE_eventHandler.c ****     if(((cyBle_eventHandlerFlag & CYBLE_CALLBACK) != 0u) && (gattErr == CYBLE_GATT_ERR_NONE))
 358:.\Generated_Source\PSoC4/BLE_eventHandler.c ****     {
 359:.\Generated_Source\PSoC4/BLE_eventHandler.c ****         gattErr = CyBle_UdssWriteEventHandler(eventParam);
 360:.\Generated_Source\PSoC4/BLE_eventHandler.c ****     }
 361:.\Generated_Source\PSoC4/BLE_eventHandler.c **** #endif /* CYBLE_UDS_SERVER */
 362:.\Generated_Source\PSoC4/BLE_eventHandler.c **** #ifdef CYBLE_WPTS_SERVER
 363:.\Generated_Source\PSoC4/BLE_eventHandler.c ****     if(((cyBle_eventHandlerFlag & CYBLE_CALLBACK) != 0u) && (gattErr == CYBLE_GATT_ERR_NONE))
 364:.\Generated_Source\PSoC4/BLE_eventHandler.c ****     {
 365:.\Generated_Source\PSoC4/BLE_eventHandler.c ****         gattErr = CyBle_WptssWriteEventHandler(eventParam);
 366:.\Generated_Source\PSoC4/BLE_eventHandler.c ****     }
 367:.\Generated_Source\PSoC4/BLE_eventHandler.c **** #endif /* CYBLE_WPTS_SERVER */
 368:.\Generated_Source\PSoC4/BLE_eventHandler.c **** #ifdef CYBLE_WSS_SERVER
 369:.\Generated_Source\PSoC4/BLE_eventHandler.c ****     if(((cyBle_eventHandlerFlag & CYBLE_CALLBACK) != 0u) && (gattErr == CYBLE_GATT_ERR_NONE))
 370:.\Generated_Source\PSoC4/BLE_eventHandler.c ****     {
 371:.\Generated_Source\PSoC4/BLE_eventHandler.c ****         gattErr = CyBle_WsssWriteEventHandler(eventParam);
 372:.\Generated_Source\PSoC4/BLE_eventHandler.c ****     }
 373:.\Generated_Source\PSoC4/BLE_eventHandler.c **** #endif /* CYBLE_WSS_SERVER */
 374:.\Generated_Source\PSoC4/BLE_eventHandler.c **** 
 375:.\Generated_Source\PSoC4/BLE_eventHandler.c ****     /* Send response when event was handled by service */
ARM GAS  C:\Users\KEVINH~1\AppData\Local\Temp\ccC6tirb.s 			page 9


 376:.\Generated_Source\PSoC4/BLE_eventHandler.c ****     if((cyBle_eventHandlerFlag & CYBLE_CALLBACK) == 0u)
  82              		.loc 1 376 0
  83 0040 144B     		ldr	r3, .L5
  84 0042 1B78     		ldrb	r3, [r3]
  85 0044 DBB2     		uxtb	r3, r3
  86 0046 1A1C     		mov	r2, r3
  87 0048 0123     		mov	r3, #1
  88 004a 1340     		and	r3, r2
  89 004c 1FD1     		bne	.L1
 377:.\Generated_Source\PSoC4/BLE_eventHandler.c ****     {
 378:.\Generated_Source\PSoC4/BLE_eventHandler.c ****         if(gattErr != CYBLE_GATT_ERR_NONE)
  90              		.loc 1 378 0
  91 004e 3B1C     		mov	r3, r7
  92 0050 0F33     		add	r3, r3, #15
  93 0052 1B78     		ldrb	r3, [r3]
  94 0054 002B     		cmp	r3, #0
  95 0056 16D0     		beq	.L4
  96              	.LBB2:
 379:.\Generated_Source\PSoC4/BLE_eventHandler.c ****         {
 380:.\Generated_Source\PSoC4/BLE_eventHandler.c ****             CYBLE_GATTS_ERR_PARAM_T err_param;
 381:.\Generated_Source\PSoC4/BLE_eventHandler.c ****             
 382:.\Generated_Source\PSoC4/BLE_eventHandler.c ****             err_param.opcode = (uint8) CYBLE_GATT_WRITE_REQ;
  97              		.loc 1 382 0
  98 0058 3B1C     		mov	r3, r7
  99 005a 0833     		add	r3, r3, #8
 100 005c 1222     		mov	r2, #18
 101 005e 9A70     		strb	r2, [r3, #2]
 383:.\Generated_Source\PSoC4/BLE_eventHandler.c ****             err_param.attrHandle = eventParam->handleValPair.attrHandle;
 102              		.loc 1 383 0
 103 0060 7B68     		ldr	r3, [r7, #4]
 104 0062 9A89     		ldrh	r2, [r3, #12]
 105 0064 3B1C     		mov	r3, r7
 106 0066 0833     		add	r3, r3, #8
 107 0068 1A80     		strh	r2, [r3]
 384:.\Generated_Source\PSoC4/BLE_eventHandler.c ****             err_param.errorCode = gattErr;
 108              		.loc 1 384 0
 109 006a 3B1C     		mov	r3, r7
 110 006c 0833     		add	r3, r3, #8
 111 006e 3A1C     		mov	r2, r7
 112 0070 0F32     		add	r2, r2, #15
 113 0072 1278     		ldrb	r2, [r2]
 114 0074 DA70     		strb	r2, [r3, #3]
 385:.\Generated_Source\PSoC4/BLE_eventHandler.c **** 
 386:.\Generated_Source\PSoC4/BLE_eventHandler.c ****             /* Send Error Response */
 387:.\Generated_Source\PSoC4/BLE_eventHandler.c ****             (void)CyBle_GattsErrorRsp(eventParam->connHandle, &err_param);
 115              		.loc 1 387 0
 116 0076 7B68     		ldr	r3, [r7, #4]
 117 0078 3A1C     		mov	r2, r7
 118 007a 0832     		add	r2, r2, #8
 119 007c 1868     		ldr	r0, [r3]
 120 007e 111C     		mov	r1, r2
 121 0080 FFF7FEFF 		bl	CyBle_GattsErrorRsp
 122              	.LBE2:
 123 0084 03E0     		b	.L1
 124              	.L4:
 388:.\Generated_Source\PSoC4/BLE_eventHandler.c ****         }
 389:.\Generated_Source\PSoC4/BLE_eventHandler.c ****         else
ARM GAS  C:\Users\KEVINH~1\AppData\Local\Temp\ccC6tirb.s 			page 10


 390:.\Generated_Source\PSoC4/BLE_eventHandler.c ****         {
 391:.\Generated_Source\PSoC4/BLE_eventHandler.c ****             (void)CyBle_GattsWriteRsp(eventParam->connHandle);
 125              		.loc 1 391 0
 126 0086 7B68     		ldr	r3, [r7, #4]
 127 0088 1868     		ldr	r0, [r3]
 128 008a FFF7FEFF 		bl	CyBle_GattsWriteRsp
 129              	.L1:
 392:.\Generated_Source\PSoC4/BLE_eventHandler.c ****         }
 393:.\Generated_Source\PSoC4/BLE_eventHandler.c ****     }
 394:.\Generated_Source\PSoC4/BLE_eventHandler.c **** }
 130              		.loc 1 394 0
 131 008e BD46     		mov	sp, r7
 132 0090 05B0     		add	sp, sp, #20
 133              		@ sp needed
 134 0092 90BD     		pop	{r4, r7, pc}
 135              	.L6:
 136              		.align	2
 137              	.L5:
 138 0094 00000000 		.word	cyBle_eventHandlerFlag
 139              		.cfi_endproc
 140              	.LFE2:
 141              		.size	CyBle_WriteReqHandler, .-CyBle_WriteReqHandler
 142              		.section	.text.CyBle_ValueConfirmation,"ax",%progbits
 143              		.align	2
 144              		.code	16
 145              		.thumb_func
 146              		.type	CyBle_ValueConfirmation, %function
 147              	CyBle_ValueConfirmation:
 148              	.LFB3:
 395:.\Generated_Source\PSoC4/BLE_eventHandler.c **** 
 396:.\Generated_Source\PSoC4/BLE_eventHandler.c **** 
 397:.\Generated_Source\PSoC4/BLE_eventHandler.c **** /****************************************************************************** 
 398:.\Generated_Source\PSoC4/BLE_eventHandler.c **** ##Function Name: CyBle_ValueConfirmation
 399:.\Generated_Source\PSoC4/BLE_eventHandler.c **** *******************************************************************************
 400:.\Generated_Source\PSoC4/BLE_eventHandler.c **** 
 401:.\Generated_Source\PSoC4/BLE_eventHandler.c **** Summary:
 402:.\Generated_Source\PSoC4/BLE_eventHandler.c ****  Handles the Value Confirmation request event from the BLE stack.
 403:.\Generated_Source\PSoC4/BLE_eventHandler.c **** 
 404:.\Generated_Source\PSoC4/BLE_eventHandler.c **** Parameters:
 405:.\Generated_Source\PSoC4/BLE_eventHandler.c ****  CYBLE_CONN_HANDLE_T *eventParam - Pointer to a structure
 406:.\Generated_Source\PSoC4/BLE_eventHandler.c ****     of type 'CYBLE_CONN_HANDLE_T'
 407:.\Generated_Source\PSoC4/BLE_eventHandler.c **** 
 408:.\Generated_Source\PSoC4/BLE_eventHandler.c **** Return:
 409:.\Generated_Source\PSoC4/BLE_eventHandler.c ****  None
 410:.\Generated_Source\PSoC4/BLE_eventHandler.c **** 
 411:.\Generated_Source\PSoC4/BLE_eventHandler.c **** ******************************************************************************/
 412:.\Generated_Source\PSoC4/BLE_eventHandler.c **** static void CyBle_ValueConfirmation(const CYBLE_CONN_HANDLE_T *eventParam)
 413:.\Generated_Source\PSoC4/BLE_eventHandler.c **** {
 149              		.loc 1 413 0
 150              		.cfi_startproc
 151 0000 80B5     		push	{r7, lr}
 152              		.cfi_def_cfa_offset 8
 153              		.cfi_offset 7, -8
 154              		.cfi_offset 14, -4
 155 0002 82B0     		sub	sp, sp, #8
 156              		.cfi_def_cfa_offset 16
 157 0004 00AF     		add	r7, sp, #0
ARM GAS  C:\Users\KEVINH~1\AppData\Local\Temp\ccC6tirb.s 			page 11


 158              		.cfi_def_cfa_register 7
 159 0006 7860     		str	r0, [r7, #4]
 414:.\Generated_Source\PSoC4/BLE_eventHandler.c ****     if(eventParam != NULL)
 415:.\Generated_Source\PSoC4/BLE_eventHandler.c ****     {
 416:.\Generated_Source\PSoC4/BLE_eventHandler.c ****     #ifdef CYBLE_BLS_SERVER
 417:.\Generated_Source\PSoC4/BLE_eventHandler.c ****         CyBle_BlssConfirmationEventHandler(eventParam);
 418:.\Generated_Source\PSoC4/BLE_eventHandler.c ****     #endif /* CYBLE_BLS_SERVER */
 419:.\Generated_Source\PSoC4/BLE_eventHandler.c ****     
 420:.\Generated_Source\PSoC4/BLE_eventHandler.c ****     #ifdef CYBLE_CGMS_SERVER
 421:.\Generated_Source\PSoC4/BLE_eventHandler.c ****         if((cyBle_eventHandlerFlag & CYBLE_CALLBACK) != 0u)
 422:.\Generated_Source\PSoC4/BLE_eventHandler.c ****         {
 423:.\Generated_Source\PSoC4/BLE_eventHandler.c ****             CyBle_CgmssConfirmationEventHandler(eventParam);
 424:.\Generated_Source\PSoC4/BLE_eventHandler.c ****         }
 425:.\Generated_Source\PSoC4/BLE_eventHandler.c ****     #endif /* CYBLE_CGMS_SERVER */
 426:.\Generated_Source\PSoC4/BLE_eventHandler.c ****     
 427:.\Generated_Source\PSoC4/BLE_eventHandler.c ****     #ifdef CYBLE_CPS_SERVER
 428:.\Generated_Source\PSoC4/BLE_eventHandler.c ****         if((cyBle_eventHandlerFlag & CYBLE_CALLBACK) != 0u)
 429:.\Generated_Source\PSoC4/BLE_eventHandler.c ****         {
 430:.\Generated_Source\PSoC4/BLE_eventHandler.c ****             CyBle_CpssConfirmationEventHandler(eventParam);
 431:.\Generated_Source\PSoC4/BLE_eventHandler.c ****         }
 432:.\Generated_Source\PSoC4/BLE_eventHandler.c ****     #endif /* CYBLE_CPS_SERVER */
 433:.\Generated_Source\PSoC4/BLE_eventHandler.c ****     
 434:.\Generated_Source\PSoC4/BLE_eventHandler.c ****     #ifdef CYBLE_CSCS_SERVER
 435:.\Generated_Source\PSoC4/BLE_eventHandler.c ****         if((cyBle_eventHandlerFlag & CYBLE_CALLBACK) != 0u)
 436:.\Generated_Source\PSoC4/BLE_eventHandler.c ****         {
 437:.\Generated_Source\PSoC4/BLE_eventHandler.c ****             CyBle_CscssConfirmationEventHandler(eventParam);
 438:.\Generated_Source\PSoC4/BLE_eventHandler.c ****         }
 439:.\Generated_Source\PSoC4/BLE_eventHandler.c ****     #endif /* CYBLE_CSCS_SERVER */
 440:.\Generated_Source\PSoC4/BLE_eventHandler.c ****     
 441:.\Generated_Source\PSoC4/BLE_eventHandler.c ****     #ifdef CYBLE_ESS_SERVER
 442:.\Generated_Source\PSoC4/BLE_eventHandler.c ****         if((cyBle_eventHandlerFlag & CYBLE_CALLBACK) != 0u)
 443:.\Generated_Source\PSoC4/BLE_eventHandler.c ****         {
 444:.\Generated_Source\PSoC4/BLE_eventHandler.c ****             CyBle_EsssConfirmationEventHandler(eventParam);
 445:.\Generated_Source\PSoC4/BLE_eventHandler.c ****         }
 446:.\Generated_Source\PSoC4/BLE_eventHandler.c ****     #endif /* CYBLE_ESS_SERVER */
 447:.\Generated_Source\PSoC4/BLE_eventHandler.c ****     
 448:.\Generated_Source\PSoC4/BLE_eventHandler.c ****     #ifdef CYBLE_GLS_SERVER
 449:.\Generated_Source\PSoC4/BLE_eventHandler.c ****         if((cyBle_eventHandlerFlag & CYBLE_CALLBACK) != 0u)
 450:.\Generated_Source\PSoC4/BLE_eventHandler.c ****         {
 451:.\Generated_Source\PSoC4/BLE_eventHandler.c ****             CyBle_GlssConfirmationEventHandler(eventParam);
 452:.\Generated_Source\PSoC4/BLE_eventHandler.c ****         }
 453:.\Generated_Source\PSoC4/BLE_eventHandler.c ****     #endif /* CYBLE_GLS_SERVER */
 454:.\Generated_Source\PSoC4/BLE_eventHandler.c ****     
 455:.\Generated_Source\PSoC4/BLE_eventHandler.c ****     #ifdef CYBLE_HTS_SERVER
 456:.\Generated_Source\PSoC4/BLE_eventHandler.c ****         if((cyBle_eventHandlerFlag & CYBLE_CALLBACK) != 0u)
 457:.\Generated_Source\PSoC4/BLE_eventHandler.c ****         {
 458:.\Generated_Source\PSoC4/BLE_eventHandler.c ****             CyBle_HtssConfirmationEventHandler(eventParam);
 459:.\Generated_Source\PSoC4/BLE_eventHandler.c ****         }
 460:.\Generated_Source\PSoC4/BLE_eventHandler.c ****     #endif /* CYBLE_HTS_SERVER */
 461:.\Generated_Source\PSoC4/BLE_eventHandler.c **** 
 462:.\Generated_Source\PSoC4/BLE_eventHandler.c ****     #ifdef CYBLE_LNS_SERVER
 463:.\Generated_Source\PSoC4/BLE_eventHandler.c ****         if((cyBle_eventHandlerFlag & CYBLE_CALLBACK) != 0u)
 464:.\Generated_Source\PSoC4/BLE_eventHandler.c ****         {
 465:.\Generated_Source\PSoC4/BLE_eventHandler.c ****             CyBle_LnssConfirmationEventHandler(eventParam);
 466:.\Generated_Source\PSoC4/BLE_eventHandler.c ****         }
 467:.\Generated_Source\PSoC4/BLE_eventHandler.c ****     #endif /* CYBLE_LNS_SERVER */
 468:.\Generated_Source\PSoC4/BLE_eventHandler.c ****     
ARM GAS  C:\Users\KEVINH~1\AppData\Local\Temp\ccC6tirb.s 			page 12


 469:.\Generated_Source\PSoC4/BLE_eventHandler.c ****     #ifdef CYBLE_RSCS_SERVER
 470:.\Generated_Source\PSoC4/BLE_eventHandler.c ****         if((cyBle_eventHandlerFlag & CYBLE_CALLBACK) != 0u)
 471:.\Generated_Source\PSoC4/BLE_eventHandler.c ****         {
 472:.\Generated_Source\PSoC4/BLE_eventHandler.c ****             CyBle_RscssConfirmationEventHandler(eventParam);
 473:.\Generated_Source\PSoC4/BLE_eventHandler.c ****         }
 474:.\Generated_Source\PSoC4/BLE_eventHandler.c ****     #endif /* CYBLE_RSCS_SERVER */
 475:.\Generated_Source\PSoC4/BLE_eventHandler.c ****     
 476:.\Generated_Source\PSoC4/BLE_eventHandler.c ****     #ifdef CYBLE_UDS_SERVER
 477:.\Generated_Source\PSoC4/BLE_eventHandler.c ****         if((cyBle_eventHandlerFlag & CYBLE_CALLBACK) != 0u)
 478:.\Generated_Source\PSoC4/BLE_eventHandler.c ****         {
 479:.\Generated_Source\PSoC4/BLE_eventHandler.c ****             CyBle_UdssConfirmationEventHandler(eventParam);
 480:.\Generated_Source\PSoC4/BLE_eventHandler.c ****         }
 481:.\Generated_Source\PSoC4/BLE_eventHandler.c ****     #endif /* CYBLE_UDS_SERVER */
 482:.\Generated_Source\PSoC4/BLE_eventHandler.c ****     
 483:.\Generated_Source\PSoC4/BLE_eventHandler.c ****     #ifdef CYBLE_WPTS_SERVER
 484:.\Generated_Source\PSoC4/BLE_eventHandler.c ****         if((cyBle_eventHandlerFlag & CYBLE_CALLBACK) != 0u)
 485:.\Generated_Source\PSoC4/BLE_eventHandler.c ****         {
 486:.\Generated_Source\PSoC4/BLE_eventHandler.c ****             CyBle_WptssConfirmationEventHandler(eventParam);
 487:.\Generated_Source\PSoC4/BLE_eventHandler.c ****         }
 488:.\Generated_Source\PSoC4/BLE_eventHandler.c ****     #endif /* CYBLE_WPTS_SERVER */
 489:.\Generated_Source\PSoC4/BLE_eventHandler.c ****     
 490:.\Generated_Source\PSoC4/BLE_eventHandler.c ****     #ifdef CYBLE_WSS_SERVER
 491:.\Generated_Source\PSoC4/BLE_eventHandler.c ****         if((cyBle_eventHandlerFlag & CYBLE_CALLBACK) != 0u)
 492:.\Generated_Source\PSoC4/BLE_eventHandler.c ****         {
 493:.\Generated_Source\PSoC4/BLE_eventHandler.c ****             CyBle_WsssConfirmationEventHandler(eventParam);
 494:.\Generated_Source\PSoC4/BLE_eventHandler.c ****         }
 495:.\Generated_Source\PSoC4/BLE_eventHandler.c ****     #endif /* CYBLE_WSS_SERVER */
 496:.\Generated_Source\PSoC4/BLE_eventHandler.c ****     }
 497:.\Generated_Source\PSoC4/BLE_eventHandler.c **** }
 160              		.loc 1 497 0
 161 0008 BD46     		mov	sp, r7
 162 000a 02B0     		add	sp, sp, #8
 163              		@ sp needed
 164 000c 80BD     		pop	{r7, pc}
 165              		.cfi_endproc
 166              	.LFE3:
 167              		.size	CyBle_ValueConfirmation, .-CyBle_ValueConfirmation
 168              		.section	.text.CyBle_GattDisconnectEventHandler,"ax",%progbits
 169              		.align	2
 170              		.code	16
 171              		.thumb_func
 172              		.type	CyBle_GattDisconnectEventHandler, %function
 173              	CyBle_GattDisconnectEventHandler:
 174              	.LFB4:
 498:.\Generated_Source\PSoC4/BLE_eventHandler.c **** 
 499:.\Generated_Source\PSoC4/BLE_eventHandler.c **** #endif /* CYBLE_GATT_ROLE_SERVER */
 500:.\Generated_Source\PSoC4/BLE_eventHandler.c **** 
 501:.\Generated_Source\PSoC4/BLE_eventHandler.c **** 
 502:.\Generated_Source\PSoC4/BLE_eventHandler.c **** #if (CYBLE_GATT_ROLE_CLIENT)
 503:.\Generated_Source\PSoC4/BLE_eventHandler.c **** 
 504:.\Generated_Source\PSoC4/BLE_eventHandler.c **** /****************************************************************************** 
 505:.\Generated_Source\PSoC4/BLE_eventHandler.c **** ##Function Name: CyBle_GattcWriteResponseEventHandler
 506:.\Generated_Source\PSoC4/BLE_eventHandler.c **** *******************************************************************************
 507:.\Generated_Source\PSoC4/BLE_eventHandler.c **** 
 508:.\Generated_Source\PSoC4/BLE_eventHandler.c **** Summary:
 509:.\Generated_Source\PSoC4/BLE_eventHandler.c ****  Handles the Write response event from the BLE stack.
 510:.\Generated_Source\PSoC4/BLE_eventHandler.c **** 
ARM GAS  C:\Users\KEVINH~1\AppData\Local\Temp\ccC6tirb.s 			page 13


 511:.\Generated_Source\PSoC4/BLE_eventHandler.c **** Parameters:
 512:.\Generated_Source\PSoC4/BLE_eventHandler.c ****  CYBLE_CONN_HANDLE_T *eventParam - Pointer to a structure
 513:.\Generated_Source\PSoC4/BLE_eventHandler.c ****     of type 'CYBLE_CONN_HANDLE_T'
 514:.\Generated_Source\PSoC4/BLE_eventHandler.c **** 
 515:.\Generated_Source\PSoC4/BLE_eventHandler.c **** Return:
 516:.\Generated_Source\PSoC4/BLE_eventHandler.c ****  None
 517:.\Generated_Source\PSoC4/BLE_eventHandler.c **** 
 518:.\Generated_Source\PSoC4/BLE_eventHandler.c **** ******************************************************************************/
 519:.\Generated_Source\PSoC4/BLE_eventHandler.c **** static void CyBle_GattcWriteResponseEventHandler(const CYBLE_CONN_HANDLE_T *eventParam)
 520:.\Generated_Source\PSoC4/BLE_eventHandler.c **** {
 521:.\Generated_Source\PSoC4/BLE_eventHandler.c **** #ifdef CYBLE_ANCS_CLIENT
 522:.\Generated_Source\PSoC4/BLE_eventHandler.c ****     CyBle_AncscWriteResponseEventHandler(eventParam);
 523:.\Generated_Source\PSoC4/BLE_eventHandler.c **** #endif /* CYBLE_ANCS_CLIENT */
 524:.\Generated_Source\PSoC4/BLE_eventHandler.c **** 
 525:.\Generated_Source\PSoC4/BLE_eventHandler.c **** #ifdef CYBLE_ANS_CLIENT
 526:.\Generated_Source\PSoC4/BLE_eventHandler.c ****     if((cyBle_eventHandlerFlag & CYBLE_CALLBACK) != 0u)
 527:.\Generated_Source\PSoC4/BLE_eventHandler.c ****     {
 528:.\Generated_Source\PSoC4/BLE_eventHandler.c ****         CyBle_AnscWriteResponseEventHandler(eventParam);
 529:.\Generated_Source\PSoC4/BLE_eventHandler.c ****     }
 530:.\Generated_Source\PSoC4/BLE_eventHandler.c **** #endif /* CYBLE_ANS_CLIENT */
 531:.\Generated_Source\PSoC4/BLE_eventHandler.c **** 
 532:.\Generated_Source\PSoC4/BLE_eventHandler.c **** #ifdef CYBLE_BAS_CLIENT
 533:.\Generated_Source\PSoC4/BLE_eventHandler.c ****     if((cyBle_eventHandlerFlag & CYBLE_CALLBACK) != 0u)
 534:.\Generated_Source\PSoC4/BLE_eventHandler.c ****     {
 535:.\Generated_Source\PSoC4/BLE_eventHandler.c ****         CyBle_BascWriteResponseEventHandler(eventParam);
 536:.\Generated_Source\PSoC4/BLE_eventHandler.c ****     }
 537:.\Generated_Source\PSoC4/BLE_eventHandler.c **** #endif /* CYBLE_BAS_CLIENT */
 538:.\Generated_Source\PSoC4/BLE_eventHandler.c **** 
 539:.\Generated_Source\PSoC4/BLE_eventHandler.c **** #ifdef CYBLE_BLS_CLIENT
 540:.\Generated_Source\PSoC4/BLE_eventHandler.c ****     if((cyBle_eventHandlerFlag & CYBLE_CALLBACK) != 0u)
 541:.\Generated_Source\PSoC4/BLE_eventHandler.c ****     {
 542:.\Generated_Source\PSoC4/BLE_eventHandler.c ****         CyBle_BlscWriteResponseEventHandler(eventParam);
 543:.\Generated_Source\PSoC4/BLE_eventHandler.c ****     }
 544:.\Generated_Source\PSoC4/BLE_eventHandler.c **** #endif /* CYBLE_BLS_CLIENT */
 545:.\Generated_Source\PSoC4/BLE_eventHandler.c **** 
 546:.\Generated_Source\PSoC4/BLE_eventHandler.c **** #ifdef CYBLE_BMS_CLIENT
 547:.\Generated_Source\PSoC4/BLE_eventHandler.c ****     if((cyBle_eventHandlerFlag & CYBLE_CALLBACK) != 0u)
 548:.\Generated_Source\PSoC4/BLE_eventHandler.c ****     {
 549:.\Generated_Source\PSoC4/BLE_eventHandler.c ****         CyBle_BmscWriteResponseEventHandler(eventParam);
 550:.\Generated_Source\PSoC4/BLE_eventHandler.c ****     }
 551:.\Generated_Source\PSoC4/BLE_eventHandler.c **** #endif /* CYBLE_BMS_CLIENT */
 552:.\Generated_Source\PSoC4/BLE_eventHandler.c **** 
 553:.\Generated_Source\PSoC4/BLE_eventHandler.c **** #ifdef CYBLE_CGMS_CLIENT
 554:.\Generated_Source\PSoC4/BLE_eventHandler.c ****     if((cyBle_eventHandlerFlag & CYBLE_CALLBACK) != 0u)
 555:.\Generated_Source\PSoC4/BLE_eventHandler.c ****     {
 556:.\Generated_Source\PSoC4/BLE_eventHandler.c ****         CyBle_CgmscWriteResponseEventHandler(eventParam);
 557:.\Generated_Source\PSoC4/BLE_eventHandler.c ****     }
 558:.\Generated_Source\PSoC4/BLE_eventHandler.c **** #endif /* CYBLE_CGMS_CLIENT */
 559:.\Generated_Source\PSoC4/BLE_eventHandler.c **** 
 560:.\Generated_Source\PSoC4/BLE_eventHandler.c **** #ifdef CYBLE_CPS_CLIENT
 561:.\Generated_Source\PSoC4/BLE_eventHandler.c ****     if((cyBle_eventHandlerFlag & CYBLE_CALLBACK) != 0u)
 562:.\Generated_Source\PSoC4/BLE_eventHandler.c ****     {
 563:.\Generated_Source\PSoC4/BLE_eventHandler.c ****         CyBle_CpscWriteResponseEventHandler(eventParam);
 564:.\Generated_Source\PSoC4/BLE_eventHandler.c ****     }
 565:.\Generated_Source\PSoC4/BLE_eventHandler.c **** #endif /* CYBLE_CPS_CLIENT */
 566:.\Generated_Source\PSoC4/BLE_eventHandler.c **** 
 567:.\Generated_Source\PSoC4/BLE_eventHandler.c **** #ifdef CYBLE_CSCS_CLIENT
ARM GAS  C:\Users\KEVINH~1\AppData\Local\Temp\ccC6tirb.s 			page 14


 568:.\Generated_Source\PSoC4/BLE_eventHandler.c ****     if((cyBle_eventHandlerFlag & CYBLE_CALLBACK) != 0u)
 569:.\Generated_Source\PSoC4/BLE_eventHandler.c ****     {
 570:.\Generated_Source\PSoC4/BLE_eventHandler.c ****         CyBle_CscscWriteResponseEventHandler(eventParam);
 571:.\Generated_Source\PSoC4/BLE_eventHandler.c ****     }
 572:.\Generated_Source\PSoC4/BLE_eventHandler.c **** #endif /* CYBLE_CSCS_CLIENT */
 573:.\Generated_Source\PSoC4/BLE_eventHandler.c **** 
 574:.\Generated_Source\PSoC4/BLE_eventHandler.c **** #ifdef CYBLE_CTS_CLIENT
 575:.\Generated_Source\PSoC4/BLE_eventHandler.c ****     if((cyBle_eventHandlerFlag & CYBLE_CALLBACK) != 0u)
 576:.\Generated_Source\PSoC4/BLE_eventHandler.c ****     {
 577:.\Generated_Source\PSoC4/BLE_eventHandler.c ****         CyBle_CtscWriteResponseEventHandler(eventParam);
 578:.\Generated_Source\PSoC4/BLE_eventHandler.c ****     }
 579:.\Generated_Source\PSoC4/BLE_eventHandler.c **** #endif /* CYBLE_CTS_CLIENT */
 580:.\Generated_Source\PSoC4/BLE_eventHandler.c **** 
 581:.\Generated_Source\PSoC4/BLE_eventHandler.c **** #ifdef CYBLE_ESS_CLIENT
 582:.\Generated_Source\PSoC4/BLE_eventHandler.c ****     if((cyBle_eventHandlerFlag & CYBLE_CALLBACK) != 0u)
 583:.\Generated_Source\PSoC4/BLE_eventHandler.c ****     {
 584:.\Generated_Source\PSoC4/BLE_eventHandler.c ****         CyBle_EsscWriteResponseEventHandler(eventParam);
 585:.\Generated_Source\PSoC4/BLE_eventHandler.c ****     }
 586:.\Generated_Source\PSoC4/BLE_eventHandler.c **** #endif /* CYBLE_ESS_CLIENT */
 587:.\Generated_Source\PSoC4/BLE_eventHandler.c **** 
 588:.\Generated_Source\PSoC4/BLE_eventHandler.c **** #ifdef CYBLE_GLS_CLIENT
 589:.\Generated_Source\PSoC4/BLE_eventHandler.c ****     if((cyBle_eventHandlerFlag & CYBLE_CALLBACK) != 0u)
 590:.\Generated_Source\PSoC4/BLE_eventHandler.c ****     {
 591:.\Generated_Source\PSoC4/BLE_eventHandler.c ****         CyBle_GlscWriteResponseEventHandler(eventParam);
 592:.\Generated_Source\PSoC4/BLE_eventHandler.c ****     }
 593:.\Generated_Source\PSoC4/BLE_eventHandler.c **** #endif /* CYBLE_GLS_CLIENT */
 594:.\Generated_Source\PSoC4/BLE_eventHandler.c **** 
 595:.\Generated_Source\PSoC4/BLE_eventHandler.c **** #ifdef CYBLE_HIDS_CLIENT
 596:.\Generated_Source\PSoC4/BLE_eventHandler.c ****     if((cyBle_eventHandlerFlag & CYBLE_CALLBACK) != 0u)
 597:.\Generated_Source\PSoC4/BLE_eventHandler.c ****     {
 598:.\Generated_Source\PSoC4/BLE_eventHandler.c ****         CyBle_HidscWriteResponseEventHandler(eventParam);
 599:.\Generated_Source\PSoC4/BLE_eventHandler.c ****     }
 600:.\Generated_Source\PSoC4/BLE_eventHandler.c **** #endif /* CYBLE_HIDS_CLIENT */
 601:.\Generated_Source\PSoC4/BLE_eventHandler.c **** 
 602:.\Generated_Source\PSoC4/BLE_eventHandler.c **** #ifdef CYBLE_HRS_CLIENT
 603:.\Generated_Source\PSoC4/BLE_eventHandler.c ****     if((cyBle_eventHandlerFlag & CYBLE_CALLBACK) != 0u)
 604:.\Generated_Source\PSoC4/BLE_eventHandler.c ****     {
 605:.\Generated_Source\PSoC4/BLE_eventHandler.c ****         CyBle_HrscWriteResponseEventHandler(eventParam);
 606:.\Generated_Source\PSoC4/BLE_eventHandler.c ****     }
 607:.\Generated_Source\PSoC4/BLE_eventHandler.c **** #endif /* CYBLE_HRS_CLIENT */
 608:.\Generated_Source\PSoC4/BLE_eventHandler.c **** 
 609:.\Generated_Source\PSoC4/BLE_eventHandler.c **** #ifdef CYBLE_HTS_CLIENT
 610:.\Generated_Source\PSoC4/BLE_eventHandler.c ****     if((cyBle_eventHandlerFlag & CYBLE_CALLBACK) != 0u)
 611:.\Generated_Source\PSoC4/BLE_eventHandler.c ****     {
 612:.\Generated_Source\PSoC4/BLE_eventHandler.c ****         CyBle_HtscWriteResponseEventHandler(eventParam);
 613:.\Generated_Source\PSoC4/BLE_eventHandler.c ****     }
 614:.\Generated_Source\PSoC4/BLE_eventHandler.c **** #endif /* CYBLE_HTS_CLIENT */
 615:.\Generated_Source\PSoC4/BLE_eventHandler.c **** 
 616:.\Generated_Source\PSoC4/BLE_eventHandler.c **** #ifdef CYBLE_LLS_CLIENT
 617:.\Generated_Source\PSoC4/BLE_eventHandler.c ****     if((cyBle_eventHandlerFlag & CYBLE_CALLBACK) != 0u)
 618:.\Generated_Source\PSoC4/BLE_eventHandler.c ****     {
 619:.\Generated_Source\PSoC4/BLE_eventHandler.c ****         CyBle_LlscWriteResponseEventHandler(eventParam);
 620:.\Generated_Source\PSoC4/BLE_eventHandler.c ****     }
 621:.\Generated_Source\PSoC4/BLE_eventHandler.c **** #endif /* CYBLE_LLS_CLIENT */
 622:.\Generated_Source\PSoC4/BLE_eventHandler.c **** 
 623:.\Generated_Source\PSoC4/BLE_eventHandler.c **** #ifdef CYBLE_LNS_CLIENT
 624:.\Generated_Source\PSoC4/BLE_eventHandler.c ****     if((cyBle_eventHandlerFlag & CYBLE_CALLBACK) != 0u)
ARM GAS  C:\Users\KEVINH~1\AppData\Local\Temp\ccC6tirb.s 			page 15


 625:.\Generated_Source\PSoC4/BLE_eventHandler.c ****     {
 626:.\Generated_Source\PSoC4/BLE_eventHandler.c ****         CyBle_LnscWriteResponseEventHandler(eventParam);
 627:.\Generated_Source\PSoC4/BLE_eventHandler.c ****     }
 628:.\Generated_Source\PSoC4/BLE_eventHandler.c **** #endif /* CYBLE_LNS_CLIENT */
 629:.\Generated_Source\PSoC4/BLE_eventHandler.c **** 
 630:.\Generated_Source\PSoC4/BLE_eventHandler.c **** #ifdef CYBLE_PASS_CLIENT
 631:.\Generated_Source\PSoC4/BLE_eventHandler.c ****     if((cyBle_eventHandlerFlag & CYBLE_CALLBACK) != 0u)
 632:.\Generated_Source\PSoC4/BLE_eventHandler.c ****     {
 633:.\Generated_Source\PSoC4/BLE_eventHandler.c ****         CyBle_PasscWriteResponseEventHandler(eventParam);
 634:.\Generated_Source\PSoC4/BLE_eventHandler.c ****     }
 635:.\Generated_Source\PSoC4/BLE_eventHandler.c **** #endif /* CYBLE_PASS_CLIENT */
 636:.\Generated_Source\PSoC4/BLE_eventHandler.c **** 
 637:.\Generated_Source\PSoC4/BLE_eventHandler.c **** #ifdef CYBLE_RSCS_CLIENT
 638:.\Generated_Source\PSoC4/BLE_eventHandler.c ****     if((cyBle_eventHandlerFlag & CYBLE_CALLBACK) != 0u)
 639:.\Generated_Source\PSoC4/BLE_eventHandler.c ****     {
 640:.\Generated_Source\PSoC4/BLE_eventHandler.c ****         CyBle_RscscWriteResponseEventHandler(eventParam);
 641:.\Generated_Source\PSoC4/BLE_eventHandler.c ****     }
 642:.\Generated_Source\PSoC4/BLE_eventHandler.c **** #endif /* CYBLE_RSCS_CLIENT */
 643:.\Generated_Source\PSoC4/BLE_eventHandler.c **** 
 644:.\Generated_Source\PSoC4/BLE_eventHandler.c **** #ifdef CYBLE_SCPS_CLIENT
 645:.\Generated_Source\PSoC4/BLE_eventHandler.c ****     if((cyBle_eventHandlerFlag & CYBLE_CALLBACK) != 0u)
 646:.\Generated_Source\PSoC4/BLE_eventHandler.c ****     {
 647:.\Generated_Source\PSoC4/BLE_eventHandler.c ****         CyBle_ScpscWriteResponseEventHandler(eventParam);
 648:.\Generated_Source\PSoC4/BLE_eventHandler.c ****     }
 649:.\Generated_Source\PSoC4/BLE_eventHandler.c **** #endif /* CYBLE_SCPS_CLIENT */
 650:.\Generated_Source\PSoC4/BLE_eventHandler.c **** 
 651:.\Generated_Source\PSoC4/BLE_eventHandler.c **** #ifdef CYBLE_TPS_CLIENT
 652:.\Generated_Source\PSoC4/BLE_eventHandler.c ****     if((cyBle_eventHandlerFlag & CYBLE_CALLBACK) != 0u)
 653:.\Generated_Source\PSoC4/BLE_eventHandler.c ****     {
 654:.\Generated_Source\PSoC4/BLE_eventHandler.c ****         CyBle_TpscWriteResponseEventHandler(eventParam);
 655:.\Generated_Source\PSoC4/BLE_eventHandler.c ****     }
 656:.\Generated_Source\PSoC4/BLE_eventHandler.c **** #endif /* CYBLE_TPS_CLIENT */
 657:.\Generated_Source\PSoC4/BLE_eventHandler.c **** 
 658:.\Generated_Source\PSoC4/BLE_eventHandler.c **** #ifdef CYBLE_UDS_CLIENT
 659:.\Generated_Source\PSoC4/BLE_eventHandler.c ****     if((cyBle_eventHandlerFlag & CYBLE_CALLBACK) != 0u)
 660:.\Generated_Source\PSoC4/BLE_eventHandler.c ****     {
 661:.\Generated_Source\PSoC4/BLE_eventHandler.c ****         CyBle_UdscWriteResponseEventHandler(eventParam);
 662:.\Generated_Source\PSoC4/BLE_eventHandler.c ****     }
 663:.\Generated_Source\PSoC4/BLE_eventHandler.c **** #endif /* CYBLE_UDS_CLIENT */
 664:.\Generated_Source\PSoC4/BLE_eventHandler.c **** #ifdef CYBLE_WPTS_CLIENT
 665:.\Generated_Source\PSoC4/BLE_eventHandler.c ****     if((cyBle_eventHandlerFlag & CYBLE_CALLBACK) != 0u)
 666:.\Generated_Source\PSoC4/BLE_eventHandler.c ****     {
 667:.\Generated_Source\PSoC4/BLE_eventHandler.c ****         CyBle_WptscWriteResponseEventHandler(eventParam);
 668:.\Generated_Source\PSoC4/BLE_eventHandler.c ****     }
 669:.\Generated_Source\PSoC4/BLE_eventHandler.c **** #endif /* CYBLE_WPTS_CLIENT */
 670:.\Generated_Source\PSoC4/BLE_eventHandler.c **** #ifdef CYBLE_WSS_CLIENT
 671:.\Generated_Source\PSoC4/BLE_eventHandler.c ****     if((cyBle_eventHandlerFlag & CYBLE_CALLBACK) != 0u)
 672:.\Generated_Source\PSoC4/BLE_eventHandler.c ****     {
 673:.\Generated_Source\PSoC4/BLE_eventHandler.c ****         CyBle_WsscWriteResponseEventHandler(eventParam);
 674:.\Generated_Source\PSoC4/BLE_eventHandler.c ****     }
 675:.\Generated_Source\PSoC4/BLE_eventHandler.c **** #endif /* CYBLE_WSS_CLIENT */
 676:.\Generated_Source\PSoC4/BLE_eventHandler.c **** }
 677:.\Generated_Source\PSoC4/BLE_eventHandler.c **** 
 678:.\Generated_Source\PSoC4/BLE_eventHandler.c **** 
 679:.\Generated_Source\PSoC4/BLE_eventHandler.c **** /******************************************************************************    
 680:.\Generated_Source\PSoC4/BLE_eventHandler.c **** ##Function Name: CyBle_NotificationEventHandler
 681:.\Generated_Source\PSoC4/BLE_eventHandler.c **** *******************************************************************************
ARM GAS  C:\Users\KEVINH~1\AppData\Local\Temp\ccC6tirb.s 			page 16


 682:.\Generated_Source\PSoC4/BLE_eventHandler.c **** 
 683:.\Generated_Source\PSoC4/BLE_eventHandler.c **** Summary:
 684:.\Generated_Source\PSoC4/BLE_eventHandler.c ****  Handles the Notification event from BLE stack.
 685:.\Generated_Source\PSoC4/BLE_eventHandler.c **** 
 686:.\Generated_Source\PSoC4/BLE_eventHandler.c **** Parameters:
 687:.\Generated_Source\PSoC4/BLE_eventHandler.c ****  CYBLE_GATTC_HANDLE_VALUE_NTF_PARAM_T * eventParam - event parameter
 688:.\Generated_Source\PSoC4/BLE_eventHandler.c **** 
 689:.\Generated_Source\PSoC4/BLE_eventHandler.c **** Return:
 690:.\Generated_Source\PSoC4/BLE_eventHandler.c ****  None
 691:.\Generated_Source\PSoC4/BLE_eventHandler.c **** 
 692:.\Generated_Source\PSoC4/BLE_eventHandler.c **** ******************************************************************************/
 693:.\Generated_Source\PSoC4/BLE_eventHandler.c **** static void CyBle_NotificationEventHandler(CYBLE_GATTC_HANDLE_VALUE_NTF_PARAM_T *eventParam)
 694:.\Generated_Source\PSoC4/BLE_eventHandler.c **** {
 695:.\Generated_Source\PSoC4/BLE_eventHandler.c **** #ifdef CYBLE_ANCS_CLIENT
 696:.\Generated_Source\PSoC4/BLE_eventHandler.c ****     CyBle_AncscNotificationEventHandler(eventParam);
 697:.\Generated_Source\PSoC4/BLE_eventHandler.c **** #endif /* CYBLE_ANCS_CLIENT */
 698:.\Generated_Source\PSoC4/BLE_eventHandler.c **** #ifdef CYBLE_ANS_CLIENT
 699:.\Generated_Source\PSoC4/BLE_eventHandler.c ****     if((cyBle_eventHandlerFlag & CYBLE_CALLBACK) != 0u)
 700:.\Generated_Source\PSoC4/BLE_eventHandler.c ****     {
 701:.\Generated_Source\PSoC4/BLE_eventHandler.c ****         CyBle_AnscNotificationEventHandler(eventParam);
 702:.\Generated_Source\PSoC4/BLE_eventHandler.c ****     }
 703:.\Generated_Source\PSoC4/BLE_eventHandler.c **** #endif /* CYBLE_ANS_CLIENT */
 704:.\Generated_Source\PSoC4/BLE_eventHandler.c **** #ifdef CYBLE_BAS_CLIENT
 705:.\Generated_Source\PSoC4/BLE_eventHandler.c ****     if((cyBle_eventHandlerFlag & CYBLE_CALLBACK) != 0u)
 706:.\Generated_Source\PSoC4/BLE_eventHandler.c ****     {
 707:.\Generated_Source\PSoC4/BLE_eventHandler.c ****         CyBle_BascNotificationEventHandler(eventParam);
 708:.\Generated_Source\PSoC4/BLE_eventHandler.c ****     }
 709:.\Generated_Source\PSoC4/BLE_eventHandler.c **** #endif /* CYBLE_BAS_CLIENT */
 710:.\Generated_Source\PSoC4/BLE_eventHandler.c **** #ifdef CYBLE_BLS_CLIENT
 711:.\Generated_Source\PSoC4/BLE_eventHandler.c ****     if((cyBle_eventHandlerFlag & CYBLE_CALLBACK) != 0u)
 712:.\Generated_Source\PSoC4/BLE_eventHandler.c ****     {
 713:.\Generated_Source\PSoC4/BLE_eventHandler.c ****         CyBle_BlscNotificationEventHandler(eventParam);
 714:.\Generated_Source\PSoC4/BLE_eventHandler.c ****     }
 715:.\Generated_Source\PSoC4/BLE_eventHandler.c **** #endif /* CYBLE_BLS_CLIENT */
 716:.\Generated_Source\PSoC4/BLE_eventHandler.c **** #ifdef CYBLE_CGMS_CLIENT
 717:.\Generated_Source\PSoC4/BLE_eventHandler.c ****     if((cyBle_eventHandlerFlag & CYBLE_CALLBACK) != 0u)
 718:.\Generated_Source\PSoC4/BLE_eventHandler.c ****     {
 719:.\Generated_Source\PSoC4/BLE_eventHandler.c ****         CyBle_CgmscNotificationEventHandler(eventParam);
 720:.\Generated_Source\PSoC4/BLE_eventHandler.c ****     }
 721:.\Generated_Source\PSoC4/BLE_eventHandler.c **** #endif /* CYBLE_CGMS_CLIENT */
 722:.\Generated_Source\PSoC4/BLE_eventHandler.c **** #ifdef CYBLE_CPS_CLIENT
 723:.\Generated_Source\PSoC4/BLE_eventHandler.c ****     if((cyBle_eventHandlerFlag & CYBLE_CALLBACK) != 0u)
 724:.\Generated_Source\PSoC4/BLE_eventHandler.c ****     {
 725:.\Generated_Source\PSoC4/BLE_eventHandler.c ****         CyBle_CpscNotificationEventHandler(eventParam);
 726:.\Generated_Source\PSoC4/BLE_eventHandler.c ****     }
 727:.\Generated_Source\PSoC4/BLE_eventHandler.c **** #endif /* CYBLE_CPS_CLIENT */
 728:.\Generated_Source\PSoC4/BLE_eventHandler.c **** #ifdef CYBLE_CSCS_CLIENT
 729:.\Generated_Source\PSoC4/BLE_eventHandler.c ****     if((cyBle_eventHandlerFlag & CYBLE_CALLBACK) != 0u)
 730:.\Generated_Source\PSoC4/BLE_eventHandler.c ****     {
 731:.\Generated_Source\PSoC4/BLE_eventHandler.c ****         CyBle_CscscNotificationEventHandler(eventParam);
 732:.\Generated_Source\PSoC4/BLE_eventHandler.c ****     }
 733:.\Generated_Source\PSoC4/BLE_eventHandler.c **** #endif /* CYBLE_CSCS_CLIENT */
 734:.\Generated_Source\PSoC4/BLE_eventHandler.c **** #ifdef CYBLE_CTS_CLIENT
 735:.\Generated_Source\PSoC4/BLE_eventHandler.c ****     if((cyBle_eventHandlerFlag & CYBLE_CALLBACK) != 0u)
 736:.\Generated_Source\PSoC4/BLE_eventHandler.c ****     {
 737:.\Generated_Source\PSoC4/BLE_eventHandler.c ****         CyBle_CtscNotificationEventHandler(eventParam);
 738:.\Generated_Source\PSoC4/BLE_eventHandler.c ****     }
ARM GAS  C:\Users\KEVINH~1\AppData\Local\Temp\ccC6tirb.s 			page 17


 739:.\Generated_Source\PSoC4/BLE_eventHandler.c **** #endif /* CYBLE_CTS_CLIENT */
 740:.\Generated_Source\PSoC4/BLE_eventHandler.c **** #ifdef CYBLE_ESS_CLIENT
 741:.\Generated_Source\PSoC4/BLE_eventHandler.c ****     if((cyBle_eventHandlerFlag & CYBLE_CALLBACK) != 0u)
 742:.\Generated_Source\PSoC4/BLE_eventHandler.c ****     {
 743:.\Generated_Source\PSoC4/BLE_eventHandler.c ****         CyBle_EsscNotificationEventHandler(eventParam);
 744:.\Generated_Source\PSoC4/BLE_eventHandler.c ****     }
 745:.\Generated_Source\PSoC4/BLE_eventHandler.c **** #endif /* CYBLE_ESS_CLIENT */
 746:.\Generated_Source\PSoC4/BLE_eventHandler.c **** #ifdef CYBLE_GLS_CLIENT
 747:.\Generated_Source\PSoC4/BLE_eventHandler.c ****     if((cyBle_eventHandlerFlag & CYBLE_CALLBACK) != 0u)
 748:.\Generated_Source\PSoC4/BLE_eventHandler.c ****     {
 749:.\Generated_Source\PSoC4/BLE_eventHandler.c ****         CyBle_GlscNotificationEventHandler(eventParam);
 750:.\Generated_Source\PSoC4/BLE_eventHandler.c ****     }
 751:.\Generated_Source\PSoC4/BLE_eventHandler.c **** #endif /* CYBLE_GLS_CLIENT */
 752:.\Generated_Source\PSoC4/BLE_eventHandler.c **** #ifdef CYBLE_HIDS_CLIENT
 753:.\Generated_Source\PSoC4/BLE_eventHandler.c ****     if((cyBle_eventHandlerFlag & CYBLE_CALLBACK) != 0u)
 754:.\Generated_Source\PSoC4/BLE_eventHandler.c ****     {
 755:.\Generated_Source\PSoC4/BLE_eventHandler.c ****         CyBle_HidscNotificationEventHandler(eventParam);
 756:.\Generated_Source\PSoC4/BLE_eventHandler.c ****     }
 757:.\Generated_Source\PSoC4/BLE_eventHandler.c **** #endif /* CYBLE_HIDS_CLIENT */
 758:.\Generated_Source\PSoC4/BLE_eventHandler.c **** #ifdef CYBLE_HRS_CLIENT
 759:.\Generated_Source\PSoC4/BLE_eventHandler.c ****     if((cyBle_eventHandlerFlag & CYBLE_CALLBACK) != 0u)
 760:.\Generated_Source\PSoC4/BLE_eventHandler.c ****     {
 761:.\Generated_Source\PSoC4/BLE_eventHandler.c ****         CyBle_HrscNotificationEventHandler(eventParam);
 762:.\Generated_Source\PSoC4/BLE_eventHandler.c ****     }
 763:.\Generated_Source\PSoC4/BLE_eventHandler.c **** #endif /* CYBLE_HRS_CLIENT */
 764:.\Generated_Source\PSoC4/BLE_eventHandler.c **** #ifdef CYBLE_HTS_CLIENT
 765:.\Generated_Source\PSoC4/BLE_eventHandler.c ****     if((cyBle_eventHandlerFlag & CYBLE_CALLBACK) != 0u)
 766:.\Generated_Source\PSoC4/BLE_eventHandler.c ****     {
 767:.\Generated_Source\PSoC4/BLE_eventHandler.c ****         CyBle_HtscNotificationEventHandler(eventParam);
 768:.\Generated_Source\PSoC4/BLE_eventHandler.c ****     }
 769:.\Generated_Source\PSoC4/BLE_eventHandler.c **** #endif /* CYBLE_HTS_CLIENT */
 770:.\Generated_Source\PSoC4/BLE_eventHandler.c **** #ifdef CYBLE_LNS_CLIENT
 771:.\Generated_Source\PSoC4/BLE_eventHandler.c ****     if((cyBle_eventHandlerFlag & CYBLE_CALLBACK) != 0u)
 772:.\Generated_Source\PSoC4/BLE_eventHandler.c ****     {
 773:.\Generated_Source\PSoC4/BLE_eventHandler.c ****         CyBle_LnscNotificationEventHandler(eventParam);
 774:.\Generated_Source\PSoC4/BLE_eventHandler.c ****     }
 775:.\Generated_Source\PSoC4/BLE_eventHandler.c **** #endif /* CYBLE_LNS_CLIENT */
 776:.\Generated_Source\PSoC4/BLE_eventHandler.c **** #ifdef CYBLE_PASS_CLIENT
 777:.\Generated_Source\PSoC4/BLE_eventHandler.c ****     if((cyBle_eventHandlerFlag & CYBLE_CALLBACK) != 0u)
 778:.\Generated_Source\PSoC4/BLE_eventHandler.c ****     {
 779:.\Generated_Source\PSoC4/BLE_eventHandler.c ****         CyBle_PasscNotificationEventHandler(eventParam);
 780:.\Generated_Source\PSoC4/BLE_eventHandler.c ****     }
 781:.\Generated_Source\PSoC4/BLE_eventHandler.c **** #endif /* CYBLE_PASS_CLIENT */
 782:.\Generated_Source\PSoC4/BLE_eventHandler.c **** #ifdef CYBLE_RSCS_CLIENT
 783:.\Generated_Source\PSoC4/BLE_eventHandler.c ****     if((cyBle_eventHandlerFlag & CYBLE_CALLBACK) != 0u)
 784:.\Generated_Source\PSoC4/BLE_eventHandler.c ****     {
 785:.\Generated_Source\PSoC4/BLE_eventHandler.c ****         CyBle_RscscNotificationEventHandler(eventParam);
 786:.\Generated_Source\PSoC4/BLE_eventHandler.c ****     }
 787:.\Generated_Source\PSoC4/BLE_eventHandler.c **** #endif /* CYBLE_RSCS_CLIENT */
 788:.\Generated_Source\PSoC4/BLE_eventHandler.c **** #ifdef CYBLE_SCPS_CLIENT
 789:.\Generated_Source\PSoC4/BLE_eventHandler.c ****     if((cyBle_eventHandlerFlag & CYBLE_CALLBACK) != 0u)
 790:.\Generated_Source\PSoC4/BLE_eventHandler.c ****     {
 791:.\Generated_Source\PSoC4/BLE_eventHandler.c ****         CyBle_ScpscNotificationEventHandler(eventParam);
 792:.\Generated_Source\PSoC4/BLE_eventHandler.c ****     }
 793:.\Generated_Source\PSoC4/BLE_eventHandler.c **** #endif /* CYBLE_SCPS_CLIENT */
 794:.\Generated_Source\PSoC4/BLE_eventHandler.c **** #ifdef CYBLE_TPS_CLIENT
 795:.\Generated_Source\PSoC4/BLE_eventHandler.c ****     if((cyBle_eventHandlerFlag & CYBLE_CALLBACK) != 0u)
ARM GAS  C:\Users\KEVINH~1\AppData\Local\Temp\ccC6tirb.s 			page 18


 796:.\Generated_Source\PSoC4/BLE_eventHandler.c ****     {
 797:.\Generated_Source\PSoC4/BLE_eventHandler.c ****         CyBle_TpscNotificationEventHandler(eventParam);
 798:.\Generated_Source\PSoC4/BLE_eventHandler.c ****     }
 799:.\Generated_Source\PSoC4/BLE_eventHandler.c **** #endif /* CYBLE_TPS_CLIENT */
 800:.\Generated_Source\PSoC4/BLE_eventHandler.c **** #ifdef CYBLE_UDS_CLIENT
 801:.\Generated_Source\PSoC4/BLE_eventHandler.c ****     if((cyBle_eventHandlerFlag & CYBLE_CALLBACK) != 0u)
 802:.\Generated_Source\PSoC4/BLE_eventHandler.c ****     {
 803:.\Generated_Source\PSoC4/BLE_eventHandler.c ****         CyBle_UdscNotificationEventHandler(eventParam);
 804:.\Generated_Source\PSoC4/BLE_eventHandler.c ****     }
 805:.\Generated_Source\PSoC4/BLE_eventHandler.c **** #endif /* CYBLE_UDS_CLIENT */
 806:.\Generated_Source\PSoC4/BLE_eventHandler.c **** #ifdef CYBLE_WPTS_CLIENT
 807:.\Generated_Source\PSoC4/BLE_eventHandler.c ****     if((cyBle_eventHandlerFlag & CYBLE_CALLBACK) != 0u)
 808:.\Generated_Source\PSoC4/BLE_eventHandler.c ****     {
 809:.\Generated_Source\PSoC4/BLE_eventHandler.c ****         CyBle_WptscNotificationEventHandler(eventParam);
 810:.\Generated_Source\PSoC4/BLE_eventHandler.c ****     }
 811:.\Generated_Source\PSoC4/BLE_eventHandler.c **** #endif /* CYBLE_WPTS_CLIENT */
 812:.\Generated_Source\PSoC4/BLE_eventHandler.c **** }
 813:.\Generated_Source\PSoC4/BLE_eventHandler.c **** 
 814:.\Generated_Source\PSoC4/BLE_eventHandler.c **** 
 815:.\Generated_Source\PSoC4/BLE_eventHandler.c **** /******************************************************************************    
 816:.\Generated_Source\PSoC4/BLE_eventHandler.c **** ##Function Name: CyBle_IndicationEventHandler
 817:.\Generated_Source\PSoC4/BLE_eventHandler.c **** *******************************************************************************
 818:.\Generated_Source\PSoC4/BLE_eventHandler.c **** 
 819:.\Generated_Source\PSoC4/BLE_eventHandler.c **** Summary:
 820:.\Generated_Source\PSoC4/BLE_eventHandler.c ****  Handles the Indication event from BLE stack.
 821:.\Generated_Source\PSoC4/BLE_eventHandler.c **** 
 822:.\Generated_Source\PSoC4/BLE_eventHandler.c **** Parameters:
 823:.\Generated_Source\PSoC4/BLE_eventHandler.c ****  CYBLE_GATTC_HANDLE_VALUE_IND_PARAM_T * eventParam - event parameter
 824:.\Generated_Source\PSoC4/BLE_eventHandler.c **** 
 825:.\Generated_Source\PSoC4/BLE_eventHandler.c **** Return:
 826:.\Generated_Source\PSoC4/BLE_eventHandler.c ****  None
 827:.\Generated_Source\PSoC4/BLE_eventHandler.c **** 
 828:.\Generated_Source\PSoC4/BLE_eventHandler.c **** ******************************************************************************/
 829:.\Generated_Source\PSoC4/BLE_eventHandler.c **** static void CyBle_IndicationEventHandler(CYBLE_GATTC_HANDLE_VALUE_IND_PARAM_T *eventParam)
 830:.\Generated_Source\PSoC4/BLE_eventHandler.c **** {
 831:.\Generated_Source\PSoC4/BLE_eventHandler.c **** #ifdef CYBLE_BLS_CLIENT
 832:.\Generated_Source\PSoC4/BLE_eventHandler.c ****     if((cyBle_eventHandlerFlag & CYBLE_CALLBACK) != 0u)
 833:.\Generated_Source\PSoC4/BLE_eventHandler.c ****     {
 834:.\Generated_Source\PSoC4/BLE_eventHandler.c ****         CyBle_BlscIndicationEventHandler(eventParam);
 835:.\Generated_Source\PSoC4/BLE_eventHandler.c ****     }
 836:.\Generated_Source\PSoC4/BLE_eventHandler.c **** #endif /* CYBLE_BLS_CLIENT */
 837:.\Generated_Source\PSoC4/BLE_eventHandler.c **** #ifdef CYBLE_CGMS_CLIENT
 838:.\Generated_Source\PSoC4/BLE_eventHandler.c ****     if((cyBle_eventHandlerFlag & CYBLE_CALLBACK) != 0u)
 839:.\Generated_Source\PSoC4/BLE_eventHandler.c ****     {
 840:.\Generated_Source\PSoC4/BLE_eventHandler.c ****         CyBle_CgmscIndicationEventHandler(eventParam);
 841:.\Generated_Source\PSoC4/BLE_eventHandler.c ****     }
 842:.\Generated_Source\PSoC4/BLE_eventHandler.c **** #endif /* CYBLE_CGMS_CLIENT */
 843:.\Generated_Source\PSoC4/BLE_eventHandler.c **** #ifdef CYBLE_CPS_CLIENT
 844:.\Generated_Source\PSoC4/BLE_eventHandler.c ****     if((cyBle_eventHandlerFlag & CYBLE_CALLBACK) != 0u)
 845:.\Generated_Source\PSoC4/BLE_eventHandler.c ****     {
 846:.\Generated_Source\PSoC4/BLE_eventHandler.c ****         CyBle_CpscIndicationEventHandler(eventParam);
 847:.\Generated_Source\PSoC4/BLE_eventHandler.c ****     }
 848:.\Generated_Source\PSoC4/BLE_eventHandler.c **** #endif /* CYBLE_CPS_CLIENT */
 849:.\Generated_Source\PSoC4/BLE_eventHandler.c **** #ifdef CYBLE_CSCS_CLIENT
 850:.\Generated_Source\PSoC4/BLE_eventHandler.c ****     if((cyBle_eventHandlerFlag & CYBLE_CALLBACK) != 0u)
 851:.\Generated_Source\PSoC4/BLE_eventHandler.c ****     {
 852:.\Generated_Source\PSoC4/BLE_eventHandler.c ****         CyBle_CscscIndicationEventHandler(eventParam);
ARM GAS  C:\Users\KEVINH~1\AppData\Local\Temp\ccC6tirb.s 			page 19


 853:.\Generated_Source\PSoC4/BLE_eventHandler.c ****     }
 854:.\Generated_Source\PSoC4/BLE_eventHandler.c **** #endif /* CYBLE_CSCS_CLIENT */
 855:.\Generated_Source\PSoC4/BLE_eventHandler.c **** #ifdef CYBLE_ESS_CLIENT
 856:.\Generated_Source\PSoC4/BLE_eventHandler.c ****     if((cyBle_eventHandlerFlag & CYBLE_CALLBACK) != 0u)
 857:.\Generated_Source\PSoC4/BLE_eventHandler.c ****     {
 858:.\Generated_Source\PSoC4/BLE_eventHandler.c ****         CyBle_EsscIndicationEventHandler(eventParam);
 859:.\Generated_Source\PSoC4/BLE_eventHandler.c ****     }
 860:.\Generated_Source\PSoC4/BLE_eventHandler.c **** #endif /* CYBLE_ESS_CLIENT */
 861:.\Generated_Source\PSoC4/BLE_eventHandler.c **** #ifdef CYBLE_GLS_CLIENT
 862:.\Generated_Source\PSoC4/BLE_eventHandler.c ****     if((cyBle_eventHandlerFlag & CYBLE_CALLBACK) != 0u)
 863:.\Generated_Source\PSoC4/BLE_eventHandler.c ****     {
 864:.\Generated_Source\PSoC4/BLE_eventHandler.c ****         CyBle_GlscIndicationEventHandler(eventParam);
 865:.\Generated_Source\PSoC4/BLE_eventHandler.c ****     }
 866:.\Generated_Source\PSoC4/BLE_eventHandler.c **** #endif /* CYBLE_GLS_CLIENT */
 867:.\Generated_Source\PSoC4/BLE_eventHandler.c **** #ifdef CYBLE_HTS_CLIENT
 868:.\Generated_Source\PSoC4/BLE_eventHandler.c ****     if((cyBle_eventHandlerFlag & CYBLE_CALLBACK) != 0u)
 869:.\Generated_Source\PSoC4/BLE_eventHandler.c ****     {
 870:.\Generated_Source\PSoC4/BLE_eventHandler.c ****         CyBle_HtscIndicationEventHandler(eventParam);
 871:.\Generated_Source\PSoC4/BLE_eventHandler.c ****     }
 872:.\Generated_Source\PSoC4/BLE_eventHandler.c **** #endif /* CYBLE_HTS_CLIENT */
 873:.\Generated_Source\PSoC4/BLE_eventHandler.c **** #ifdef CYBLE_LNS_CLIENT
 874:.\Generated_Source\PSoC4/BLE_eventHandler.c ****     if((cyBle_eventHandlerFlag & CYBLE_CALLBACK) != 0u)
 875:.\Generated_Source\PSoC4/BLE_eventHandler.c ****     {
 876:.\Generated_Source\PSoC4/BLE_eventHandler.c ****         CyBle_LnscIndicationEventHandler(eventParam);
 877:.\Generated_Source\PSoC4/BLE_eventHandler.c ****     }
 878:.\Generated_Source\PSoC4/BLE_eventHandler.c **** #endif /* CYBLE_LNS_CLIENT */
 879:.\Generated_Source\PSoC4/BLE_eventHandler.c **** #ifdef CYBLE_RSCS_CLIENT
 880:.\Generated_Source\PSoC4/BLE_eventHandler.c ****     if((cyBle_eventHandlerFlag & CYBLE_CALLBACK) != 0u)
 881:.\Generated_Source\PSoC4/BLE_eventHandler.c ****     {
 882:.\Generated_Source\PSoC4/BLE_eventHandler.c ****         CyBle_RscscIndicationEventHandler(eventParam);
 883:.\Generated_Source\PSoC4/BLE_eventHandler.c ****     }
 884:.\Generated_Source\PSoC4/BLE_eventHandler.c **** #endif /* CYBLE_RSCS_CLIENT */
 885:.\Generated_Source\PSoC4/BLE_eventHandler.c **** #ifdef CYBLE_UDS_CLIENT
 886:.\Generated_Source\PSoC4/BLE_eventHandler.c ****     if((cyBle_eventHandlerFlag & CYBLE_CALLBACK) != 0u)
 887:.\Generated_Source\PSoC4/BLE_eventHandler.c ****     {
 888:.\Generated_Source\PSoC4/BLE_eventHandler.c ****         CyBle_UdscIndicationEventHandler(eventParam);
 889:.\Generated_Source\PSoC4/BLE_eventHandler.c ****     }
 890:.\Generated_Source\PSoC4/BLE_eventHandler.c **** #endif /* CYBLE_UDS_CLIENT */
 891:.\Generated_Source\PSoC4/BLE_eventHandler.c **** #ifdef CYBLE_WPTS_CLIENT
 892:.\Generated_Source\PSoC4/BLE_eventHandler.c ****     if((cyBle_eventHandlerFlag & CYBLE_CALLBACK) != 0u)
 893:.\Generated_Source\PSoC4/BLE_eventHandler.c ****     {
 894:.\Generated_Source\PSoC4/BLE_eventHandler.c ****         CyBle_WptscIndicationEventHandler(eventParam);
 895:.\Generated_Source\PSoC4/BLE_eventHandler.c ****     }
 896:.\Generated_Source\PSoC4/BLE_eventHandler.c **** #endif /* CYBLE_WPTS_CLIENT */
 897:.\Generated_Source\PSoC4/BLE_eventHandler.c **** #ifdef CYBLE_WSS_CLIENT
 898:.\Generated_Source\PSoC4/BLE_eventHandler.c ****     if((cyBle_eventHandlerFlag & CYBLE_CALLBACK) != 0u)
 899:.\Generated_Source\PSoC4/BLE_eventHandler.c ****     {
 900:.\Generated_Source\PSoC4/BLE_eventHandler.c ****         CyBle_WsscIndicationEventHandler(eventParam);
 901:.\Generated_Source\PSoC4/BLE_eventHandler.c ****     }
 902:.\Generated_Source\PSoC4/BLE_eventHandler.c **** #endif /* CYBLE_WSS_CLIENT */
 903:.\Generated_Source\PSoC4/BLE_eventHandler.c **** }
 904:.\Generated_Source\PSoC4/BLE_eventHandler.c **** 
 905:.\Generated_Source\PSoC4/BLE_eventHandler.c **** 
 906:.\Generated_Source\PSoC4/BLE_eventHandler.c **** 
 907:.\Generated_Source\PSoC4/BLE_eventHandler.c **** /******************************************************************************    
 908:.\Generated_Source\PSoC4/BLE_eventHandler.c **** ##Function Name: CyBle_ReadResponseEventHandler
 909:.\Generated_Source\PSoC4/BLE_eventHandler.c **** *******************************************************************************
ARM GAS  C:\Users\KEVINH~1\AppData\Local\Temp\ccC6tirb.s 			page 20


 910:.\Generated_Source\PSoC4/BLE_eventHandler.c **** 
 911:.\Generated_Source\PSoC4/BLE_eventHandler.c **** Summary:
 912:.\Generated_Source\PSoC4/BLE_eventHandler.c ****  Handles the Read Response event from BLE stack.
 913:.\Generated_Source\PSoC4/BLE_eventHandler.c **** 
 914:.\Generated_Source\PSoC4/BLE_eventHandler.c **** Parameters:
 915:.\Generated_Source\PSoC4/BLE_eventHandler.c ****  CYBLE_GATTC_READ_RSP_PARAM_T * eventParam - event parameter
 916:.\Generated_Source\PSoC4/BLE_eventHandler.c **** 
 917:.\Generated_Source\PSoC4/BLE_eventHandler.c **** Return:
 918:.\Generated_Source\PSoC4/BLE_eventHandler.c ****  None
 919:.\Generated_Source\PSoC4/BLE_eventHandler.c **** 
 920:.\Generated_Source\PSoC4/BLE_eventHandler.c **** ******************************************************************************/
 921:.\Generated_Source\PSoC4/BLE_eventHandler.c **** static void CyBle_ReadResponseEventHandler(CYBLE_GATTC_READ_RSP_PARAM_T *eventParam)
 922:.\Generated_Source\PSoC4/BLE_eventHandler.c **** {
 923:.\Generated_Source\PSoC4/BLE_eventHandler.c **** #ifdef CYBLE_CUSTOM_CLIENT
 924:.\Generated_Source\PSoC4/BLE_eventHandler.c ****     /* Read response with 128-bit included service uuid */
 925:.\Generated_Source\PSoC4/BLE_eventHandler.c ****     if((CYBLE_CLIENT_STATE_INCL_DISCOVERING == CyBle_GetClientState()) &&
 926:.\Generated_Source\PSoC4/BLE_eventHandler.c ****        (cyBle_discInclInfo.inclDefHandle != 0u))
 927:.\Generated_Source\PSoC4/BLE_eventHandler.c ****     {
 928:.\Generated_Source\PSoC4/BLE_eventHandler.c ****         CYBLE_DISC_SRVC128_INFO_T discServInfo;
 929:.\Generated_Source\PSoC4/BLE_eventHandler.c **** 
 930:.\Generated_Source\PSoC4/BLE_eventHandler.c ****         /* Store service range */
 931:.\Generated_Source\PSoC4/BLE_eventHandler.c ****         discServInfo.range = cyBle_discInclInfo.inclHandleRange;
 932:.\Generated_Source\PSoC4/BLE_eventHandler.c ****         (void)memcpy((void *) discServInfo.uuid.uuid128.value, (void *)eventParam->value.val, event
 933:.\Generated_Source\PSoC4/BLE_eventHandler.c ****         CyBle_CustomcDiscoverServiceEventHandler(&discServInfo);
 934:.\Generated_Source\PSoC4/BLE_eventHandler.c ****         
 935:.\Generated_Source\PSoC4/BLE_eventHandler.c ****         /* Re-initiate CyBle_GattcFindIncludedServices function, setting the start
 936:.\Generated_Source\PSoC4/BLE_eventHandler.c ****            handle to the attribute handle which is placed next to the one used in
 937:.\Generated_Source\PSoC4/BLE_eventHandler.c ****            the above step.
 938:.\Generated_Source\PSoC4/BLE_eventHandler.c ****         */
 939:.\Generated_Source\PSoC4/BLE_eventHandler.c ****         discServInfo.range.startHandle = cyBle_discInclInfo.inclDefHandle + 1;
 940:.\Generated_Source\PSoC4/BLE_eventHandler.c ****         discServInfo.range.endHandle = cyBle_serverInfo[cyBle_disCount].range.endHandle;
 941:.\Generated_Source\PSoC4/BLE_eventHandler.c ****         if(discServInfo.range.startHandle <= discServInfo.range.endHandle)
 942:.\Generated_Source\PSoC4/BLE_eventHandler.c ****         {
 943:.\Generated_Source\PSoC4/BLE_eventHandler.c ****             if(CYBLE_ERROR_OK != CyBle_GattcFindIncludedServices(cyBle_connHandle, &discServInfo.ra
 944:.\Generated_Source\PSoC4/BLE_eventHandler.c ****             {
 945:.\Generated_Source\PSoC4/BLE_eventHandler.c ****                 CyBle_ApplCallback(CYBLE_EVT_GATTC_INCL_DISCOVERY_FAILED, NULL);
 946:.\Generated_Source\PSoC4/BLE_eventHandler.c ****                 cyBle_eventHandlerFlag &= (uint8)~CYBLE_AUTO_DISCOVERY;
 947:.\Generated_Source\PSoC4/BLE_eventHandler.c ****             }
 948:.\Generated_Source\PSoC4/BLE_eventHandler.c ****         }
 949:.\Generated_Source\PSoC4/BLE_eventHandler.c ****         else /* Continue discovery of the following service */
 950:.\Generated_Source\PSoC4/BLE_eventHandler.c ****         {
 951:.\Generated_Source\PSoC4/BLE_eventHandler.c ****             CyBle_NextInclDiscovery(CYBLE_DISCOVERY_CONTINUE);
 952:.\Generated_Source\PSoC4/BLE_eventHandler.c ****         }
 953:.\Generated_Source\PSoC4/BLE_eventHandler.c ****         
 954:.\Generated_Source\PSoC4/BLE_eventHandler.c ****         cyBle_eventHandlerFlag &= (uint8)~CYBLE_CALLBACK;
 955:.\Generated_Source\PSoC4/BLE_eventHandler.c ****         cyBle_discInclInfo.inclDefHandle = 0u;
 956:.\Generated_Source\PSoC4/BLE_eventHandler.c ****         
 957:.\Generated_Source\PSoC4/BLE_eventHandler.c ****     }
 958:.\Generated_Source\PSoC4/BLE_eventHandler.c **** #endif /* CYBLE_CUSTOM_CLIENT */
 959:.\Generated_Source\PSoC4/BLE_eventHandler.c **** #ifdef CYBLE_ANS_CLIENT
 960:.\Generated_Source\PSoC4/BLE_eventHandler.c ****     if((cyBle_eventHandlerFlag & CYBLE_CALLBACK) != 0u)
 961:.\Generated_Source\PSoC4/BLE_eventHandler.c ****     {
 962:.\Generated_Source\PSoC4/BLE_eventHandler.c ****         CyBle_AnscReadResponseEventHandler(eventParam);
 963:.\Generated_Source\PSoC4/BLE_eventHandler.c ****     }
 964:.\Generated_Source\PSoC4/BLE_eventHandler.c **** #endif /* CYBLE_ANS_CLIENT */
 965:.\Generated_Source\PSoC4/BLE_eventHandler.c **** #ifdef CYBLE_BAS_CLIENT
 966:.\Generated_Source\PSoC4/BLE_eventHandler.c ****     if((cyBle_eventHandlerFlag & CYBLE_CALLBACK) != 0u)
ARM GAS  C:\Users\KEVINH~1\AppData\Local\Temp\ccC6tirb.s 			page 21


 967:.\Generated_Source\PSoC4/BLE_eventHandler.c ****     {
 968:.\Generated_Source\PSoC4/BLE_eventHandler.c ****         CyBle_BascReadResponseEventHandler(eventParam);
 969:.\Generated_Source\PSoC4/BLE_eventHandler.c ****     }
 970:.\Generated_Source\PSoC4/BLE_eventHandler.c **** #endif /* CYBLE_BAS_CLIENT */
 971:.\Generated_Source\PSoC4/BLE_eventHandler.c **** #ifdef CYBLE_BLS_CLIENT
 972:.\Generated_Source\PSoC4/BLE_eventHandler.c ****     if((cyBle_eventHandlerFlag & CYBLE_CALLBACK) != 0u)
 973:.\Generated_Source\PSoC4/BLE_eventHandler.c ****     {
 974:.\Generated_Source\PSoC4/BLE_eventHandler.c ****         CyBle_BlscReadResponseEventHandler(eventParam);
 975:.\Generated_Source\PSoC4/BLE_eventHandler.c ****     }
 976:.\Generated_Source\PSoC4/BLE_eventHandler.c **** #endif /* CYBLE_BLS_CLIENT */
 977:.\Generated_Source\PSoC4/BLE_eventHandler.c **** #ifdef CYBLE_BMS_CLIENT
 978:.\Generated_Source\PSoC4/BLE_eventHandler.c ****     if((cyBle_eventHandlerFlag & CYBLE_CALLBACK) != 0u)
 979:.\Generated_Source\PSoC4/BLE_eventHandler.c ****     {
 980:.\Generated_Source\PSoC4/BLE_eventHandler.c ****         CyBle_BmscReadResponseEventHandler(eventParam);
 981:.\Generated_Source\PSoC4/BLE_eventHandler.c ****     }
 982:.\Generated_Source\PSoC4/BLE_eventHandler.c **** #endif /* CYBLE_BMS_CLIENT */
 983:.\Generated_Source\PSoC4/BLE_eventHandler.c **** #ifdef CYBLE_CGMS_CLIENT
 984:.\Generated_Source\PSoC4/BLE_eventHandler.c ****     if((cyBle_eventHandlerFlag & CYBLE_CALLBACK) != 0u)
 985:.\Generated_Source\PSoC4/BLE_eventHandler.c ****     {
 986:.\Generated_Source\PSoC4/BLE_eventHandler.c ****         CyBle_CgmscReadResponseEventHandler(eventParam);
 987:.\Generated_Source\PSoC4/BLE_eventHandler.c ****     }
 988:.\Generated_Source\PSoC4/BLE_eventHandler.c **** #endif /* CYBLE_CGMS_CLIENT */
 989:.\Generated_Source\PSoC4/BLE_eventHandler.c **** #ifdef CYBLE_CPS_CLIENT
 990:.\Generated_Source\PSoC4/BLE_eventHandler.c ****     if((cyBle_eventHandlerFlag & CYBLE_CALLBACK) != 0u)
 991:.\Generated_Source\PSoC4/BLE_eventHandler.c ****     {
 992:.\Generated_Source\PSoC4/BLE_eventHandler.c ****         CyBle_CpscReadResponseEventHandler(eventParam);
 993:.\Generated_Source\PSoC4/BLE_eventHandler.c ****     }
 994:.\Generated_Source\PSoC4/BLE_eventHandler.c **** #endif /* CYBLE_CPS_CLIENT */
 995:.\Generated_Source\PSoC4/BLE_eventHandler.c **** #ifdef CYBLE_CSCS_CLIENT
 996:.\Generated_Source\PSoC4/BLE_eventHandler.c ****     if((cyBle_eventHandlerFlag & CYBLE_CALLBACK) != 0u)
 997:.\Generated_Source\PSoC4/BLE_eventHandler.c ****     {
 998:.\Generated_Source\PSoC4/BLE_eventHandler.c ****         CyBle_CscscReadResponseEventHandler(eventParam);
 999:.\Generated_Source\PSoC4/BLE_eventHandler.c ****     }
1000:.\Generated_Source\PSoC4/BLE_eventHandler.c **** #endif /* CYBLE_CSCS_CLIENT */
1001:.\Generated_Source\PSoC4/BLE_eventHandler.c **** #ifdef CYBLE_CTS_CLIENT
1002:.\Generated_Source\PSoC4/BLE_eventHandler.c ****     if((cyBle_eventHandlerFlag & CYBLE_CALLBACK) != 0u)
1003:.\Generated_Source\PSoC4/BLE_eventHandler.c ****     {
1004:.\Generated_Source\PSoC4/BLE_eventHandler.c ****         CyBle_CtscReadResponseEventHandler(eventParam);
1005:.\Generated_Source\PSoC4/BLE_eventHandler.c ****     }
1006:.\Generated_Source\PSoC4/BLE_eventHandler.c **** #endif /* CYBLE_BAS_CLIENT */
1007:.\Generated_Source\PSoC4/BLE_eventHandler.c **** #ifdef CYBLE_DIS_CLIENT
1008:.\Generated_Source\PSoC4/BLE_eventHandler.c ****     if((cyBle_eventHandlerFlag & CYBLE_CALLBACK) != 0u)
1009:.\Generated_Source\PSoC4/BLE_eventHandler.c ****     {
1010:.\Generated_Source\PSoC4/BLE_eventHandler.c ****         CyBle_DiscReadResponseEventHandler(eventParam);
1011:.\Generated_Source\PSoC4/BLE_eventHandler.c ****     }
1012:.\Generated_Source\PSoC4/BLE_eventHandler.c **** #endif /* CYBLE_DIS_CLIENT */
1013:.\Generated_Source\PSoC4/BLE_eventHandler.c **** #ifdef CYBLE_ESS_CLIENT
1014:.\Generated_Source\PSoC4/BLE_eventHandler.c ****     if((cyBle_eventHandlerFlag & CYBLE_CALLBACK) != 0u)
1015:.\Generated_Source\PSoC4/BLE_eventHandler.c ****     {
1016:.\Generated_Source\PSoC4/BLE_eventHandler.c ****         CyBle_EsscReadResponseEventHandler(eventParam);
1017:.\Generated_Source\PSoC4/BLE_eventHandler.c ****     }
1018:.\Generated_Source\PSoC4/BLE_eventHandler.c **** #endif /* CYBLE_ESS_CLIENT */
1019:.\Generated_Source\PSoC4/BLE_eventHandler.c **** #ifdef CYBLE_GLS_CLIENT
1020:.\Generated_Source\PSoC4/BLE_eventHandler.c ****     if((cyBle_eventHandlerFlag & CYBLE_CALLBACK) != 0u)
1021:.\Generated_Source\PSoC4/BLE_eventHandler.c ****     {
1022:.\Generated_Source\PSoC4/BLE_eventHandler.c ****         CyBle_GlscReadResponseEventHandler(eventParam);
1023:.\Generated_Source\PSoC4/BLE_eventHandler.c ****     }
ARM GAS  C:\Users\KEVINH~1\AppData\Local\Temp\ccC6tirb.s 			page 22


1024:.\Generated_Source\PSoC4/BLE_eventHandler.c **** #endif /* CYBLE_GLS_CLIENT */
1025:.\Generated_Source\PSoC4/BLE_eventHandler.c **** #ifdef CYBLE_HIDS_CLIENT
1026:.\Generated_Source\PSoC4/BLE_eventHandler.c ****     if((cyBle_eventHandlerFlag & CYBLE_CALLBACK) != 0u)
1027:.\Generated_Source\PSoC4/BLE_eventHandler.c ****     {
1028:.\Generated_Source\PSoC4/BLE_eventHandler.c ****         CyBle_HidscReadResponseEventHandler(eventParam);
1029:.\Generated_Source\PSoC4/BLE_eventHandler.c ****     }
1030:.\Generated_Source\PSoC4/BLE_eventHandler.c **** #endif /* CYBLE_HIDS_CLIENT */
1031:.\Generated_Source\PSoC4/BLE_eventHandler.c **** #ifdef CYBLE_HRS_CLIENT
1032:.\Generated_Source\PSoC4/BLE_eventHandler.c ****     if((cyBle_eventHandlerFlag & CYBLE_CALLBACK) != 0u)
1033:.\Generated_Source\PSoC4/BLE_eventHandler.c ****     {
1034:.\Generated_Source\PSoC4/BLE_eventHandler.c ****         CyBle_HrscReadResponseEventHandler(eventParam);
1035:.\Generated_Source\PSoC4/BLE_eventHandler.c ****     }
1036:.\Generated_Source\PSoC4/BLE_eventHandler.c **** #endif /* CYBLE_HRS_CLIENT */
1037:.\Generated_Source\PSoC4/BLE_eventHandler.c **** #ifdef CYBLE_HTS_CLIENT
1038:.\Generated_Source\PSoC4/BLE_eventHandler.c ****     if((cyBle_eventHandlerFlag & CYBLE_CALLBACK) != 0u)
1039:.\Generated_Source\PSoC4/BLE_eventHandler.c ****     {
1040:.\Generated_Source\PSoC4/BLE_eventHandler.c ****         CyBle_HtscReadResponseEventHandler(eventParam);
1041:.\Generated_Source\PSoC4/BLE_eventHandler.c ****     }
1042:.\Generated_Source\PSoC4/BLE_eventHandler.c **** #endif /* CYBLE_HTS_CLIENT */
1043:.\Generated_Source\PSoC4/BLE_eventHandler.c **** #ifdef CYBLE_LLS_CLIENT
1044:.\Generated_Source\PSoC4/BLE_eventHandler.c ****     if((cyBle_eventHandlerFlag & CYBLE_CALLBACK) != 0u)
1045:.\Generated_Source\PSoC4/BLE_eventHandler.c ****     {
1046:.\Generated_Source\PSoC4/BLE_eventHandler.c ****         CyBle_LlscReadResponseEventHandler(eventParam);
1047:.\Generated_Source\PSoC4/BLE_eventHandler.c ****     }
1048:.\Generated_Source\PSoC4/BLE_eventHandler.c **** #endif /* CYBLE_LLS_CLIENT */
1049:.\Generated_Source\PSoC4/BLE_eventHandler.c **** #ifdef CYBLE_LNS_CLIENT
1050:.\Generated_Source\PSoC4/BLE_eventHandler.c ****     if((cyBle_eventHandlerFlag & CYBLE_CALLBACK) != 0u)
1051:.\Generated_Source\PSoC4/BLE_eventHandler.c ****     {
1052:.\Generated_Source\PSoC4/BLE_eventHandler.c ****         CyBle_LnscReadResponseEventHandler(eventParam);
1053:.\Generated_Source\PSoC4/BLE_eventHandler.c ****     }
1054:.\Generated_Source\PSoC4/BLE_eventHandler.c **** #endif /* CYBLE_LNS_CLIENT */
1055:.\Generated_Source\PSoC4/BLE_eventHandler.c **** #ifdef CYBLE_NDCS_CLIENT
1056:.\Generated_Source\PSoC4/BLE_eventHandler.c ****     if((cyBle_eventHandlerFlag & CYBLE_CALLBACK) != 0u)
1057:.\Generated_Source\PSoC4/BLE_eventHandler.c ****     {
1058:.\Generated_Source\PSoC4/BLE_eventHandler.c ****         CyBle_NdcscReadResponseEventHandler(eventParam);
1059:.\Generated_Source\PSoC4/BLE_eventHandler.c ****     }
1060:.\Generated_Source\PSoC4/BLE_eventHandler.c **** #endif /* CYBLE_NDCS_CLIENT */
1061:.\Generated_Source\PSoC4/BLE_eventHandler.c **** #ifdef CYBLE_PASS_CLIENT
1062:.\Generated_Source\PSoC4/BLE_eventHandler.c ****     if((cyBle_eventHandlerFlag & CYBLE_CALLBACK) != 0u)
1063:.\Generated_Source\PSoC4/BLE_eventHandler.c ****     {
1064:.\Generated_Source\PSoC4/BLE_eventHandler.c ****         CyBle_PasscReadResponseEventHandler(eventParam);
1065:.\Generated_Source\PSoC4/BLE_eventHandler.c ****     }
1066:.\Generated_Source\PSoC4/BLE_eventHandler.c **** #endif /* CYBLE_PASS_CLIENT */
1067:.\Generated_Source\PSoC4/BLE_eventHandler.c **** #ifdef CYBLE_RSCS_CLIENT
1068:.\Generated_Source\PSoC4/BLE_eventHandler.c ****     if((cyBle_eventHandlerFlag & CYBLE_CALLBACK) != 0u)
1069:.\Generated_Source\PSoC4/BLE_eventHandler.c ****     {
1070:.\Generated_Source\PSoC4/BLE_eventHandler.c ****         CyBle_RscscReadResponseEventHandler(eventParam);
1071:.\Generated_Source\PSoC4/BLE_eventHandler.c ****     }
1072:.\Generated_Source\PSoC4/BLE_eventHandler.c **** #endif /* CYBLE_RSCS_CLIENT */
1073:.\Generated_Source\PSoC4/BLE_eventHandler.c **** #ifdef CYBLE_RTUS_CLIENT
1074:.\Generated_Source\PSoC4/BLE_eventHandler.c ****     if((cyBle_eventHandlerFlag & CYBLE_CALLBACK) != 0u)
1075:.\Generated_Source\PSoC4/BLE_eventHandler.c ****     {
1076:.\Generated_Source\PSoC4/BLE_eventHandler.c ****         CyBle_RtuscReadResponseEventHandler(eventParam);
1077:.\Generated_Source\PSoC4/BLE_eventHandler.c ****     }
1078:.\Generated_Source\PSoC4/BLE_eventHandler.c **** #endif /* CYBLE_RTUS_CLIENT */
1079:.\Generated_Source\PSoC4/BLE_eventHandler.c **** #ifdef CYBLE_SCPS_CLIENT
1080:.\Generated_Source\PSoC4/BLE_eventHandler.c ****     if((cyBle_eventHandlerFlag & CYBLE_CALLBACK) != 0u)
ARM GAS  C:\Users\KEVINH~1\AppData\Local\Temp\ccC6tirb.s 			page 23


1081:.\Generated_Source\PSoC4/BLE_eventHandler.c ****     {
1082:.\Generated_Source\PSoC4/BLE_eventHandler.c ****         CyBle_ScpscReadResponseEventHandler(eventParam);
1083:.\Generated_Source\PSoC4/BLE_eventHandler.c ****     }
1084:.\Generated_Source\PSoC4/BLE_eventHandler.c **** #endif /* CYBLE_SCPS_CLIENT */
1085:.\Generated_Source\PSoC4/BLE_eventHandler.c **** #ifdef CYBLE_TPS_CLIENT
1086:.\Generated_Source\PSoC4/BLE_eventHandler.c ****     if((cyBle_eventHandlerFlag & CYBLE_CALLBACK) != 0u)
1087:.\Generated_Source\PSoC4/BLE_eventHandler.c ****     {
1088:.\Generated_Source\PSoC4/BLE_eventHandler.c ****         CyBle_TpscReadResponseEventHandler(eventParam);
1089:.\Generated_Source\PSoC4/BLE_eventHandler.c ****     }
1090:.\Generated_Source\PSoC4/BLE_eventHandler.c **** #endif /* CYBLE_TPS_CLIENT */
1091:.\Generated_Source\PSoC4/BLE_eventHandler.c **** #ifdef CYBLE_UDS_CLIENT
1092:.\Generated_Source\PSoC4/BLE_eventHandler.c ****     if((cyBle_eventHandlerFlag & CYBLE_CALLBACK) != 0u)
1093:.\Generated_Source\PSoC4/BLE_eventHandler.c ****     {
1094:.\Generated_Source\PSoC4/BLE_eventHandler.c ****         CyBle_UdscReadResponseEventHandler(eventParam);
1095:.\Generated_Source\PSoC4/BLE_eventHandler.c ****     }
1096:.\Generated_Source\PSoC4/BLE_eventHandler.c **** #endif /* CYBLE_UDS_CLIENT */
1097:.\Generated_Source\PSoC4/BLE_eventHandler.c **** #ifdef CYBLE_WPTS_CLIENT
1098:.\Generated_Source\PSoC4/BLE_eventHandler.c ****     if((cyBle_eventHandlerFlag & CYBLE_CALLBACK) != 0u)
1099:.\Generated_Source\PSoC4/BLE_eventHandler.c ****     {
1100:.\Generated_Source\PSoC4/BLE_eventHandler.c ****         CyBle_WptscReadResponseEventHandler(eventParam);
1101:.\Generated_Source\PSoC4/BLE_eventHandler.c ****     }
1102:.\Generated_Source\PSoC4/BLE_eventHandler.c **** #endif /* CYBLE_WPTS_CLIENT */
1103:.\Generated_Source\PSoC4/BLE_eventHandler.c **** #ifdef CYBLE_WSS_CLIENT
1104:.\Generated_Source\PSoC4/BLE_eventHandler.c ****     if((cyBle_eventHandlerFlag & CYBLE_CALLBACK) != 0u)
1105:.\Generated_Source\PSoC4/BLE_eventHandler.c ****     {
1106:.\Generated_Source\PSoC4/BLE_eventHandler.c ****         CyBle_WsscReadResponseEventHandler(eventParam);
1107:.\Generated_Source\PSoC4/BLE_eventHandler.c ****     }
1108:.\Generated_Source\PSoC4/BLE_eventHandler.c **** #endif /* CYBLE_WSS_CLIENT */
1109:.\Generated_Source\PSoC4/BLE_eventHandler.c **** }
1110:.\Generated_Source\PSoC4/BLE_eventHandler.c **** #endif /* CYBLE_GATT_ROLE_CLIENT */
1111:.\Generated_Source\PSoC4/BLE_eventHandler.c **** 
1112:.\Generated_Source\PSoC4/BLE_eventHandler.c **** 
1113:.\Generated_Source\PSoC4/BLE_eventHandler.c **** /****************************************************************************** 
1114:.\Generated_Source\PSoC4/BLE_eventHandler.c **** ##Function Name: CyBle_DisconnectEventHandler
1115:.\Generated_Source\PSoC4/BLE_eventHandler.c **** *******************************************************************************
1116:.\Generated_Source\PSoC4/BLE_eventHandler.c **** 
1117:.\Generated_Source\PSoC4/BLE_eventHandler.c **** Summary:
1118:.\Generated_Source\PSoC4/BLE_eventHandler.c ****  Handles the GATT Disconnection event from the BLE stack.
1119:.\Generated_Source\PSoC4/BLE_eventHandler.c **** 
1120:.\Generated_Source\PSoC4/BLE_eventHandler.c **** Parameters:
1121:.\Generated_Source\PSoC4/BLE_eventHandler.c ****  None
1122:.\Generated_Source\PSoC4/BLE_eventHandler.c **** 
1123:.\Generated_Source\PSoC4/BLE_eventHandler.c **** Return:
1124:.\Generated_Source\PSoC4/BLE_eventHandler.c ****  None
1125:.\Generated_Source\PSoC4/BLE_eventHandler.c **** 
1126:.\Generated_Source\PSoC4/BLE_eventHandler.c **** ******************************************************************************/
1127:.\Generated_Source\PSoC4/BLE_eventHandler.c **** static void CyBle_GattDisconnectEventHandler(void)
1128:.\Generated_Source\PSoC4/BLE_eventHandler.c **** {
 175              		.loc 1 1128 0
 176              		.cfi_startproc
 177 0000 80B5     		push	{r7, lr}
 178              		.cfi_def_cfa_offset 8
 179              		.cfi_offset 7, -8
 180              		.cfi_offset 14, -4
 181 0002 00AF     		add	r7, sp, #0
 182              		.cfi_def_cfa_register 7
1129:.\Generated_Source\PSoC4/BLE_eventHandler.c ****     cyBle_connHandle.attId = 0u;
ARM GAS  C:\Users\KEVINH~1\AppData\Local\Temp\ccC6tirb.s 			page 24


 183              		.loc 1 1129 0
 184 0004 034B     		ldr	r3, .L9
 185 0006 0022     		mov	r2, #0
 186 0008 5A70     		strb	r2, [r3, #1]
1130:.\Generated_Source\PSoC4/BLE_eventHandler.c ****     cyBle_connHandle.bdHandle = 0u;
 187              		.loc 1 1130 0
 188 000a 024B     		ldr	r3, .L9
 189 000c 0022     		mov	r2, #0
 190 000e 1A70     		strb	r2, [r3]
1131:.\Generated_Source\PSoC4/BLE_eventHandler.c ****     
1132:.\Generated_Source\PSoC4/BLE_eventHandler.c ****     #if (CYBLE_GATT_ROLE_CLIENT)
1133:.\Generated_Source\PSoC4/BLE_eventHandler.c ****         if(CYBLE_CLIENT_STATE_DISCOVERED == CyBle_GetClientState())
1134:.\Generated_Source\PSoC4/BLE_eventHandler.c ****         {
1135:.\Generated_Source\PSoC4/BLE_eventHandler.c ****             CyBle_SetClientState(CYBLE_CLIENT_STATE_DISCONNECTED_DISCOVERED);
1136:.\Generated_Source\PSoC4/BLE_eventHandler.c ****         }
1137:.\Generated_Source\PSoC4/BLE_eventHandler.c ****         else
1138:.\Generated_Source\PSoC4/BLE_eventHandler.c ****         {
1139:.\Generated_Source\PSoC4/BLE_eventHandler.c ****             CyBle_SetClientState(CYBLE_CLIENT_STATE_DISCONNECTED);
1140:.\Generated_Source\PSoC4/BLE_eventHandler.c ****         }
1141:.\Generated_Source\PSoC4/BLE_eventHandler.c ****     #endif /* CYBLE_GATT_ROLE_CLIENT */
1142:.\Generated_Source\PSoC4/BLE_eventHandler.c ****         
1143:.\Generated_Source\PSoC4/BLE_eventHandler.c ****     #ifdef CYBLE_CPS_SERVER
1144:.\Generated_Source\PSoC4/BLE_eventHandler.c ****         #if CYBLE_GAP_ROLE_BROADCASTER
1145:.\Generated_Source\PSoC4/BLE_eventHandler.c ****             CyBle_CpssDisconnectEventHandler();
1146:.\Generated_Source\PSoC4/BLE_eventHandler.c ****         #endif /* CYBLE_GAP_ROLE_BROADCASTER */
1147:.\Generated_Source\PSoC4/BLE_eventHandler.c ****     #endif /* CYBLE_CPS_SERVER */
1148:.\Generated_Source\PSoC4/BLE_eventHandler.c **** 
1149:.\Generated_Source\PSoC4/BLE_eventHandler.c ****     #ifdef CYBLE_CPS_CLIENT
1150:.\Generated_Source\PSoC4/BLE_eventHandler.c ****         CyBle_CpscDisconnectEventHandler();
1151:.\Generated_Source\PSoC4/BLE_eventHandler.c ****     #endif /* CYBLE_CPS_CLIENT */
1152:.\Generated_Source\PSoC4/BLE_eventHandler.c **** 
1153:.\Generated_Source\PSoC4/BLE_eventHandler.c ****     #ifdef CYBLE_IAS_SERVER
1154:.\Generated_Source\PSoC4/BLE_eventHandler.c ****         CyBle_IassDisconnectEventHandler();
1155:.\Generated_Source\PSoC4/BLE_eventHandler.c ****     #endif /* CYBLE_IAS_SERVER */
1156:.\Generated_Source\PSoC4/BLE_eventHandler.c ****     
1157:.\Generated_Source\PSoC4/BLE_eventHandler.c ****     #ifdef CYBLE_GLS_SERVER
1158:.\Generated_Source\PSoC4/BLE_eventHandler.c ****         CyBle_GlsInit();
1159:.\Generated_Source\PSoC4/BLE_eventHandler.c ****     #endif /* CYBLE_GLS_SERVER */
1160:.\Generated_Source\PSoC4/BLE_eventHandler.c ****     
1161:.\Generated_Source\PSoC4/BLE_eventHandler.c ****     #ifdef CYBLE_LNS_SERVER
1162:.\Generated_Source\PSoC4/BLE_eventHandler.c ****         CyBle_LnsInit();
1163:.\Generated_Source\PSoC4/BLE_eventHandler.c ****     #endif /* CYBLE_LNS_SERVER */
1164:.\Generated_Source\PSoC4/BLE_eventHandler.c ****     
1165:.\Generated_Source\PSoC4/BLE_eventHandler.c ****     #ifdef CYBLE_UDS_SERVER
1166:.\Generated_Source\PSoC4/BLE_eventHandler.c ****         CyBle_UdsInit();
1167:.\Generated_Source\PSoC4/BLE_eventHandler.c ****     #endif /* CYBLE_UDS_SERVER */
1168:.\Generated_Source\PSoC4/BLE_eventHandler.c **** }
 191              		.loc 1 1168 0
 192 0010 BD46     		mov	sp, r7
 193              		@ sp needed
 194 0012 80BD     		pop	{r7, pc}
 195              	.L10:
 196              		.align	2
 197              	.L9:
 198 0014 00000000 		.word	cyBle_connHandle
 199              		.cfi_endproc
 200              	.LFE4:
ARM GAS  C:\Users\KEVINH~1\AppData\Local\Temp\ccC6tirb.s 			page 25


 201              		.size	CyBle_GattDisconnectEventHandler, .-CyBle_GattDisconnectEventHandler
 202              		.section	.text.CyBle_TimeOutEventHandler,"ax",%progbits
 203              		.align	2
 204              		.code	16
 205              		.thumb_func
 206              		.type	CyBle_TimeOutEventHandler, %function
 207              	CyBle_TimeOutEventHandler:
 208              	.LFB5:
1169:.\Generated_Source\PSoC4/BLE_eventHandler.c **** 
1170:.\Generated_Source\PSoC4/BLE_eventHandler.c **** 
1171:.\Generated_Source\PSoC4/BLE_eventHandler.c **** /****************************************************************************** 
1172:.\Generated_Source\PSoC4/BLE_eventHandler.c **** ##Function Name: CyBle_TimeOutEventHandler
1173:.\Generated_Source\PSoC4/BLE_eventHandler.c **** *******************************************************************************
1174:.\Generated_Source\PSoC4/BLE_eventHandler.c **** 
1175:.\Generated_Source\PSoC4/BLE_eventHandler.c **** Summary:
1176:.\Generated_Source\PSoC4/BLE_eventHandler.c ****  Handles the CYBLE_EVT_TIMEOUT event from the BLE stack.
1177:.\Generated_Source\PSoC4/BLE_eventHandler.c **** 
1178:.\Generated_Source\PSoC4/BLE_eventHandler.c **** Parameters:
1179:.\Generated_Source\PSoC4/BLE_eventHandler.c ****  *eventParam - The pointer to a structure of type CYBLE_TO_REASON_CODE_T.
1180:.\Generated_Source\PSoC4/BLE_eventHandler.c **** 
1181:.\Generated_Source\PSoC4/BLE_eventHandler.c **** Return:
1182:.\Generated_Source\PSoC4/BLE_eventHandler.c ****  None
1183:.\Generated_Source\PSoC4/BLE_eventHandler.c **** 
1184:.\Generated_Source\PSoC4/BLE_eventHandler.c **** ******************************************************************************/
1185:.\Generated_Source\PSoC4/BLE_eventHandler.c **** static void CyBle_TimeOutEventHandler(const CYBLE_TO_REASON_CODE_T *eventParam)
1186:.\Generated_Source\PSoC4/BLE_eventHandler.c **** {
 209              		.loc 1 1186 0
 210              		.cfi_startproc
 211 0000 80B5     		push	{r7, lr}
 212              		.cfi_def_cfa_offset 8
 213              		.cfi_offset 7, -8
 214              		.cfi_offset 14, -4
 215 0002 82B0     		sub	sp, sp, #8
 216              		.cfi_def_cfa_offset 16
 217 0004 00AF     		add	r7, sp, #0
 218              		.cfi_def_cfa_register 7
 219 0006 7860     		str	r0, [r7, #4]
1187:.\Generated_Source\PSoC4/BLE_eventHandler.c ****     if(*eventParam == CYBLE_GATT_RSP_TO)
1188:.\Generated_Source\PSoC4/BLE_eventHandler.c ****     {
1189:.\Generated_Source\PSoC4/BLE_eventHandler.c ****     #if (CYBLE_GATT_ROLE_CLIENT)
1190:.\Generated_Source\PSoC4/BLE_eventHandler.c ****         if(0u != (cyBle_eventHandlerFlag & CYBLE_AUTO_DISCOVERY))
1191:.\Generated_Source\PSoC4/BLE_eventHandler.c ****         {
1192:.\Generated_Source\PSoC4/BLE_eventHandler.c ****             switch(CyBle_GetClientState())
1193:.\Generated_Source\PSoC4/BLE_eventHandler.c ****             {
1194:.\Generated_Source\PSoC4/BLE_eventHandler.c ****                 case CYBLE_CLIENT_STATE_SRVC_DISCOVERING:
1195:.\Generated_Source\PSoC4/BLE_eventHandler.c ****                     CyBle_ApplCallback(CYBLE_EVT_GATTC_SRVC_DISCOVERY_FAILED, NULL);
1196:.\Generated_Source\PSoC4/BLE_eventHandler.c ****                     break;
1197:.\Generated_Source\PSoC4/BLE_eventHandler.c ****                 case CYBLE_CLIENT_STATE_INCL_DISCOVERING:
1198:.\Generated_Source\PSoC4/BLE_eventHandler.c ****                     CyBle_ApplCallback(CYBLE_EVT_GATTC_INCL_DISCOVERY_FAILED, NULL);
1199:.\Generated_Source\PSoC4/BLE_eventHandler.c ****                     break;
1200:.\Generated_Source\PSoC4/BLE_eventHandler.c ****                 case CYBLE_CLIENT_STATE_CHAR_DISCOVERING:
1201:.\Generated_Source\PSoC4/BLE_eventHandler.c ****                     CyBle_ApplCallback(CYBLE_EVT_GATTC_CHAR_DISCOVERY_FAILED, NULL);
1202:.\Generated_Source\PSoC4/BLE_eventHandler.c ****                     break;
1203:.\Generated_Source\PSoC4/BLE_eventHandler.c ****                 case CYBLE_CLIENT_STATE_DESCR_DISCOVERING:
1204:.\Generated_Source\PSoC4/BLE_eventHandler.c ****                     CyBle_ApplCallback(CYBLE_EVT_GATTC_DESCR_DISCOVERY_FAILED, NULL);
1205:.\Generated_Source\PSoC4/BLE_eventHandler.c ****                     break;
1206:.\Generated_Source\PSoC4/BLE_eventHandler.c ****                 default:        /* Other states should not be set in Auto discovery mode */
ARM GAS  C:\Users\KEVINH~1\AppData\Local\Temp\ccC6tirb.s 			page 26


1207:.\Generated_Source\PSoC4/BLE_eventHandler.c ****                     break;
1208:.\Generated_Source\PSoC4/BLE_eventHandler.c ****             }
1209:.\Generated_Source\PSoC4/BLE_eventHandler.c ****             cyBle_eventHandlerFlag &= (uint8)~CYBLE_AUTO_DISCOVERY;
1210:.\Generated_Source\PSoC4/BLE_eventHandler.c ****             CyBle_SetClientState(CYBLE_CLIENT_STATE_CONNECTED);
1211:.\Generated_Source\PSoC4/BLE_eventHandler.c ****         }
1212:.\Generated_Source\PSoC4/BLE_eventHandler.c ****     #endif /* CYBLE_GATT_ROLE_CLIENT */
1213:.\Generated_Source\PSoC4/BLE_eventHandler.c ****     #ifdef CYBLE_CPS_SERVER
1214:.\Generated_Source\PSoC4/BLE_eventHandler.c ****         CyBle_CpssTimeOutEventHandler();
1215:.\Generated_Source\PSoC4/BLE_eventHandler.c ****     #endif /* CYBLE_CPS_SERVER */
1216:.\Generated_Source\PSoC4/BLE_eventHandler.c ****     }
1217:.\Generated_Source\PSoC4/BLE_eventHandler.c ****     
1218:.\Generated_Source\PSoC4/BLE_eventHandler.c ****     /* Connection procedure timeout */
1219:.\Generated_Source\PSoC4/BLE_eventHandler.c ****     if(*eventParam == CYBLE_GENERIC_TO)
1220:.\Generated_Source\PSoC4/BLE_eventHandler.c ****     {
1221:.\Generated_Source\PSoC4/BLE_eventHandler.c ****     #if(CYBLE_GAP_ROLE_CENTRAL)
1222:.\Generated_Source\PSoC4/BLE_eventHandler.c ****         if(CYBLE_STATE_CONNECTING == CyBle_GetState())
1223:.\Generated_Source\PSoC4/BLE_eventHandler.c ****         {
1224:.\Generated_Source\PSoC4/BLE_eventHandler.c ****             (void)CyBle_GapcCancelDeviceConnection();
1225:.\Generated_Source\PSoC4/BLE_eventHandler.c ****         }
1226:.\Generated_Source\PSoC4/BLE_eventHandler.c ****     #endif /* CYBLE_GAP_ROLE_CENTRAL */
1227:.\Generated_Source\PSoC4/BLE_eventHandler.c ****     }
1228:.\Generated_Source\PSoC4/BLE_eventHandler.c **** }
 220              		.loc 1 1228 0
 221 0008 BD46     		mov	sp, r7
 222 000a 02B0     		add	sp, sp, #8
 223              		@ sp needed
 224 000c 80BD     		pop	{r7, pc}
 225              		.cfi_endproc
 226              	.LFE5:
 227              		.size	CyBle_TimeOutEventHandler, .-CyBle_TimeOutEventHandler
 228              		.section	.text.CyBle_GattConnectReqHandler,"ax",%progbits
 229              		.align	2
 230              		.code	16
 231              		.thumb_func
 232              		.type	CyBle_GattConnectReqHandler, %function
 233              	CyBle_GattConnectReqHandler:
 234              	.LFB6:
1229:.\Generated_Source\PSoC4/BLE_eventHandler.c **** 
1230:.\Generated_Source\PSoC4/BLE_eventHandler.c **** 
1231:.\Generated_Source\PSoC4/BLE_eventHandler.c **** /****************************************************************************** 
1232:.\Generated_Source\PSoC4/BLE_eventHandler.c **** ##Function Name: CyBle_GattConnectReqHandler
1233:.\Generated_Source\PSoC4/BLE_eventHandler.c **** *******************************************************************************
1234:.\Generated_Source\PSoC4/BLE_eventHandler.c **** 
1235:.\Generated_Source\PSoC4/BLE_eventHandler.c **** Summary:
1236:.\Generated_Source\PSoC4/BLE_eventHandler.c ****  Handles the GATT connect event from the BLE stack.
1237:.\Generated_Source\PSoC4/BLE_eventHandler.c **** 
1238:.\Generated_Source\PSoC4/BLE_eventHandler.c **** Parameters:
1239:.\Generated_Source\PSoC4/BLE_eventHandler.c ****  None
1240:.\Generated_Source\PSoC4/BLE_eventHandler.c **** 
1241:.\Generated_Source\PSoC4/BLE_eventHandler.c **** Return:
1242:.\Generated_Source\PSoC4/BLE_eventHandler.c ****  None
1243:.\Generated_Source\PSoC4/BLE_eventHandler.c **** 
1244:.\Generated_Source\PSoC4/BLE_eventHandler.c **** ******************************************************************************/
1245:.\Generated_Source\PSoC4/BLE_eventHandler.c **** static void CyBle_GattConnectReqHandler(void)
1246:.\Generated_Source\PSoC4/BLE_eventHandler.c **** {
 235              		.loc 1 1246 0
 236              		.cfi_startproc
ARM GAS  C:\Users\KEVINH~1\AppData\Local\Temp\ccC6tirb.s 			page 27


 237 0000 80B5     		push	{r7, lr}
 238              		.cfi_def_cfa_offset 8
 239              		.cfi_offset 7, -8
 240              		.cfi_offset 14, -4
 241 0002 00AF     		add	r7, sp, #0
 242              		.cfi_def_cfa_register 7
1247:.\Generated_Source\PSoC4/BLE_eventHandler.c ****     #ifdef CYBLE_CGMS_SERVER
1248:.\Generated_Source\PSoC4/BLE_eventHandler.c ****         CyBle_CgmsInit();
1249:.\Generated_Source\PSoC4/BLE_eventHandler.c ****     #endif /* CYBLE_CGMS_SERVER */
1250:.\Generated_Source\PSoC4/BLE_eventHandler.c ****     
1251:.\Generated_Source\PSoC4/BLE_eventHandler.c ****     #ifdef CYBLE_CPS_SERVER
1252:.\Generated_Source\PSoC4/BLE_eventHandler.c ****         CyBle_CpssConnectEventHandler();
1253:.\Generated_Source\PSoC4/BLE_eventHandler.c ****     #endif /* CYBLE_CPS_SERVER */
1254:.\Generated_Source\PSoC4/BLE_eventHandler.c ****     
1255:.\Generated_Source\PSoC4/BLE_eventHandler.c ****     #ifdef CYBLE_CSCS_SERVER
1256:.\Generated_Source\PSoC4/BLE_eventHandler.c ****             CyBle_CscsInit();
1257:.\Generated_Source\PSoC4/BLE_eventHandler.c ****     #endif /* CYBLE_CSCS_SERVER */
1258:.\Generated_Source\PSoC4/BLE_eventHandler.c ****     
1259:.\Generated_Source\PSoC4/BLE_eventHandler.c ****     #ifdef CYBLE_LLS_SERVER
1260:.\Generated_Source\PSoC4/BLE_eventHandler.c ****         CyBle_LlssConnectEventHandler();
1261:.\Generated_Source\PSoC4/BLE_eventHandler.c ****     #endif /* CYBLE_LLS_SERVER */
1262:.\Generated_Source\PSoC4/BLE_eventHandler.c ****     
1263:.\Generated_Source\PSoC4/BLE_eventHandler.c ****     #ifdef CYBLE_HIDS_SERVER
1264:.\Generated_Source\PSoC4/BLE_eventHandler.c ****         CyBle_HidssOnDeviceConnected();
1265:.\Generated_Source\PSoC4/BLE_eventHandler.c ****     #endif /* CYBLE_HIDS_SERVER */
1266:.\Generated_Source\PSoC4/BLE_eventHandler.c **** 
1267:.\Generated_Source\PSoC4/BLE_eventHandler.c ****     #ifdef CYBLE_RSCS_SERVER
1268:.\Generated_Source\PSoC4/BLE_eventHandler.c ****         CyBle_RscsInit();
1269:.\Generated_Source\PSoC4/BLE_eventHandler.c ****     #endif /* CYBLE_RSCS_SERVER */
1270:.\Generated_Source\PSoC4/BLE_eventHandler.c **** }
 243              		.loc 1 1270 0
 244 0004 BD46     		mov	sp, r7
 245              		@ sp needed
 246 0006 80BD     		pop	{r7, pc}
 247              		.cfi_endproc
 248              	.LFE6:
 249              		.size	CyBle_GattConnectReqHandler, .-CyBle_GattConnectReqHandler
 250              		.section	.text.CyBle_IsDeviceAddressValid,"ax",%progbits
 251              		.align	2
 252              		.code	16
 253              		.thumb_func
 254              		.type	CyBle_IsDeviceAddressValid, %function
 255              	CyBle_IsDeviceAddressValid:
 256              	.LFB7:
1271:.\Generated_Source\PSoC4/BLE_eventHandler.c **** 
1272:.\Generated_Source\PSoC4/BLE_eventHandler.c **** 
1273:.\Generated_Source\PSoC4/BLE_eventHandler.c **** #if (CYBLE_GATT_ROLE_SERVER || CYBLE_GATT_ROLE_CLIENT)
1274:.\Generated_Source\PSoC4/BLE_eventHandler.c **** 
1275:.\Generated_Source\PSoC4/BLE_eventHandler.c **** /****************************************************************************** 
1276:.\Generated_Source\PSoC4/BLE_eventHandler.c **** ##Function Name: CyBle_IsDeviceAddressValid
1277:.\Generated_Source\PSoC4/BLE_eventHandler.c **** *******************************************************************************
1278:.\Generated_Source\PSoC4/BLE_eventHandler.c **** 
1279:.\Generated_Source\PSoC4/BLE_eventHandler.c **** Summary:
1280:.\Generated_Source\PSoC4/BLE_eventHandler.c ****  This function verifies that BLE public address has been programmed to SFLASH 
1281:.\Generated_Source\PSoC4/BLE_eventHandler.c ****  during manufacture.
1282:.\Generated_Source\PSoC4/BLE_eventHandler.c **** 
1283:.\Generated_Source\PSoC4/BLE_eventHandler.c **** Parameters:
ARM GAS  C:\Users\KEVINH~1\AppData\Local\Temp\ccC6tirb.s 			page 28


1284:.\Generated_Source\PSoC4/BLE_eventHandler.c ****  CYBLE_GAP_BD_ADDR_T *sflashDeviceAddress: the pointer to the BD address of 
1285:.\Generated_Source\PSoC4/BLE_eventHandler.c ****                                            type CYBLE_GAP_BD_ADDR_T. 
1286:.\Generated_Source\PSoC4/BLE_eventHandler.c **** 
1287:.\Generated_Source\PSoC4/BLE_eventHandler.c **** Return:
1288:.\Generated_Source\PSoC4/BLE_eventHandler.c ****  Non zero value when a device address differs from the default SFLASH content.
1289:.\Generated_Source\PSoC4/BLE_eventHandler.c **** 
1290:.\Generated_Source\PSoC4/BLE_eventHandler.c **** ******************************************************************************/
1291:.\Generated_Source\PSoC4/BLE_eventHandler.c **** static uint8 CyBle_IsDeviceAddressValid(const CYBLE_GAP_BD_ADDR_T *sflashDeviceAddress)
1292:.\Generated_Source\PSoC4/BLE_eventHandler.c **** {
 257              		.loc 1 1292 0
 258              		.cfi_startproc
 259 0000 80B5     		push	{r7, lr}
 260              		.cfi_def_cfa_offset 8
 261              		.cfi_offset 7, -8
 262              		.cfi_offset 14, -4
 263 0002 84B0     		sub	sp, sp, #16
 264              		.cfi_def_cfa_offset 24
 265 0004 00AF     		add	r7, sp, #0
 266              		.cfi_def_cfa_register 7
 267 0006 7860     		str	r0, [r7, #4]
1293:.\Generated_Source\PSoC4/BLE_eventHandler.c ****     uint8 i;
1294:.\Generated_Source\PSoC4/BLE_eventHandler.c ****     uint8 sflashAddressValid = 0u;
 268              		.loc 1 1294 0
 269 0008 3B1C     		mov	r3, r7
 270 000a 0E33     		add	r3, r3, #14
 271 000c 0022     		mov	r2, #0
 272 000e 1A70     		strb	r2, [r3]
1295:.\Generated_Source\PSoC4/BLE_eventHandler.c ****     
1296:.\Generated_Source\PSoC4/BLE_eventHandler.c ****     if(sflashDeviceAddress -> type == CYBLE_GAP_ADDR_TYPE_PUBLIC)  
 273              		.loc 1 1296 0
 274 0010 7B68     		ldr	r3, [r7, #4]
 275 0012 9B79     		ldrb	r3, [r3, #6]
 276 0014 002B     		cmp	r3, #0
 277 0016 1CD1     		bne	.L14
1297:.\Generated_Source\PSoC4/BLE_eventHandler.c ****     {
1298:.\Generated_Source\PSoC4/BLE_eventHandler.c ****         for(i = 0u; i < CYBLE_GAP_BD_ADDR_SIZE; i++)
 278              		.loc 1 1298 0
 279 0018 3B1C     		mov	r3, r7
 280 001a 0F33     		add	r3, r3, #15
 281 001c 0022     		mov	r2, #0
 282 001e 1A70     		strb	r2, [r3]
 283 0020 12E0     		b	.L15
 284              	.L17:
1299:.\Generated_Source\PSoC4/BLE_eventHandler.c ****         {
1300:.\Generated_Source\PSoC4/BLE_eventHandler.c ****             if(sflashDeviceAddress->bdAddr[i] != 0u)
 285              		.loc 1 1300 0
 286 0022 3B1C     		mov	r3, r7
 287 0024 0F33     		add	r3, r3, #15
 288 0026 1B78     		ldrb	r3, [r3]
 289 0028 7A68     		ldr	r2, [r7, #4]
 290 002a D35C     		ldrb	r3, [r2, r3]
 291 002c 002B     		cmp	r3, #0
 292 002e 04D0     		beq	.L16
1301:.\Generated_Source\PSoC4/BLE_eventHandler.c ****             {
1302:.\Generated_Source\PSoC4/BLE_eventHandler.c ****                 sflashAddressValid = 1u;
 293              		.loc 1 1302 0
 294 0030 3B1C     		mov	r3, r7
ARM GAS  C:\Users\KEVINH~1\AppData\Local\Temp\ccC6tirb.s 			page 29


 295 0032 0E33     		add	r3, r3, #14
 296 0034 0122     		mov	r2, #1
 297 0036 1A70     		strb	r2, [r3]
1303:.\Generated_Source\PSoC4/BLE_eventHandler.c ****                 break;
 298              		.loc 1 1303 0
 299 0038 0BE0     		b	.L14
 300              	.L16:
1298:.\Generated_Source\PSoC4/BLE_eventHandler.c ****         for(i = 0u; i < CYBLE_GAP_BD_ADDR_SIZE; i++)
 301              		.loc 1 1298 0
 302 003a 3B1C     		mov	r3, r7
 303 003c 0F33     		add	r3, r3, #15
 304 003e 1A78     		ldrb	r2, [r3]
 305 0040 3B1C     		mov	r3, r7
 306 0042 0F33     		add	r3, r3, #15
 307 0044 0132     		add	r2, r2, #1
 308 0046 1A70     		strb	r2, [r3]
 309              	.L15:
1298:.\Generated_Source\PSoC4/BLE_eventHandler.c ****         for(i = 0u; i < CYBLE_GAP_BD_ADDR_SIZE; i++)
 310              		.loc 1 1298 0 is_stmt 0 discriminator 1
 311 0048 3B1C     		mov	r3, r7
 312 004a 0F33     		add	r3, r3, #15
 313 004c 1B78     		ldrb	r3, [r3]
 314 004e 052B     		cmp	r3, #5
 315 0050 E7D9     		bls	.L17
 316              	.L14:
1304:.\Generated_Source\PSoC4/BLE_eventHandler.c ****             }
1305:.\Generated_Source\PSoC4/BLE_eventHandler.c ****         }
1306:.\Generated_Source\PSoC4/BLE_eventHandler.c ****     }
1307:.\Generated_Source\PSoC4/BLE_eventHandler.c ****     return (sflashAddressValid);
 317              		.loc 1 1307 0 is_stmt 1
 318 0052 3B1C     		mov	r3, r7
 319 0054 0E33     		add	r3, r3, #14
 320 0056 1B78     		ldrb	r3, [r3]
1308:.\Generated_Source\PSoC4/BLE_eventHandler.c **** }
 321              		.loc 1 1308 0
 322 0058 181C     		mov	r0, r3
 323 005a BD46     		mov	sp, r7
 324 005c 04B0     		add	sp, sp, #16
 325              		@ sp needed
 326 005e 80BD     		pop	{r7, pc}
 327              		.cfi_endproc
 328              	.LFE7:
 329              		.size	CyBle_IsDeviceAddressValid, .-CyBle_IsDeviceAddressValid
 330              		.section	.text.CyBle_L2Cap_ConnParamUpdateRspEventHandler,"ax",%progbits
 331              		.align	2
 332              		.code	16
 333              		.thumb_func
 334              		.type	CyBle_L2Cap_ConnParamUpdateRspEventHandler, %function
 335              	CyBle_L2Cap_ConnParamUpdateRspEventHandler:
 336              	.LFB8:
1309:.\Generated_Source\PSoC4/BLE_eventHandler.c **** #endif /* CYBLE_GATT_ROLE_SERVER || CYBLE_GATT_ROLE_CLIENT */
1310:.\Generated_Source\PSoC4/BLE_eventHandler.c **** 
1311:.\Generated_Source\PSoC4/BLE_eventHandler.c **** 
1312:.\Generated_Source\PSoC4/BLE_eventHandler.c **** /****************************************************************************** 
1313:.\Generated_Source\PSoC4/BLE_eventHandler.c **** ##Function Name: CyBle_L2Cap_ConnParamUpdateRspHandler
1314:.\Generated_Source\PSoC4/BLE_eventHandler.c **** *******************************************************************************
1315:.\Generated_Source\PSoC4/BLE_eventHandler.c **** 
ARM GAS  C:\Users\KEVINH~1\AppData\Local\Temp\ccC6tirb.s 			page 30


1316:.\Generated_Source\PSoC4/BLE_eventHandler.c **** Summary:
1317:.\Generated_Source\PSoC4/BLE_eventHandler.c ****  Handles the L2CAP connection parameter response event from
1318:.\Generated_Source\PSoC4/BLE_eventHandler.c ****  the BLE stack.
1319:.\Generated_Source\PSoC4/BLE_eventHandler.c **** 
1320:.\Generated_Source\PSoC4/BLE_eventHandler.c **** Parameters:
1321:.\Generated_Source\PSoC4/BLE_eventHandler.c ****  uint16 response:
1322:.\Generated_Source\PSoC4/BLE_eventHandler.c ****      * Accepted = 0x0000
1323:.\Generated_Source\PSoC4/BLE_eventHandler.c ****      * Rejected = 0x0001
1324:.\Generated_Source\PSoC4/BLE_eventHandler.c **** 
1325:.\Generated_Source\PSoC4/BLE_eventHandler.c **** Return:
1326:.\Generated_Source\PSoC4/BLE_eventHandler.c ****  None
1327:.\Generated_Source\PSoC4/BLE_eventHandler.c **** 
1328:.\Generated_Source\PSoC4/BLE_eventHandler.c **** ******************************************************************************/
1329:.\Generated_Source\PSoC4/BLE_eventHandler.c **** static void CyBle_L2Cap_ConnParamUpdateRspEventHandler(uint16 response)
1330:.\Generated_Source\PSoC4/BLE_eventHandler.c **** {
 337              		.loc 1 1330 0
 338              		.cfi_startproc
 339 0000 80B5     		push	{r7, lr}
 340              		.cfi_def_cfa_offset 8
 341              		.cfi_offset 7, -8
 342              		.cfi_offset 14, -4
 343 0002 82B0     		sub	sp, sp, #8
 344              		.cfi_def_cfa_offset 16
 345 0004 00AF     		add	r7, sp, #0
 346              		.cfi_def_cfa_register 7
 347 0006 021C     		mov	r2, r0
 348 0008 BB1D     		add	r3, r7, #6
 349 000a 1A80     		strh	r2, [r3]
1331:.\Generated_Source\PSoC4/BLE_eventHandler.c ****     #ifdef CYBLE_CPS_SERVER
1332:.\Generated_Source\PSoC4/BLE_eventHandler.c ****         CyBle_CpssConnParamUpdateRspEventHandler(response);
1333:.\Generated_Source\PSoC4/BLE_eventHandler.c ****     #endif /* CYBLE_CPS_SERVER */
1334:.\Generated_Source\PSoC4/BLE_eventHandler.c ****     
1335:.\Generated_Source\PSoC4/BLE_eventHandler.c ****     /* Unreferenced variable warning workaround */
1336:.\Generated_Source\PSoC4/BLE_eventHandler.c ****     if(response != 0u)
1337:.\Generated_Source\PSoC4/BLE_eventHandler.c ****     {
1338:.\Generated_Source\PSoC4/BLE_eventHandler.c ****     }
1339:.\Generated_Source\PSoC4/BLE_eventHandler.c **** }
 350              		.loc 1 1339 0
 351 000c BD46     		mov	sp, r7
 352 000e 02B0     		add	sp, sp, #8
 353              		@ sp needed
 354 0010 80BD     		pop	{r7, pc}
 355              		.cfi_endproc
 356              	.LFE8:
 357              		.size	CyBle_L2Cap_ConnParamUpdateRspEventHandler, .-CyBle_L2Cap_ConnParamUpdateRspEventHandler
 358 0012 C046     		.section	.text.CyBle_GapConnUpdateCompleteEventHandler,"ax",%progbits
 359              		.align	2
 360              		.code	16
 361              		.thumb_func
 362              		.type	CyBle_GapConnUpdateCompleteEventHandler, %function
 363              	CyBle_GapConnUpdateCompleteEventHandler:
 364              	.LFB9:
1340:.\Generated_Source\PSoC4/BLE_eventHandler.c **** 
1341:.\Generated_Source\PSoC4/BLE_eventHandler.c **** 
1342:.\Generated_Source\PSoC4/BLE_eventHandler.c **** /****************************************************************************** 
1343:.\Generated_Source\PSoC4/BLE_eventHandler.c **** ##Function Name: CyBle_GapConnUpdateCompleteEventHandler
1344:.\Generated_Source\PSoC4/BLE_eventHandler.c **** *******************************************************************************
ARM GAS  C:\Users\KEVINH~1\AppData\Local\Temp\ccC6tirb.s 			page 31


1345:.\Generated_Source\PSoC4/BLE_eventHandler.c **** 
1346:.\Generated_Source\PSoC4/BLE_eventHandler.c **** Summary:
1347:.\Generated_Source\PSoC4/BLE_eventHandler.c ****  Handles the CYBLE_EVT_GAP_CONNECTION_UPDATE_COMPLETE event from
1348:.\Generated_Source\PSoC4/BLE_eventHandler.c ****  the BLE stack.
1349:.\Generated_Source\PSoC4/BLE_eventHandler.c **** 
1350:.\Generated_Source\PSoC4/BLE_eventHandler.c **** Parameters:
1351:.\Generated_Source\PSoC4/BLE_eventHandler.c ****  *eventParam: The pointer to the data structure specified by the event.
1352:.\Generated_Source\PSoC4/BLE_eventHandler.c **** 
1353:.\Generated_Source\PSoC4/BLE_eventHandler.c **** Return:
1354:.\Generated_Source\PSoC4/BLE_eventHandler.c ****  None
1355:.\Generated_Source\PSoC4/BLE_eventHandler.c **** 
1356:.\Generated_Source\PSoC4/BLE_eventHandler.c **** ******************************************************************************/
1357:.\Generated_Source\PSoC4/BLE_eventHandler.c **** static void CyBle_GapConnUpdateCompleteEventHandler(const CYBLE_GAP_CONN_PARAM_UPDATED_IN_CONTROLLE
1358:.\Generated_Source\PSoC4/BLE_eventHandler.c **** {
 365              		.loc 1 1358 0
 366              		.cfi_startproc
 367 0000 80B5     		push	{r7, lr}
 368              		.cfi_def_cfa_offset 8
 369              		.cfi_offset 7, -8
 370              		.cfi_offset 14, -4
 371 0002 82B0     		sub	sp, sp, #8
 372              		.cfi_def_cfa_offset 16
 373 0004 00AF     		add	r7, sp, #0
 374              		.cfi_def_cfa_register 7
 375 0006 7860     		str	r0, [r7, #4]
1359:.\Generated_Source\PSoC4/BLE_eventHandler.c ****     #ifdef CYBLE_CPS_SERVER
1360:.\Generated_Source\PSoC4/BLE_eventHandler.c ****         CyBle_CpssConnUpdateCompleteEventHandler(eventParam);
1361:.\Generated_Source\PSoC4/BLE_eventHandler.c ****     #endif /* CYBLE_CPS_SERVER */
1362:.\Generated_Source\PSoC4/BLE_eventHandler.c ****     
1363:.\Generated_Source\PSoC4/BLE_eventHandler.c ****     /* Unreferenced variable warning workaround */
1364:.\Generated_Source\PSoC4/BLE_eventHandler.c ****     if(eventParam != 0u)
1365:.\Generated_Source\PSoC4/BLE_eventHandler.c ****     {
1366:.\Generated_Source\PSoC4/BLE_eventHandler.c ****     }
1367:.\Generated_Source\PSoC4/BLE_eventHandler.c **** }
 376              		.loc 1 1367 0
 377 0008 BD46     		mov	sp, r7
 378 000a 02B0     		add	sp, sp, #8
 379              		@ sp needed
 380 000c 80BD     		pop	{r7, pc}
 381              		.cfi_endproc
 382              	.LFE9:
 383              		.size	CyBle_GapConnUpdateCompleteEventHandler, .-CyBle_GapConnUpdateCompleteEventHandler
 384              		.section	.text.CyBle_EventHandler,"ax",%progbits
 385              		.align	2
 386              		.global	CyBle_EventHandler
 387              		.code	16
 388              		.thumb_func
 389              		.type	CyBle_EventHandler, %function
 390              	CyBle_EventHandler:
 391              	.LFB10:
1368:.\Generated_Source\PSoC4/BLE_eventHandler.c **** 
1369:.\Generated_Source\PSoC4/BLE_eventHandler.c **** 
1370:.\Generated_Source\PSoC4/BLE_eventHandler.c **** /****************************************************************************** 
1371:.\Generated_Source\PSoC4/BLE_eventHandler.c **** ##Function Name: CyBle_EventHandler
1372:.\Generated_Source\PSoC4/BLE_eventHandler.c **** *******************************************************************************
1373:.\Generated_Source\PSoC4/BLE_eventHandler.c **** 
1374:.\Generated_Source\PSoC4/BLE_eventHandler.c **** Summary:
ARM GAS  C:\Users\KEVINH~1\AppData\Local\Temp\ccC6tirb.s 			page 32


1375:.\Generated_Source\PSoC4/BLE_eventHandler.c ****  Handles the events from the BLE stack
1376:.\Generated_Source\PSoC4/BLE_eventHandler.c **** 
1377:.\Generated_Source\PSoC4/BLE_eventHandler.c **** Parameters:
1378:.\Generated_Source\PSoC4/BLE_eventHandler.c ****  eventCode:    the event code
1379:.\Generated_Source\PSoC4/BLE_eventHandler.c ****  *eventParam:  the event parameters
1380:.\Generated_Source\PSoC4/BLE_eventHandler.c **** 
1381:.\Generated_Source\PSoC4/BLE_eventHandler.c **** Return:
1382:.\Generated_Source\PSoC4/BLE_eventHandler.c ****  None.
1383:.\Generated_Source\PSoC4/BLE_eventHandler.c **** 
1384:.\Generated_Source\PSoC4/BLE_eventHandler.c **** ******************************************************************************/
1385:.\Generated_Source\PSoC4/BLE_eventHandler.c **** void CyBle_EventHandler(uint8 eventCode, void *eventParam)
1386:.\Generated_Source\PSoC4/BLE_eventHandler.c **** {
 392              		.loc 1 1386 0
 393              		.cfi_startproc
 394 0000 80B5     		push	{r7, lr}
 395              		.cfi_def_cfa_offset 8
 396              		.cfi_offset 7, -8
 397              		.cfi_offset 14, -4
 398 0002 84B0     		sub	sp, sp, #16
 399              		.cfi_def_cfa_offset 24
 400 0004 00AF     		add	r7, sp, #0
 401              		.cfi_def_cfa_register 7
 402 0006 021C     		mov	r2, r0
 403 0008 3960     		str	r1, [r7]
 404 000a FB1D     		add	r3, r7, #7
 405 000c 1A70     		strb	r2, [r3]
1387:.\Generated_Source\PSoC4/BLE_eventHandler.c ****     cyBle_eventHandlerFlag |= CYBLE_CALLBACK;
 406              		.loc 1 1387 0
 407 000e 9D4B     		ldr	r3, .L54
 408 0010 1B78     		ldrb	r3, [r3]
 409 0012 DBB2     		uxtb	r3, r3
 410 0014 0122     		mov	r2, #1
 411 0016 1343     		orr	r3, r2
 412 0018 DAB2     		uxtb	r2, r3
 413 001a 9A4B     		ldr	r3, .L54
 414 001c 1A70     		strb	r2, [r3]
1388:.\Generated_Source\PSoC4/BLE_eventHandler.c **** 
1389:.\Generated_Source\PSoC4/BLE_eventHandler.c ****     /* Common Profile event handling */
1390:.\Generated_Source\PSoC4/BLE_eventHandler.c ****     switch(eventCode)
 415              		.loc 1 1390 0
 416 001e FB1D     		add	r3, r7, #7
 417 0020 1B78     		ldrb	r3, [r3]
 418 0022 712B     		cmp	r3, #113
 419 0024 00D9     		bls	.LCB347
 420 0026 11E1     		b	.L53	@long jump
 421              	.LCB347:
 422 0028 9A00     		lsl	r2, r3, #2
 423 002a 974B     		ldr	r3, .L54+4
 424 002c D318     		add	r3, r2, r3
 425 002e 1B68     		ldr	r3, [r3]
 426 0030 9F46     		mov	pc, r3
 427              		.section	.rodata
 428              		.align	2
 429              	.L24:
 430 0000 4C020000 		.word	.L53
 431 0004 32000000 		.word	.L23
 432 0008 DC000000 		.word	.L25
ARM GAS  C:\Users\KEVINH~1\AppData\Local\Temp\ccC6tirb.s 			page 33


 433 000c 4C020000 		.word	.L53
 434 0010 4C020000 		.word	.L53
 435 0014 E6000000 		.word	.L26
 436 0018 4C020000 		.word	.L53
 437 001c 4C020000 		.word	.L53
 438 0020 4C020000 		.word	.L53
 439 0024 4C020000 		.word	.L53
 440 0028 4C020000 		.word	.L53
 441 002c 4C020000 		.word	.L53
 442 0030 4C020000 		.word	.L53
 443 0034 4C020000 		.word	.L53
 444 0038 4C020000 		.word	.L53
 445 003c 4C020000 		.word	.L53
 446 0040 4C020000 		.word	.L53
 447 0044 4C020000 		.word	.L53
 448 0048 4C020000 		.word	.L53
 449 004c 4C020000 		.word	.L53
 450 0050 4C020000 		.word	.L53
 451 0054 4C020000 		.word	.L53
 452 0058 4C020000 		.word	.L53
 453 005c 4C020000 		.word	.L53
 454 0060 4C020000 		.word	.L53
 455 0064 4C020000 		.word	.L53
 456 0068 4C020000 		.word	.L53
 457 006c 4C020000 		.word	.L53
 458 0070 4C020000 		.word	.L53
 459 0074 4C020000 		.word	.L53
 460 0078 4C020000 		.word	.L53
 461 007c 4C020000 		.word	.L53
 462 0080 4C020000 		.word	.L53
 463 0084 F0000000 		.word	.L27
 464 0088 4C020000 		.word	.L53
 465 008c 4C020000 		.word	.L53
 466 0090 4C020000 		.word	.L53
 467 0094 4C020000 		.word	.L53
 468 0098 40010000 		.word	.L28
 469 009c 28010000 		.word	.L29
 470 00a0 38010000 		.word	.L30
 471 00a4 4C020000 		.word	.L53
 472 00a8 1E010000 		.word	.L31
 473 00ac 4C020000 		.word	.L53
 474 00b0 4C020000 		.word	.L53
 475 00b4 4C020000 		.word	.L53
 476 00b8 4C020000 		.word	.L53
 477 00bc 4C020000 		.word	.L53
 478 00c0 4C020000 		.word	.L53
 479 00c4 4C020000 		.word	.L53
 480 00c8 4C020000 		.word	.L53
 481 00cc 4C020000 		.word	.L53
 482 00d0 4C020000 		.word	.L53
 483 00d4 4C020000 		.word	.L53
 484 00d8 4C020000 		.word	.L53
 485 00dc 4C020000 		.word	.L53
 486 00e0 4C020000 		.word	.L53
 487 00e4 4C020000 		.word	.L53
 488 00e8 4C020000 		.word	.L53
 489 00ec 4C020000 		.word	.L53
ARM GAS  C:\Users\KEVINH~1\AppData\Local\Temp\ccC6tirb.s 			page 34


 490 00f0 4C020000 		.word	.L53
 491 00f4 4C020000 		.word	.L53
 492 00f8 4C020000 		.word	.L53
 493 00fc 4C020000 		.word	.L53
 494 0100 4C020000 		.word	.L53
 495 0104 C0010000 		.word	.L32
 496 0108 F6010000 		.word	.L33
 497 010c FC010000 		.word	.L34
 498 0110 4C020000 		.word	.L53
 499 0114 4C020000 		.word	.L53
 500 0118 4C020000 		.word	.L53
 501 011c 4C020000 		.word	.L53
 502 0120 4C020000 		.word	.L53
 503 0124 4C020000 		.word	.L53
 504 0128 4C020000 		.word	.L53
 505 012c 4C020000 		.word	.L53
 506 0130 38020000 		.word	.L35
 507 0134 4C020000 		.word	.L53
 508 0138 4C020000 		.word	.L53
 509 013c 4C020000 		.word	.L53
 510 0140 4C020000 		.word	.L53
 511 0144 4C020000 		.word	.L53
 512 0148 4C020000 		.word	.L53
 513 014c 4C020000 		.word	.L53
 514 0150 42020000 		.word	.L39
 515 0154 4C020000 		.word	.L53
 516 0158 4C020000 		.word	.L53
 517 015c 4C020000 		.word	.L53
 518 0160 4C020000 		.word	.L53
 519 0164 4C020000 		.word	.L53
 520 0168 4C020000 		.word	.L53
 521 016c 4C020000 		.word	.L53
 522 0170 4C020000 		.word	.L53
 523 0174 4C020000 		.word	.L53
 524 0178 4C020000 		.word	.L53
 525 017c 4C020000 		.word	.L53
 526 0180 4C020000 		.word	.L53
 527 0184 4C020000 		.word	.L53
 528 0188 4C020000 		.word	.L53
 529 018c 4C020000 		.word	.L53
 530 0190 4C020000 		.word	.L53
 531 0194 4C020000 		.word	.L53
 532 0198 4C020000 		.word	.L53
 533 019c 4C020000 		.word	.L53
 534 01a0 4C020000 		.word	.L53
 535 01a4 4C020000 		.word	.L53
 536 01a8 4C020000 		.word	.L53
 537 01ac 4C020000 		.word	.L53
 538 01b0 4C020000 		.word	.L53
 539 01b4 4C020000 		.word	.L53
 540 01b8 4C020000 		.word	.L53
 541 01bc 4C020000 		.word	.L53
 542 01c0 4C020000 		.word	.L53
 543 01c4 B4010000 		.word	.L41
 544              		.section	.text.CyBle_EventHandler
 545              	.L23:
 546              	.LBB3:
ARM GAS  C:\Users\KEVINH~1\AppData\Local\Temp\ccC6tirb.s 			page 35


1391:.\Generated_Source\PSoC4/BLE_eventHandler.c ****     {
1392:.\Generated_Source\PSoC4/BLE_eventHandler.c ****         /**********************************************************
1393:.\Generated_Source\PSoC4/BLE_eventHandler.c ****         ##General events
1394:.\Generated_Source\PSoC4/BLE_eventHandler.c ****         ***********************************************************/
1395:.\Generated_Source\PSoC4/BLE_eventHandler.c ****         case CYBLE_EVT_STACK_ON:
1396:.\Generated_Source\PSoC4/BLE_eventHandler.c ****         #if(CYBLE_MODE_PROFILE)
1397:.\Generated_Source\PSoC4/BLE_eventHandler.c ****         {
1398:.\Generated_Source\PSoC4/BLE_eventHandler.c ****             CYBLE_BLESS_PWR_IN_DB_T bleSsPowerLevel;
1399:.\Generated_Source\PSoC4/BLE_eventHandler.c ****             
1400:.\Generated_Source\PSoC4/BLE_eventHandler.c ****             /* Set Tx Power Level for advertising and connection channels */
1401:.\Generated_Source\PSoC4/BLE_eventHandler.c ****             bleSsPowerLevel.blePwrLevelInDbm = CYBLE_TX_POWER_LEVEL_ADV;
 547              		.loc 1 1401 0
 548 0032 3B1C     		mov	r3, r7
 549 0034 0C33     		add	r3, r3, #12
 550 0036 0722     		mov	r2, #7
 551 0038 1A70     		strb	r2, [r3]
1402:.\Generated_Source\PSoC4/BLE_eventHandler.c ****             bleSsPowerLevel.bleSsChId = CYBLE_LL_ADV_CH_TYPE;
 552              		.loc 1 1402 0
 553 003a 3B1C     		mov	r3, r7
 554 003c 0C33     		add	r3, r3, #12
 555 003e 0022     		mov	r2, #0
 556 0040 5A70     		strb	r2, [r3, #1]
1403:.\Generated_Source\PSoC4/BLE_eventHandler.c ****             (void) CyBle_SetTxPowerLevel (&bleSsPowerLevel);
 557              		.loc 1 1403 0
 558 0042 3B1C     		mov	r3, r7
 559 0044 0C33     		add	r3, r3, #12
 560 0046 181C     		mov	r0, r3
 561 0048 FFF7FEFF 		bl	CyBle_SetTxPowerLevel
1404:.\Generated_Source\PSoC4/BLE_eventHandler.c ****             bleSsPowerLevel.blePwrLevelInDbm = CYBLE_TX_POWER_LEVEL_CONN;
 562              		.loc 1 1404 0
 563 004c 3B1C     		mov	r3, r7
 564 004e 0C33     		add	r3, r3, #12
 565 0050 0722     		mov	r2, #7
 566 0052 1A70     		strb	r2, [r3]
1405:.\Generated_Source\PSoC4/BLE_eventHandler.c ****             bleSsPowerLevel.bleSsChId = CYBLE_LL_CONN_CH_TYPE;
 567              		.loc 1 1405 0
 568 0054 3B1C     		mov	r3, r7
 569 0056 0C33     		add	r3, r3, #12
 570 0058 0122     		mov	r2, #1
 571 005a 5A70     		strb	r2, [r3, #1]
1406:.\Generated_Source\PSoC4/BLE_eventHandler.c ****             (void) CyBle_SetTxPowerLevel (&bleSsPowerLevel);
 572              		.loc 1 1406 0
 573 005c 3B1C     		mov	r3, r7
 574 005e 0C33     		add	r3, r3, #12
 575 0060 181C     		mov	r0, r3
 576 0062 FFF7FEFF 		bl	CyBle_SetTxPowerLevel
 577              	.LBE3:
1407:.\Generated_Source\PSoC4/BLE_eventHandler.c ****         }
1408:.\Generated_Source\PSoC4/BLE_eventHandler.c ****         #endif /* CYBLE_MODE_PROFILE */
1409:.\Generated_Source\PSoC4/BLE_eventHandler.c ****         #if (CYBLE_GATT_ROLE_SERVER || CYBLE_GATT_ROLE_CLIENT)
1410:.\Generated_Source\PSoC4/BLE_eventHandler.c ****             /* Set device Address  */
1411:.\Generated_Source\PSoC4/BLE_eventHandler.c ****             if(CyBle_IsDeviceAddressValid(cyBle_sflashDeviceAddress) != 0u)
 578              		.loc 1 1411 0
 579 0066 894B     		ldr	r3, .L54+8
 580 0068 1B68     		ldr	r3, [r3]
 581 006a 181C     		mov	r0, r3
 582 006c FFF7FEFF 		bl	CyBle_IsDeviceAddressValid
ARM GAS  C:\Users\KEVINH~1\AppData\Local\Temp\ccC6tirb.s 			page 36


 583 0070 031C     		mov	r3, r0
 584 0072 002B     		cmp	r3, #0
 585 0074 11D0     		beq	.L42
1412:.\Generated_Source\PSoC4/BLE_eventHandler.c ****             {
1413:.\Generated_Source\PSoC4/BLE_eventHandler.c ****                 (void) CyBle_SetDeviceAddress(cyBle_sflashDeviceAddress);
 586              		.loc 1 1413 0
 587 0076 854B     		ldr	r3, .L54+8
 588 0078 1B68     		ldr	r3, [r3]
 589 007a 181C     		mov	r0, r3
 590 007c FFF7FEFF 		bl	CyBle_SetDeviceAddress
1414:.\Generated_Source\PSoC4/BLE_eventHandler.c ****                 #if(CYBLE_GAP_ROLE_PERIPHERAL || CYBLE_GAP_ROLE_BROADCASTER)
1415:.\Generated_Source\PSoC4/BLE_eventHandler.c ****                     CyBle_ChangeAdDeviceAddress(cyBle_sflashDeviceAddress, 0u);
 591              		.loc 1 1415 0
 592 0080 824B     		ldr	r3, .L54+8
 593 0082 1B68     		ldr	r3, [r3]
 594 0084 181C     		mov	r0, r3
 595 0086 0021     		mov	r1, #0
 596 0088 FFF7FEFF 		bl	CyBle_ChangeAdDeviceAddress
1416:.\Generated_Source\PSoC4/BLE_eventHandler.c ****                     CyBle_ChangeAdDeviceAddress(cyBle_sflashDeviceAddress, 1u);
 597              		.loc 1 1416 0
 598 008c 7F4B     		ldr	r3, .L54+8
 599 008e 1B68     		ldr	r3, [r3]
 600 0090 181C     		mov	r0, r3
 601 0092 0121     		mov	r1, #1
 602 0094 FFF7FEFF 		bl	CyBle_ChangeAdDeviceAddress
 603 0098 19E0     		b	.L43
 604              	.L42:
1417:.\Generated_Source\PSoC4/BLE_eventHandler.c ****                 #endif /* CYBLE_GAP_ROLE_PERIPHERAL || CYBLE_GAP_ROLE_BROADCASTER */    
1418:.\Generated_Source\PSoC4/BLE_eventHandler.c ****             }
1419:.\Generated_Source\PSoC4/BLE_eventHandler.c ****             else
1420:.\Generated_Source\PSoC4/BLE_eventHandler.c ****             {
1421:.\Generated_Source\PSoC4/BLE_eventHandler.c ****             #if (SILICON_GENERATED_DEVICE_ADDRESS != 0u)
1422:.\Generated_Source\PSoC4/BLE_eventHandler.c ****                 cyBle_deviceAddress.bdAddr[0] = CYBLE_SFLASH_DIE_X_REG;
 605              		.loc 1 1422 0
 606 009a 7D4B     		ldr	r3, .L54+12
 607 009c 1A78     		ldrb	r2, [r3]
 608 009e 7D4B     		ldr	r3, .L54+16
 609 00a0 1A70     		strb	r2, [r3]
1423:.\Generated_Source\PSoC4/BLE_eventHandler.c ****                 cyBle_deviceAddress.bdAddr[1] = CYBLE_SFLASH_DIE_Y_REG;
 610              		.loc 1 1423 0
 611 00a2 7D4B     		ldr	r3, .L54+20
 612 00a4 1A78     		ldrb	r2, [r3]
 613 00a6 7B4B     		ldr	r3, .L54+16
 614 00a8 5A70     		strb	r2, [r3, #1]
1424:.\Generated_Source\PSoC4/BLE_eventHandler.c ****                 cyBle_deviceAddress.bdAddr[2] = CYBLE_SFLASH_DIE_WAFER_REG;
 615              		.loc 1 1424 0
 616 00aa 7C4B     		ldr	r3, .L54+24
 617 00ac 1A78     		ldrb	r2, [r3]
 618 00ae 794B     		ldr	r3, .L54+16
 619 00b0 9A70     		strb	r2, [r3, #2]
1425:.\Generated_Source\PSoC4/BLE_eventHandler.c ****             #endif /* SILICON_GENERATED_DEVICE_ADDRESS != 0u */
1426:.\Generated_Source\PSoC4/BLE_eventHandler.c ****                 (void) CyBle_SetDeviceAddress(&cyBle_deviceAddress);
 620              		.loc 1 1426 0
 621 00b2 784B     		ldr	r3, .L54+16
 622 00b4 181C     		mov	r0, r3
 623 00b6 FFF7FEFF 		bl	CyBle_SetDeviceAddress
1427:.\Generated_Source\PSoC4/BLE_eventHandler.c ****                 #if(CYBLE_GAP_ROLE_PERIPHERAL || CYBLE_GAP_ROLE_BROADCASTER)
ARM GAS  C:\Users\KEVINH~1\AppData\Local\Temp\ccC6tirb.s 			page 37


1428:.\Generated_Source\PSoC4/BLE_eventHandler.c ****                     CyBle_ChangeAdDeviceAddress(&cyBle_deviceAddress, 0u);
 624              		.loc 1 1428 0
 625 00ba 764B     		ldr	r3, .L54+16
 626 00bc 181C     		mov	r0, r3
 627 00be 0021     		mov	r1, #0
 628 00c0 FFF7FEFF 		bl	CyBle_ChangeAdDeviceAddress
1429:.\Generated_Source\PSoC4/BLE_eventHandler.c ****                     CyBle_ChangeAdDeviceAddress(&cyBle_deviceAddress, 1u);
 629              		.loc 1 1429 0
 630 00c4 734B     		ldr	r3, .L54+16
 631 00c6 181C     		mov	r0, r3
 632 00c8 0121     		mov	r1, #1
 633 00ca FFF7FEFF 		bl	CyBle_ChangeAdDeviceAddress
 634              	.L43:
1430:.\Generated_Source\PSoC4/BLE_eventHandler.c ****                 #endif /* CYBLE_GAP_ROLE_PERIPHERAL || CYBLE_GAP_ROLE_BROADCASTER */    
1431:.\Generated_Source\PSoC4/BLE_eventHandler.c ****             }
1432:.\Generated_Source\PSoC4/BLE_eventHandler.c ****             /* Set device IO Capability  */
1433:.\Generated_Source\PSoC4/BLE_eventHandler.c ****             (void) CyBle_GapSetIoCap(CYBLE_IO_CAPABILITY);    
 635              		.loc 1 1433 0
 636 00ce 0320     		mov	r0, #3
 637 00d0 FFF7FEFF 		bl	CyBle_GapSetIoCap
1434:.\Generated_Source\PSoC4/BLE_eventHandler.c ****         #endif /* CYBLE_GATT_ROLE_SERVER || CYBLE_GATT_ROLE_CLIENT */
1435:.\Generated_Source\PSoC4/BLE_eventHandler.c ****             CyBle_SetState(CYBLE_STATE_DISCONNECTED);
 638              		.loc 1 1435 0
 639 00d4 724B     		ldr	r3, .L54+28
 640 00d6 0422     		mov	r2, #4
 641 00d8 1A70     		strb	r2, [r3]
1436:.\Generated_Source\PSoC4/BLE_eventHandler.c ****             break;
 642              		.loc 1 1436 0
 643 00da B8E0     		b	.L44
 644              	.L25:
1437:.\Generated_Source\PSoC4/BLE_eventHandler.c ****         case CYBLE_EVT_TIMEOUT:
1438:.\Generated_Source\PSoC4/BLE_eventHandler.c ****             CyBle_TimeOutEventHandler((CYBLE_TO_REASON_CODE_T *)eventParam);
 645              		.loc 1 1438 0
 646 00dc 3B68     		ldr	r3, [r7]
 647 00de 181C     		mov	r0, r3
 648 00e0 FFF7FEFF 		bl	CyBle_TimeOutEventHandler
1439:.\Generated_Source\PSoC4/BLE_eventHandler.c ****             break;
 649              		.loc 1 1439 0
 650 00e4 B3E0     		b	.L44
 651              	.L26:
1440:.\Generated_Source\PSoC4/BLE_eventHandler.c ****     	case CYBLE_EVT_STACK_BUSY_STATUS:
1441:.\Generated_Source\PSoC4/BLE_eventHandler.c ****             cyBle_busyStatus = *(uint8 *)eventParam;
 652              		.loc 1 1441 0
 653 00e6 3B68     		ldr	r3, [r7]
 654 00e8 1A78     		ldrb	r2, [r3]
 655 00ea 6E4B     		ldr	r3, .L54+32
 656 00ec 1A70     		strb	r2, [r3]
1442:.\Generated_Source\PSoC4/BLE_eventHandler.c ****             break;
 657              		.loc 1 1442 0
 658 00ee AEE0     		b	.L44
 659              	.L27:
1443:.\Generated_Source\PSoC4/BLE_eventHandler.c **** 
1444:.\Generated_Source\PSoC4/BLE_eventHandler.c ****         /**********************************************************
1445:.\Generated_Source\PSoC4/BLE_eventHandler.c ****         ##GAP events
1446:.\Generated_Source\PSoC4/BLE_eventHandler.c ****         ***********************************************************/
1447:.\Generated_Source\PSoC4/BLE_eventHandler.c ****         case CYBLE_EVT_GAP_AUTH_REQ:
1448:.\Generated_Source\PSoC4/BLE_eventHandler.c ****         #if(CYBLE_MODE_PROFILE)
ARM GAS  C:\Users\KEVINH~1\AppData\Local\Temp\ccC6tirb.s 			page 38


1449:.\Generated_Source\PSoC4/BLE_eventHandler.c ****             if(0u == (cyBle_eventHandlerFlag & CYBLE_DISABLE_AUTOMATIC_AUTH))
 660              		.loc 1 1449 0
 661 00f0 644B     		ldr	r3, .L54
 662 00f2 1B78     		ldrb	r3, [r3]
 663 00f4 DBB2     		uxtb	r3, r3
 664 00f6 1A1C     		mov	r2, r3
 665 00f8 2023     		mov	r3, #32
 666 00fa 1340     		and	r3, r2
 667 00fc 0ED1     		bne	.L45
1450:.\Generated_Source\PSoC4/BLE_eventHandler.c ****             {
1451:.\Generated_Source\PSoC4/BLE_eventHandler.c ****                 /* If the responding device does not support pairing then the responding 
1452:.\Generated_Source\PSoC4/BLE_eventHandler.c ****                    device shall respond using the Pairing Failed message with the error 
1453:.\Generated_Source\PSoC4/BLE_eventHandler.c ****                    code "Pairing Not Supported" otherwise it responds with a Pairing 
1454:.\Generated_Source\PSoC4/BLE_eventHandler.c ****                    Response message.
1455:.\Generated_Source\PSoC4/BLE_eventHandler.c ****                 */
1456:.\Generated_Source\PSoC4/BLE_eventHandler.c ****                 if(cyBle_authInfo.security == (CYBLE_GAP_SEC_MODE_1 | CYBLE_GAP_SEC_LEVEL_1))
 668              		.loc 1 1456 0
 669 00fe 6A4B     		ldr	r3, .L54+36
 670 0100 1B78     		ldrb	r3, [r3]
 671 0102 102B     		cmp	r3, #16
 672 0104 02D1     		bne	.L46
1457:.\Generated_Source\PSoC4/BLE_eventHandler.c ****                 {
1458:.\Generated_Source\PSoC4/BLE_eventHandler.c ****                     cyBle_authInfo.authErr = CYBLE_GAP_AUTH_ERROR_PAIRING_NOT_SUPPORTED;
 673              		.loc 1 1458 0
 674 0106 684B     		ldr	r3, .L54+36
 675 0108 0522     		mov	r2, #5
 676 010a DA70     		strb	r2, [r3, #3]
 677              	.L46:
1459:.\Generated_Source\PSoC4/BLE_eventHandler.c ****                 }    
1460:.\Generated_Source\PSoC4/BLE_eventHandler.c ****             #if(CYBLE_GAP_ROLE_PERIPHERAL)
1461:.\Generated_Source\PSoC4/BLE_eventHandler.c ****                 (void)CyBle_GappAuthReqReply(cyBle_connHandle.bdHandle, &cyBle_authInfo);
 678              		.loc 1 1461 0
 679 010c 674B     		ldr	r3, .L54+40
 680 010e 1A78     		ldrb	r2, [r3]
 681 0110 654B     		ldr	r3, .L54+36
 682 0112 101C     		mov	r0, r2
 683 0114 191C     		mov	r1, r3
 684 0116 FFF7FEFF 		bl	CyBle_GappAuthReqReply
1462:.\Generated_Source\PSoC4/BLE_eventHandler.c ****             #endif /* CYBLE_GAP_ROLE_PERIPHERAL */
1463:.\Generated_Source\PSoC4/BLE_eventHandler.c ****             #if (CYBLE_GAP_ROLE_CENTRAL)
1464:.\Generated_Source\PSoC4/BLE_eventHandler.c ****                 (void)CyBle_GapAuthReq(cyBle_connHandle.bdHandle, &cyBle_authInfo);
1465:.\Generated_Source\PSoC4/BLE_eventHandler.c ****             #endif /* CYBLE_GAP_ROLE_CENTRAL */
1466:.\Generated_Source\PSoC4/BLE_eventHandler.c ****             }
1467:.\Generated_Source\PSoC4/BLE_eventHandler.c ****         #endif /* CYBLE_MODE_PROFILE */
1468:.\Generated_Source\PSoC4/BLE_eventHandler.c ****             break;
 685              		.loc 1 1468 0
 686 011a 98E0     		b	.L44
 687              	.L45:
 688 011c 97E0     		b	.L44
 689              	.L31:
1469:.\Generated_Source\PSoC4/BLE_eventHandler.c **** 
1470:.\Generated_Source\PSoC4/BLE_eventHandler.c ****         case CYBLE_EVT_GAP_CONNECTION_UPDATE_COMPLETE:
1471:.\Generated_Source\PSoC4/BLE_eventHandler.c ****             CyBle_GapConnUpdateCompleteEventHandler((const CYBLE_GAP_CONN_PARAM_UPDATED_IN_CONTROLL
 690              		.loc 1 1471 0
 691 011e 3B68     		ldr	r3, [r7]
 692 0120 181C     		mov	r0, r3
 693 0122 FFF7FEFF 		bl	CyBle_GapConnUpdateCompleteEventHandler
ARM GAS  C:\Users\KEVINH~1\AppData\Local\Temp\ccC6tirb.s 			page 39


1472:.\Generated_Source\PSoC4/BLE_eventHandler.c ****             break;
 694              		.loc 1 1472 0
 695 0126 92E0     		b	.L44
 696              	.L29:
1473:.\Generated_Source\PSoC4/BLE_eventHandler.c ****             
1474:.\Generated_Source\PSoC4/BLE_eventHandler.c ****         case CYBLE_EVT_GAP_DEVICE_CONNECTED:
1475:.\Generated_Source\PSoC4/BLE_eventHandler.c ****             CyBle_GapConnUpdateCompleteEventHandler((const CYBLE_GAP_CONN_PARAM_UPDATED_IN_CONTROLL
 697              		.loc 1 1475 0
 698 0128 3B68     		ldr	r3, [r7]
 699 012a 181C     		mov	r0, r3
 700 012c FFF7FEFF 		bl	CyBle_GapConnUpdateCompleteEventHandler
1476:.\Generated_Source\PSoC4/BLE_eventHandler.c ****             #if(CYBLE_GAP_ROLE_CENTRAL)
1477:.\Generated_Source\PSoC4/BLE_eventHandler.c ****                 if(cyBle_connectingTimeout != 0u)
1478:.\Generated_Source\PSoC4/BLE_eventHandler.c ****                 {
1479:.\Generated_Source\PSoC4/BLE_eventHandler.c ****                    (void)CyBle_StopTimer();
1480:.\Generated_Source\PSoC4/BLE_eventHandler.c ****                 }
1481:.\Generated_Source\PSoC4/BLE_eventHandler.c ****             #endif /* CYBLE_GAP_ROLE_CENTRAL */
1482:.\Generated_Source\PSoC4/BLE_eventHandler.c ****             CyBle_SetState(CYBLE_STATE_CONNECTED);
 701              		.loc 1 1482 0
 702 0130 5B4B     		ldr	r3, .L54+28
 703 0132 0222     		mov	r2, #2
 704 0134 1A70     		strb	r2, [r3]
1483:.\Generated_Source\PSoC4/BLE_eventHandler.c ****             break;
 705              		.loc 1 1483 0
 706 0136 8AE0     		b	.L44
 707              	.L30:
1484:.\Generated_Source\PSoC4/BLE_eventHandler.c **** 
1485:.\Generated_Source\PSoC4/BLE_eventHandler.c ****         case CYBLE_EVT_GAP_DEVICE_DISCONNECTED:
1486:.\Generated_Source\PSoC4/BLE_eventHandler.c ****             CyBle_SetState(CYBLE_STATE_DISCONNECTED);
 708              		.loc 1 1486 0
 709 0138 594B     		ldr	r3, .L54+28
 710 013a 0422     		mov	r2, #4
 711 013c 1A70     		strb	r2, [r3]
1487:.\Generated_Source\PSoC4/BLE_eventHandler.c ****             break;
 712              		.loc 1 1487 0
 713 013e 86E0     		b	.L44
 714              	.L28:
1488:.\Generated_Source\PSoC4/BLE_eventHandler.c ****         #if(CYBLE_GAP_ROLE_PERIPHERAL || CYBLE_GAP_ROLE_BROADCASTER)
1489:.\Generated_Source\PSoC4/BLE_eventHandler.c ****             
1490:.\Generated_Source\PSoC4/BLE_eventHandler.c ****         case CYBLE_EVT_GAPP_ADVERTISEMENT_START_STOP:
1491:.\Generated_Source\PSoC4/BLE_eventHandler.c ****             #ifdef CYBLE_CPS_SERVER
1492:.\Generated_Source\PSoC4/BLE_eventHandler.c ****                 #if(CYBLE_GAP_ROLE_BROADCASTER)
1493:.\Generated_Source\PSoC4/BLE_eventHandler.c ****                     CyBle_CpssAdvertisementStartStopEventHandler();
1494:.\Generated_Source\PSoC4/BLE_eventHandler.c ****                 #endif /* CYBLE_GAP_ROLE_BROADCASTER */
1495:.\Generated_Source\PSoC4/BLE_eventHandler.c ****             #endif /* CYBLE_CPS_SERVER */
1496:.\Generated_Source\PSoC4/BLE_eventHandler.c ****             
1497:.\Generated_Source\PSoC4/BLE_eventHandler.c ****             if((CYBLE_STATE_CONNECTED != CyBle_GetState()) && ((cyBle_eventHandlerFlag & CYBLE_CALL
 715              		.loc 1 1497 0
 716 0140 574B     		ldr	r3, .L54+28
 717 0142 1B78     		ldrb	r3, [r3]
 718 0144 022B     		cmp	r3, #2
 719 0146 34D0     		beq	.L47
 720              		.loc 1 1497 0 is_stmt 0 discriminator 1
 721 0148 4E4B     		ldr	r3, .L54
 722 014a 1B78     		ldrb	r3, [r3]
 723 014c DBB2     		uxtb	r3, r3
 724 014e 1A1C     		mov	r2, r3
ARM GAS  C:\Users\KEVINH~1\AppData\Local\Temp\ccC6tirb.s 			page 40


 725 0150 0123     		mov	r3, #1
 726 0152 1340     		and	r3, r2
 727 0154 2DD0     		beq	.L47
1498:.\Generated_Source\PSoC4/BLE_eventHandler.c ****             {
1499:.\Generated_Source\PSoC4/BLE_eventHandler.c ****                 /* After CyBle_GappStartAdvertisement first event indicates that advertising has be
1500:.\Generated_Source\PSoC4/BLE_eventHandler.c ****                 if(0u != (cyBle_eventHandlerFlag & CYBLE_START_FLAG))
 728              		.loc 1 1500 0 is_stmt 1
 729 0156 4B4B     		ldr	r3, .L54
 730 0158 1B78     		ldrb	r3, [r3]
 731 015a DBB2     		uxtb	r3, r3
 732 015c 1A1C     		mov	r2, r3
 733 015e 0423     		mov	r3, #4
 734 0160 1340     		and	r3, r2
 735 0162 0BD0     		beq	.L48
1501:.\Generated_Source\PSoC4/BLE_eventHandler.c ****                 {
1502:.\Generated_Source\PSoC4/BLE_eventHandler.c ****                     CyBle_SetState(CYBLE_STATE_ADVERTISING);
 736              		.loc 1 1502 0
 737 0164 4E4B     		ldr	r3, .L54+28
 738 0166 0322     		mov	r2, #3
 739 0168 1A70     		strb	r2, [r3]
1503:.\Generated_Source\PSoC4/BLE_eventHandler.c ****                     cyBle_eventHandlerFlag &= (uint8)~CYBLE_START_FLAG;
 740              		.loc 1 1503 0
 741 016a 464B     		ldr	r3, .L54
 742 016c 1B78     		ldrb	r3, [r3]
 743 016e DBB2     		uxtb	r3, r3
 744 0170 0422     		mov	r2, #4
 745 0172 9343     		bic	r3, r2
 746 0174 DAB2     		uxtb	r2, r3
 747 0176 434B     		ldr	r3, .L54
 748 0178 1A70     		strb	r2, [r3]
 749 017a 1AE0     		b	.L47
 750              	.L48:
1504:.\Generated_Source\PSoC4/BLE_eventHandler.c ****                 }
1505:.\Generated_Source\PSoC4/BLE_eventHandler.c ****                 /* When application initiated stop advertisement */
1506:.\Generated_Source\PSoC4/BLE_eventHandler.c ****                 else if(0u != (cyBle_eventHandlerFlag & CYBLE_STOP_FLAG))
 751              		.loc 1 1506 0
 752 017c 414B     		ldr	r3, .L54
 753 017e 1B78     		ldrb	r3, [r3]
 754 0180 DBB2     		uxtb	r3, r3
 755 0182 1A1C     		mov	r2, r3
 756 0184 0823     		mov	r3, #8
 757 0186 1340     		and	r3, r2
 758 0188 0BD0     		beq	.L49
1507:.\Generated_Source\PSoC4/BLE_eventHandler.c ****                 {
1508:.\Generated_Source\PSoC4/BLE_eventHandler.c ****                     CyBle_SetState(CYBLE_STATE_DISCONNECTED);  
 759              		.loc 1 1508 0
 760 018a 454B     		ldr	r3, .L54+28
 761 018c 0422     		mov	r2, #4
 762 018e 1A70     		strb	r2, [r3]
1509:.\Generated_Source\PSoC4/BLE_eventHandler.c ****                     cyBle_eventHandlerFlag &= (uint8)~CYBLE_STOP_FLAG;
 763              		.loc 1 1509 0
 764 0190 3C4B     		ldr	r3, .L54
 765 0192 1B78     		ldrb	r3, [r3]
 766 0194 DBB2     		uxtb	r3, r3
 767 0196 0822     		mov	r2, #8
 768 0198 9343     		bic	r3, r2
 769 019a DAB2     		uxtb	r2, r3
ARM GAS  C:\Users\KEVINH~1\AppData\Local\Temp\ccC6tirb.s 			page 41


 770 019c 394B     		ldr	r3, .L54
 771 019e 1A70     		strb	r2, [r3]
 772 01a0 07E0     		b	.L47
 773              	.L49:
1510:.\Generated_Source\PSoC4/BLE_eventHandler.c ****                 }
1511:.\Generated_Source\PSoC4/BLE_eventHandler.c ****                 else /* Following event indicates that advertising has been stopped */
1512:.\Generated_Source\PSoC4/BLE_eventHandler.c ****                 {
1513:.\Generated_Source\PSoC4/BLE_eventHandler.c ****                     if(CYBLE_STATE_ADVERTISING == CyBle_GetState())
 774              		.loc 1 1513 0
 775 01a2 3F4B     		ldr	r3, .L54+28
 776 01a4 1B78     		ldrb	r3, [r3]
 777 01a6 032B     		cmp	r3, #3
 778 01a8 03D1     		bne	.L47
1514:.\Generated_Source\PSoC4/BLE_eventHandler.c ****                     {
1515:.\Generated_Source\PSoC4/BLE_eventHandler.c ****                         CyBle_SetState(CYBLE_STATE_DISCONNECTED);
 779              		.loc 1 1515 0
 780 01aa 3D4B     		ldr	r3, .L54+28
 781 01ac 0422     		mov	r2, #4
 782 01ae 1A70     		strb	r2, [r3]
1516:.\Generated_Source\PSoC4/BLE_eventHandler.c ****                     #if ((CYBLE_SLOW_ADV_ENABLED != 0u) && (CYBLE_FAST_ADV_TIMEOUT != 0u))
1517:.\Generated_Source\PSoC4/BLE_eventHandler.c ****                         if(cyBle_advertisingIntervalType == CYBLE_ADVERTISING_FAST)
1518:.\Generated_Source\PSoC4/BLE_eventHandler.c ****                         {
1519:.\Generated_Source\PSoC4/BLE_eventHandler.c ****                             /* When fast advertising time out occur: Start slow advertising */
1520:.\Generated_Source\PSoC4/BLE_eventHandler.c ****                             if(CYBLE_ERROR_OK == CyBle_GappStartAdvertisement(CYBLE_ADVERTISING_SLO
1521:.\Generated_Source\PSoC4/BLE_eventHandler.c ****                             {
1522:.\Generated_Source\PSoC4/BLE_eventHandler.c ****                                 CyBle_SetState(CYBLE_STATE_ADVERTISING);
1523:.\Generated_Source\PSoC4/BLE_eventHandler.c ****                             }
1524:.\Generated_Source\PSoC4/BLE_eventHandler.c ****                         }
1525:.\Generated_Source\PSoC4/BLE_eventHandler.c ****                     #endif /* CYBLE_SLOW_ADV_ENABLED */
1526:.\Generated_Source\PSoC4/BLE_eventHandler.c ****                     }
1527:.\Generated_Source\PSoC4/BLE_eventHandler.c ****                 }
1528:.\Generated_Source\PSoC4/BLE_eventHandler.c ****             }
1529:.\Generated_Source\PSoC4/BLE_eventHandler.c ****             break;
 783              		.loc 1 1529 0
 784 01b0 4DE0     		b	.L44
 785              	.L47:
 786 01b2 4CE0     		b	.L44
 787              	.L41:
1530:.\Generated_Source\PSoC4/BLE_eventHandler.c ****         #endif /* CYBLE_GAP_ROLE_PERIPHERAL || CYBLE_GAP_ROLE_BROADCASTER */
1531:.\Generated_Source\PSoC4/BLE_eventHandler.c ****         
1532:.\Generated_Source\PSoC4/BLE_eventHandler.c ****         #if(CYBLE_GAP_ROLE_CENTRAL || CYBLE_GAP_ROLE_OBSERVER)    
1533:.\Generated_Source\PSoC4/BLE_eventHandler.c ****         case CYBLE_EVT_GAPC_SCAN_START_STOP:
1534:.\Generated_Source\PSoC4/BLE_eventHandler.c ****             #ifdef CYBLE_CPS_CLIENT
1535:.\Generated_Source\PSoC4/BLE_eventHandler.c ****                 CyBle_CpscScanStartStopEventHandler();
1536:.\Generated_Source\PSoC4/BLE_eventHandler.c ****             #endif /* CYBLE_CPS_CLIENT */
1537:.\Generated_Source\PSoC4/BLE_eventHandler.c ****             
1538:.\Generated_Source\PSoC4/BLE_eventHandler.c ****             if((CYBLE_STATE_CONNECTED != CyBle_GetState()) && ((cyBle_eventHandlerFlag & CYBLE_CALL
1539:.\Generated_Source\PSoC4/BLE_eventHandler.c ****             {
1540:.\Generated_Source\PSoC4/BLE_eventHandler.c ****                 /* After CyBle_GapcStartScan first event indicates that scanning has been started *
1541:.\Generated_Source\PSoC4/BLE_eventHandler.c ****                 if(0u != (cyBle_eventHandlerFlag & CYBLE_START_FLAG))
1542:.\Generated_Source\PSoC4/BLE_eventHandler.c ****                 {
1543:.\Generated_Source\PSoC4/BLE_eventHandler.c ****                     CyBle_SetState(CYBLE_STATE_SCANNING);
1544:.\Generated_Source\PSoC4/BLE_eventHandler.c ****                     cyBle_eventHandlerFlag &= (uint8)~CYBLE_START_FLAG;
1545:.\Generated_Source\PSoC4/BLE_eventHandler.c ****                 }
1546:.\Generated_Source\PSoC4/BLE_eventHandler.c ****                 /* When application initiated stop scanning */
1547:.\Generated_Source\PSoC4/BLE_eventHandler.c ****                 else if(0u != (cyBle_eventHandlerFlag & CYBLE_STOP_FLAG))
1548:.\Generated_Source\PSoC4/BLE_eventHandler.c ****                 {
ARM GAS  C:\Users\KEVINH~1\AppData\Local\Temp\ccC6tirb.s 			page 42


1549:.\Generated_Source\PSoC4/BLE_eventHandler.c ****                     CyBle_SetState(CYBLE_STATE_DISCONNECTED);  
1550:.\Generated_Source\PSoC4/BLE_eventHandler.c ****                     cyBle_eventHandlerFlag &= (uint8)~CYBLE_STOP_FLAG;
1551:.\Generated_Source\PSoC4/BLE_eventHandler.c ****                 }
1552:.\Generated_Source\PSoC4/BLE_eventHandler.c ****                 else /* Following event indicates that scanning has been stopped by stack */
1553:.\Generated_Source\PSoC4/BLE_eventHandler.c ****                 {
1554:.\Generated_Source\PSoC4/BLE_eventHandler.c ****                     if(CYBLE_STATE_SCANNING == CyBle_GetState())
1555:.\Generated_Source\PSoC4/BLE_eventHandler.c ****                     {
1556:.\Generated_Source\PSoC4/BLE_eventHandler.c ****                         CyBle_SetState(CYBLE_STATE_DISCONNECTED);  
1557:.\Generated_Source\PSoC4/BLE_eventHandler.c ****                     #if ((CYBLE_SLOW_SCAN_ENABLED != 0u) && (CYBLE_FAST_SCAN_TIMEOUT != 0u))
1558:.\Generated_Source\PSoC4/BLE_eventHandler.c ****                         if(cyBle_scanningIntervalType == CYBLE_SCANNING_FAST)
1559:.\Generated_Source\PSoC4/BLE_eventHandler.c ****                         {
1560:.\Generated_Source\PSoC4/BLE_eventHandler.c ****                             /* When fast scanning time out occur: Start slow scanning */
1561:.\Generated_Source\PSoC4/BLE_eventHandler.c ****                             if(CYBLE_ERROR_OK == CyBle_GapcStartScan(CYBLE_SCANNING_SLOW))
1562:.\Generated_Source\PSoC4/BLE_eventHandler.c ****                             {
1563:.\Generated_Source\PSoC4/BLE_eventHandler.c ****                                 CyBle_SetState(CYBLE_STATE_SCANNING);
1564:.\Generated_Source\PSoC4/BLE_eventHandler.c ****                             }
1565:.\Generated_Source\PSoC4/BLE_eventHandler.c ****                         }
1566:.\Generated_Source\PSoC4/BLE_eventHandler.c ****                     #endif /* CYBLE_SLOW_SCAN_ENABLED */
1567:.\Generated_Source\PSoC4/BLE_eventHandler.c ****                     }
1568:.\Generated_Source\PSoC4/BLE_eventHandler.c ****                 }
1569:.\Generated_Source\PSoC4/BLE_eventHandler.c ****             }
1570:.\Generated_Source\PSoC4/BLE_eventHandler.c ****             break;
1571:.\Generated_Source\PSoC4/BLE_eventHandler.c ****         #endif /* CYBLE_GAP_ROLE_CENTRAL || CYBLE_GAP_ROLE_OBSERVER */
1572:.\Generated_Source\PSoC4/BLE_eventHandler.c **** 
1573:.\Generated_Source\PSoC4/BLE_eventHandler.c ****         /**********************************************************
1574:.\Generated_Source\PSoC4/BLE_eventHandler.c ****         ##L2AP events 
1575:.\Generated_Source\PSoC4/BLE_eventHandler.c ****         ***********************************************************/
1576:.\Generated_Source\PSoC4/BLE_eventHandler.c ****         case CYBLE_EVT_L2CAP_CONN_PARAM_UPDATE_RSP:
1577:.\Generated_Source\PSoC4/BLE_eventHandler.c ****             CyBle_L2Cap_ConnParamUpdateRspEventHandler(*(uint16 *)eventParam);
 788              		.loc 1 1577 0
 789 01b4 3B68     		ldr	r3, [r7]
 790 01b6 1B88     		ldrh	r3, [r3]
 791 01b8 181C     		mov	r0, r3
 792 01ba FFF7FEFF 		bl	CyBle_L2Cap_ConnParamUpdateRspEventHandler
1578:.\Generated_Source\PSoC4/BLE_eventHandler.c ****             break;
 793              		.loc 1 1578 0
 794 01be 46E0     		b	.L44
 795              	.L32:
1579:.\Generated_Source\PSoC4/BLE_eventHandler.c ****         
1580:.\Generated_Source\PSoC4/BLE_eventHandler.c ****         /**********************************************************
1581:.\Generated_Source\PSoC4/BLE_eventHandler.c ****         ##GATT events
1582:.\Generated_Source\PSoC4/BLE_eventHandler.c ****         ***********************************************************/        
1583:.\Generated_Source\PSoC4/BLE_eventHandler.c ****         case CYBLE_EVT_GATT_CONNECT_IND:
1584:.\Generated_Source\PSoC4/BLE_eventHandler.c ****             cyBle_connHandle = *(CYBLE_CONN_HANDLE_T *)eventParam;
 796              		.loc 1 1584 0
 797 01c0 3A4A     		ldr	r2, .L54+40
 798 01c2 3B68     		ldr	r3, [r7]
 799 01c4 111C     		mov	r1, r2
 800 01c6 1A1C     		mov	r2, r3
 801 01c8 0223     		mov	r3, #2
 802 01ca 081C     		mov	r0, r1
 803 01cc 111C     		mov	r1, r2
 804 01ce 1A1C     		mov	r2, r3
 805 01d0 FFF7FEFF 		bl	memcpy
1585:.\Generated_Source\PSoC4/BLE_eventHandler.c ****             
1586:.\Generated_Source\PSoC4/BLE_eventHandler.c ****         #if((CYBLE_GATT_ROLE_SERVER) && (CYBLE_GATT_DB_CCCD_COUNT != 0u))
1587:.\Generated_Source\PSoC4/BLE_eventHandler.c ****             /* Init CCCD values in RAM */
ARM GAS  C:\Users\KEVINH~1\AppData\Local\Temp\ccC6tirb.s 			page 43


1588:.\Generated_Source\PSoC4/BLE_eventHandler.c ****         	(void) memcpy (cyBle_attValuesCCCD, cyBle_attValuesCCCDFlashMemory[cyBle_connHandle.bdHand
 806              		.loc 1 1588 0
 807 01d4 354B     		ldr	r3, .L54+40
 808 01d6 1B78     		ldrb	r3, [r3]
 809 01d8 9A00     		lsl	r2, r3, #2
 810 01da 354B     		ldr	r3, .L54+44
 811 01dc D318     		add	r3, r2, r3
 812 01de 354A     		ldr	r2, .L54+48
 813 01e0 111C     		mov	r1, r2
 814 01e2 1A1C     		mov	r2, r3
 815 01e4 0423     		mov	r3, #4
 816 01e6 081C     		mov	r0, r1
 817 01e8 111C     		mov	r1, r2
 818 01ea 1A1C     		mov	r2, r3
 819 01ec FFF7FEFF 		bl	memcpy
1589:.\Generated_Source\PSoC4/BLE_eventHandler.c ****                             CYBLE_GATT_DB_CCCD_COUNT);
1590:.\Generated_Source\PSoC4/BLE_eventHandler.c ****         #endif /* CYBLE_GATT_ROLE_SERVER */
1591:.\Generated_Source\PSoC4/BLE_eventHandler.c ****         
1592:.\Generated_Source\PSoC4/BLE_eventHandler.c ****         #if (CYBLE_GATT_ROLE_CLIENT)
1593:.\Generated_Source\PSoC4/BLE_eventHandler.c ****             CyBle_SetClientState(CYBLE_CLIENT_STATE_CONNECTED);
1594:.\Generated_Source\PSoC4/BLE_eventHandler.c ****         #endif /* CYBLE_GATT_ROLE_CLIENT */
1595:.\Generated_Source\PSoC4/BLE_eventHandler.c ****         
1596:.\Generated_Source\PSoC4/BLE_eventHandler.c ****             CyBle_GattConnectReqHandler();
 820              		.loc 1 1596 0
 821 01f0 FFF7FEFF 		bl	CyBle_GattConnectReqHandler
1597:.\Generated_Source\PSoC4/BLE_eventHandler.c ****             break;
 822              		.loc 1 1597 0
 823 01f4 2BE0     		b	.L44
 824              	.L33:
1598:.\Generated_Source\PSoC4/BLE_eventHandler.c **** 
1599:.\Generated_Source\PSoC4/BLE_eventHandler.c ****         case CYBLE_EVT_GATT_DISCONNECT_IND:
1600:.\Generated_Source\PSoC4/BLE_eventHandler.c ****             CyBle_GattDisconnectEventHandler();
 825              		.loc 1 1600 0
 826 01f6 FFF7FEFF 		bl	CyBle_GattDisconnectEventHandler
1601:.\Generated_Source\PSoC4/BLE_eventHandler.c ****             break;
 827              		.loc 1 1601 0
 828 01fa 28E0     		b	.L44
 829              	.L34:
 830              	.LBB4:
1602:.\Generated_Source\PSoC4/BLE_eventHandler.c **** 
1603:.\Generated_Source\PSoC4/BLE_eventHandler.c ****     #if((CYBLE_GATT_ROLE_SERVER) || (CYBLE_GATT_ROLE_CLIENT))
1604:.\Generated_Source\PSoC4/BLE_eventHandler.c ****         case CYBLE_EVT_GATTS_XCNHG_MTU_REQ:
1605:.\Generated_Source\PSoC4/BLE_eventHandler.c ****             {
1606:.\Generated_Source\PSoC4/BLE_eventHandler.c ****                 uint16 cyBle_mtuSize;
1607:.\Generated_Source\PSoC4/BLE_eventHandler.c ****                 if(CYBLE_GATT_MTU > ((CYBLE_GATT_XCHG_MTU_PARAM_T *)eventParam)->mtu)
 831              		.loc 1 1607 0
 832 01fc 3B68     		ldr	r3, [r7]
 833 01fe 5B88     		ldrh	r3, [r3, #2]
 834 0200 162B     		cmp	r3, #22
 835 0202 05D8     		bhi	.L50
1608:.\Generated_Source\PSoC4/BLE_eventHandler.c ****                 {
1609:.\Generated_Source\PSoC4/BLE_eventHandler.c ****                     cyBle_mtuSize = ((CYBLE_GATT_XCHG_MTU_PARAM_T *)eventParam)->mtu;
 836              		.loc 1 1609 0
 837 0204 3B1C     		mov	r3, r7
 838 0206 0E33     		add	r3, r3, #14
 839 0208 3A68     		ldr	r2, [r7]
 840 020a 5288     		ldrh	r2, [r2, #2]
ARM GAS  C:\Users\KEVINH~1\AppData\Local\Temp\ccC6tirb.s 			page 44


 841 020c 1A80     		strh	r2, [r3]
 842 020e 03E0     		b	.L51
 843              	.L50:
1610:.\Generated_Source\PSoC4/BLE_eventHandler.c ****                 }
1611:.\Generated_Source\PSoC4/BLE_eventHandler.c ****                 else
1612:.\Generated_Source\PSoC4/BLE_eventHandler.c ****                 {
1613:.\Generated_Source\PSoC4/BLE_eventHandler.c ****                     cyBle_mtuSize = CYBLE_GATT_MTU;
 844              		.loc 1 1613 0
 845 0210 3B1C     		mov	r3, r7
 846 0212 0E33     		add	r3, r3, #14
 847 0214 1722     		mov	r2, #23
 848 0216 1A80     		strh	r2, [r3]
 849              	.L51:
1614:.\Generated_Source\PSoC4/BLE_eventHandler.c ****                 }
1615:.\Generated_Source\PSoC4/BLE_eventHandler.c ****                 (void)CyBle_GattsExchangeMtuRsp(((CYBLE_GATT_XCHG_MTU_PARAM_T *)eventParam)->connHa
 850              		.loc 1 1615 0
 851 0218 3B68     		ldr	r3, [r7]
 852 021a 3A1C     		mov	r2, r7
 853 021c 0E32     		add	r2, r2, #14
 854 021e 1288     		ldrh	r2, [r2]
 855 0220 1988     		ldrh	r1, [r3]
 856 0222 0023     		mov	r3, #0
 857 0224 0904     		lsl	r1, r1, #16
 858 0226 090C     		lsr	r1, r1, #16
 859 0228 1B0C     		lsr	r3, r3, #16
 860 022a 1B04     		lsl	r3, r3, #16
 861 022c 0B43     		orr	r3, r1
 862 022e 181C     		mov	r0, r3
 863 0230 111C     		mov	r1, r2
 864 0232 FFF7FEFF 		bl	CyBle_GattsExchangeMtuRsp
 865              	.LBE4:
1616:.\Generated_Source\PSoC4/BLE_eventHandler.c ****             }
1617:.\Generated_Source\PSoC4/BLE_eventHandler.c ****             break;
 866              		.loc 1 1617 0
 867 0236 0AE0     		b	.L44
 868              	.L35:
1618:.\Generated_Source\PSoC4/BLE_eventHandler.c ****     #endif /* CYBLE_GATT_ROLE_SERVER || CYBLE_GATT_ROLE_CLIENT */
1619:.\Generated_Source\PSoC4/BLE_eventHandler.c ****     
1620:.\Generated_Source\PSoC4/BLE_eventHandler.c ****     #if (CYBLE_GATT_ROLE_CLIENT)
1621:.\Generated_Source\PSoC4/BLE_eventHandler.c ****         case CYBLE_EVT_GAPC_SCAN_PROGRESS_RESULT:
1622:.\Generated_Source\PSoC4/BLE_eventHandler.c ****         #ifdef CYBLE_CPS_CLIENT
1623:.\Generated_Source\PSoC4/BLE_eventHandler.c ****                 CyBle_CpscScanProcessEventHandler((CYBLE_GAPC_ADV_REPORT_T *)eventParam);
1624:.\Generated_Source\PSoC4/BLE_eventHandler.c ****         #endif /* CYBLE_CPS_CLIENT */
1625:.\Generated_Source\PSoC4/BLE_eventHandler.c ****             break;
1626:.\Generated_Source\PSoC4/BLE_eventHandler.c ****     #endif /* CYBLE_GATT_ROLE_CLIENT */
1627:.\Generated_Source\PSoC4/BLE_eventHandler.c **** 
1628:.\Generated_Source\PSoC4/BLE_eventHandler.c ****     #if(CYBLE_GATT_ROLE_SERVER)
1629:.\Generated_Source\PSoC4/BLE_eventHandler.c ****         case CYBLE_EVT_GATTS_WRITE_REQ:
1630:.\Generated_Source\PSoC4/BLE_eventHandler.c ****             CyBle_WriteReqHandler((CYBLE_GATTS_WRITE_REQ_PARAM_T *)eventParam);
 869              		.loc 1 1630 0
 870 0238 3B68     		ldr	r3, [r7]
 871 023a 181C     		mov	r0, r3
 872 023c FFF7FEFF 		bl	CyBle_WriteReqHandler
1631:.\Generated_Source\PSoC4/BLE_eventHandler.c ****             break;
 873              		.loc 1 1631 0
 874 0240 05E0     		b	.L44
 875              	.L39:
ARM GAS  C:\Users\KEVINH~1\AppData\Local\Temp\ccC6tirb.s 			page 45


1632:.\Generated_Source\PSoC4/BLE_eventHandler.c **** 
1633:.\Generated_Source\PSoC4/BLE_eventHandler.c ****         case CYBLE_EVT_GATTS_WRITE_CMD_REQ:
1634:.\Generated_Source\PSoC4/BLE_eventHandler.c ****         #ifdef CYBLE_IAS_SERVER
1635:.\Generated_Source\PSoC4/BLE_eventHandler.c ****             if((cyBle_eventHandlerFlag & CYBLE_CALLBACK) != 0u)
1636:.\Generated_Source\PSoC4/BLE_eventHandler.c ****             {
1637:.\Generated_Source\PSoC4/BLE_eventHandler.c ****                 (void)CyBle_IassWriteCmdEventHandler((CYBLE_GATTS_WRITE_REQ_PARAM_T *)eventParam);
1638:.\Generated_Source\PSoC4/BLE_eventHandler.c ****             }
1639:.\Generated_Source\PSoC4/BLE_eventHandler.c ****         #endif /* CYBLE_IAS_SERVER */
1640:.\Generated_Source\PSoC4/BLE_eventHandler.c ****         #ifdef CYBLE_HIDS_SERVER
1641:.\Generated_Source\PSoC4/BLE_eventHandler.c ****             if((cyBle_eventHandlerFlag & CYBLE_CALLBACK) != 0u)
1642:.\Generated_Source\PSoC4/BLE_eventHandler.c ****             {
1643:.\Generated_Source\PSoC4/BLE_eventHandler.c ****                 (void)CyBle_HidssWriteEventHandler((CYBLE_GATTS_WRITE_REQ_PARAM_T *)eventParam);
1644:.\Generated_Source\PSoC4/BLE_eventHandler.c ****             }
1645:.\Generated_Source\PSoC4/BLE_eventHandler.c ****         #endif /* CYBLE_HIDS_SERVER */
1646:.\Generated_Source\PSoC4/BLE_eventHandler.c ****         #ifdef CYBLE_PASS_SERVER
1647:.\Generated_Source\PSoC4/BLE_eventHandler.c ****             if((cyBle_eventHandlerFlag & CYBLE_CALLBACK) != 0u)
1648:.\Generated_Source\PSoC4/BLE_eventHandler.c ****             {
1649:.\Generated_Source\PSoC4/BLE_eventHandler.c ****                 (void)CyBle_PasssWriteCmdEventHandler((CYBLE_GATTS_WRITE_REQ_PARAM_T *)eventParam);
1650:.\Generated_Source\PSoC4/BLE_eventHandler.c ****             }
1651:.\Generated_Source\PSoC4/BLE_eventHandler.c ****         #endif /* CYBLE_PASS_SERVER */
1652:.\Generated_Source\PSoC4/BLE_eventHandler.c ****         #ifdef CYBLE_RTUS_SERVER
1653:.\Generated_Source\PSoC4/BLE_eventHandler.c ****             if((cyBle_eventHandlerFlag & CYBLE_CALLBACK) != 0u)
1654:.\Generated_Source\PSoC4/BLE_eventHandler.c ****             {
1655:.\Generated_Source\PSoC4/BLE_eventHandler.c ****                 (void)CyBle_RtussWriteCmdEventHandler((CYBLE_GATTS_WRITE_REQ_PARAM_T *)eventParam);
1656:.\Generated_Source\PSoC4/BLE_eventHandler.c ****             }
1657:.\Generated_Source\PSoC4/BLE_eventHandler.c ****         #endif /* CYBLE_RTUS_SERVER */
1658:.\Generated_Source\PSoC4/BLE_eventHandler.c ****         #ifdef CYBLE_SCPS_SERVER
1659:.\Generated_Source\PSoC4/BLE_eventHandler.c ****             if((cyBle_eventHandlerFlag & CYBLE_CALLBACK) != 0u)
1660:.\Generated_Source\PSoC4/BLE_eventHandler.c ****             {
1661:.\Generated_Source\PSoC4/BLE_eventHandler.c ****                 (void)CyBle_ScpssWriteEventHandler((CYBLE_GATTS_WRITE_REQ_PARAM_T *)eventParam);
1662:.\Generated_Source\PSoC4/BLE_eventHandler.c ****             }
1663:.\Generated_Source\PSoC4/BLE_eventHandler.c ****         #endif /* CYBLE_SCPS_SERVER */
1664:.\Generated_Source\PSoC4/BLE_eventHandler.c ****             break;
1665:.\Generated_Source\PSoC4/BLE_eventHandler.c ****         
1666:.\Generated_Source\PSoC4/BLE_eventHandler.c ****         case CYBLE_EVT_GATTS_PREP_WRITE_REQ:
1667:.\Generated_Source\PSoC4/BLE_eventHandler.c ****         #ifdef CYBLE_BMS_SERVER
1668:.\Generated_Source\PSoC4/BLE_eventHandler.c ****             CyBle_BmssPrepareWriteRequestEventHandler((CYBLE_GATTS_PREP_WRITE_REQ_PARAM_T *)eventPa
1669:.\Generated_Source\PSoC4/BLE_eventHandler.c ****         #endif /* CYBLE_BMS_SERVER */
1670:.\Generated_Source\PSoC4/BLE_eventHandler.c ****         #ifdef CYBLE_BTS_SERVER
1671:.\Generated_Source\PSoC4/BLE_eventHandler.c ****             if((cyBle_eventHandlerFlag & CYBLE_CALLBACK) != 0u)
1672:.\Generated_Source\PSoC4/BLE_eventHandler.c ****             {
1673:.\Generated_Source\PSoC4/BLE_eventHandler.c ****                 CyBle_BtssPrepareWriteRequestEventHandler((CYBLE_GATTS_PREP_WRITE_REQ_PARAM_T *)eve
1674:.\Generated_Source\PSoC4/BLE_eventHandler.c ****             }
1675:.\Generated_Source\PSoC4/BLE_eventHandler.c ****         #endif /* CYBLE_BTS_SERVER */
1676:.\Generated_Source\PSoC4/BLE_eventHandler.c ****         #ifdef CYBLE_ESS_SERVER
1677:.\Generated_Source\PSoC4/BLE_eventHandler.c ****             if((cyBle_eventHandlerFlag & CYBLE_CALLBACK) != 0u)
1678:.\Generated_Source\PSoC4/BLE_eventHandler.c ****             {
1679:.\Generated_Source\PSoC4/BLE_eventHandler.c ****                 CyBle_EsssPrepareWriteRequestEventHandler((CYBLE_GATTS_PREP_WRITE_REQ_PARAM_T *)eve
1680:.\Generated_Source\PSoC4/BLE_eventHandler.c ****             }
1681:.\Generated_Source\PSoC4/BLE_eventHandler.c ****         #endif /* CYBLE_ESS_SERVER */
1682:.\Generated_Source\PSoC4/BLE_eventHandler.c **** 		#ifdef CYBLE_UDS_SERVER
1683:.\Generated_Source\PSoC4/BLE_eventHandler.c ****             if((cyBle_eventHandlerFlag & CYBLE_CALLBACK) != 0u)
1684:.\Generated_Source\PSoC4/BLE_eventHandler.c ****             {
1685:.\Generated_Source\PSoC4/BLE_eventHandler.c ****                 CyBle_UdssPrepareWriteRequestEventHandler((CYBLE_GATTS_PREP_WRITE_REQ_PARAM_T *)eve
1686:.\Generated_Source\PSoC4/BLE_eventHandler.c ****             }
1687:.\Generated_Source\PSoC4/BLE_eventHandler.c ****         #endif /* CYBLE_UDS_SERVER */
1688:.\Generated_Source\PSoC4/BLE_eventHandler.c ****             break;
ARM GAS  C:\Users\KEVINH~1\AppData\Local\Temp\ccC6tirb.s 			page 46


1689:.\Generated_Source\PSoC4/BLE_eventHandler.c **** 
1690:.\Generated_Source\PSoC4/BLE_eventHandler.c ****         case CYBLE_EVT_GATTS_EXEC_WRITE_REQ:
1691:.\Generated_Source\PSoC4/BLE_eventHandler.c ****         #ifdef CYBLE_BMS_SERVER
1692:.\Generated_Source\PSoC4/BLE_eventHandler.c ****             CyBle_BmssExecuteWriteRequestEventHandler((CYBLE_GATTS_EXEC_WRITE_REQ_T *)eventParam);
1693:.\Generated_Source\PSoC4/BLE_eventHandler.c ****         #endif /* CYBLE_BMS_SERVER */
1694:.\Generated_Source\PSoC4/BLE_eventHandler.c ****         #ifdef CYBLE_BTS_SERVER
1695:.\Generated_Source\PSoC4/BLE_eventHandler.c ****             if((cyBle_eventHandlerFlag & CYBLE_CALLBACK) != 0u)
1696:.\Generated_Source\PSoC4/BLE_eventHandler.c ****             {
1697:.\Generated_Source\PSoC4/BLE_eventHandler.c ****                 CyBle_BtssExecuteWriteRequestEventHandler((CYBLE_GATTS_EXEC_WRITE_REQ_T *)eventPara
1698:.\Generated_Source\PSoC4/BLE_eventHandler.c ****             }
1699:.\Generated_Source\PSoC4/BLE_eventHandler.c ****         #endif /* CYBLE_BTS_SERVER */
1700:.\Generated_Source\PSoC4/BLE_eventHandler.c ****         #ifdef CYBLE_ESS_SERVER
1701:.\Generated_Source\PSoC4/BLE_eventHandler.c ****             if((cyBle_eventHandlerFlag & CYBLE_CALLBACK) != 0u)
1702:.\Generated_Source\PSoC4/BLE_eventHandler.c ****             {
1703:.\Generated_Source\PSoC4/BLE_eventHandler.c ****                 CyBle_EsssExecuteWriteRequestEventHandler((CYBLE_GATTS_EXEC_WRITE_REQ_T *)eventPara
1704:.\Generated_Source\PSoC4/BLE_eventHandler.c ****             }
1705:.\Generated_Source\PSoC4/BLE_eventHandler.c ****         #endif /* CYBLE_ESS_SERVER */
1706:.\Generated_Source\PSoC4/BLE_eventHandler.c **** 		#ifdef CYBLE_UDS_SERVER
1707:.\Generated_Source\PSoC4/BLE_eventHandler.c ****             if((cyBle_eventHandlerFlag & CYBLE_CALLBACK) != 0u)
1708:.\Generated_Source\PSoC4/BLE_eventHandler.c ****             {
1709:.\Generated_Source\PSoC4/BLE_eventHandler.c ****                 CyBle_UdssExecuteWriteRequestEventHandler((CYBLE_GATTS_EXEC_WRITE_REQ_T *)eventPara
1710:.\Generated_Source\PSoC4/BLE_eventHandler.c ****             }
1711:.\Generated_Source\PSoC4/BLE_eventHandler.c ****         #endif /* CYBLE_UDS_SERVER */
1712:.\Generated_Source\PSoC4/BLE_eventHandler.c ****             break;
1713:.\Generated_Source\PSoC4/BLE_eventHandler.c ****         
1714:.\Generated_Source\PSoC4/BLE_eventHandler.c ****         case CYBLE_EVT_GATTS_HANDLE_VALUE_CNF:
1715:.\Generated_Source\PSoC4/BLE_eventHandler.c ****             CyBle_ValueConfirmation((CYBLE_CONN_HANDLE_T *)eventParam);
 876              		.loc 1 1715 0
 877 0242 3B68     		ldr	r3, [r7]
 878 0244 181C     		mov	r0, r3
 879 0246 FFF7FEFF 		bl	CyBle_ValueConfirmation
1716:.\Generated_Source\PSoC4/BLE_eventHandler.c ****             break;
 880              		.loc 1 1716 0
 881 024a 00E0     		b	.L44
 882              	.L53:
1717:.\Generated_Source\PSoC4/BLE_eventHandler.c ****             
1718:.\Generated_Source\PSoC4/BLE_eventHandler.c ****         case CYBLE_EVT_GATTS_READ_CHAR_VAL_ACCESS_REQ:
1719:.\Generated_Source\PSoC4/BLE_eventHandler.c ****         #ifdef CYBLE_UDS_SERVER
1720:.\Generated_Source\PSoC4/BLE_eventHandler.c ****             CyBle_UdssReadRequestEventHandler((CYBLE_GATTS_CHAR_VAL_READ_REQ_T *)eventParam);
1721:.\Generated_Source\PSoC4/BLE_eventHandler.c ****         #endif /* CYBLE_UDS_SERVER */
1722:.\Generated_Source\PSoC4/BLE_eventHandler.c ****             break;
1723:.\Generated_Source\PSoC4/BLE_eventHandler.c ****             
1724:.\Generated_Source\PSoC4/BLE_eventHandler.c ****     #endif /* CYBLE_GATT_ROLE_SERVER */
1725:.\Generated_Source\PSoC4/BLE_eventHandler.c **** 
1726:.\Generated_Source\PSoC4/BLE_eventHandler.c ****     #if (CYBLE_GATT_ROLE_CLIENT)
1727:.\Generated_Source\PSoC4/BLE_eventHandler.c ****         
1728:.\Generated_Source\PSoC4/BLE_eventHandler.c ****         case CYBLE_EVT_GATTC_READ_BY_GROUP_TYPE_RSP:
1729:.\Generated_Source\PSoC4/BLE_eventHandler.c ****             CyBle_ReadByGroupEventHandler((CYBLE_GATTC_READ_BY_GRP_RSP_PARAM_T *)eventParam);
1730:.\Generated_Source\PSoC4/BLE_eventHandler.c ****             break;
1731:.\Generated_Source\PSoC4/BLE_eventHandler.c **** 
1732:.\Generated_Source\PSoC4/BLE_eventHandler.c ****         case CYBLE_EVT_GATTC_READ_BY_TYPE_RSP:
1733:.\Generated_Source\PSoC4/BLE_eventHandler.c ****             CyBle_ReadByTypeEventHandler((CYBLE_GATTC_READ_BY_TYPE_RSP_PARAM_T *)eventParam);
1734:.\Generated_Source\PSoC4/BLE_eventHandler.c ****             break;
1735:.\Generated_Source\PSoC4/BLE_eventHandler.c **** 
1736:.\Generated_Source\PSoC4/BLE_eventHandler.c ****         case CYBLE_EVT_GATTC_READ_BLOB_RSP:
1737:.\Generated_Source\PSoC4/BLE_eventHandler.c ****         #ifdef CYBLE_ESS_CLIENT
1738:.\Generated_Source\PSoC4/BLE_eventHandler.c ****             CyBle_EsscReadLongRespEventHandler((CYBLE_GATTC_READ_RSP_PARAM_T *)eventParam);
ARM GAS  C:\Users\KEVINH~1\AppData\Local\Temp\ccC6tirb.s 			page 47


1739:.\Generated_Source\PSoC4/BLE_eventHandler.c ****         #endif /* CYBLE_ESS_CLIENT */
1740:.\Generated_Source\PSoC4/BLE_eventHandler.c ****             break;
1741:.\Generated_Source\PSoC4/BLE_eventHandler.c ****         
1742:.\Generated_Source\PSoC4/BLE_eventHandler.c ****         case CYBLE_EVT_GATTC_FIND_INFO_RSP:
1743:.\Generated_Source\PSoC4/BLE_eventHandler.c ****             CyBle_FindInfoEventHandler((CYBLE_GATTC_FIND_INFO_RSP_PARAM_T *)eventParam);
1744:.\Generated_Source\PSoC4/BLE_eventHandler.c ****             break;
1745:.\Generated_Source\PSoC4/BLE_eventHandler.c **** 
1746:.\Generated_Source\PSoC4/BLE_eventHandler.c ****         case CYBLE_EVT_GATTC_ERROR_RSP:
1747:.\Generated_Source\PSoC4/BLE_eventHandler.c ****             CyBle_ErrorResponseEventHandler((CYBLE_GATTC_ERR_RSP_PARAM_T *)eventParam);
1748:.\Generated_Source\PSoC4/BLE_eventHandler.c ****             break;
1749:.\Generated_Source\PSoC4/BLE_eventHandler.c **** 
1750:.\Generated_Source\PSoC4/BLE_eventHandler.c ****         case CYBLE_EVT_GATTC_HANDLE_VALUE_NTF:
1751:.\Generated_Source\PSoC4/BLE_eventHandler.c ****             CyBle_NotificationEventHandler((CYBLE_GATTC_HANDLE_VALUE_NTF_PARAM_T *)eventParam);
1752:.\Generated_Source\PSoC4/BLE_eventHandler.c ****             break;
1753:.\Generated_Source\PSoC4/BLE_eventHandler.c **** 
1754:.\Generated_Source\PSoC4/BLE_eventHandler.c ****         case CYBLE_EVT_GATTC_HANDLE_VALUE_IND:
1755:.\Generated_Source\PSoC4/BLE_eventHandler.c ****             CyBle_GattcIndicationEventHandler((CYBLE_GATTC_HANDLE_VALUE_IND_PARAM_T *)eventParam);
1756:.\Generated_Source\PSoC4/BLE_eventHandler.c ****             CyBle_IndicationEventHandler((CYBLE_GATTC_HANDLE_VALUE_IND_PARAM_T *)eventParam);
1757:.\Generated_Source\PSoC4/BLE_eventHandler.c ****         
1758:.\Generated_Source\PSoC4/BLE_eventHandler.c ****             /* Respond with a Handle Value Confirmation when request handled */
1759:.\Generated_Source\PSoC4/BLE_eventHandler.c ****             if((cyBle_eventHandlerFlag & CYBLE_CALLBACK) == 0u)
1760:.\Generated_Source\PSoC4/BLE_eventHandler.c ****             {
1761:.\Generated_Source\PSoC4/BLE_eventHandler.c ****                 (void)CyBle_GattcConfirmation(((CYBLE_GATTC_HANDLE_VALUE_IND_PARAM_T *)eventParam)-
1762:.\Generated_Source\PSoC4/BLE_eventHandler.c ****             }
1763:.\Generated_Source\PSoC4/BLE_eventHandler.c ****             break;
1764:.\Generated_Source\PSoC4/BLE_eventHandler.c ****         
1765:.\Generated_Source\PSoC4/BLE_eventHandler.c ****         case CYBLE_EVT_GATTC_READ_RSP:
1766:.\Generated_Source\PSoC4/BLE_eventHandler.c ****             CyBle_ReadResponseEventHandler((CYBLE_GATTC_READ_RSP_PARAM_T *)eventParam);
1767:.\Generated_Source\PSoC4/BLE_eventHandler.c ****             break;
1768:.\Generated_Source\PSoC4/BLE_eventHandler.c **** 
1769:.\Generated_Source\PSoC4/BLE_eventHandler.c ****         case CYBLE_EVT_GATTC_WRITE_RSP:
1770:.\Generated_Source\PSoC4/BLE_eventHandler.c ****             CyBle_GattcWriteResponseEventHandler((CYBLE_CONN_HANDLE_T *)eventParam);
1771:.\Generated_Source\PSoC4/BLE_eventHandler.c ****             break;
1772:.\Generated_Source\PSoC4/BLE_eventHandler.c ****             
1773:.\Generated_Source\PSoC4/BLE_eventHandler.c ****         case CYBLE_EVT_GATTC_EXEC_WRITE_RSP:
1774:.\Generated_Source\PSoC4/BLE_eventHandler.c ****         #ifdef CYBLE_BMS_CLIENT
1775:.\Generated_Source\PSoC4/BLE_eventHandler.c ****             CyBle_BmscExecuteWriteResponseEventHandler((CYBLE_GATTC_EXEC_WRITE_RSP_T *)eventParam);
1776:.\Generated_Source\PSoC4/BLE_eventHandler.c ****         #endif /* CYBLE_BMS_CLIENT */
1777:.\Generated_Source\PSoC4/BLE_eventHandler.c ****         #ifdef CYBLE_ESS_CLIENT
1778:.\Generated_Source\PSoC4/BLE_eventHandler.c ****             if((cyBle_eventHandlerFlag & CYBLE_CALLBACK) != 0u)
1779:.\Generated_Source\PSoC4/BLE_eventHandler.c ****             {
1780:.\Generated_Source\PSoC4/BLE_eventHandler.c ****                 CyBle_EsscExecuteWriteResponseEventHandler((CYBLE_GATTC_EXEC_WRITE_RSP_T *)eventPar
1781:.\Generated_Source\PSoC4/BLE_eventHandler.c ****             }
1782:.\Generated_Source\PSoC4/BLE_eventHandler.c ****         #endif /* CYBLE_ESS_CLIENT */
1783:.\Generated_Source\PSoC4/BLE_eventHandler.c ****             break;
1784:.\Generated_Source\PSoC4/BLE_eventHandler.c ****             
1785:.\Generated_Source\PSoC4/BLE_eventHandler.c ****     #endif /* CYBLE_GATT_ROLE_CLIENT */
1786:.\Generated_Source\PSoC4/BLE_eventHandler.c **** 
1787:.\Generated_Source\PSoC4/BLE_eventHandler.c ****     #if((CYBLE_GAP_ROLE_PERIPHERAL || CYBLE_GAP_ROLE_CENTRAL) && (CYBLE_BONDING_REQUIREMENT == CYBL
1788:.\Generated_Source\PSoC4/BLE_eventHandler.c **** 
1789:.\Generated_Source\PSoC4/BLE_eventHandler.c ****         case CYBLE_EVT_PENDING_FLASH_WRITE:
1790:.\Generated_Source\PSoC4/BLE_eventHandler.c ****             cyBle_pendingFlashWrite |= CYBLE_PENDING_STACK_FLASH_WRITE_BIT;
1791:.\Generated_Source\PSoC4/BLE_eventHandler.c ****             break;
1792:.\Generated_Source\PSoC4/BLE_eventHandler.c ****         
1793:.\Generated_Source\PSoC4/BLE_eventHandler.c ****     #endif  /* (CYBLE_BONDING_REQUIREMENT == CYBLE_BONDING_YES) */
1794:.\Generated_Source\PSoC4/BLE_eventHandler.c ****     
1795:.\Generated_Source\PSoC4/BLE_eventHandler.c ****         default:
ARM GAS  C:\Users\KEVINH~1\AppData\Local\Temp\ccC6tirb.s 			page 48


1796:.\Generated_Source\PSoC4/BLE_eventHandler.c ****             break;
 883              		.loc 1 1796 0
 884 024c C046     		mov	r8, r8
 885              	.L44:
1797:.\Generated_Source\PSoC4/BLE_eventHandler.c ****     }
1798:.\Generated_Source\PSoC4/BLE_eventHandler.c **** 
1799:.\Generated_Source\PSoC4/BLE_eventHandler.c ****     if(0u != (cyBle_eventHandlerFlag & (CYBLE_CALLBACK | CYBLE_ENABLE_ALL_EVENTS))) 
 886              		.loc 1 1799 0
 887 024e 0D4B     		ldr	r3, .L54
 888 0250 1B78     		ldrb	r3, [r3]
 889 0252 DBB2     		uxtb	r3, r3
 890 0254 1A1C     		mov	r2, r3
 891 0256 1123     		mov	r3, #17
 892 0258 1340     		and	r3, r2
 893 025a 0FD0     		beq	.L21
1800:.\Generated_Source\PSoC4/BLE_eventHandler.c ****     {
1801:.\Generated_Source\PSoC4/BLE_eventHandler.c ****         cyBle_eventHandlerFlag &= (uint8)~CYBLE_CALLBACK;
 894              		.loc 1 1801 0
 895 025c 094B     		ldr	r3, .L54
 896 025e 1B78     		ldrb	r3, [r3]
 897 0260 DBB2     		uxtb	r3, r3
 898 0262 0122     		mov	r2, #1
 899 0264 9343     		bic	r3, r2
 900 0266 DAB2     		uxtb	r2, r3
 901 0268 064B     		ldr	r3, .L54
 902 026a 1A70     		strb	r2, [r3]
1802:.\Generated_Source\PSoC4/BLE_eventHandler.c ****         CyBle_ApplCallback((uint32)eventCode, eventParam);
 903              		.loc 1 1802 0
 904 026c 124B     		ldr	r3, .L54+52
 905 026e 1B68     		ldr	r3, [r3]
 906 0270 FA1D     		add	r2, r7, #7
 907 0272 1178     		ldrb	r1, [r2]
 908 0274 3A68     		ldr	r2, [r7]
 909 0276 081C     		mov	r0, r1
 910 0278 111C     		mov	r1, r2
 911 027a 9847     		blx	r3
 912              	.L21:
1803:.\Generated_Source\PSoC4/BLE_eventHandler.c ****     }
1804:.\Generated_Source\PSoC4/BLE_eventHandler.c **** 
1805:.\Generated_Source\PSoC4/BLE_eventHandler.c **** }
 913              		.loc 1 1805 0
 914 027c BD46     		mov	sp, r7
 915 027e 04B0     		add	sp, sp, #16
 916              		@ sp needed
 917 0280 80BD     		pop	{r7, pc}
 918              	.L55:
 919 0282 C046     		.align	2
 920              	.L54:
 921 0284 00000000 		.word	cyBle_eventHandlerFlag
 922 0288 00000000 		.word	.L24
 923 028c 00000000 		.word	cyBle_sflashDeviceAddress
 924 0290 7CF1FF0F 		.word	268431740
 925 0294 00000000 		.word	cyBle_deviceAddress
 926 0298 7DF1FF0F 		.word	268431741
 927 029c 7BF1FF0F 		.word	268431739
 928 02a0 00000000 		.word	cyBle_state
 929 02a4 00000000 		.word	cyBle_busyStatus
ARM GAS  C:\Users\KEVINH~1\AppData\Local\Temp\ccC6tirb.s 			page 49


 930 02a8 00000000 		.word	cyBle_authInfo
 931 02ac 00000000 		.word	cyBle_connHandle
 932 02b0 00000000 		.word	cyBle_attValuesCCCDFlashMemory
 933 02b4 00000000 		.word	cyBle_attValuesCCCD
 934 02b8 00000000 		.word	CyBle_ApplCallback
 935              		.cfi_endproc
 936              	.LFE10:
 937              		.size	CyBle_EventHandler, .-CyBle_EventHandler
 938              		.text
 939              	.Letext0:
 940              		.file 2 ".\\Generated_Source\\PSoC4\\cytypes.h"
 941              		.file 3 ".\\Generated_Source\\PSoC4\\BLE_Stack.h"
 942              		.file 4 ".\\Generated_Source\\PSoC4\\BLE_StackHostMain.h"
 943              		.file 5 ".\\Generated_Source\\PSoC4\\BLE_StackGap.h"
 944              		.file 6 ".\\Generated_Source\\PSoC4\\BLE_StackGatt.h"
 945              		.file 7 ".\\Generated_Source\\PSoC4\\BLE_StackGattServer.h"
 946              		.file 8 ".\\Generated_Source\\PSoC4\\BLE.h"
 947              		.file 9 ".\\Generated_Source\\PSoC4\\BLE_dis.h"
 948              		.file 10 ".\\Generated_Source\\PSoC4\\BLE_hrs.h"
 949              		.file 11 ".\\Generated_Source\\PSoC4\\BLE_eventHandler.h"
 950              		.file 12 ".\\Generated_Source\\PSoC4\\BLE_gatt.h"