ARM GAS  C:\Users\KEVINH~1\AppData\Local\Temp\ccC6tirb.s 			page 1


   1              		.cpu cortex-m0
   2              		.fpu softvfp
   3              		.eabi_attribute 20, 1
   4              		.eabi_attribute 21, 1
   5              		.eabi_attribute 23, 3
   6              		.eabi_attribute 24, 1
   7              		.eabi_attribute 25, 1
   8              		.eabi_attribute 26, 1
   9              		.eabi_attribute 30, 6
  10              		.eabi_attribute 34, 0
  11              		.eabi_attribute 18, 4
  12              		.code	16
  13              		.file	"BLE_eventHandler.c"
  14              		.text
  15              	.Ltext0:
  16              		.cfi_sections	.debug_frame
  17              		.comm	cyBle_connHandle,2,4
  18              		.comm	cyBle_eventHandlerFlag,1,1
  19              		.comm	cyBle_busyStatus,1,1
  20              		.comm	cyBle_advertisingIntervalType,1,1
  21              		.global	cyBle_authInfo
  22              		.data
  23              		.align	2
  24              		.type	cyBle_authInfo, %object
  25              		.size	cyBle_authInfo, 4
  26              	cyBle_authInfo:
  27 0000 10       		.byte	16
  28 0001 00       		.byte	0
  29 0002 10       		.byte	16
  30 0003 00       		.byte	0
  31              		.section	.text.CyBle_WriteReqHandler,"ax",%progbits
  32              		.align	2
  33              		.code	16
  34              		.thumb_func
  35              		.type	CyBle_WriteReqHandler, %function
  36              	CyBle_WriteReqHandler:
  37              	.LFB2:
  38              		.file 1 ".\\Generated_Source\\PSoC4\\BLE_eventHandler.c"
   1:.\Generated_Source\PSoC4/BLE_eventHandler.c **** /*******************************************************************************
   2:.\Generated_Source\PSoC4/BLE_eventHandler.c **** File Name: CYBLE_eventHandler.c
   3:.\Generated_Source\PSoC4/BLE_eventHandler.c **** Version 2.0
   4:.\Generated_Source\PSoC4/BLE_eventHandler.c **** 
   5:.\Generated_Source\PSoC4/BLE_eventHandler.c **** Description:
   6:.\Generated_Source\PSoC4/BLE_eventHandler.c ****  This file contains the source code for the Event Handler State Machine
   7:.\Generated_Source\PSoC4/BLE_eventHandler.c ****  of the BLE Component.
   8:.\Generated_Source\PSoC4/BLE_eventHandler.c **** 
   9:.\Generated_Source\PSoC4/BLE_eventHandler.c **** ********************************************************************************
  10:.\Generated_Source\PSoC4/BLE_eventHandler.c **** Copyright 2014-2015, Cypress Semiconductor Corporation.  All rights reserved.
  11:.\Generated_Source\PSoC4/BLE_eventHandler.c **** You may use this file only in accordance with the license, terms, conditions,
  12:.\Generated_Source\PSoC4/BLE_eventHandler.c **** disclaimers, and limitations in the end user license agreement accompanying
  13:.\Generated_Source\PSoC4/BLE_eventHandler.c **** the software package with which this file was provided.
  14:.\Generated_Source\PSoC4/BLE_eventHandler.c **** *******************************************************************************/
  15:.\Generated_Source\PSoC4/BLE_eventHandler.c **** 
  16:.\Generated_Source\PSoC4/BLE_eventHandler.c **** #include "BLE_eventHandler.h"
  17:.\Generated_Source\PSoC4/BLE_eventHandler.c **** 
  18:.\Generated_Source\PSoC4/BLE_eventHandler.c **** 
  19:.\Generated_Source\PSoC4/BLE_eventHandler.c **** /***************************************
ARM GAS  C:\Users\KEVINH~1\AppData\Local\Temp\ccC6tirb.s 			page 2


  20:.\Generated_Source\PSoC4/BLE_eventHandler.c **** ##Private Function Prototypes
  21:.\Generated_Source\PSoC4/BLE_eventHandler.c **** ***************************************/
  22:.\Generated_Source\PSoC4/BLE_eventHandler.c **** 
  23:.\Generated_Source\PSoC4/BLE_eventHandler.c **** #if (CYBLE_GATT_ROLE_SERVER || CYBLE_GATT_ROLE_CLIENT)
  24:.\Generated_Source\PSoC4/BLE_eventHandler.c **** 
  25:.\Generated_Source\PSoC4/BLE_eventHandler.c **** static uint8 CyBle_IsDeviceAddressValid(const CYBLE_GAP_BD_ADDR_T *sflashDeviceAddress);
  26:.\Generated_Source\PSoC4/BLE_eventHandler.c **** 
  27:.\Generated_Source\PSoC4/BLE_eventHandler.c **** #endif /* CYBLE_GATT_ROLE_SERVER || CYBLE_GATT_ROLE_CLIENT */
  28:.\Generated_Source\PSoC4/BLE_eventHandler.c **** 
  29:.\Generated_Source\PSoC4/BLE_eventHandler.c **** static void CyBle_GattDisconnectEventHandler(void);
  30:.\Generated_Source\PSoC4/BLE_eventHandler.c **** static void CyBle_TimeOutEventHandler(const CYBLE_TO_REASON_CODE_T *eventParam);
  31:.\Generated_Source\PSoC4/BLE_eventHandler.c **** static void CyBle_GattConnectReqHandler(void);
  32:.\Generated_Source\PSoC4/BLE_eventHandler.c **** static void CyBle_L2Cap_ConnParamUpdateRspEventHandler(uint16 response);
  33:.\Generated_Source\PSoC4/BLE_eventHandler.c **** static void CyBle_GapConnUpdateCompleteEventHandler(const CYBLE_GAP_CONN_PARAM_UPDATED_IN_CONTROLLE
  34:.\Generated_Source\PSoC4/BLE_eventHandler.c **** 
  35:.\Generated_Source\PSoC4/BLE_eventHandler.c **** 
  36:.\Generated_Source\PSoC4/BLE_eventHandler.c **** #if (CYBLE_GATT_ROLE_SERVER)
  37:.\Generated_Source\PSoC4/BLE_eventHandler.c **** 
  38:.\Generated_Source\PSoC4/BLE_eventHandler.c **** static void CyBle_WriteReqHandler(CYBLE_GATTS_WRITE_REQ_PARAM_T *eventParam);
  39:.\Generated_Source\PSoC4/BLE_eventHandler.c **** static void CyBle_ValueConfirmation(const CYBLE_CONN_HANDLE_T *eventParam);
  40:.\Generated_Source\PSoC4/BLE_eventHandler.c **** 
  41:.\Generated_Source\PSoC4/BLE_eventHandler.c **** #endif /* CYBLE_GATT_ROLE_SERVER */
  42:.\Generated_Source\PSoC4/BLE_eventHandler.c **** 
  43:.\Generated_Source\PSoC4/BLE_eventHandler.c **** #if (CYBLE_GATT_ROLE_CLIENT)
  44:.\Generated_Source\PSoC4/BLE_eventHandler.c **** 
  45:.\Generated_Source\PSoC4/BLE_eventHandler.c **** static void CyBle_GapcDiscoverCharacteristicsEventHandler(CYBLE_DISC_CHAR_INFO_T *discCharInfo);
  46:.\Generated_Source\PSoC4/BLE_eventHandler.c **** static CYBLE_GATT_ATTR_HANDLE_RANGE_T CyBle_GetCharRange(void);
  47:.\Generated_Source\PSoC4/BLE_eventHandler.c **** static void CyBle_GattcWriteResponseEventHandler(const CYBLE_CONN_HANDLE_T *eventParam);
  48:.\Generated_Source\PSoC4/BLE_eventHandler.c **** static void CyBle_NotificationEventHandler(CYBLE_GATTC_HANDLE_VALUE_NTF_PARAM_T *eventParam);
  49:.\Generated_Source\PSoC4/BLE_eventHandler.c **** static void CyBle_IndicationEventHandler(CYBLE_GATTC_HANDLE_VALUE_IND_PARAM_T *eventParam);
  50:.\Generated_Source\PSoC4/BLE_eventHandler.c **** static void CyBle_ReadResponseEventHandler(CYBLE_GATTC_READ_RSP_PARAM_T *eventParam);
  51:.\Generated_Source\PSoC4/BLE_eventHandler.c **** 
  52:.\Generated_Source\PSoC4/BLE_eventHandler.c **** #endif /* CYBLE_GATT_ROLE_CLIENT */
  53:.\Generated_Source\PSoC4/BLE_eventHandler.c **** 
  54:.\Generated_Source\PSoC4/BLE_eventHandler.c **** 
  55:.\Generated_Source\PSoC4/BLE_eventHandler.c **** /***************************************
  56:.\Generated_Source\PSoC4/BLE_eventHandler.c **** ##Global Variables
  57:.\Generated_Source\PSoC4/BLE_eventHandler.c **** ***************************************/
  58:.\Generated_Source\PSoC4/BLE_eventHandler.c **** 
  59:.\Generated_Source\PSoC4/BLE_eventHandler.c **** /* This global variable is initialized after connection with peer device, 
  60:.\Generated_Source\PSoC4/BLE_eventHandler.c ****    after CYBLE_EVT_GATT_CONNECT_IND event, and could be used by application code
  61:.\Generated_Source\PSoC4/BLE_eventHandler.c ****    to send data to peer device. 
  62:.\Generated_Source\PSoC4/BLE_eventHandler.c **** */
  63:.\Generated_Source\PSoC4/BLE_eventHandler.c **** CYBLE_CONN_HANDLE_T cyBle_connHandle;
  64:.\Generated_Source\PSoC4/BLE_eventHandler.c **** 
  65:.\Generated_Source\PSoC4/BLE_eventHandler.c **** volatile uint8 cyBle_eventHandlerFlag;
  66:.\Generated_Source\PSoC4/BLE_eventHandler.c **** volatile uint8 cyBle_busyStatus;
  67:.\Generated_Source\PSoC4/BLE_eventHandler.c **** 
  68:.\Generated_Source\PSoC4/BLE_eventHandler.c **** #if(CYBLE_GAP_ROLE_PERIPHERAL || CYBLE_GAP_ROLE_BROADCASTER) 
  69:.\Generated_Source\PSoC4/BLE_eventHandler.c ****     uint8 cyBle_advertisingIntervalType;
  70:.\Generated_Source\PSoC4/BLE_eventHandler.c **** #endif /* CYBLE_GAP_ROLE_PERIPHERAL || CYBLE_GAP_ROLE_BROADCASTER) */
  71:.\Generated_Source\PSoC4/BLE_eventHandler.c **** 
  72:.\Generated_Source\PSoC4/BLE_eventHandler.c **** #if(CYBLE_GAP_ROLE_CENTRAL || CYBLE_GAP_ROLE_OBSERVER) 
  73:.\Generated_Source\PSoC4/BLE_eventHandler.c ****     uint8 cyBle_scanningIntervalType;
  74:.\Generated_Source\PSoC4/BLE_eventHandler.c **** #endif /* CYBLE_GAP_ROLE_CENTRAL || CYBLE_GAP_ROLE_OBSERVER */
  75:.\Generated_Source\PSoC4/BLE_eventHandler.c **** 
  76:.\Generated_Source\PSoC4/BLE_eventHandler.c **** #if(CYBLE_GATT_ROLE_SERVER)
ARM GAS  C:\Users\KEVINH~1\AppData\Local\Temp\ccC6tirb.s 			page 3


  77:.\Generated_Source\PSoC4/BLE_eventHandler.c **** #if defined CYBLE_CTS_SERVER || defined CYBLE_ESS_SERVER
  78:.\Generated_Source\PSoC4/BLE_eventHandler.c **** CYBLE_GATT_ERR_CODE_T cyBle_gattError;
  79:.\Generated_Source\PSoC4/BLE_eventHandler.c **** #endif /* defined CYBLE_CTS_SERVER || defined CYBLE_ESS_SERVER */
  80:.\Generated_Source\PSoC4/BLE_eventHandler.c **** #endif /* CYBLE_GATT_ROLE_SERVER */
  81:.\Generated_Source\PSoC4/BLE_eventHandler.c **** 
  82:.\Generated_Source\PSoC4/BLE_eventHandler.c **** #if(CYBLE_GATT_ROLE_CLIENT)
  83:.\Generated_Source\PSoC4/BLE_eventHandler.c **** uint8 cyBle_disCount; /* Counter for discovery procedures */
  84:.\Generated_Source\PSoC4/BLE_eventHandler.c **** static CYBLE_GATT_DB_ATTR_HANDLE_T cyBle_charEndHandle;
  85:.\Generated_Source\PSoC4/BLE_eventHandler.c **** /* Discovery included service information, used for 128-bit UUID read response handle 
  86:.\Generated_Source\PSoC4/BLE_eventHandler.c ****    and for continue discovery. 
  87:.\Generated_Source\PSoC4/BLE_eventHandler.c **** */
  88:.\Generated_Source\PSoC4/BLE_eventHandler.c **** static CYBLE_DISC_INCL_INFO_T cyBle_discInclInfo;
  89:.\Generated_Source\PSoC4/BLE_eventHandler.c **** #ifdef CYBLE_HIDS_CLIENT
  90:.\Generated_Source\PSoC4/BLE_eventHandler.c ****     static uint8 disServiceIndex;      /* To discovery descriptors for multiple HID service instanc
  91:.\Generated_Source\PSoC4/BLE_eventHandler.c **** #endif /* CYBLE_HIDS_CLIENT */
  92:.\Generated_Source\PSoC4/BLE_eventHandler.c **** 
  93:.\Generated_Source\PSoC4/BLE_eventHandler.c **** CYBLE_DISC_SRVC_INFO_T cyBle_serverInfo[CYBLE_SRVI_COUNT] = /*4*/
  94:.\Generated_Source\PSoC4/BLE_eventHandler.c **** {
  95:.\Generated_Source\PSoC4/BLE_eventHandler.c ****     {{CYBLE_GATT_INVALID_ATTR_HANDLE_VALUE, CYBLE_GATT_INVALID_ATTR_HANDLE_VALUE}, CYBLE_UUID_GAP_S
  96:.\Generated_Source\PSoC4/BLE_eventHandler.c ****     {{CYBLE_GATT_INVALID_ATTR_HANDLE_VALUE, CYBLE_GATT_INVALID_ATTR_HANDLE_VALUE}, CYBLE_UUID_GATT_
  97:.\Generated_Source\PSoC4/BLE_eventHandler.c **** #ifdef CYBLE_ANCS_CLIENT
  98:.\Generated_Source\PSoC4/BLE_eventHandler.c ****     {{CYBLE_GATT_INVALID_ATTR_HANDLE_VALUE, CYBLE_GATT_INVALID_ATTR_HANDLE_VALUE}, 0x0000u},
  99:.\Generated_Source\PSoC4/BLE_eventHandler.c **** #endif /* CYBLE_ANCS_CLIENT */
 100:.\Generated_Source\PSoC4/BLE_eventHandler.c **** #ifdef CYBLE_ANS_CLIENT
 101:.\Generated_Source\PSoC4/BLE_eventHandler.c ****     {{CYBLE_GATT_INVALID_ATTR_HANDLE_VALUE, CYBLE_GATT_INVALID_ATTR_HANDLE_VALUE}, 
 102:.\Generated_Source\PSoC4/BLE_eventHandler.c ****         CYBLE_UUID_ALERT_NOTIFICATION_SERVICE},
 103:.\Generated_Source\PSoC4/BLE_eventHandler.c **** #endif /* CYBLE_ANS_CLIENT */
 104:.\Generated_Source\PSoC4/BLE_eventHandler.c **** #ifdef CYBLE_BAS_CLIENT
 105:.\Generated_Source\PSoC4/BLE_eventHandler.c ****     {{CYBLE_GATT_INVALID_ATTR_HANDLE_VALUE, CYBLE_GATT_INVALID_ATTR_HANDLE_VALUE}, CYBLE_UUID_BAS_S
 106:.\Generated_Source\PSoC4/BLE_eventHandler.c ****     #if(CYBLE_BASC_SERVICE_COUNT > 1u) /* Generate it by GUI */
 107:.\Generated_Source\PSoC4/BLE_eventHandler.c ****         
 108:.\Generated_Source\PSoC4/BLE_eventHandler.c ****     #endif /* CYBLE_BASC_SERVICE_COUNT > 1u */
 109:.\Generated_Source\PSoC4/BLE_eventHandler.c **** #endif /* CYBLE_BAS_CLIENT */
 110:.\Generated_Source\PSoC4/BLE_eventHandler.c **** #ifdef CYBLE_BLS_CLIENT
 111:.\Generated_Source\PSoC4/BLE_eventHandler.c ****     {{CYBLE_GATT_INVALID_ATTR_HANDLE_VALUE, CYBLE_GATT_INVALID_ATTR_HANDLE_VALUE}, CYBLE_UUID_BLOOD
 112:.\Generated_Source\PSoC4/BLE_eventHandler.c **** #endif /* CYBLE_BLS_CLIENT */
 113:.\Generated_Source\PSoC4/BLE_eventHandler.c **** #ifdef CYBLE_BMS_CLIENT
 114:.\Generated_Source\PSoC4/BLE_eventHandler.c ****     {{CYBLE_GATT_INVALID_ATTR_HANDLE_VALUE, CYBLE_GATT_INVALID_ATTR_HANDLE_VALUE}, CYBLE_UUID_BOND_
 115:.\Generated_Source\PSoC4/BLE_eventHandler.c **** #endif /* CYBLE_BMS_CLIENT */
 116:.\Generated_Source\PSoC4/BLE_eventHandler.c **** #ifdef CYBLE_CGMS_CLIENT
 117:.\Generated_Source\PSoC4/BLE_eventHandler.c ****     {{CYBLE_GATT_INVALID_ATTR_HANDLE_VALUE, CYBLE_GATT_INVALID_ATTR_HANDLE_VALUE}, CYBLE_UUID_CGM_S
 118:.\Generated_Source\PSoC4/BLE_eventHandler.c **** #endif /* CYBLE_CGMS_CLIENT */
 119:.\Generated_Source\PSoC4/BLE_eventHandler.c **** #ifdef CYBLE_CPS_CLIENT
 120:.\Generated_Source\PSoC4/BLE_eventHandler.c ****     {{CYBLE_GATT_INVALID_ATTR_HANDLE_VALUE, CYBLE_GATT_INVALID_ATTR_HANDLE_VALUE}, CYBLE_UUID_CPS_S
 121:.\Generated_Source\PSoC4/BLE_eventHandler.c **** #endif /* CYBLE_CPS_CLIENT */
 122:.\Generated_Source\PSoC4/BLE_eventHandler.c **** #ifdef CYBLE_CSCS_CLIENT
 123:.\Generated_Source\PSoC4/BLE_eventHandler.c ****     {{CYBLE_GATT_INVALID_ATTR_HANDLE_VALUE, CYBLE_GATT_INVALID_ATTR_HANDLE_VALUE}, 
 124:.\Generated_Source\PSoC4/BLE_eventHandler.c ****         CYBLE_UUID_CYCLING_SPEED_AND_CADENCE_SERVICE},
 125:.\Generated_Source\PSoC4/BLE_eventHandler.c **** #endif /* CYBLE_CSCS_CLIENT */
 126:.\Generated_Source\PSoC4/BLE_eventHandler.c **** #ifdef CYBLE_CTS_CLIENT
 127:.\Generated_Source\PSoC4/BLE_eventHandler.c ****     {{CYBLE_GATT_INVALID_ATTR_HANDLE_VALUE, CYBLE_GATT_INVALID_ATTR_HANDLE_VALUE}, CYBLE_UUID_CURRE
 128:.\Generated_Source\PSoC4/BLE_eventHandler.c **** #endif /* CYBLE_CTS_CLIENT */
 129:.\Generated_Source\PSoC4/BLE_eventHandler.c **** #ifdef CYBLE_CUSTOM_CLIENT
 130:.\Generated_Source\PSoC4/BLE_eventHandler.c ****     
 131:.\Generated_Source\PSoC4/BLE_eventHandler.c **** #endif /* CYBLE_CUSTOM_CLIENT */
 132:.\Generated_Source\PSoC4/BLE_eventHandler.c **** #ifdef CYBLE_DIS_CLIENT
 133:.\Generated_Source\PSoC4/BLE_eventHandler.c ****     {{CYBLE_GATT_INVALID_ATTR_HANDLE_VALUE, CYBLE_GATT_INVALID_ATTR_HANDLE_VALUE}, CYBLE_UUID_DEVIC
ARM GAS  C:\Users\KEVINH~1\AppData\Local\Temp\ccC6tirb.s 			page 4


 134:.\Generated_Source\PSoC4/BLE_eventHandler.c **** #endif /* CYBLE_DIS_CLIENT */
 135:.\Generated_Source\PSoC4/BLE_eventHandler.c **** #ifdef CYBLE_ESS_CLIENT
 136:.\Generated_Source\PSoC4/BLE_eventHandler.c ****     {{CYBLE_GATT_INVALID_ATTR_HANDLE_VALUE, CYBLE_GATT_INVALID_ATTR_HANDLE_VALUE}, 
 137:.\Generated_Source\PSoC4/BLE_eventHandler.c ****         CYBLE_UUID_ENVIRONMENTAL_SENSING_SERVICE},
 138:.\Generated_Source\PSoC4/BLE_eventHandler.c **** #endif /* CYBLE_ESS_CLIENT */
 139:.\Generated_Source\PSoC4/BLE_eventHandler.c **** #ifdef CYBLE_GLS_CLIENT
 140:.\Generated_Source\PSoC4/BLE_eventHandler.c ****     {{CYBLE_GATT_INVALID_ATTR_HANDLE_VALUE, CYBLE_GATT_INVALID_ATTR_HANDLE_VALUE}, CYBLE_UUID_GLUCO
 141:.\Generated_Source\PSoC4/BLE_eventHandler.c **** #endif /* CYBLE_GLS_CLIENT */
 142:.\Generated_Source\PSoC4/BLE_eventHandler.c **** #ifdef CYBLE_HIDS_CLIENT
 143:.\Generated_Source\PSoC4/BLE_eventHandler.c ****     {{CYBLE_GATT_INVALID_ATTR_HANDLE_VALUE, CYBLE_GATT_INVALID_ATTR_HANDLE_VALUE}, CYBLE_UUID_HIDS_
 144:.\Generated_Source\PSoC4/BLE_eventHandler.c ****     #if(CYBLE_HIDSC_SERVICE_COUNT > 1u) /* Generate it by GUI */
 145:.\Generated_Source\PSoC4/BLE_eventHandler.c ****         
 146:.\Generated_Source\PSoC4/BLE_eventHandler.c ****     #endif /* CYBLE_HIDSC_SERVICE_COUNT > 1u */
 147:.\Generated_Source\PSoC4/BLE_eventHandler.c **** #endif /* CYBLE_HIDS_CLIENT */
 148:.\Generated_Source\PSoC4/BLE_eventHandler.c **** #ifdef CYBLE_HRS_CLIENT
 149:.\Generated_Source\PSoC4/BLE_eventHandler.c ****     {{CYBLE_GATT_INVALID_ATTR_HANDLE_VALUE, CYBLE_GATT_INVALID_ATTR_HANDLE_VALUE}, CYBLE_UUID_HEART
 150:.\Generated_Source\PSoC4/BLE_eventHandler.c **** #endif /* CYBLE_HRS_CLIENT */
 151:.\Generated_Source\PSoC4/BLE_eventHandler.c **** #ifdef CYBLE_HTS_CLIENT
 152:.\Generated_Source\PSoC4/BLE_eventHandler.c ****     {{CYBLE_GATT_INVALID_ATTR_HANDLE_VALUE, CYBLE_GATT_INVALID_ATTR_HANDLE_VALUE}, CYBLE_UUID_HEALT
 153:.\Generated_Source\PSoC4/BLE_eventHandler.c **** #endif /* CYBLE_HTS_CLIENT */
 154:.\Generated_Source\PSoC4/BLE_eventHandler.c **** #ifdef CYBLE_IAS_CLIENT
 155:.\Generated_Source\PSoC4/BLE_eventHandler.c ****     {{CYBLE_GATT_INVALID_ATTR_HANDLE_VALUE, CYBLE_GATT_INVALID_ATTR_HANDLE_VALUE}, CYBLE_UUID_IMMED
 156:.\Generated_Source\PSoC4/BLE_eventHandler.c **** #endif /* CYBLE_IAS_CLIENT */
 157:.\Generated_Source\PSoC4/BLE_eventHandler.c **** #ifdef CYBLE_LLS_CLIENT
 158:.\Generated_Source\PSoC4/BLE_eventHandler.c ****     {{CYBLE_GATT_INVALID_ATTR_HANDLE_VALUE, CYBLE_GATT_INVALID_ATTR_HANDLE_VALUE}, CYBLE_UUID_LINK_
 159:.\Generated_Source\PSoC4/BLE_eventHandler.c **** #endif /* CYBLE_LLS_CLIENT */
 160:.\Generated_Source\PSoC4/BLE_eventHandler.c **** #ifdef CYBLE_LNS_CLIENT
 161:.\Generated_Source\PSoC4/BLE_eventHandler.c ****     {{CYBLE_GATT_INVALID_ATTR_HANDLE_VALUE, CYBLE_GATT_INVALID_ATTR_HANDLE_VALUE}, CYBLE_UUID_LOCAT
 162:.\Generated_Source\PSoC4/BLE_eventHandler.c **** #endif /* CYBLE_LNS_CLIENT */
 163:.\Generated_Source\PSoC4/BLE_eventHandler.c **** #ifdef CYBLE_NDCS_CLIENT
 164:.\Generated_Source\PSoC4/BLE_eventHandler.c ****     {{CYBLE_GATT_INVALID_ATTR_HANDLE_VALUE, CYBLE_GATT_INVALID_ATTR_HANDLE_VALUE}, CYBLE_UUID_NEXT_
 165:.\Generated_Source\PSoC4/BLE_eventHandler.c **** #endif /* CYBLE_NDCS_CLIENT */
 166:.\Generated_Source\PSoC4/BLE_eventHandler.c **** #ifdef CYBLE_IPSS_CLIENT
 167:.\Generated_Source\PSoC4/BLE_eventHandler.c ****     {{CYBLE_GATT_INVALID_ATTR_HANDLE_VALUE, CYBLE_GATT_INVALID_ATTR_HANDLE_VALUE}, CYBLE_UUID_INTER
 168:.\Generated_Source\PSoC4/BLE_eventHandler.c **** #endif /* CYBLE_IPSS_CLIENT */
 169:.\Generated_Source\PSoC4/BLE_eventHandler.c **** #ifdef CYBLE_PASS_CLIENT
 170:.\Generated_Source\PSoC4/BLE_eventHandler.c ****     {{CYBLE_GATT_INVALID_ATTR_HANDLE_VALUE, CYBLE_GATT_INVALID_ATTR_HANDLE_VALUE}, CYBLE_UUID_PHONE
 171:.\Generated_Source\PSoC4/BLE_eventHandler.c **** #endif /* CYBLE_PASS_CLIENT */
 172:.\Generated_Source\PSoC4/BLE_eventHandler.c **** #ifdef CYBLE_RSCS_CLIENT
 173:.\Generated_Source\PSoC4/BLE_eventHandler.c ****     {{CYBLE_GATT_INVALID_ATTR_HANDLE_VALUE, CYBLE_GATT_INVALID_ATTR_HANDLE_VALUE}, CYBLE_UUID_RUNNI
 174:.\Generated_Source\PSoC4/BLE_eventHandler.c **** #endif /* CYBLE_RSCS_CLIENT */
 175:.\Generated_Source\PSoC4/BLE_eventHandler.c **** #ifdef CYBLE_RTUS_CLIENT
 176:.\Generated_Source\PSoC4/BLE_eventHandler.c ****     {{CYBLE_GATT_INVALID_ATTR_HANDLE_VALUE, CYBLE_GATT_INVALID_ATTR_HANDLE_VALUE}, CYBLE_UUID_REF_T
 177:.\Generated_Source\PSoC4/BLE_eventHandler.c **** #endif /* CYBLE_RTUS_CLIENT */
 178:.\Generated_Source\PSoC4/BLE_eventHandler.c **** #ifdef CYBLE_SCPS_CLIENT
 179:.\Generated_Source\PSoC4/BLE_eventHandler.c ****     {{CYBLE_GATT_INVALID_ATTR_HANDLE_VALUE, CYBLE_GATT_INVALID_ATTR_HANDLE_VALUE}, CYBLE_UUID_SCAN_
 180:.\Generated_Source\PSoC4/BLE_eventHandler.c **** #endif /* CYBLE_SCPS_CLIENT */
 181:.\Generated_Source\PSoC4/BLE_eventHandler.c **** #ifdef CYBLE_TPS_CLIENT
 182:.\Generated_Source\PSoC4/BLE_eventHandler.c ****     {{CYBLE_GATT_INVALID_ATTR_HANDLE_VALUE, CYBLE_GATT_INVALID_ATTR_HANDLE_VALUE}, CYBLE_UUID_TX_PO
 183:.\Generated_Source\PSoC4/BLE_eventHandler.c **** #endif /* CYBLE_TPS_CLIENT */
 184:.\Generated_Source\PSoC4/BLE_eventHandler.c **** #ifdef CYBLE_UDS_CLIENT
 185:.\Generated_Source\PSoC4/BLE_eventHandler.c ****     {{CYBLE_GATT_INVALID_ATTR_HANDLE_VALUE, CYBLE_GATT_INVALID_ATTR_HANDLE_VALUE}, CYBLE_UUID_USER_
 186:.\Generated_Source\PSoC4/BLE_eventHandler.c **** #endif /* CYBLE_UDS_CLIENT */
 187:.\Generated_Source\PSoC4/BLE_eventHandler.c **** #ifdef CYBLE_WPTS_CLIENT
 188:.\Generated_Source\PSoC4/BLE_eventHandler.c ****     {{CYBLE_GATT_INVALID_ATTR_HANDLE_VALUE, CYBLE_GATT_INVALID_ATTR_HANDLE_VALUE}, CYBLE_UUID_WIREL
 189:.\Generated_Source\PSoC4/BLE_eventHandler.c **** #endif /* CYBLE_WPTS_CLIENT */
 190:.\Generated_Source\PSoC4/BLE_eventHandler.c **** };
ARM GAS  C:\Users\KEVINH~1\AppData\Local\Temp\ccC6tirb.s 			page 5


 191:.\Generated_Source\PSoC4/BLE_eventHandler.c **** 
 192:.\Generated_Source\PSoC4/BLE_eventHandler.c **** CYBLE_GAPC_T cyBle_gapc;
 193:.\Generated_Source\PSoC4/BLE_eventHandler.c **** 
 194:.\Generated_Source\PSoC4/BLE_eventHandler.c **** #endif /* CYBLE_GATT_ROLE_CLIENT */
 195:.\Generated_Source\PSoC4/BLE_eventHandler.c **** 
 196:.\Generated_Source\PSoC4/BLE_eventHandler.c **** /* Default device security */
 197:.\Generated_Source\PSoC4/BLE_eventHandler.c **** CYBLE_GAP_AUTH_INFO_T cyBle_authInfo =
 198:.\Generated_Source\PSoC4/BLE_eventHandler.c **** {
 199:.\Generated_Source\PSoC4/BLE_eventHandler.c ****     (CYBLE_GAP_SEC_MODE_1 | CYBLE_GAP_SEC_LEVEL_1 ), /* uint8 security */
 200:.\Generated_Source\PSoC4/BLE_eventHandler.c ****     CYBLE_GAP_BONDING_NONE, /* uint8 bonding */
 201:.\Generated_Source\PSoC4/BLE_eventHandler.c ****     0x10u,      /* uint8 ekeySize */
 202:.\Generated_Source\PSoC4/BLE_eventHandler.c ****     CYBLE_GAP_AUTH_ERROR_NONE, /* CYBLE_AUTH_FAILED_REASON_T authErr */
 203:.\Generated_Source\PSoC4/BLE_eventHandler.c **** };
 204:.\Generated_Source\PSoC4/BLE_eventHandler.c **** 
 205:.\Generated_Source\PSoC4/BLE_eventHandler.c **** #if(CYBLE_GATT_ROLE_SERVER)
 206:.\Generated_Source\PSoC4/BLE_eventHandler.c **** 
 207:.\Generated_Source\PSoC4/BLE_eventHandler.c **** 
 208:.\Generated_Source\PSoC4/BLE_eventHandler.c **** /******************************************************************************    
 209:.\Generated_Source\PSoC4/BLE_eventHandler.c **** ##Function Name: CyBle_WriteReqHandler
 210:.\Generated_Source\PSoC4/BLE_eventHandler.c **** *******************************************************************************
 211:.\Generated_Source\PSoC4/BLE_eventHandler.c **** 
 212:.\Generated_Source\PSoC4/BLE_eventHandler.c **** Summary:
 213:.\Generated_Source\PSoC4/BLE_eventHandler.c ****  Handles the Write Request event from BLE stack.
 214:.\Generated_Source\PSoC4/BLE_eventHandler.c **** 
 215:.\Generated_Source\PSoC4/BLE_eventHandler.c **** Parameters:
 216:.\Generated_Source\PSoC4/BLE_eventHandler.c ****  CYBLE_GATTS_WRITE_REQ_PARAM_T * eventParam - event parameter
 217:.\Generated_Source\PSoC4/BLE_eventHandler.c **** 
 218:.\Generated_Source\PSoC4/BLE_eventHandler.c **** Return:
 219:.\Generated_Source\PSoC4/BLE_eventHandler.c ****  None
 220:.\Generated_Source\PSoC4/BLE_eventHandler.c **** 
 221:.\Generated_Source\PSoC4/BLE_eventHandler.c **** ******************************************************************************/
 222:.\Generated_Source\PSoC4/BLE_eventHandler.c **** static void CyBle_WriteReqHandler(CYBLE_GATTS_WRITE_REQ_PARAM_T *eventParam)
 223:.\Generated_Source\PSoC4/BLE_eventHandler.c **** {
  39              		.loc 1 223 0
  40              		.cfi_startproc
  41 0000 90B5     		push	{r4, r7, lr}
  42              		.cfi_def_cfa_offset 12
  43              		.cfi_offset 4, -12
  44              		.cfi_offset 7, -8
  45              		.cfi_offset 14, -4
  46 0002 85B0     		sub	sp, sp, #20
  47              		.cfi_def_cfa_offset 32
  48 0004 00AF     		add	r7, sp, #0
  49              		.cfi_def_cfa_register 7
  50 0006 7860     		str	r0, [r7, #4]
 224:.\Generated_Source\PSoC4/BLE_eventHandler.c ****     CYBLE_GATT_ERR_CODE_T gattErr;
 225:.\Generated_Source\PSoC4/BLE_eventHandler.c **** #if defined CYBLE_CTS_SERVER || defined CYBLE_ESS_SERVER
 226:.\Generated_Source\PSoC4/BLE_eventHandler.c ****     cyBle_gattError = CYBLE_GATT_ERR_NONE;
 227:.\Generated_Source\PSoC4/BLE_eventHandler.c **** #endif /* defined CYBLE_CTS_SERVER || defined CYBLE_ESS_SERVER */
 228:.\Generated_Source\PSoC4/BLE_eventHandler.c ****     
 229:.\Generated_Source\PSoC4/BLE_eventHandler.c ****     gattErr = CyBle_GattsWriteEventHandler(eventParam);
  51              		.loc 1 229 0
  52 0008 3C1C     		mov	r4, r7
  53 000a 0F34     		add	r4, r4, #15
  54 000c 7B68     		ldr	r3, [r7, #4]
  55 000e 181C     		mov	r0, r3
  56 0010 FFF7FEFF 		bl	CyBle_GattsWriteEventHandler
ARM GAS  C:\Users\KEVINH~1\AppData\Local\Temp\ccC6tirb.s 			page 6


  57 0014 031C     		mov	r3, r0
  58 0016 2370     		strb	r3, [r4]
 230:.\Generated_Source\PSoC4/BLE_eventHandler.c **** #ifdef CYBLE_ANCS_SERVER
 231:.\Generated_Source\PSoC4/BLE_eventHandler.c ****     if(((cyBle_eventHandlerFlag & CYBLE_CALLBACK) != 0u) && (gattErr == CYBLE_GATT_ERR_NONE))
 232:.\Generated_Source\PSoC4/BLE_eventHandler.c ****     {
 233:.\Generated_Source\PSoC4/BLE_eventHandler.c ****         gattErr = CyBle_AncssWriteEventHandler(eventParam);
 234:.\Generated_Source\PSoC4/BLE_eventHandler.c ****     }
 235:.\Generated_Source\PSoC4/BLE_eventHandler.c **** #endif /* CYBLE_ANCS_SERVER */
 236:.\Generated_Source\PSoC4/BLE_eventHandler.c **** #ifdef CYBLE_ANS_SERVER
 237:.\Generated_Source\PSoC4/BLE_eventHandler.c ****     if(((cyBle_eventHandlerFlag & CYBLE_CALLBACK) != 0u) && (gattErr == CYBLE_GATT_ERR_NONE))
 238:.\Generated_Source\PSoC4/BLE_eventHandler.c ****     {
 239:.\Generated_Source\PSoC4/BLE_eventHandler.c ****         gattErr = CyBle_AnssWriteEventHandler(eventParam);
 240:.\Generated_Source\PSoC4/BLE_eventHandler.c ****     }
 241:.\Generated_Source\PSoC4/BLE_eventHandler.c **** #endif /* CYBLE_ANS_SERVER */
 242:.\Generated_Source\PSoC4/BLE_eventHandler.c **** #ifdef CYBLE_BAS_SERVER
 243:.\Generated_Source\PSoC4/BLE_eventHandler.c ****     if(((cyBle_eventHandlerFlag & CYBLE_CALLBACK) != 0u) && (gattErr == CYBLE_GATT_ERR_NONE))
 244:.\Generated_Source\PSoC4/BLE_eventHandler.c ****     {
 245:.\Generated_Source\PSoC4/BLE_eventHandler.c ****         gattErr = CyBle_BassWriteEventHandler(eventParam);
 246:.\Generated_Source\PSoC4/BLE_eventHandler.c ****     }
 247:.\Generated_Source\PSoC4/BLE_eventHandler.c **** #endif /* CYBLE_BAS_SERVER */
 248:.\Generated_Source\PSoC4/BLE_eventHandler.c **** #ifdef CYBLE_BLS_SERVER
 249:.\Generated_Source\PSoC4/BLE_eventHandler.c ****     if(((cyBle_eventHandlerFlag & CYBLE_CALLBACK) != 0u) && (gattErr == CYBLE_GATT_ERR_NONE))
 250:.\Generated_Source\PSoC4/BLE_eventHandler.c ****     {
 251:.\Generated_Source\PSoC4/BLE_eventHandler.c ****         gattErr = CyBle_BlssWriteEventHandler(eventParam);
 252:.\Generated_Source\PSoC4/BLE_eventHandler.c ****     }
 253:.\Generated_Source\PSoC4/BLE_eventHandler.c **** #endif /* CYBLE_BLS_SERVER */
 254:.\Generated_Source\PSoC4/BLE_eventHandler.c **** #ifdef CYBLE_BMS_SERVER
 255:.\Generated_Source\PSoC4/BLE_eventHandler.c ****     if(((cyBle_eventHandlerFlag & CYBLE_CALLBACK) != 0u) && (gattErr == CYBLE_GATT_ERR_NONE))
 256:.\Generated_Source\PSoC4/BLE_eventHandler.c ****     {
 257:.\Generated_Source\PSoC4/BLE_eventHandler.c ****         gattErr = CyBle_BmssWriteEventHandler(eventParam);
 258:.\Generated_Source\PSoC4/BLE_eventHandler.c ****     }
 259:.\Generated_Source\PSoC4/BLE_eventHandler.c **** #endif /* CYBLE_BMS_SERVER */
 260:.\Generated_Source\PSoC4/BLE_eventHandler.c **** #ifdef CYBLE_BTS_SERVER
 261:.\Generated_Source\PSoC4/BLE_eventHandler.c ****     if((cyBle_eventHandlerFlag & CYBLE_CALLBACK) != 0u)
 262:.\Generated_Source\PSoC4/BLE_eventHandler.c ****     {
 263:.\Generated_Source\PSoC4/BLE_eventHandler.c ****         gattErr = CyBle_BtsWriteEventHandler(eventParam);
 264:.\Generated_Source\PSoC4/BLE_eventHandler.c ****     }
 265:.\Generated_Source\PSoC4/BLE_eventHandler.c **** #endif /* CYBLE_BTS_SERVER */
 266:.\Generated_Source\PSoC4/BLE_eventHandler.c **** #ifdef CYBLE_CGMS_SERVER
 267:.\Generated_Source\PSoC4/BLE_eventHandler.c ****     if(((cyBle_eventHandlerFlag & CYBLE_CALLBACK) != 0u) && (gattErr == CYBLE_GATT_ERR_NONE))
 268:.\Generated_Source\PSoC4/BLE_eventHandler.c ****     {
 269:.\Generated_Source\PSoC4/BLE_eventHandler.c ****         gattErr = CyBle_CgmssWriteEventHandler(eventParam);
 270:.\Generated_Source\PSoC4/BLE_eventHandler.c ****     }
 271:.\Generated_Source\PSoC4/BLE_eventHandler.c **** #endif /* CYBLE_CGMS_SERVER */
 272:.\Generated_Source\PSoC4/BLE_eventHandler.c **** #ifdef CYBLE_CPS_SERVER
 273:.\Generated_Source\PSoC4/BLE_eventHandler.c ****     if(((cyBle_eventHandlerFlag & CYBLE_CALLBACK) != 0u) && (gattErr == CYBLE_GATT_ERR_NONE))
 274:.\Generated_Source\PSoC4/BLE_eventHandler.c ****     {
 275:.\Generated_Source\PSoC4/BLE_eventHandler.c ****         gattErr = CyBle_CpssWriteEventHandler(eventParam);
 276:.\Generated_Source\PSoC4/BLE_eventHandler.c ****     }
 277:.\Generated_Source\PSoC4/BLE_eventHandler.c **** #endif /* CYBLE_CPS_SERVER */
 278:.\Generated_Source\PSoC4/BLE_eventHandler.c **** #ifdef CYBLE_CSCS_SERVER
 279:.\Generated_Source\PSoC4/BLE_eventHandler.c ****     if(((cyBle_eventHandlerFlag & CYBLE_CALLBACK) != 0u) && (gattErr == CYBLE_GATT_ERR_NONE))
 280:.\Generated_Source\PSoC4/BLE_eventHandler.c ****     {
 281:.\Generated_Source\PSoC4/BLE_eventHandler.c ****         gattErr = CyBle_CscssWriteEventHandler(eventParam);
 282:.\Generated_Source\PSoC4/BLE_eventHandler.c ****     }
 283:.\Generated_Source\PSoC4/BLE_eventHandler.c **** #endif /* CYBLE_CSCS_SERVER */
 284:.\Generated_Source\PSoC4/BLE_eventHandler.c **** #ifdef CYBLE_CTS_SERVER
ARM GAS  C:\Users\KEVINH~1\AppData\Local\Temp\ccC6tirb.s 			page 7


 285:.\Generated_Source\PSoC4/BLE_eventHandler.c ****     if(((cyBle_eventHandlerFlag & CYBLE_CALLBACK) != 0u) && (gattErr == CYBLE_GATT_ERR_NONE))
 286:.\Generated_Source\PSoC4/BLE_eventHandler.c ****     {
 287:.\Generated_Source\PSoC4/BLE_eventHandler.c ****         gattErr = CyBle_CtssWriteEventHandler(eventParam);
 288:.\Generated_Source\PSoC4/BLE_eventHandler.c ****     }
 289:.\Generated_Source\PSoC4/BLE_eventHandler.c **** #endif /* CYBLE_CTS_SERVER */
 290:.\Generated_Source\PSoC4/BLE_eventHandler.c **** #ifdef CYBLE_ESS_SERVER
 291:.\Generated_Source\PSoC4/BLE_eventHandler.c ****     if(((cyBle_eventHandlerFlag & CYBLE_CALLBACK) != 0u) && (gattErr == CYBLE_GATT_ERR_NONE))
 292:.\Generated_Source\PSoC4/BLE_eventHandler.c ****     {
 293:.\Generated_Source\PSoC4/BLE_eventHandler.c ****         gattErr = CyBle_EsssWriteEventHandler(eventParam);
 294:.\Generated_Source\PSoC4/BLE_eventHandler.c ****     }
 295:.\Generated_Source\PSoC4/BLE_eventHandler.c **** #endif /* CYBLE_ESS_SERVER */
 296:.\Generated_Source\PSoC4/BLE_eventHandler.c **** #ifdef CYBLE_GLS_SERVER
 297:.\Generated_Source\PSoC4/BLE_eventHandler.c ****     if(((cyBle_eventHandlerFlag & CYBLE_CALLBACK) != 0u) && (gattErr == CYBLE_GATT_ERR_NONE))
 298:.\Generated_Source\PSoC4/BLE_eventHandler.c ****     {
 299:.\Generated_Source\PSoC4/BLE_eventHandler.c ****         gattErr = CyBle_GlssWriteEventHandler(eventParam);
 300:.\Generated_Source\PSoC4/BLE_eventHandler.c ****     }
 301:.\Generated_Source\PSoC4/BLE_eventHandler.c **** #endif /* CYBLE_GLS_SERVER */
 302:.\Generated_Source\PSoC4/BLE_eventHandler.c **** #ifdef CYBLE_HIDS_SERVER
 303:.\Generated_Source\PSoC4/BLE_eventHandler.c ****     if(((cyBle_eventHandlerFlag & CYBLE_CALLBACK) != 0u) && (gattErr == CYBLE_GATT_ERR_NONE))
 304:.\Generated_Source\PSoC4/BLE_eventHandler.c ****     {
 305:.\Generated_Source\PSoC4/BLE_eventHandler.c ****         gattErr = CyBle_HidssWriteEventHandler(eventParam);
 306:.\Generated_Source\PSoC4/BLE_eventHandler.c ****     }
 307:.\Generated_Source\PSoC4/BLE_eventHandler.c **** #endif /* CYBLE_HIDS_SERVER */
 308:.\Generated_Source\PSoC4/BLE_eventHandler.c **** #ifdef CYBLE_HRS_SERVER
 309:.\Generated_Source\PSoC4/BLE_eventHandler.c ****     if(((cyBle_eventHandlerFlag & CYBLE_CALLBACK) != 0u) && (gattErr == CYBLE_GATT_ERR_NONE))
  59              		.loc 1 309 0
  60 0018 1E4B     		ldr	r3, .L5
  61 001a 1B78     		ldrb	r3, [r3]
  62 001c DBB2     		uxtb	r3, r3
  63 001e 1A1C     		mov	r2, r3
  64 0020 0123     		mov	r3, #1
  65 0022 1340     		and	r3, r2
  66 0024 0CD0     		beq	.L2
  67              		.loc 1 309 0 is_stmt 0 discriminator 1
  68 0026 3B1C     		mov	r3, r7
  69 0028 0F33     		add	r3, r3, #15
  70 002a 1B78     		ldrb	r3, [r3]
  71 002c 002B     		cmp	r3, #0
  72 002e 07D1     		bne	.L2
 310:.\Generated_Source\PSoC4/BLE_eventHandler.c ****     {
 311:.\Generated_Source\PSoC4/BLE_eventHandler.c ****         gattErr = CyBle_HrssWriteEventHandler(eventParam);
  73              		.loc 1 311 0 is_stmt 1
  74 0030 3C1C     		mov	r4, r7
  75 0032 0F34     		add	r4, r4, #15
  76 0034 7B68     		ldr	r3, [r7, #4]
  77 0036 181C     		mov	r0, r3
  78 0038 FFF7FEFF 		bl	CyBle_HrssWriteEventHandler
  79 003c 031C     		mov	r3, r0
  80 003e 2370     		strb	r3, [r4]
  81              	.L2:
 312:.\Generated_Source\PSoC4/BLE_eventHandler.c ****     }
 313:.\Generated_Source\PSoC4/BLE_eventHandler.c **** #endif /* CYBLE_HRS_SERVER */
 314:.\Generated_Source\PSoC4/BLE_eventHandler.c **** #ifdef CYBLE_HTS_SERVER
 315:.\Generated_Source\PSoC4/BLE_eventHandler.c ****     if(((cyBle_eventHandlerFlag & CYBLE_CALLBACK) != 0u) && (gattErr == CYBLE_GATT_ERR_NONE))
 316:.\Generated_Source\PSoC4/BLE_eventHandler.c ****     {
 317:.\Generated_Source\PSoC4/BLE_eventHandler.c ****         gattErr = CyBle_HtssWriteEventHandler(eventParam);
 318:.\Generated_Source\PSoC4/BLE_eventHandler.c ****     }
ARM GAS  C:\Users\KEVINH~1\AppData\Local\Temp\ccC6tirb.s 			page 8


 319:.\Generated_Source\PSoC4/BLE_eventHandler.c **** #endif /* CYBLE_HTS_SERVER */
 320:.\Generated_Source\PSoC4/BLE_eventHandler.c **** #ifdef CYBLE_LLS_SERVER
 321:.\Generated_Source\PSoC4/BLE_eventHandler.c ****     if(((cyBle_eventHandlerFlag & CYBLE_CALLBACK) != 0u) && (gattErr == CYBLE_GATT_ERR_NONE))
 322:.\Generated_Source\PSoC4/BLE_eventHandler.c ****     {
 323:.\Generated_Source\PSoC4/BLE_eventHandler.c ****         gattErr = CyBle_LlssWriteEventHandler(eventParam);
 324:.\Generated_Source\PSoC4/BLE_eventHandler.c ****     }
 325:.\Generated_Source\PSoC4/BLE_eventHandler.c **** #endif /* CYBLE_LLS_SERVER */
 326:.\Generated_Source\PSoC4/BLE_eventHandler.c **** #ifdef CYBLE_LNS_SERVER
 327:.\Generated_Source\PSoC4/BLE_eventHandler.c ****     if(((cyBle_eventHandlerFlag & CYBLE_CALLBACK) != 0u) && (gattErr == CYBLE_GATT_ERR_NONE))
 328:.\Generated_Source\PSoC4/BLE_eventHandler.c ****     {
 329:.\Generated_Source\PSoC4/BLE_eventHandler.c ****         gattErr = CyBle_LnssWriteEventHandler(eventParam);
 330:.\Generated_Source\PSoC4/BLE_eventHandler.c ****     }
 331:.\Generated_Source\PSoC4/BLE_eventHandler.c **** #endif /* CYBLE_LNS_SERVER */
 332:.\Generated_Source\PSoC4/BLE_eventHandler.c **** #ifdef CYBLE_PASS_SERVER
 333:.\Generated_Source\PSoC4/BLE_eventHandler.c ****     if(((cyBle_eventHandlerFlag & CYBLE_CALLBACK) != 0u) && (gattErr == CYBLE_GATT_ERR_NONE))
 334:.\Generated_Source\PSoC4/BLE_eventHandler.c ****     {
 335:.\Generated_Source\PSoC4/BLE_eventHandler.c ****         gattErr = CyBle_PasssWriteEventHandler(eventParam);
 336:.\Generated_Source\PSoC4/BLE_eventHandler.c ****     }
 337:.\Generated_Source\PSoC4/BLE_eventHandler.c **** #endif /* CYBLE_PASS_SERVER */
 338:.\Generated_Source\PSoC4/BLE_eventHandler.c **** #ifdef CYBLE_RSCS_SERVER
 339:.\Generated_Source\PSoC4/BLE_eventHandler.c ****     if(((cyBle_eventHandlerFlag & CYBLE_CALLBACK) != 0u) && (gattErr == CYBLE_GATT_ERR_NONE))
 340:.\Generated_Source\PSoC4/BLE_eventHandler.c ****     {
 341:.\Generated_Source\PSoC4/BLE_eventHandler.c ****         gattErr = CyBle_RscssWriteEventHandler(eventParam);
 342:.\Generated_Source\PSoC4/BLE_eventHandler.c ****     }
 343:.\Generated_Source\PSoC4/BLE_eventHandler.c **** #endif /* CYBLE_RSCS_SERVER */
 344:.\Generated_Source\PSoC4/BLE_eventHandler.c **** #ifdef CYBLE_SCPS_SERVER
 345:.\Generated_Source\PSoC4/BLE_eventHandler.c ****     if(((cyBle_eventHandlerFlag & CYBLE_CALLBACK) != 0u) && (gattErr == CYBLE_GATT_ERR_NONE))
 346:.\Generated_Source\PSoC4/BLE_eventHandler.c ****     {
 347:.\Generated_Source\PSoC4/BLE_eventHandler.c ****         gattErr = CyBle_ScpssWriteEventHandler(eventParam);
 348:.\Generated_Source\PSoC4/BLE_eventHandler.c ****     }
 349:.\Generated_Source\PSoC4/BLE_eventHandler.c **** #endif /* CYBLE_SCPS_SERVER */
 350:.\Generated_Source\PSoC4/BLE_eventHandler.c **** #ifdef CYBLE_TPS_SERVER
 351:.\Generated_Source\PSoC4/BLE_eventHandler.c ****     if(((cyBle_eventHandlerFlag & CYBLE_CALLBACK) != 0u) && (gattErr == CYBLE_GATT_ERR_NONE))
 352:.\Generated_Source\PSoC4/BLE_eventHandler.c ****     {
 353:.\Generated_Source\PSoC4/BLE_eventHandler.c ****         gattErr = CyBle_TpssWriteEventHandler(eventParam);
 354:.\Generated_Source\PSoC4/BLE_eventHandler.c ****     }
 355:.\Generated_Source\PSoC4/BLE_eventHandler.c **** #endif /* CYBLE_TPS_SERVER */
 356:.\Generated_Source\PSoC4/BLE_eventHandler.c **** #ifdef CYBLE_UDS_SERVER
 357:.\Generated_Source\PSoC4/BLE_eventHandler.c ****     if(((cyBle_eventHandlerFlag & CYBLE_CALLBACK) != 0u) && (gattErr == CYBLE_GATT_ERR_NONE))
 358:.\Generated_Source\PSoC4/BLE_eventHandler.c ****     {
 359:.\Generated_Source\PSoC4/BLE_eventHandler.c ****         gattErr = CyBle_UdssWriteEventHandler(eventParam);
 360:.\Generated_Source\PSoC4/BLE_eventHandler.c ****     }
 361:.\Generated_Source\PSoC4/BLE_eventHandler.c **** #endif /* CYBLE_UDS_SERVER */
 362:.\Generated_Source\PSoC4/BLE_eventHandler.c **** #ifdef CYBLE_WPTS_SERVER
 363:.\Generated_Source\PSoC4/BLE_eventHandler.c ****     if(((cyBle_eventHandlerFlag & CYBLE_CALLBACK) != 0u) && (gattErr == CYBLE_GATT_ERR_NONE))
 364:.\Generated_Source\PSoC4/BLE_eventHandler.c ****     {
 365:.\Generated_Source\PSoC4/BLE_eventHandler.c ****         gattErr = CyBle_WptssWriteEventHandler(eventParam);
 366:.\Generated_Source\PSoC4/BLE_eventHandler.c ****     }
 367:.\Generated_Source\PSoC4/BLE_eventHandler.c **** #endif /* CYBLE_WPTS_SERVER */
 368:.\Generated_Source\PSoC4/BLE_eventHandler.c **** #ifdef CYBLE_WSS_SERVER
 369:.\Generated_Source\PSoC4/BLE_eventHandler.c ****     if(((cyBle_eventHandlerFlag & CYBLE_CALLBACK) != 0u) && (gattErr == CYBLE_GATT_ERR_NONE))
 370:.\Generated_Source\PSoC4/BLE_eventHandler.c ****     {
 371:.\Generated_Source\PSoC4/BLE_eventHandler.c ****         gattErr = CyBle_WsssWriteEventHandler(eventParam);
 372:.\Generated_Source\PSoC4/BLE_eventHandler.c ****     }
 373:.\Generated_Source\PSoC4/BLE_eventHandler.c **** #endif /* CYBLE_WSS_SERVER */
 374:.\Generated_Source\PSoC4/BLE_eventHandler.c **** 
 375:.\Generated_Source\PSoC4/BLE_eventHandler.c ****     /* Send response when event was handled by service */
ARM GAS  C:\Users\KEVINH~1\AppData\Local\Temp\ccC6tirb.s 			page 9


 376:.\Generated_Source\PSoC4/BLE_eventHandler.c ****     if((cyBle_eventHandlerFlag & CYBLE_CALLBACK) == 0u)
  82              		.loc 1 376 0
  83 0040 144B     		ldr	r3, .L5
  84 0042 1B78     		ldrb	r3, [r3]
  85 0044 DBB2     		uxtb	r3, r3
  86 0046 1A1C     		mov	r2, r3
  87 0048 0123     		mov	r3, #1
  88 004a 1340     		and	r3, r2
  89 004c 1FD1     		bne	.L1
 377:.\Generated_Source\PSoC4/BLE_eventHandler.c ****     {
 378:.\Generated_Source\PSoC4/BLE_eventHandler.c ****         if(gattErr != CYBLE_GATT_ERR_NONE)
  90              		.loc 1 378 0
  91 004e 3B1C     		mov	r3, r7
  92 0050 0F33     		add	r3, r3, #15
  93 0052 1B78     		ldrb	r3, [r3]
  94 0054 002B     		cmp	r3, #0
  95 0056 16D0     		beq	.L4
  96              	.LBB2:
 379:.\Generated_Source\PSoC4/BLE_eventHandler.c ****         {
 380:.\Generated_Source\PSoC4/BLE_eventHandler.c ****             CYBLE_GATTS_ERR_PARAM_T err_param;
 381:.\Generated_Source\PSoC4/BLE_eventHandler.c ****             
 382:.\Generated_Source\PSoC4/BLE_eventHandler.c ****             err_param.opcode = (uint8) CYBLE_GATT_WRITE_REQ;
  97              		.loc 1 382 0
  98 0058 3B1C     		mov	r3, r7
  99 005a 0833     		add	r3, r3, #8
 100 005c 1222     		mov	r2, #18
 101 005e 9A70     		strb	r2, [r3, #2]
 383:.\Generated_Source\PSoC4/BLE_eventHandler.c ****             err_param.attrHandle = eventParam->handleValPair.attrHandle;
 102              		.loc 1 383 0
 103 0060 7B68     		ldr	r3, [r7, #4]
 104 0062 9A89     		ldrh	r2, [r3, #12]
 105 0064 3B1C     		mov	r3, r7
 106 0066 0833     		add	r3, r3, #8
 107 0068 1A80     		strh	r2, [r3]
 384:.\Generated_Source\PSoC4/BLE_eventHandler.c ****             err_param.errorCode = gattErr;
 108              		.loc 1 384 0
 109 006a 3B1C     		mov	r3, r7
 110 006c 0833     		add	r3, r3, #8
 111 006e 3A1C     		mov	r2, r7
 112 0070 0F32     		add	r2, r2, #15
 113 0072 1278     		ldrb	r2, [r2]
 114 0074 DA70     		strb	r2, [r3, #3]
 385:.\Generated_Source\PSoC4/BLE_eventHandler.c **** 
 386:.\Generated_Source\PSoC4/BLE_eventHandler.c ****             /* Send Error Response */
 387:.\Generated_Source\PSoC4/BLE_eventHandler.c ****             (void)CyBle_GattsErrorRsp(eventParam->connHandle, &err_param);
 115              		.loc 1 387 0
 116 0076 7B68     		ldr	r3, [r7, #4]
 117 0078 3A1C     		mov	r2, r7
 118 007a 0832     		add	r2, r2, #8
 119 007c 1868     		ldr	r0, [r3]
 120 007e 111C     		mov	r1, r2
 121 0080 FFF7FEFF 		bl	CyBle_GattsErrorRsp
 122              	.LBE2:
 123 0084 03E0     		b	.L1
 124              	.L4:
 388:.\Generated_Source\PSoC4/BLE_eventHandler.c ****         }
 389:.\Generated_Source\PSoC4/BLE_eventHandler.c ****         else
ARM GAS  C:\Users\KEVINH~1\AppData\Local\Temp\ccC6tirb.s 			page 10


 390:.\Generated_Source\PSoC4/BLE_eventHandler.c ****         {
 391:.\Generated_Source\PSoC4/BLE_eventHandler.c ****             (void)CyBle_GattsWriteRsp(eventParam->connHandle);
 125              		.loc 1 391 0
 126 0086 7B68     		ldr	r3, [r7, #4]
 127 0088 1868     		ldr	r0, [r3]
 128 008a FFF7FEFF 		bl	CyBle_GattsWriteRsp
 129              	.L1:
 392:.\Generated_Source\PSoC4/BLE_eventHandler.c ****         }
 393:.\Generated_Source\PSoC4/BLE_eventHandler.c ****     }
 394:.\Generated_Source\PSoC4/BLE_eventHandler.c **** }
 130              		.loc 1 394 0
 131 008e BD46     		mov	sp, r7
 132 0090 05B0     		add	sp, sp, #20
 133              		@ sp needed
 134 0092 90BD     		pop	{r4, r7, pc}
 135              	.L6:
 136              		.align	2
 137              	.L5:
 138 0094 00000000 		.word	cyBle_eventHandlerFlag
 139              		.cfi_endproc
 140              	.LFE2:
 141              		.size	CyBle_WriteReqHandler, .-CyBle_WriteReqHandler
 142              		.section	.text.CyBle_ValueConfirmation,"ax",%progbits
 143              		.align	2
 144              		.code	16
 145              		.thumb_func
 146              		.type	CyBle_ValueConfirmation, %function
 147              	CyBle_ValueConfirmation:
 148              	.LFB3:
 395:.\Generated_Source\PSoC4/BLE_eventHandler.c **** 
 396:.\Generated_Source\PSoC4/BLE_eventHandler.c **** 
 397:.\Generated_Source\PSoC4/BLE_eventHandler.c **** /****************************************************************************** 
 398:.\Generated_Source\PSoC4/BLE_eventHandler.c **** ##Function Name: CyBle_ValueConfirmation
 399:.\Generated_Source\PSoC4/BLE_eventHandler.c **** *******************************************************************************
 400:.\Generated_Source\PSoC4/BLE_eventHandler.c **** 
 401:.\Generated_Source\PSoC4/BLE_eventHandler.c **** Summary:
 402:.\Generated_Source\PSoC4/BLE_eventHandler.c ****  Handles the Value Confirmation request event from the BLE stack.
 403:.\Generated_Source\PSoC4/BLE_eventHandler.c **** 
 404:.\Generated_Source\PSoC4/BLE_eventHandler.c **** Parameters:
 405:.\Generated_Source\PSoC4/BLE_eventHandler.c ****  CYBLE_CONN_HANDLE_T *eventParam - Pointer to a structure
 406:.\Generated_Source\PSoC4/BLE_eventHandler.c ****     of type 'CYBLE_CONN_HANDLE_T'
 407:.\Generated_Source\PSoC4/BLE_eventHandler.c **** 
 408:.\Generated_Source\PSoC4/BLE_eventHandler.c **** Return:
 409:.\Generated_Source\PSoC4/BLE_eventHandler.c ****  None
 410:.\Generated_Source\PSoC4/BLE_eventHandler.c **** 
 411:.\Generated_Source\PSoC4/BLE_eventHandler.c **** ******************************************************************************/
 412:.\Generated_Source\PSoC4/BLE_eventHandler.c **** static void CyBle_ValueConfirmation(const CYBLE_CONN_HANDLE_T *eventParam)
 413:.\Generated_Source\PSoC4/BLE_eventHandler.c **** {
 149              		.loc 1 413 0
 150              		.cfi_startproc
 151 0000 80B5     		push	{r7, lr}
 152              		.cfi_def_cfa_offset 8
 153              		.cfi_offset 7, -8
 154              		.cfi_offset 14, -4
 155 0002 82B0     		sub	sp, sp, #8
 156              		.cfi_def_cfa_offset 16
 157 0004 00AF     		add	r7, sp, #0
ARM GAS  C:\Users\KEVINH~1\AppData\Local\Temp\ccC6tirb.s 			page 11


 158              		.cfi_def_cfa_register 7
 159 0006 7860     		str	r0, [r7, #4]
 414:.\Generated_Source\PSoC4/BLE_eventHandler.c ****     if(eventParam != NULL)
 415:.\Generated_Source\PSoC4/BLE_eventHandler.c ****     {
 416:.\Generated_Source\PSoC4/BLE_eventHandler.c ****     #ifdef CYBLE_BLS_SERVER
 417:.\Generated_Source\PSoC4/BLE_eventHandler.c ****         CyBle_BlssConfirmationEventHandler(eventParam);
 418:.\Generated_Source\PSoC4/BLE_eventHandler.c ****     #endif /* CYBLE_BLS_SERVER */
 419:.\Generated_Source\PSoC4/BLE_eventHandler.c ****     
 420:.\Generated_Source\PSoC4/BLE_eventHandler.c ****     #ifdef CYBLE_CGMS_SERVER
 421:.\Generated_Source\PSoC4/BLE_eventHandler.c ****         if((cyBle_eventHandlerFlag & CYBLE_CALLBACK) != 0u)
 422:.\Generated_Source\PSoC4/BLE_eventHandler.c ****         {
 423:.\Generated_Source\PSoC4/BLE_eventHandler.c ****             CyBle_CgmssConfirmationEventHandler(eventParam);
 424:.\Generated_Source\PSoC4/BLE_eventHandler.c ****         }
 425:.\Generated_Source\PSoC4/BLE_eventHandler.c ****     #endif /* CYBLE_CGMS_SERVER */
 426:.\Generated_Source\PSoC4/BLE_eventHandler.c ****     
 427:.\Generated_Source\PSoC4/BLE_eventHandler.c ****     #ifdef CYBLE_CPS_SERVER
 428:.\Generated_Source\PSoC4/BLE_eventHandler.c ****         if((cyBle_eventHandlerFlag & CYBLE_CALLBACK) != 0u)
 429:.\Generated_Source\PSoC4/BLE_eventHandler.c ****         {
 430:.\Generated_Source\PSoC4/BLE_eventHandler.c ****             CyBle_CpssConfirmationEventHandler(eventParam);
 431:.\Generated_Source\PSoC4/BLE_eventHandler.c ****         }
 432:.\Generated_Source\PSoC4/BLE_eventHandler.c ****     #endif /* CYBLE_CPS_SERVER */
 433:.\Generated_Source\PSoC4/BLE_eventHandler.c ****     
 434:.\Generated_Source\PSoC4/BLE_eventHandler.c ****     #ifdef CYBLE_CSCS_SERVER
 435:.\Generated_Source\PSoC4/BLE_eventHandler.c ****         if((cyBle_eventHandlerFlag & CYBLE_CALLBACK) != 0u)
 436:.\Generated_Source\PSoC4/BLE_eventHandler.c ****         {
 437:.\Generated_Source\PSoC4/BLE_eventHandler.c ****             CyBle_CscssConfirmationEventHandler(eventParam);
 438:.\Generated_Source\PSoC4/BLE_eventHandler.c ****         }
 439:.\Generated_Source\PSoC4/BLE_eventHandler.c ****     #endif /* CYBLE_CSCS_SERVER */
 440:.\Generated_Source\PSoC4/BLE_eventHandler.c ****     
 441:.\Generated_Source\PSoC4/BLE_eventHandler.c ****     #ifdef CYBLE_ESS_SERVER
 442:.\Generated_Source\PSoC4/BLE_eventHandler.c ****         if((cyBle_eventHandlerFlag & CYBLE_CALLBACK) != 0u)
 443:.\Generated_Source\PSoC4/BLE_eventHandler.c ****         {
 444:.\Generated_Source\PSoC4/BLE_eventHandler.c ****             CyBle_EsssConfirmationEventHandler(eventParam);
 445:.\Generated_Source\PSoC4/BLE_eventHandler.c ****         }
 446:.\Generated_Source\PSoC4/BLE_eventHandler.c ****     #endif /* CYBLE_ESS_SERVER */
 447:.\Generated_Source\PSoC4/BLE_eventHandler.c ****     
 448:.\Generated_Source\PSoC4/BLE_eventHandler.c ****     #ifdef CYBLE_GLS_SERVER
 449:.\Generated_Source\PSoC4/BLE_eventHandler.c ****         if((cyBle_eventHandlerFlag & CYBLE_CALLBACK) != 0u)
 450:.\Generated_Source\PSoC4/BLE_eventHandler.c ****         {
 451:.\Generated_Source\PSoC4/BLE_eventHandler.c ****             CyBle_GlssConfirmationEventHandler(eventParam);
 452:.\Generated_Source\PSoC4/BLE_eventHandler.c ****         }
 453:.\Generated_Source\PSoC4/BLE_eventHandler.c ****     #endif /* CYBLE_GLS_SERVER */
 454:.\Generated_Source\PSoC4/BLE_eventHandler.c ****     
 455:.\Generated_Source\PSoC4/BLE_eventHandler.c ****     #ifdef CYBLE_HTS_SERVER
 456:.\Generated_Source\PSoC4/BLE_eventHandler.c ****         if((cyBle_eventHandlerFlag & CYBLE_CALLBACK) != 0u)
 457:.\Generated_Source\PSoC4/BLE_eventHandler.c ****         {
 458:.\Generated_Source\PSoC4/BLE_eventHandler.c ****             CyBle_HtssConfirmationEventHandler(eventParam);
 459:.\Generated_Source\PSoC4/BLE_eventHandler.c ****         }
 460:.\Generated_Source\PSoC4/BLE_eventHandler.c ****     #endif /* CYBLE_HTS_SERVER */
 461:.\Generated_Source\PSoC4/BLE_eventHandler.c **** 
 462:.\Generated_Source\PSoC4/BLE_eventHandler.c ****     #ifdef CYBLE_LNS_SERVER
 463:.\Generated_Source\PSoC4/BLE_eventHandler.c ****         if((cyBle_eventHandlerFlag & CYBLE_CALLBACK) != 0u)
 464:.\Generated_Source\PSoC4/BLE_eventHandler.c ****         {
 465:.\Generated_Source\PSoC4/BLE_eventHandler.c ****             CyBle_LnssConfirmationEventHandler(eventParam);
 466:.\Generated_Source\PSoC4/BLE_eventHandler.c ****         }
 467:.\Generated_Source\PSoC4/BLE_eventHandler.c ****     #endif /* CYBLE_LNS_SERVER */
 468:.\Generated_Source\PSoC4/BLE_eventHandler.c ****     
ARM GAS  C:\Users\KEVINH~1\AppData\Local\Temp\ccC6tirb.s 			page 12


 469:.\Generated_Source\PSoC4/BLE_eventHandler.c ****     #ifdef CYBLE_RSCS_SERVER
 470:.\Generated_Source\PSoC4/BLE_eventHandler.c ****         if((cyBle_eventHandlerFlag & CYBLE_CALLBACK) != 0u)
 471:.\Generated_Source\PSoC4/BLE_eventHandler.c ****         {
 472:.\Generated_Source\PSoC4/BLE_eventHandler.c ****             CyBle_RscssConfirmationEventHandler(eventParam);
 473:.\Generated_Source\PSoC4/BLE_eventHandler.c ****         }
 474:.\Generated_Source\PSoC4/BLE_eventHandler.c ****     #endif /* CYBLE_RSCS_SERVER */
 475:.\Generated_Source\PSoC4/BLE_eventHandler.c ****     
 476:.\Generated_Source\PSoC4/BLE_eventHandler.c ****     #ifdef CYBLE_UDS_SERVER
 477:.\Generated_Source\PSoC4/BLE_eventHandler.c ****         if((cyBle_eventHandlerFlag & CYBLE_CALLBACK) != 0u)
 478:.\Generated_Source\PSoC4/BLE_eventHandler.c ****         {
 479:.\Generated_Source\PSoC4/BLE_eventHandler.c ****             CyBle_UdssConfirmationEventHandler(eventParam);
 480:.\Generated_Source\PSoC4/BLE_eventHandler.c ****         }
 481:.\Generated_Source\PSoC4/BLE_eventHandler.c ****     #endif /* CYBLE_UDS_SERVER */
 482:.\Generated_Source\PSoC4/BLE_eventHandler.c ****     
 483:.\Generated_Source\PSoC4/BLE_eventHandler.c ****     #ifdef CYBLE_WPTS_SERVER
 484:.\Generated_Source\PSoC4/BLE_eventHandler.c ****         if((cyBle_eventHandlerFlag & CYBLE_CALLBACK) != 0u)
 485:.\Generated_Source\PSoC4/BLE_eventHandler.c ****         {
 486:.\Generated_Source\PSoC4/BLE_eventHandler.c ****             CyBle_WptssConfirmationEventHandler(eventParam);
 487:.\Generated_Source\PSoC4/BLE_eventHandler.c ****         }
 488:.\Generated_Source\PSoC4/BLE_eventHandler.c ****     #endif /* CYBLE_WPTS_SERVER */
 489:.\Generated_Source\PSoC4/BLE_eventHandler.c ****     
 490:.\Generated_Source\PSoC4/BLE_eventHandler.c ****     #ifdef CYBLE_WSS_SERVER
 491:.\Generated_Source\PSoC4/BLE_eventHandler.c ****         if((cyBle_eventHandlerFlag & CYBLE_CALLBACK) != 0u)
 492:.\Generated_Source\PSoC4/BLE_eventHandler.c ****         {
 493:.\Generated_Source\PSoC4/BLE_eventHandler.c ****             CyBle_WsssConfirmationEventHandler(eventParam);
 494:.\Generated_Source\PSoC4/BLE_eventHandler.c ****         }
 495:.\Generated_Source\PSoC4/BLE_eventHandler.c ****     #endif /* CYBLE_WSS_SERVER */
 496:.\Generated_Source\PSoC4/BLE_eventHandler.c ****     }
 497:.\Generated_Source\PSoC4/BLE_eventHandler.c **** }
 160              		.loc 1 497 0
 161 0008 BD46     		mov	sp, r7
 162 000a 02B0     		add	sp, sp, #8
 163              		@ sp needed
 164 000c 80BD     		pop	{r7, pc}
 165              		.cfi_endproc
 166              	.LFE3:
 167              		.size	CyBle_ValueConfirmation, .-CyBle_ValueConfirmation
 168              		.section	.text.CyBle_GattDisconnectEventHandler,"ax",%progbits
 169              		.align	2
 170              		.code	16
 171              		.thumb_func
 172              		.type	CyBle_GattDisconnectEventHandler, %function
 173              	CyBle_GattDisconnectEventHandler:
 174              	.LFB4:
 498:.\Generated_Source\PSoC4/BLE_eventHandler.c **** 
 499:.\Generated_Source\PSoC4/BLE_eventHandler.c **** #endif /* CYBLE_GATT_ROLE_SERVER */
 500:.\Generated_Source\PSoC4/BLE_eventHandler.c **** 
 501:.\Generated_Source\PSoC4/BLE_eventHandler.c **** 
 502:.\Generated_Source\PSoC4/BLE_eventHandler.c **** #if (CYBLE_GATT_ROLE_CLIENT)
 503:.\Generated_Source\PSoC4/BLE_eventHandler.c **** 
 504:.\Generated_Source\PSoC4/BLE_eventHandler.c **** /****************************************************************************** 
 505:.\Generated_Source\PSoC4/BLE_eventHandler.c **** ##Function Name: CyBle_GattcWriteResponseEventHandler
 506:.\Generated_Source\PSoC4/BLE_eventHandler.c **** *******************************************************************************
 507:.\Generated_Source\PSoC4/BLE_eventHandler.c **** 
 508:.\Generated_Source\PSoC4/BLE_eventHandler.c **** Summary:
 509:.\Generated_Source\PSoC4/BLE_eventHandler.c ****  Handles the Write response event from the BLE stack.
 510:.\Generated_Source\PSoC4/BLE_eventHandler.c **** 
ARM GAS  C:\Users\KEVINH~1\AppData\Local\Temp\ccC6tirb.s 			page 13


 511:.\Generated_Source\PSoC4/BLE_eventHandler.c **** Parameters:
 512:.\Generated_Source\PSoC4/BLE_eventHandler.c ****  CYBLE_CONN_HANDLE_T *eventParam - Pointer to a structure
 513:.\Generated_Source\PSoC4/BLE_eventHandler.c ****     of type 'CYBLE_CONN_HANDLE_T'
 514:.\Generated_Source\PSoC4/BLE_eventHandler.c **** 
 515:.\Generated_Source\PSoC4/BLE_eventHandler.c **** Return:
 516:.\Generated_Source\PSoC4/BLE_eventHandler.c ****  None
 517:.\Generated_Source\PSoC4/BLE_eventHandler.c **** 
 518:.\Generated_Source\PSoC4/BLE_eventHandler.c **** ******************************************************************************/
 519:.\Generated_Source\PSoC4/BLE_eventHandler.c **** static void CyBle_GattcWriteResponseEventHandler(const CYBLE_CONN_HANDLE_T *eventParam)
 520:.\Generated_Source\PSoC4/BLE_eventHandler.c **** {
 521:.\Generated_Source\PSoC4/BLE_eventHandler.c **** #ifdef CYBLE_ANCS_CLIENT
 522:.\Generated_Source\PSoC4/BLE_eventHandler.c ****     CyBle_AncscWriteResponseEventHandler(eventParam);
 523:.\Generated_Source\PSoC4/BLE_eventHandler.c **** #endif /* CYBLE_ANCS_CLIENT */
 524:.\Generated_Source\PSoC4/BLE_eventHandler.c **** 
 525:.\Generated_Source\PSoC4/BLE_eventHandler.c **** #ifdef CYBLE_ANS_CLIENT
 526:.\Generated_Source\PSoC4/BLE_eventHandler.c ****     if((cyBle_eventHandlerFlag & CYBLE_CALLBACK) != 0u)
 527:.\Generated_Source\PSoC4/BLE_eventHandler.c ****     {
 528:.\Generated_Source\PSoC4/BLE_eventHandler.c ****         CyBle_AnscWriteResponseEventHandler(eventParam);
 529:.\Generated_Source\PSoC4/BLE_eventHandler.c ****     }
 530:.\Generated_Source\PSoC4/BLE_eventHandler.c **** #endif /* CYBLE_ANS_CLIENT */
 531:.\Generated_Source\PSoC4/BLE_eventHandler.c **** 
 532:.\Generated_Source\PSoC4/BLE_eventHandler.c **** #ifdef CYBLE_BAS_CLIENT
 533:.\Generated_Source\PSoC4/BLE_eventHandler.c ****     if((cyBle_eventHandlerFlag & CYBLE_CALLBACK) != 0u)
 534:.\Generated_Source\PSoC4/BLE_eventHandler.c ****     {
 535:.\Generated_Source\PSoC4/BLE_eventHandler.c ****         CyBle_BascWriteResponseEventHandler(eventParam);
 536:.\Generated_Source\PSoC4/BLE_eventHandler.c ****     }
 537:.\Generated_Source\PSoC4/BLE_eventHandler.c **** #endif /* CYBLE_BAS_CLIENT */
 538:.\Generated_Source\PSoC4/BLE_eventHandler.c **** 
 539:.\Generated_Source\PSoC4/BLE_eventHandler.c **** #ifdef CYBLE_BLS_CLIENT
 540:.\Generated_Source\PSoC4/BLE_eventHandler.c ****     if((cyBle_eventHandlerFlag & CYBLE_CALLBACK) != 0u)
 541:.\Generated_Source\PSoC4/BLE_eventHandler.c ****     {
 542:.\Generated_Source\PSoC4/BLE_eventHandler.c ****         CyBle_BlscWriteResponseEventHandler(eventParam);
 543:.\Generated_Source\PSoC4/BLE_eventHandler.c ****     }
 544:.\Generated_Source\PSoC4/BLE_eventHandler.c **** #endif /* CYBLE_BLS_CLIENT */
 545:.\Generated_Source\PSoC4/BLE_eventHandler.c **** 
 546:.\Generated_Source\PSoC4/BLE_eventHandler.c **** #ifdef CYBLE_BMS_CLIENT
 547:.\Generated_Source\PSoC4/BLE_eventHandler.c ****     if((cyBle_eventHandlerFlag & CYBLE_CALLBACK) != 0u)
 548:.\Generated_Source\PSoC4/BLE_eventHandler.c ****     {
 549:.\Generated_Source\PSoC4/BLE_eventHandler.c ****         CyBle_BmscWriteResponseEventHandler(eventParam);
 550:.\Generated_Source\PSoC4/BLE_eventHandler.c ****     }
 551:.\Generated_Source\PSoC4/BLE_eventHandler.c **** #endif /* CYBLE_BMS_CLIENT */
 552:.\Generated_Source\PSoC4/BLE_eventHandler.c **** 
 553:.\Generated_Source\PSoC4/BLE_eventHandler.c **** #ifdef CYBLE_CGMS_CLIENT
 554:.\Generated_Source\PSoC4/BLE_eventHandler.c ****     if((cyBle_eventHandlerFlag & CYBLE_CALLBACK) != 0u)
 555:.\Generated_Source\PSoC4/BLE_eventHandler.c ****     {
 556:.\Generated_Source\PSoC4/BLE_eventHandler.c ****         CyBle_CgmscWriteResponseEventHandler(eventParam);
 557:.\Generated_Source\PSoC4/BLE_eventHandler.c ****     }
 558:.\Generated_Source\PSoC4/BLE_eventHandler.c **** #endif /* CYBLE_CGMS_CLIENT */
 559:.\Generated_Source\PSoC4/BLE_eventHandler.c **** 
 560:.\Generated_Source\PSoC4/BLE_eventHandler.c **** #ifdef CYBLE_CPS_CLIENT
 561:.\Generated_Source\PSoC4/BLE_eventHandler.c ****     if((cyBle_eventHandlerFlag & CYBLE_CALLBACK) != 0u)
 562:.\Generated_Source\PSoC4/BLE_eventHandler.c ****     {
 563:.\Generated_Source\PSoC4/BLE_eventHandler.c ****         CyBle_CpscWriteResponseEventHandler(eventParam);
 564:.\Generated_Source\PSoC4/BLE_eventHandler.c ****     }
 565:.\Generated_Source\PSoC4/BLE_eventHandler.c **** #endif /* CYBLE_CPS_CLIENT */
 566:.\Generated_Source\PSoC4/BLE_eventHandler.c **** 
 567:.\Generated_Source\PSoC4/BLE_eventHandler.c **** #ifdef CYBLE_CSCS_CLIENT
ARM GAS  C:\Users\KEVINH~1\AppData\Local\Temp\ccC6tirb.s 			page 14


 568:.\Generated_Source\PSoC4/BLE_eventHandler.c ****     if((cyBle_eventHandlerFlag & CYBLE_CALLBACK) != 0u)
 569:.\Generated_Source\PSoC4/BLE_eventHandler.c ****     {
 570:.\Generated_Source\PSoC4/BLE_eventHandler.c ****         CyBle_CscscWriteResponseEventHandler(eventParam);
 571:.\Generated_Source\PSoC4/BLE_eventHandler.c ****     }
 572:.\Generated_Source\PSoC4/BLE_eventHandler.c **** #endif /* CYBLE_CSCS_CLIENT */
 573:.\Generated_Source\PSoC4/BLE_eventHandler.c **** 
 574:.\Generated_Source\PSoC4/BLE_eventHandler.c **** #ifdef CYBLE_CTS_CLIENT
 575:.\Generated_Source\PSoC4/BLE_eventHandler.c ****     if((cyBle_eventHandlerFlag & CYBLE_CALLBACK) != 0u)
 576:.\Generated_Source\PSoC4/BLE_eventHandler.c ****     {
 577:.\Generated_Source\PSoC4/BLE_eventHandler.c ****         CyBle_CtscWriteResponseEventHandler(eventParam);
 578:.\Generated_Source\PSoC4/BLE_eventHandler.c ****     }
 579:.\Generated_Source\PSoC4/BLE_eventHandler.c **** #endif /* CYBLE_CTS_CLIENT */
 580:.\Generated_Source\PSoC4/BLE_eventHandler.c **** 
 581:.\Generated_Source\PSoC4/BLE_eventHandler.c **** #ifdef CYBLE_ESS_CLIENT
 582:.\Generated_Source\PSoC4/BLE_eventHandler.c ****     if((cyBle_eventHandlerFlag & CYBLE_CALLBACK) != 0u)
 583:.\Generated_Source\PSoC4/BLE_eventHandler.c ****     {
 584:.\Generated_Source\PSoC4/BLE_eventHandler.c ****         CyBle_EsscWriteResponseEventHandler(eventParam);
 585:.\Generated_Source\PSoC4/BLE_eventHandler.c ****     }
 586:.\Generated_Source\PSoC4/BLE_eventHandler.c **** #endif /* CYBLE_ESS_CLIENT */
 587:.\Generated_Source\PSoC4/BLE_eventHandler.c **** 
 588:.\Generated_Source\PSoC4/BLE_eventHandler.c **** #ifdef CYBLE_GLS_CLIENT
 589:.\Generated_Source\PSoC4/BLE_eventHandler.c ****     if((cyBle_eventHandlerFlag & CYBLE_CALLBACK) != 0u)
 590:.\Generated_Source\PSoC4/BLE_eventHandler.c ****     {
 591:.\Generated_Source\PSoC4/BLE_eventHandler.c ****         CyBle_GlscWriteResponseEventHandler(eventParam);
 592:.\Generated_Source\PSoC4/BLE_eventHandler.c ****     }
 593:.\Generated_Source\PSoC4/BLE_eventHandler.c **** #endif /* CYBLE_GLS_CLIENT */
 594:.\Generated_Source\PSoC4/BLE_eventHandler.c **** 
 595:.\Generated_Source\PSoC4/BLE_eventHandler.c **** #ifdef CYBLE_HIDS_CLIENT
 596:.\Generated_Source\PSoC4/BLE_eventHandler.c ****     if((cyBle_eventHandlerFlag & CYBLE_CALLBACK) != 0u)
 597:.\Generated_Source\PSoC4/BLE_eventHandler.c ****     {
 598:.\Generated_Source\PSoC4/BLE_eventHandler.c ****         CyBle_HidscWriteResponseEventHandler(eventParam);
 599:.\Generated_Source\PSoC4/BLE_eventHandler.c ****     }
 600:.\Generated_Source\PSoC4/BLE_eventHandler.c **** #endif /* CYBLE_HIDS_CLIENT */
 601:.\Generated_Source\PSoC4/BLE_eventHandler.c **** 
 602:.\Generated_Source\PSoC4/BLE_eventHandler.c **** #ifdef CYBLE_HRS_CLIENT
 603:.\Generated_Source\PSoC4/BLE_eventHandler.c ****     if((cyBle_eventHandlerFlag & CYBLE_CALLBACK) != 0u)
 604:.\Generated_Source\PSoC4/BLE_eventHandler.c ****     {
 605:.\Generated_Source\PSoC4/BLE_eventHandler.c ****         CyBle_HrscWriteResponseEventHandler(eventParam);
 606:.\Generated_Source\PSoC4/BLE_eventHandler.c ****     }
 607:.\Generated_Source\PSoC4/BLE_eventHandler.c **** #endif /* CYBLE_HRS_CLIENT */
 608:.\Generated_Source\PSoC4/BLE_eventHandler.c **** 
 609:.\Generated_Source\PSoC4/BLE_eventHandler.c **** #ifdef CYBLE_HTS_CLIENT
 610:.\Generated_Source\PSoC4/BLE_eventHandler.c ****     if((cyBle_eventHandlerFlag & CYBLE_CALLBACK) != 0u)
 611:.\Generated_Source\PSoC4/BLE_eventHandler.c ****     {
 612:.\Generated_Source\PSoC4/BLE_eventHandler.c ****         CyBle_HtscWriteResponseEventHandler(eventParam);
 613:.\Generated_Source\PSoC4/BLE_eventHandler.c ****     }
 614:.\Generated_Source\PSoC4/BLE_eventHandler.c **** #endif /* CYBLE_HTS_CLIENT */
 615:.\Generated_Source\PSoC4/BLE_eventHandler.c **** 
 616:.\Generated_Source\PSoC4/BLE_eventHandler.c **** #ifdef CYBLE_LLS_CLIENT
 617:.\Generated_Source\PSoC4/BLE_eventHandler.c ****     if((cyBle_eventHandlerFlag & CYBLE_CALLBACK) != 0u)
 618:.\Generated_Source\PSoC4/BLE_eventHandler.c ****     {
 619:.\Generated_Source\PSoC4/BLE_eventHandler.c ****         CyBle_LlscWriteResponseEventHandler(eventParam);
 620:.\Generated_Source\PSoC4/BLE_eventHandler.c ****     }
 621:.\Generated_Source\PSoC4/BLE_eventHandler.c **** #endif /* CYBLE_LLS_CLIENT */
 622:.\Generated_Source\PSoC4/BLE_eventHandler.c **** 
 623:.\Generated_Source\PSoC4/BLE_eventHandler.c **** #ifdef CYBLE_LNS_CLIENT
 624:.\Generated_Source\PSoC4/BLE_eventHandler.c ****     if((cyBle_eventHandlerFlag & CYBLE_CALLBACK) != 0u)
ARM GAS  C:\Users\KEVINH~1\AppData\Local\Temp\ccC6tirb.s 			page 15


 625:.\Generated_Source\PSoC4/BLE_eventHandler.c ****     {
 626:.\Generated_Source\PSoC4/BLE_eventHandler.c ****         CyBle_LnscWriteResponseEventHandler(eventParam);
 627:.\Generated_Source\PSoC4/BLE_eventHandler.c ****     }
 628:.\Generated_Source\PSoC4/BLE_eventHandler.c **** #endif /* CYBLE_LNS_CLIENT */
 629:.\Generated_Source\PSoC4/BLE_eventHandler.c **** 
 630:.\Generated_Source\PSoC4/BLE_eventHandler.c **** #ifdef CYBLE_PASS_CLIENT
 631:.\Generated_Source\PSoC4/BLE_eventHandler.c ****     if((cyBle_eventHandlerFlag & CYBLE_CALLBACK) != 0u)
 632:.\Generated_Source\PSoC4/BLE_eventHandler.c ****     {
 633:.\Generated_Source\PSoC4/BLE_eventHandler.c ****         CyBle_PasscWriteResponseEventHandler(eventParam);
 634:.\Generated_Source\PSoC4/BLE_eventHandler.c ****     }
 635:.\Generated_Source\PSoC4/BLE_eventHandler.c **** #endif /* CYBLE_PASS_CLIENT */
 636:.\Generated_Source\PSoC4/BLE_eventHandler.c **** 
 637:.\Generated_Source\PSoC4/BLE_eventHandler.c **** #ifdef CYBLE_RSCS_CLIENT
 638:.\Generated_Source\PSoC4/BLE_eventHandler.c ****     if((cyBle_eventHandlerFlag & CYBLE_CALLBACK) != 0u)
 639:.\Generated_Source\PSoC4/BLE_eventHandler.c ****     {
 640:.\Generated_Source\PSoC4/BLE_eventHandler.c ****         CyBle_RscscWriteResponseEventHandler(eventParam);
 641:.\Generated_Source\PSoC4/BLE_eventHandler.c ****     }
 642:.\Generated_Source\PSoC4/BLE_eventHandler.c **** #endif /* CYBLE_RSCS_CLIENT */
 643:.\Generated_Source\PSoC4/BLE_eventHandler.c **** 
 644:.\Generated_Source\PSoC4/BLE_eventHandler.c **** #ifdef CYBLE_SCPS_CLIENT
 645:.\Generated_Source\PSoC4/BLE_eventHandler.c ****     if((cyBle_eventHandlerFlag & CYBLE_CALLBACK) != 0u)
 646:.\Generated_Source\PSoC4/BLE_eventHandler.c ****     {
 647:.\Generated_Source\PSoC4/BLE_eventHandler.c ****         CyBle_ScpscWriteResponseEventHandler(eventParam);
 648:.\Generated_Source\PSoC4/BLE_eventHandler.c ****     }
 649:.\Generated_Source\PSoC4/BLE_eventHandler.c **** #endif /* CYBLE_SCPS_CLIENT */
 650:.\Generated_Source\PSoC4/BLE_eventHandler.c **** 
 651:.\Generated_Source\PSoC4/BLE_eventHandler.c **** #ifdef CYBLE_TPS_CLIENT
 652:.\Generated_Source\PSoC4/BLE_eventHandler.c ****     if((cyBle_eventHandlerFlag & CYBLE_CALLBACK) != 0u)
 653:.\Generated_Source\PSoC4/BLE_eventHandler.c ****     {
 654:.\Generated_Source\PSoC4/BLE_eventHandler.c ****         CyBle_TpscWriteResponseEventHandler(eventParam);
 655:.\Generated_Source\PSoC4/BLE_eventHandler.c ****     }
 656:.\Generated_Source\PSoC4/BLE_eventHandler.c **** #endif /* CYBLE_TPS_CLIENT */
 657:.\Generated_Source\PSoC4/BLE_eventHandler.c **** 
 658:.\Generated_Source\PSoC4/BLE_eventHandler.c **** #ifdef CYBLE_UDS_CLIENT
 659:.\Generated_Source\PSoC4/BLE_eventHandler.c ****     if((cyBle_eventHandlerFlag & CYBLE_CALLBACK) != 0u)
 660:.\Generated_Source\PSoC4/BLE_eventHandler.c ****     {
 661:.\Generated_Source\PSoC4/BLE_eventHandler.c ****         CyBle_UdscWriteResponseEventHandler(eventParam);
 662:.\Generated_Source\PSoC4/BLE_eventHandler.c ****     }
 663:.\Generated_Source\PSoC4/BLE_eventHandler.c **** #endif /* CYBLE_UDS_CLIENT */
 664:.\Generated_Source\PSoC4/BLE_eventHandler.c **** #ifdef CYBLE_WPTS_CLIENT
 665:.\Generated_Source\PSoC4/BLE_eventHandler.c ****     if((cyBle_eventHandlerFlag & CYBLE_CALLBACK) != 0u)
 666:.\Generated_Source\PSoC4/BLE_eventHandler.c ****     {
 667:.\Generated_Source\PSoC4/BLE_eventHandler.c ****         CyBle_WptscWriteResponseEventHandler(eventParam);
 668:.\Generated_Source\PSoC4/BLE_eventHandler.c ****     }
 669:.\Generated_Source\PSoC4/BLE_eventHandler.c **** #endif /* CYBLE_WPTS_CLIENT */
 670:.\Generated_Source\PSoC4/BLE_eventHandler.c **** #ifdef CYBLE_WSS_CLIENT
 671:.\Generated_Source\PSoC4/BLE_eventHandler.c ****     if((cyBle_eventHandlerFlag & CYBLE_CALLBACK) != 0u)
 672:.\Generated_Source\PSoC4/BLE_eventHandler.c ****     {
 673:.\Generated_Source\PSoC4/BLE_eventHandler.c ****         CyBle_WsscWriteResponseEventHandler(eventParam);
 674:.\Generated_Source\PSoC4/BLE_eventHandler.c ****     }
 675:.\Generated_Source\PSoC4/BLE_eventHandler.c **** #endif /* CYBLE_WSS_CLIENT */
 676:.\Generated_Source\PSoC4/BLE_eventHandler.c **** }
 677:.\Generated_Source\PSoC4/BLE_eventHandler.c **** 
 678:.\Generated_Source\PSoC4/BLE_eventHandler.c **** 
 679:.\Generated_Source\PSoC4/BLE_eventHandler.c **** /******************************************************************************    
 680:.\Generated_Source\PSoC4/BLE_eventHandler.c **** ##Function Name: CyBle_NotificationEventHandler
 681:.\Generated_Source\PSoC4/BLE_eventHandler.c **** *******************************************************************************
ARM GAS  C:\Users\KEVINH~1\AppData\Local\Temp\ccC6tirb.s 			page 16


 682:.\Generated_Source\PSoC4/BLE_eventHandler.c **** 
 683:.\Generated_Source\PSoC4/BLE_eventHandler.c **** Summary:
 684:.\Generated_Source\PSoC4/BLE_eventHandler.c ****  Handles the Notification event from BLE stack.
 685:.\Generated_Source\PSoC4/BLE_eventHandler.c **** 
 686:.\Generated_Source\PSoC4/BLE_eventHandler.c **** Parameters:
 687:.\Generated_Source\PSoC4/BLE_eventHandler.c ****  CYBLE_GATTC_HANDLE_VALUE_NTF_PARAM_T * eventParam - event parameter
 688:.\Generated_Source\PSoC4/BLE_eventHandler.c **** 
 689:.\Generated_Source\PSoC4/BLE_eventHandler.c **** Return:
 690:.\Generated_Source\PSoC4/BLE_eventHandler.c ****  None
 691:.\Generated_Source\PSoC4/BLE_eventHandler.c **** 
 692:.\Generated_Source\PSoC4/BLE_eventHandler.c **** ******************************************************************************/
 693:.\Generated_Source\PSoC4/BLE_eventHandler.c **** static void CyBle_NotificationEventHandler(CYBLE_GATTC_HANDLE_VALUE_NTF_PARAM_T *eventParam)
 694:.\Generated_Source\PSoC4/BLE_eventHandler.c **** {
 695:.\Generated_Source\PSoC4/BLE_eventHandler.c **** #ifdef CYBLE_ANCS_CLIENT
 696:.\Generated_Source\PSoC4/BLE_eventHandler.c ****     CyBle_AncscNotificationEventHandler(eventParam);
 697:.\Generated_Source\PSoC4/BLE_eventHandler.c **** #endif /* CYBLE_ANCS_CLIENT */
 698:.\Generated_Source\PSoC4/BLE_eventHandler.c **** #ifdef CYBLE_ANS_CLIENT
 699:.\Generated_Source\PSoC4/BLE_eventHandler.c ****     if((cyBle_eventHandlerFlag & CYBLE_CALLBACK) != 0u)
 700:.\Generated_Source\PSoC4/BLE_eventHandler.c ****     {
 701:.\Generated_Source\PSoC4/BLE_eventHandler.c ****         CyBle_AnscNotificationEventHandler(eventParam);
 702:.\Generated_Source\PSoC4/BLE_eventHandler.c ****     }
 703:.\Generated_Source\PSoC4/BLE_eventHandler.c **** #endif /* CYBLE_ANS_CLIENT */
 704:.\Generated_Source\PSoC4/BLE_eventHandler.c **** #ifdef CYBLE_BAS_CLIENT
 705:.\Generated_Source\PSoC4/BLE_eventHandler.c ****     if((cyBle_eventHandlerFlag & CYBLE_CALLBACK) != 0u)
 706:.\Generated_Source\PSoC4/BLE_eventHandler.c ****     {
 707:.\Generated_Source\PSoC4/BLE_eventHandler.c ****         CyBle_BascNotificationEventHandler(eventParam);
 708:.\Generated_Source\PSoC4/BLE_eventHandler.c ****     }
 709:.\Generated_Source\PSoC4/BLE_eventHandler.c **** #endif /* CYBLE_BAS_CLIENT */
 710:.\Generated_Source\PSoC4/BLE_eventHandler.c **** #ifdef CYBLE_BLS_CLIENT
 711:.\Generated_Source\PSoC4/BLE_eventHandler.c ****     if((cyBle_eventHandlerFlag & CYBLE_CALLBACK) != 0u)
 712:.\Generated_Source\PSoC4/BLE_eventHandler.c ****     {
 713:.\Generated_Source\PSoC4/BLE_eventHandler.c ****         CyBle_BlscNotificationEventHandler(eventParam);
 714:.\Generated_Source\PSoC4/BLE_eventHandler.c ****     }
 715:.\Generated_Source\PSoC4/BLE_eventHandler.c **** #endif /* CYBLE_BLS_CLIENT */
 716:.\Generated_Source\PSoC4/BLE_eventHandler.c **** #ifdef CYBLE_CGMS_CLIENT
 717:.\Generated_Source\PSoC4/BLE_eventHandler.c ****     if((cyBle_eventHandlerFlag & CYBLE_CALLBACK) != 0u)
 718:.\Generated_Source\PSoC4/BLE_eventHandler.c ****     {
 719:.\Generated_Source\PSoC4/BLE_eventHandler.c ****         CyBle_CgmscNotificationEventHandler(eventParam);
 720:.\Generated_Source\PSoC4/BLE_eventHandler.c ****     }
 721:.\Generated_Source\PSoC4/BLE_eventHandler.c **** #endif /* CYBLE_CGMS_CLIENT */
 722:.\Generated_Source\PSoC4/BLE_eventHandler.c **** #ifdef CYBLE_CPS_CLIENT
 723:.\Generated_Source\PSoC4/BLE_eventHandler.c ****     if((cyBle_eventHandlerFlag & CYBLE_CALLBACK) != 0u)
 724:.\Generated_Source\PSoC4/BLE_eventHandler.c ****     {
 725:.\Generated_Source\PSoC4/BLE_eventHandler.c ****         CyBle_CpscNotificationEventHandler(eventParam);
 726:.\Generated_Source\PSoC4/BLE_eventHandler.c ****     }
 727:.\Generated_Source\PSoC4/BLE_eventHandler.c **** #endif /* CYBLE_CPS_CLIENT */
 728:.\Generated_Source\PSoC4/BLE_eventHandler.c **** #ifdef CYBLE_CSCS_CLIENT
 729:.\Generated_Source\PSoC4/BLE_eventHandler.c ****     if((cyBle_eventHandlerFlag & CYBLE_CALLBACK) != 0u)
 730:.\Generated_Source\PSoC4/BLE_eventHandler.c ****     {
 731:.\Generated_Source\PSoC4/BLE_eventHandler.c ****         CyBle_CscscNotificationEventHandler(eventParam);
 732:.\Generated_Source\PSoC4/BLE_eventHandler.c ****     }
 733:.\Generated_Source\PSoC4/BLE_eventHandler.c **** #endif /* CYBLE_CSCS_CLIENT */
 734:.\Generated_Source\PSoC4/BLE_eventHandler.c **** #ifdef CYBLE_CTS_CLIENT
 735:.\Generated_Source\PSoC4/BLE_eventHandler.c ****     if((cyBle_eventHandlerFlag & CYBLE_CALLBACK) != 0u)
 736:.\Generated_Source\PSoC4/BLE_eventHandler.c ****     {
 737:.\Generated_Source\PSoC4/BLE_eventHandler.c ****         CyBle_CtscNotificationEventHandler(eventParam);
 738:.\Generated_Source\PSoC4/BLE_eventHandler.c ****     }
ARM GAS  C:\Users\KEVINH~1\AppData\Local\Temp\ccC6tirb.s 			page 17


 739:.\Generated_Source\PSoC4/BLE_eventHandler.c **** #endif /* CYBLE_CTS_CLIENT */
 740:.\Generated_Source\PSoC4/BLE_eventHandler.c **** #ifdef CYBLE_ESS_CLIENT
 741:.\Generated_Source\PSoC4/BLE_eventHandler.c ****     if((cyBle_eventHandlerFlag & CYBLE_CALLBACK) != 0u)
 742:.\Generated_Source\PSoC4/BLE_eventHandler.c ****     {
 743:.\Generated_Source\PSoC4/BLE_eventHandler.c ****         CyBle_EsscNotificationEventHandler(eventParam);
 744:.\Generated_Source\PSoC4/BLE_eventHandler.c ****     }
 745:.\Generated_Source\PSoC4/BLE_eventHandler.c **** #endif /* CYBLE_ESS_CLIENT */
 746:.\Generated_Source\PSoC4/BLE_eventHandler.c **** #ifdef CYBLE_GLS_CLIENT
 747:.\Generated_Source\PSoC4/BLE_eventHandler.c ****     if((cyBle_eventHandlerFlag & CYBLE_CALLBACK) != 0u)
 748:.\Generated_Source\PSoC4/BLE_eventHandler.c ****     {
 749:.\Generated_Source\PSoC4/BLE_eventHandler.c ****         CyBle_GlscNotificationEventHandler(eventParam);
 750:.\Generated_Source\PSoC4/BLE_eventHandler.c ****     }
 751:.\Generated_Source\PSoC4/BLE_eventHandler.c **** #endif /* CYBLE_GLS_CLIENT */
 752:.\Generated_Source\PSoC4/BLE_eventHandler.c **** #ifdef CYBLE_HIDS_CLIENT
 753:.\Generated_Source\PSoC4/BLE_eventHandler.c ****     if((cyBle_eventHandlerFlag & CYBLE_CALLBACK) != 0u)
 754:.\Generated_Source\PSoC4/BLE_eventHandler.c ****     {
 755:.\Generated_Source\PSoC4/BLE_eventHandler.c ****         CyBle_HidscNotificationEventHandler(eventParam);
 756:.\Generated_Source\PSoC4/BLE_eventHandler.c ****     }
 757:.\Generated_Source\PSoC4/BLE_eventHandler.c **** #endif /* CYBLE_HIDS_CLIENT */
 758:.\Generated_Source\PSoC4/BLE_eventHandler.c **** #ifdef CYBLE_HRS_CLIENT
 759:.\Generated_Source\PSoC4/BLE_eventHandler.c ****     if((cyBle_eventHandlerFlag & CYBLE_CALLBACK) != 0u)
 760:.\Generated_Source\PSoC4/BLE_eventHandler.c ****     {
 761:.\Generated_Source\PSoC4/BLE_eventHandler.c ****         CyBle_HrscNotificationEventHandler(eventParam);
 762:.\Generated_Source\PSoC4/BLE_eventHandler.c ****     }
 763:.\Generated_Source\PSoC4/BLE_eventHandler.c **** #endif /* CYBLE_HRS_CLIENT */
 764:.\Generated_Source\PSoC4/BLE_eventHandler.c **** #ifdef CYBLE_HTS_CLIENT
 765:.\Generated_Source\PSoC4/BLE_eventHandler.c ****     if((cyBle_eventHandlerFlag & CYBLE_CALLBACK) != 0u)
 766:.\Generated_Source\PSoC4/BLE_eventHandler.c ****     {
 767:.\Generated_Source\PSoC4/BLE_eventHandler.c ****         CyBle_HtscNotificationEventHandler(eventParam);
 768:.\Generated_Source\PSoC4/BLE_eventHandler.c ****     }
 769:.\Generated_Source\PSoC4/BLE_eventHandler.c **** #endif /* CYBLE_HTS_CLIENT */
 770:.\Generated_Source\PSoC4/BLE_eventHandler.c **** #ifdef CYBLE_LNS_CLIENT
 771:.\Generated_Source\PSoC4/BLE_eventHandler.c ****     if((cyBle_eventHandlerFlag & CYBLE_CALLBACK) != 0u)
 772:.\Generated_Source\PSoC4/BLE_eventHandler.c ****     {
 773:.\Generated_Source\PSoC4/BLE_eventHandler.c ****         CyBle_LnscNotificationEventHandler(eventParam);
 774:.\Generated_Source\PSoC4/BLE_eventHandler.c ****     }
 775:.\Generated_Source\PSoC4/BLE_eventHandler.c **** #endif /* CYBLE_LNS_CLIENT */
 776:.\Generated_Source\PSoC4/BLE_eventHandler.c **** #ifdef CYBLE_PASS_CLIENT
 777:.\Generated_Source\PSoC4/BLE_eventHandler.c ****     if((cyBle_eventHandlerFlag & CYBLE_CALLBACK) != 0u)
 778:.\Generated_Source\PSoC4/BLE_eventHandler.c ****     {
 779:.\Generated_Source\PSoC4/BLE_eventHandler.c ****         CyBle_PasscNotificationEventHandler(eventParam);
 780:.\Generated_Source\PSoC4/BLE_eventHandler.c ****     }
 781:.\Generated_Source\PSoC4/BLE_eventHandler.c **** #endif /* CYBLE_PASS_CLIENT */
 782:.\Generated_Source\PSoC4/BLE_eventHandler.c **** #ifdef CYBLE_RSCS_CLIENT
 783:.\Generated_Source\PSoC4/BLE_eventHandler.c ****     if((cyBle_eventHandlerFlag & CYBLE_CALLBACK) != 0u)
 784:.\Generated_Source\PSoC4/BLE_eventHandler.c ****     {
 785:.\Generated_Source\PSoC4/BLE_eventHandler.c ****         CyBle_RscscNotificationEventHandler(eventParam);
 786:.\Generated_Source\PSoC4/BLE_eventHandler.c ****     }
 787:.\Generated_Source\PSoC4/BLE_eventHandler.c **** #endif /* CYBLE_RSCS_CLIENT */
 788:.\Generated_Source\PSoC4/BLE_eventHandler.c **** #ifdef CYBLE_SCPS_CLIENT
 789:.\Generated_Source\PSoC4/BLE_eventHandler.c ****     if((cyBle_eventHandlerFlag & CYBLE_CALLBACK) != 0u)
 790:.\Generated_Source\PSoC4/BLE_eventHandler.c ****     {
 791:.\Generated_Source\PSoC4/BLE_eventHandler.c ****         CyBle_ScpscNotificationEventHandler(eventParam);
 792:.\Generated_Source\PSoC4/BLE_eventHandler.c ****     }
 793:.\Generated_Source\PSoC4/BLE_eventHandler.c **** #endif /* CYBLE_SCPS_CLIENT */
 794:.\Generated_Source\PSoC4/BLE_eventHandler.c **** #ifdef CYBLE_TPS_CLIENT
 795:.\Generated_Source\PSoC4/BLE_eventHandler.c ****     if((cyBle_eventHandlerFlag & CYBLE_CALLBACK) != 0u)
ARM GAS  C:\Users\KEVINH~1\AppData\Local\Temp\ccC6tirb.s 			page 18


 796:.\Generated_Source\PSoC4/BLE_eventHandler.c ****     {
 797:.\Generated_Source\PSoC4/BLE_eventHandler.c ****         CyBle_TpscNotificationEventHandler(eventParam);
 798:.\Generated_Source\PSoC4/BLE_eventHandler.c ****     }
 799:.\Generated_Source\PSoC4/BLE_eventHandler.c **** #endif /* CYBLE_TPS_CLIENT */
 800:.\Generated_Source\PSoC4/BLE_eventHandler.c **** #ifdef CYBLE_UDS_CLIENT
 801:.\Generated_Source\PSoC4/BLE_eventHandler.c ****     if((cyBle_eventHandlerFlag & CYBLE_CALLBACK) != 0u)
 802:.\Generated_Source\PSoC4/BLE_eventHandler.c ****     {
 803:.\Generated_Source\PSoC4/BLE_eventHandler.c ****         CyBle_UdscNotificationEventHandler(eventParam);
 804:.\Generated_Source\PSoC4/BLE_eventHandler.c ****     }
 805:.\Generated_Source\PSoC4/BLE_eventHandler.c **** #endif /* CYBLE_UDS_CLIENT */
 806:.\Generated_Source\PSoC4/BLE_eventHandler.c **** #ifdef CYBLE_WPTS_CLIENT
 807:.\Generated_Source\PSoC4/BLE_eventHandler.c ****     if((cyBle_eventHandlerFlag & CYBLE_CALLBACK) != 0u)
 808:.\Generated_Source\PSoC4/BLE_eventHandler.c ****     {
 809:.\Generated_Source\PSoC4/BLE_eventHandler.c ****         CyBle_WptscNotificationEventHandler(eventParam);
 810:.\Generated_Source\PSoC4/BLE_eventHandler.c ****     }
 811:.\Generated_Source\PSoC4/BLE_eventHandler.c **** #endif /* CYBLE_WPTS_CLIENT */
 812:.\Generated_Source\PSoC4/BLE_eventHandler.c **** }
 813:.\Generated_Source\PSoC4/BLE_eventHandler.c **** 
 814:.\Generated_Source\PSoC4/BLE_eventHandler.c **** 
 815:.\Generated_Source\PSoC4/BLE_eventHandler.c **** /******************************************************************************    
 816:.\Generated_Source\PSoC4/BLE_eventHandler.c **** ##Function Name: CyBle_IndicationEventHandler
 817:.\Generated_Source\PSoC4/BLE_eventHandler.c **** *******************************************************************************
 818:.\Generated_Source\PSoC4/BLE_eventHandler.c **** 
 819:.\Generated_Source\PSoC4/BLE_eventHandler.c **** Summary:
 820:.\Generated_Source\PSoC4/BLE_eventHandler.c ****  Handles the Indication event from BLE stack.
 821:.\Generated_Source\PSoC4/BLE_eventHandler.c **** 
 822:.\Generated_Source\PSoC4/BLE_eventHandler.c **** Parameters:
 823:.\Generated_Source\PSoC4/BLE_eventHandler.c ****  CYBLE_GATTC_HANDLE_VALUE_IND_PARAM_T * eventParam - event parameter
 824:.\Generated_Source\PSoC4/BLE_eventHandler.c **** 
 825:.\Generated_Source\PSoC4/BLE_eventHandler.c **** Return:
 826:.\Generated_Source\PSoC4/BLE_eventHandler.c ****  None
 827:.\Generated_Source\PSoC4/BLE_eventHandler.c **** 
 828:.\Generated_Source\PSoC4/BLE_eventHandler.c **** ******************************************************************************/
 829:.\Generated_Source\PSoC4/BLE_eventHandler.c **** static void CyBle_IndicationEventHandler(CYBLE_GATTC_HANDLE_VALUE_IND_PARAM_T *eventParam)
 830:.\Generated_Source\PSoC4/BLE_eventHandler.c **** {
 831:.\Generated_Source\PSoC4/BLE_eventHandler.c **** #ifdef CYBLE_BLS_CLIENT
 832:.\Generated_Source\PSoC4/BLE_eventHandler.c ****     if((cyBle_eventHandlerFlag & CYBLE_CALLBACK) != 0u)
 833:.\Generated_Source\PSoC4/BLE_eventHandler.c ****     {
 834:.\Generated_Source\PSoC4/BLE_eventHandler.c ****         CyBle_BlscIndicationEventHandler(eventParam);
 835:.\Generated_Source\PSoC4/BLE_eventHandler.c ****     }
 836:.\Generated_Source\PSoC4/BLE_eventHandler.c **** #endif /* CYBLE_BLS_CLIENT */
 837:.\Generated_Source\PSoC4/BLE_eventHandler.c **** #ifdef CYBLE_CGMS_CLIENT
 838:.\Generated_Source\PSoC4/BLE_eventHandler.c ****     if((cyBle_eventHandlerFlag & CYBLE_CALLBACK) != 0u)
 839:.\Generated_Source\PSoC4/BLE_eventHandler.c ****     {
 840:.\Generated_Source\PSoC4/BLE_eventHandler.c ****         CyBle_CgmscIndicationEventHandler(eventParam);
 841:.\Generated_Source\PSoC4/BLE_eventHandler.c ****     }
 842:.\Generated_Source\PSoC4/BLE_eventHandler.c **** #endif /* CYBLE_CGMS_CLIENT */
 843:.\Generated_Source\PSoC4/BLE_eventHandler.c **** #ifdef CYBLE_CPS_CLIENT
 844:.\Generated_Source\PSoC4/BLE_eventHandler.c ****     if((cyBle_eventHandlerFlag & CYBLE_CALLBACK) != 0u)
 845:.\Generated_Source\PSoC4/BLE_eventHandler.c ****     {
 846:.\Generated_Source\PSoC4/BLE_eventHandler.c ****         CyBle_CpscIndicationEventHandler(eventParam);
 847:.\Generated_Source\PSoC4/BLE_eventHandler.c ****     }
 848:.\Generated_Source\PSoC4/BLE_eventHandler.c **** #endif /* CYBLE_CPS_CLIENT */
 849:.\Generated_Source\PSoC4/BLE_eventHandler.c **** #ifdef CYBLE_CSCS_CLIENT
 850:.\Generated_Source\PSoC4/BLE_eventHandler.c ****     if((cyBle_eventHandlerFlag & CYBLE_CALLBACK) != 0u)
 851:.\Generated_Source\PSoC4/BLE_eventHandler.c ****     {
 852:.\Generated_Source\PSoC4/BLE_eventHandler.c ****         CyBle_CscscIndicationEventHandler(eventParam);
ARM GAS  C:\Users\KEVINH~1\AppData\Local\Temp\ccC6tirb.s 			page 19


 853:.\Generated_Source\PSoC4/BLE_eventHandler.c ****     }
 854:.\Generated_Source\PSoC4/BLE_eventHandler.c **** #endif /* CYBLE_CSCS_CLIENT */
 855:.\Generated_Source\PSoC4/BLE_eventHandler.c **** #ifdef CYBLE_ESS_CLIENT
 856:.\Generated_Source\PSoC4/BLE_eventHandler.c ****     if((cyBle_eventHandlerFlag & CYBLE_CALLBACK) != 0u)
 857:.\Generated_Source\PSoC4/BLE_eventHandler.c ****     {
 858:.\Generated_Source\PSoC4/BLE_eventHandler.c ****         CyBle_EsscIndicationEventHandler(eventParam);
 859:.\Generated_Source\PSoC4/BLE_eventHandler.c ****     }
 860:.\Generated_Source\PSoC4/BLE_eventHandler.c **** #endif /* CYBLE_ESS_CLIENT */
 861:.\Generated_Source\PSoC4/BLE_eventHandler.c **** #ifdef CYBLE_GLS_CLIENT
 862:.\Generated_Source\PSoC4/BLE_eventHandler.c ****     if((cyBle_eventHandlerFlag & CYBLE_CALLBACK) != 0u)
 863:.\Generated_Source\PSoC4/BLE_eventHandler.c ****     {
 864:.\Generated_Source\PSoC4/BLE_eventHandler.c ****         CyBle_GlscIndicationEventHandler(eventParam);
 865:.\Generated_Source\PSoC4/BLE_eventHandler.c ****     }
 866:.\Generated_Source\PSoC4/BLE_eventHandler.c **** #endif /* CYBLE_GLS_CLIENT */
 867:.\Generated_Source\PSoC4/BLE_eventHandler.c **** #ifdef CYBLE_HTS_CLIENT
 868:.\Generated_Source\PSoC4/BLE_eventHandler.c ****     if((cyBle_eventHandlerFlag & CYBLE_CALLBACK) != 0u)
 869:.\Generated_Source\PSoC4/BLE_eventHandler.c ****     {
 870:.\Generated_Source\PSoC4/BLE_eventHandler.c ****         CyBle_HtscIndicationEventHandler(eventParam);
 871:.\Generated_Source\PSoC4/BLE_eventHandler.c ****     }
 872:.\Generated_Source\PSoC4/BLE_eventHandler.c **** #endif /* CYBLE_HTS_CLIENT */
 873:.\Generated_Source\PSoC4/BLE_eventHandler.c **** #ifdef CYBLE_LNS_CLIENT
 874:.\Generated_Source\PSoC4/BLE_eventHandler.c ****     if((cyBle_eventHandlerFlag & CYBLE_CALLBACK) != 0u)
 875:.\Generated_Source\PSoC4/BLE_eventHandler.c ****     {
 876:.\Generated_Source\PSoC4/BLE_eventHandler.c ****         CyBle_LnscIndicationEventHandler(eventParam);
 877:.\Generated_Source\PSoC4/BLE_eventHandler.c ****     }
 878:.\Generated_Source\PSoC4/BLE_eventHandler.c **** #endif /* CYBLE_LNS_CLIENT */
 879:.\Generated_Source\PSoC4/BLE_eventHandler.c **** #ifdef CYBLE_RSCS_CLIENT
 880:.\Generated_Source\PSoC4/BLE_eventHandler.c ****     if((cyBle_eventHandlerFlag & CYBLE_CALLBACK) != 0u)
 881:.\Generated_Source\PSoC4/BLE_eventHandler.c ****     {
 882:.\Generated_Source\PSoC4/BLE_eventHandler.c ****         CyBle_RscscIndicationEventHandler(eventParam);
 883:.\Generated_Source\PSoC4/BLE_eventHandler.c ****     }
 884:.\Generated_Source\PSoC4/BLE_eventHandler.c **** #endif /* CYBLE_RSCS_CLIENT */
 885:.\Generated_Source\PSoC4/BLE_eventHandler.c **** #ifdef CYBLE_UDS_CLIENT
 886:.\Generated_Source\PSoC4/BLE_eventHandler.c ****     if((cyBle_eventHandlerFlag & CYBLE_CALLBACK) != 0u)
 887:.\Generated_Source\PSoC4/BLE_eventHandler.c ****     {
 888:.\Generated_Source\PSoC4/BLE_eventHandler.c ****         CyBle_UdscIndicationEventHandler(eventParam);
 889:.\Generated_Source\PSoC4/BLE_eventHandler.c ****     }
 890:.\Generated_Source\PSoC4/BLE_eventHandler.c **** #endif /* CYBLE_UDS_CLIENT */
 891:.\Generated_Source\PSoC4/BLE_eventHandler.c **** #ifdef CYBLE_WPTS_CLIENT
 892:.\Generated_Source\PSoC4/BLE_eventHandler.c ****     if((cyBle_eventHandlerFlag & CYBLE_CALLBACK) != 0u)
 893:.\Generated_Source\PSoC4/BLE_eventHandler.c ****     {
 894:.\Generated_Source\PSoC4/BLE_eventHandler.c ****         CyBle_WptscIndicationEventHandler(eventParam);
 895:.\Generated_Source\PSoC4/BLE_eventHandler.c ****     }
 896:.\Generated_Source\PSoC4/BLE_eventHandler.c **** #endif /* CYBLE_WPTS_CLIENT */
 897:.\Generated_Source\PSoC4/BLE_eventHandler.c **** #ifdef CYBLE_WSS_CLIENT
 898:.\Generated_Source\PSoC4/BLE_eventHandler.c ****     if((cyBle_eventHandlerFlag & CYBLE_CALLBACK) != 0u)
 899:.\Generated_Source\PSoC4/BLE_eventHandler.c ****     {
 900:.\Generated_Source\PSoC4/BLE_eventHandler.c ****         CyBle_WsscIndicationEventHandler(eventParam);
 901:.\Generated_Source\PSoC4/BLE_eventHandler.c ****     }
 902:.\Generated_Source\PSoC4/BLE_eventHandler.c **** #endif /* CYBLE_WSS_CLIENT */
 903:.\Generated_Source\PSoC4/BLE_eventHandler.c **** }
 904:.\Generated_Source\PSoC4/BLE_eventHandler.c **** 
 905:.\Generated_Source\PSoC4/BLE_eventHandler.c **** 
 906:.\Generated_Source\PSoC4/BLE_eventHandler.c **** 
 907:.\Generated_Source\PSoC4/BLE_eventHandler.c **** /******************************************************************************    
 908:.\Generated_Source\PSoC4/BLE_eventHandler.c **** ##Function Name: CyBle_ReadResponseEventHandler
 909:.\Generated_Source\PSoC4/BLE_eventHandler.c **** *******************************************************************************
ARM GAS  C:\Users\KEVINH~1\AppData\Local\Temp\ccC6tirb.s 			page 20


 910:.\Generated_Source\PSoC4/BLE_eventHandler.c **** 
 911:.\Generated_Source\PSoC4/BLE_eventHandler.c **** Summary:
 912:.\Generated_Source\PSoC4/BLE_eventHandler.c ****  Handles the Read Response event from BLE stack.
 913:.\Generated_Source\PSoC4/BLE_eventHandler.c **** 
 914:.\Generated_Source\PSoC4/BLE_eventHandler.c **** Parameters:
 915:.\Generated_Source\PSoC4/BLE_eventHandler.c ****  CYBLE_GATTC_READ_RSP_PARAM_T * eventParam - event parameter
 916:.\Generated_Source\PSoC4/BLE_eventHandler.c **** 
 917:.\Generated_Source\PSoC4/BLE_eventHandler.c **** Return:
 918:.\Generated_Source\PSoC4/BLE_eventHandler.c ****  None
 919:.\Generated_Source\PSoC4/BLE_eventHandler.c **** 
 920:.\Generated_Source\PSoC4/BLE_eventHandler.c **** ******************************************************************************/
 921:.\Generated_Source\PSoC4/BLE_eventHandler.c **** static void CyBle_ReadResponseEventHandler(CYBLE_GATTC_READ_RSP_PARAM_T *eventParam)
 922:.\Generated_Source\PSoC4/BLE_eventHandler.c **** {
 923:.\Generated_Source\PSoC4/BLE_eventHandler.c **** #ifdef CYBLE_CUSTOM_CLIENT
 924:.\Generated_Source\PSoC4/BLE_eventHandler.c ****     /* Read response with 128-bit included service uuid */
 925:.\Generated_Source\PSoC4/BLE_eventHandler.c ****     if((CYBLE_CLIENT_STATE_INCL_DISCOVERING == CyBle_GetClientState()) &&
 926:.\Generated_Source\PSoC4/BLE_eventHandler.c ****        (cyBle_discInclInfo.inclDefHandle != 0u))
 927:.\Generated_Source\PSoC4/BLE_eventHandler.c ****     {
 928:.\Generated_Source\PSoC4/BLE_eventHandler.c ****         CYBLE_DISC_SRVC128_INFO_T discServInfo;
 929:.\Generated_Source\PSoC4/BLE_eventHandler.c **** 
 930:.\Generated_Source\PSoC4/BLE_eventHandler.c ****         /* Store service range */
 931:.\Generated_Source\PSoC4/BLE_eventHandler.c ****         discServInfo.range = cyBle_discInclInfo.inclHandleRange;
 932:.\Generated_Source\PSoC4/BLE_eventHandler.c ****         (void)memcpy((void *) discServInfo.uuid.uuid128.value, (void *)eventParam->value.val, event
 933:.\Generated_Source\PSoC4/BLE_eventHandler.c ****         CyBle_CustomcDiscoverServiceEventHandler(&discServInfo);
 934:.\Generated_Source\PSoC4/BLE_eventHandler.c ****         
 935:.\Generated_Source\PSoC4/BLE_eventHandler.c ****         /* Re-initiate CyBle_GattcFindIncludedServices function, setting the start
 936:.\Generated_Source\PSoC4/BLE_eventHandler.c ****            handle to the attribute handle which is placed next to the one used in
 937:.\Generated_Source\PSoC4/BLE_eventHandler.c ****            the above step.
 938:.\Generated_Source\PSoC4/BLE_eventHandler.c ****         */
 939:.\Generated_Source\PSoC4/BLE_eventHandler.c ****         discServInfo.range.startHandle = cyBle_discInclInfo.inclDefHandle + 1;
 940:.\Generated_Source\PSoC4/BLE_eventHandler.c ****         discServInfo.range.endHandle = cyBle_serverInfo[cyBle_disCount].range.endHandle;
 941:.\Generated_Source\PSoC4/BLE_eventHandler.c ****         if(discServInfo.range.startHandle <= discServInfo.range.endHandle)
 942:.\Generated_Source\PSoC4/BLE_eventHandler.c ****         {
 943:.\Generated_Source\PSoC4/BLE_eventHandler.c ****             if(CYBLE_ERROR_OK != CyBle_GattcFindIncludedServices(cyBle_connHandle, &discServInfo.ra
 944:.\Generated_Source\PSoC4/BLE_eventHandler.c ****             {
 945:.\Generated_Source\PSoC4/BLE_eventHandler.c ****                 CyBle_ApplCallback(CYBLE_EVT_GATTC_INCL_DISCOVERY_FAILED, NULL);
 946:.\Generated_Source\PSoC4/BLE_eventHandler.c ****                 cyBle_eventHandlerFlag &= (uint8)~CYBLE_AUTO_DISCOVERY;
 947:.\Generated_Source\PSoC4/BLE_eventHandler.c ****             }
 948:.\Generated_Source\PSoC4/BLE_eventHandler.c ****         }
 949:.\Generated_Source\PSoC4/BLE_eventHandler.c ****         else /* Continue discovery of the following service */
 950:.\Generated_Source\PSoC4/BLE_eventHandler.c ****         {
 951:.\Generated_Source\PSoC4/BLE_eventHandler.c ****             CyBle_NextInclDiscovery(CYBLE_DISCOVERY_CONTINUE);
 952:.\Generated_Source\PSoC4/BLE_eventHandler.c ****         }
 953:.\Generated_Source\PSoC4/BLE_eventHandler.c ****         
 954:.\Generated_Source\PSoC4/BLE_eventHandler.c ****         cyBle_eventHandlerFlag &= (uint8)~CYBLE_CALLBACK;
 955:.\Generated_Source\PSoC4/BLE_eventHandler.c ****         cyBle_discInclInfo.inclDefHandle = 0u;
 956:.\Generated_Source\PSoC4/BLE_eventHandler.c ****         
 957:.\Generated_Source\PSoC4/BLE_eventHandler.c ****     }
 958:.\Generated_Source\PSoC4/BLE_eventHandler.c **** #endif /* CYBLE_CUSTOM_CLIENT */
 959:.\Generated_Source\PSoC4/BLE_eventHandler.c **** #ifdef CYBLE_ANS_CLIENT
 960:.\Generated_Source\PSoC4/BLE_eventHandler.c ****     if((cyBle_eventHandlerFlag & CYBLE_CALLBACK) != 0u)
 961:.\Generated_Source\PSoC4/BLE_eventHandler.c ****     {
 962:.\Generated_Source\PSoC4/BLE_eventHandler.c ****         CyBle_AnscReadResponseEventHandler(eventParam);
 963:.\Generated_Source\PSoC4/BLE_eventHandler.c ****     }
 964:.\Generated_Source\PSoC4/BLE_eventHandler.c **** #endif /* CYBLE_ANS_CLIENT */
 965:.\Generated_Source\PSoC4/BLE_eventHandler.c **** #ifdef CYBLE_BAS_CLIENT
 966:.\Generated_Source\PSoC4/BLE_eventHandler.c ****     if((cyBle_eventHandlerFlag & CYBLE_CALLBACK) != 0u)
ARM GAS  C:\Users\KEVINH~1\AppData\Local\Temp\ccC6tirb.s 			page 21


 967:.\Generated_Source\PSoC4/BLE_eventHandler.c ****     {
 968:.\Generated_Source\PSoC4/BLE_eventHandler.c ****         CyBle_BascReadResponseEventHandler(eventParam);
 969:.\Generated_Source\PSoC4/BLE_eventHandler.c ****     }
 970:.\Generated_Source\PSoC4/BLE_eventHandler.c **** #endif /* CYBLE_BAS_CLIENT */
 971:.\Generated_Source\PSoC4/BLE_eventHandler.c **** #ifdef CYBLE_BLS_CLIENT
 972:.\Generated_Source\PSoC4/BLE_eventHandler.c ****     if((cyBle_eventHandlerFlag & CYBLE_CALLBACK) != 0u)
 973:.\Generated_Source\PSoC4/BLE_eventHandler.c ****     {
 974:.\Generated_Source\PSoC4/BLE_eventHandler.c ****         CyBle_BlscReadResponseEventHandler(eventParam);
 975:.\Generated_Source\PSoC4/BLE_eventHandler.c ****     }
 976:.\Generated_Source\PSoC4/BLE_eventHandler.c **** #endif /* CYBLE_BLS_CLIENT */
 977:.\Generated_Source\PSoC4/BLE_eventHandler.c **** #ifdef CYBLE_BMS_CLIENT
 978:.\Generated_Source\PSoC4/BLE_eventHandler.c ****     if((cyBle_eventHandlerFlag & CYBLE_CALLBACK) != 0u)
 979:.\Generated_Source\PSoC4/BLE_eventHandler.c ****     {
 980:.\Generated_Source\PSoC4/BLE_eventHandler.c ****         CyBle_BmscReadResponseEventHandler(eventParam);
 981:.\Generated_Source\PSoC4/BLE_eventHandler.c ****     }
 982:.\Generated_Source\PSoC4/BLE_eventHandler.c **** #endif /* CYBLE_BMS_CLIENT */
 983:.\Generated_Source\PSoC4/BLE_eventHandler.c **** #ifdef CYBLE_CGMS_CLIENT
 984:.\Generated_Source\PSoC4/BLE_eventHandler.c ****     if((cyBle_eventHandlerFlag & CYBLE_CALLBACK) != 0u)
 985:.\Generated_Source\PSoC4/BLE_eventHandler.c ****     {
 986:.\Generated_Source\PSoC4/BLE_eventHandler.c ****         CyBle_CgmscReadResponseEventHandler(eventParam);
 987:.\Generated_Source\PSoC4/BLE_eventHandler.c ****     }
 988:.\Generated_Source\PSoC4/BLE_eventHandler.c **** #endif /* CYBLE_CGMS_CLIENT */
 989:.\Generated_Source\PSoC4/BLE_eventHandler.c **** #ifdef CYBLE_CPS_CLIENT
 990:.\Generated_Source\PSoC4/BLE_eventHandler.c ****     if((cyBle_eventHandlerFlag & CYBLE_CALLBACK) != 0u)
 991:.\Generated_Source\PSoC4/BLE_eventHandler.c ****     {
 992:.\Generated_Source\PSoC4/BLE_eventHandler.c ****         CyBle_CpscReadResponseEventHandler(eventParam);
 993:.\Generated_Source\PSoC4/BLE_eventHandler.c ****     }
 994:.\Generated_Source\PSoC4/BLE_eventHandler.c **** #endif /* CYBLE_CPS_CLIENT */
 995:.\Generated_Source\PSoC4/BLE_eventHandler.c **** #ifdef CYBLE_CSCS_CLIENT
 996:.\Generated_Source\PSoC4/BLE_eventHandler.c ****     if((cyBle_eventHandlerFlag & CYBLE_CALLBACK) != 0u)
 997:.\Generated_Source\PSoC4/BLE_eventHandler.c ****     {
 998:.\Generated_Source\PSoC4/BLE_eventHandler.c ****         CyBle_CscscReadResponseEventHandler(eventParam);
 999:.\Generated_Source\PSoC4/BLE_eventHandler.c ****     }
1000:.\Generated_Source\PSoC4/BLE_eventHandler.c **** #endif /* CYBLE_CSCS_CLIENT */
1001:.\Generated_Source\PSoC4/BLE_eventHandler.c **** #ifdef CYBLE_CTS_CLIENT
1002:.\Generated_Source\PSoC4/BLE_eventHandler.c ****     if((cyBle_eventHandlerFlag & CYBLE_CALLBACK) != 0u)
1003:.\Generated_Source\PSoC4/BLE_eventHandler.c ****     {
1004:.\Generated_Source\PSoC4/BLE_eventHandler.c ****         CyBle_CtscReadResponseEventHandler(eventParam);
1005:.\Generated_Source\PSoC4/BLE_eventHandler.c ****     }
1006:.\Generated_Source\PSoC4/BLE_eventHandler.c **** #endif /* CYBLE_BAS_CLIENT */
1007:.\Generated_Source\PSoC4/BLE_eventHandler.c **** #ifdef CYBLE_DIS_CLIENT
1008:.\Generated_Source\PSoC4/BLE_eventHandler.c ****     if((cyBle_eventHandlerFlag & CYBLE_CALLBACK) != 0u)
1009:.\Generated_Source\PSoC4/BLE_eventHandler.c ****     {
1010:.\Generated_Source\PSoC4/BLE_eventHandler.c ****         CyBle_DiscReadResponseEventHandler(eventParam);
1011:.\Generated_Source\PSoC4/BLE_eventHandler.c ****     }
1012:.\Generated_Source\PSoC4/BLE_eventHandler.c **** #endif /* CYBLE_DIS_CLIENT */
1013:.\Generated_Source\PSoC4/BLE_eventHandler.c **** #ifdef CYBLE_ESS_CLIENT
1014:.\Generated_Source\PSoC4/BLE_eventHandler.c ****     if((cyBle_eventHandlerFlag & CYBLE_CALLBACK) != 0u)
1015:.\Generated_Source\PSoC4/BLE_eventHandler.c ****     {
1016:.\Generated_Source\PSoC4/BLE_eventHandler.c ****         CyBle_EsscReadResponseEventHandler(eventParam);
1017:.\Generated_Source\PSoC4/BLE_eventHandler.c ****     }
1018:.\Generated_Source\PSoC4/BLE_eventHandler.c **** #endif /* CYBLE_ESS_CLIENT */
1019:.\Generated_Source\PSoC4/BLE_eventHandler.c **** #ifdef CYBLE_GLS_CLIENT
1020:.\Generated_Source\PSoC4/BLE_eventHandler.c ****     if((cyBle_eventHandlerFlag & CYBLE_CALLBACK) != 0u)
1021:.\Generated_Source\PSoC4/BLE_eventHandler.c ****     {
1022:.\Generated_Source\PSoC4/BLE_eventHandler.c ****         CyBle_GlscReadResponseEventHandler(eventParam);
1023:.\Generated_Source\PSoC4/BLE_eventHandler.c ****     }
ARM GAS  C:\Users\KEVINH~1\AppData\Local\Temp\ccC6tirb.s 			page 22


1024:.\Generated_Source\PSoC4/BLE_eventHandler.c **** #endif /* CYBLE_GLS_CLIENT */
1025:.\Generated_Source\PSoC4/BLE_eventHandler.c **** #ifdef CYBLE_HIDS_CLIENT
1026:.\Generated_Source\PSoC4/BLE_eventHandler.c ****     if((cyBle_eventHandlerFlag & CYBLE_CALLBACK) != 0u)
1027:.\Generated_Source\PSoC4/BLE_eventHandler.c ****     {
1028:.\Generated_Source\PSoC4/BLE_eventHandler.c ****         CyBle_HidscReadResponseEventHandler(eventParam);
1029:.\Generated_Source\PSoC4/BLE_eventHandler.c ****     }
1030:.\Generated_Source\PSoC4/BLE_eventHandler.c **** #endif /* CYBLE_HIDS_CLIENT */
1031:.\Generated_Source\PSoC4/BLE_eventHandler.c **** #ifdef CYBLE_HRS_CLIENT
1032:.\Generated_Source\PSoC4/BLE_eventHandler.c ****     if((cyBle_eventHandlerFlag & CYBLE_CALLBACK) != 0u)
1033:.\Generated_Source\PSoC4/BLE_eventHandler.c ****     {
1034:.\Generated_Source\PSoC4/BLE_eventHandler.c ****         CyBle_HrscReadResponseEventHandler(eventParam);
1035:.\Generated_Source\PSoC4/BLE_eventHandler.c ****     }
1036:.\Generated_Source\PSoC4/BLE_eventHandler.c **** #endif /* CYBLE_HRS_CLIENT */
1037:.\Generated_Source\PSoC4/BLE_eventHandler.c **** #ifdef CYBLE_HTS_CLIENT
1038:.\Generated_Source\PSoC4/BLE_eventHandler.c ****     if((cyBle_eventHandlerFlag & CYBLE_CALLBACK) != 0u)
1039:.\Generated_Source\PSoC4/BLE_eventHandler.c ****     {
1040:.\Generated_Source\PSoC4/BLE_eventHandler.c ****         CyBle_HtscReadResponseEventHandler(eventParam);
1041:.\Generated_Source\PSoC4/BLE_eventHandler.c ****     }
1042:.\Generated_Source\PSoC4/BLE_eventHandler.c **** #endif /* CYBLE_HTS_CLIENT */
1043:.\Generated_Source\PSoC4/BLE_eventHandler.c **** #ifdef CYBLE_LLS_CLIENT
1044:.\Generated_Source\PSoC4/BLE_eventHandler.c ****     if((cyBle_eventHandlerFlag & CYBLE_CALLBACK) != 0u)
1045:.\Generated_Source\PSoC4/BLE_eventHandler.c ****     {
1046:.\Generated_Source\PSoC4/BLE_eventHandler.c ****         CyBle_LlscReadResponseEventHandler(eventParam);
1047:.\Generated_Source\PSoC4/BLE_eventHandler.c ****     }
1048:.\Generated_Source\PSoC4/BLE_eventHandler.c **** #endif /* CYBLE_LLS_CLIENT */
1049:.\Generated_Source\PSoC4/BLE_eventHandler.c **** #ifdef CYBLE_LNS_CLIENT
1050:.\Generated_Source\PSoC4/BLE_eventHandler.c ****     if((cyBle_eventHandlerFlag & CYBLE_CALLBACK) != 0u)
1051:.\Generated_Source\PSoC4/BLE_eventHandler.c ****     {
1052:.\Generated_Source\PSoC4/BLE_eventHandler.c ****         CyBle_LnscReadResponseEventHandler(eventParam);
1053:.\Generated_Source\PSoC4/BLE_eventHandler.c ****     }
1054:.\Generated_Source\PSoC4/BLE_eventHandler.c **** #endif /* CYBLE_LNS_CLIENT */
1055:.\Generated_Source\PSoC4/BLE_eventHandler.c **** #ifdef CYBLE_NDCS_CLIENT
1056:.\Generated_Source\PSoC4/BLE_eventHandler.c ****     if((cyBle_eventHandlerFlag & CYBLE_CALLBACK) != 0u)
1057:.\Generated_Source\PSoC4/BLE_eventHandler.c ****     {
1058:.\Generated_Source\PSoC4/BLE_eventHandler.c ****         CyBle_NdcscReadResponseEventHandler(eventParam);
1059:.\Generated_Source\PSoC4/BLE_eventHandler.c ****     }
1060:.\Generated_Source\PSoC4/BLE_eventHandler.c **** #endif /* CYBLE_NDCS_CLIENT */
1061:.\Generated_Source\PSoC4/BLE_eventHandler.c **** #ifdef CYBLE_PASS_CLIENT
1062:.\Generated_Source\PSoC4/BLE_eventHandler.c ****     if((cyBle_eventHandlerFlag & CYBLE_CALLBACK) != 0u)
1063:.\Generated_Source\PSoC4/BLE_eventHandler.c ****     {
1064:.\Generated_Source\PSoC4/BLE_eventHandler.c ****         CyBle_PasscReadResponseEventHandler(eventParam);
1065:.\Generated_Source\PSoC4/BLE_eventHandler.c ****     }
1066:.\Generated_Source\PSoC4/BLE_eventHandler.c **** #endif /* CYBLE_PASS_CLIENT */
1067:.\Generated_Source\PSoC4/BLE_eventHandler.c **** #ifdef CYBLE_RSCS_CLIENT
1068:.\Generated_Source\PSoC4/BLE_eventHandler.c ****     if((cyBle_eventHandlerFlag & CYBLE_CALLBACK) != 0u)
1069:.\Generated_Source\PSoC4/BLE_eventHandler.c ****     {
1070:.\Generated_Source\PSoC4/BLE_eventHandler.c ****         CyBle_RscscReadResponseEventHandler(eventParam);
1071:.\Generated_Source\PSoC4/BLE_eventHandler.c ****     }
1072:.\Generated_Source\PSoC4/BLE_eventHandler.c **** #endif /* CYBLE_RSCS_CLIENT */
1073:.\Generated_Source\PSoC4/BLE_eventHandler.c **** #ifdef CYBLE_RTUS_CLIENT
1074:.\Generated_Source\PSoC4/BLE_eventHandler.c ****     if((cyBle_eventHandlerFlag & CYBLE_CALLBACK) != 0u)
1075:.\Generated_Source\PSoC4/BLE_eventHandler.c ****     {
1076:.\Generated_Source\PSoC4/BLE_eventHandler.c ****         CyBle_RtuscReadResponseEventHandler(eventParam);
1077:.\Generated_Source\PSoC4/BLE_eventHandler.c ****     }
1078:.\Generated_Source\PSoC4/BLE_eventHandler.c **** #endif /* CYBLE_RTUS_CLIENT */
1079:.\Generated_Source\PSoC4/BLE_eventHandler.c **** #ifdef CYBLE_SCPS_CLIENT
1080:.\Generated_Source\PSoC4/BLE_eventHandler.c ****     if((cyBle_eventHandlerFlag & CYBLE_CALLBACK) != 0u)
ARM GAS  C:\Users\KEVINH~1\AppData\Local\Temp\ccC6tirb.s 			page 23


1081:.\Generated_Source\PSoC4/BLE_eventHandler.c ****     {
1082:.\Generated_Source\PSoC4/BLE_eventHandler.c ****         CyBle_ScpscReadResponseEventHandler(eventParam);
1083:.\Generated_Source\PSoC4/BLE_eventHandler.c ****     }
1084:.\Generated_Source\PSoC4/BLE_eventHandler.c **** #endif /* CYBLE_SCPS_CLIENT */
1085:.\Generated_Source\PSoC4/BLE_eventHandler.c **** #ifdef CYBLE_TPS_CLIENT
1086:.\Generated_Source\PSoC4/BLE_eventHandler.c ****     if((cyBle_eventHandlerFlag & CYBLE_CALLBACK) != 0u)
1087:.\Generated_Source\PSoC4/BLE_eventHandler.c ****     {
1088:.\Generated_Source\PSoC4/BLE_eventHandler.c ****         CyBle_TpscReadResponseEventHandler(eventParam);
1089:.\Generated_Source\PSoC4/BLE_eventHandler.c ****     }
1090:.\Generated_Source\PSoC4/BLE_eventHandler.c **** #endif /* CYBLE_TPS_CLIENT */
1091:.\Generated_Source\PSoC4/BLE_eventHandler.c **** #ifdef CYBLE_UDS_CLIENT
1092:.\Generated_Source\PSoC4/BLE_eventHandler.c ****     if((cyBle_eventHandlerFlag & CYBLE_CALLBACK) != 0u)
1093:.\Generated_Source\PSoC4/BLE_eventHandler.c ****     {
1094:.\Generated_Source\PSoC4/BLE_eventHandler.c ****         CyBle_UdscReadResponseEventHandler(eventParam);
1095:.\Generated_Source\PSoC4/BLE_eventHandler.c ****     }
1096:.\Generated_Source\PSoC4/BLE_eventHandler.c **** #endif /* CYBLE_UDS_CLIENT */
1097:.\Generated_Source\PSoC4/BLE_eventHandler.c **** #ifdef CYBLE_WPTS_CLIENT
1098:.\Generated_Source\PSoC4/BLE_eventHandler.c ****     if((cyBle_eventHandlerFlag & CYBLE_CALLBACK) != 0u)
1099:.\Generated_Source\PSoC4/BLE_eventHandler.c ****     {
1100:.\Generated_Source\PSoC4/BLE_eventHandler.c ****         CyBle_WptscReadResponseEventHandler(eventParam);
1101:.\Generated_Source\PSoC4/BLE_eventHandler.c ****     }
1102:.\Generated_Source\PSoC4/BLE_eventHandler.c **** #endif /* CYBLE_WPTS_CLIENT */
1103:.\Generated_Source\PSoC4/BLE_eventHandler.c **** #ifdef CYBLE_WSS_CLIENT
1104:.\Generated_Source\PSoC4/BLE_eventHandler.c ****     if((cyBle_eventHandlerFlag & CYBLE_CALLBACK) != 0u)
1105:.\Generated_Source\PSoC4/BLE_eventHandler.c ****     {
1106:.\Generated_Source\PSoC4/BLE_eventHandler.c ****         CyBle_WsscReadResponseEventHandler(eventParam);
1107:.\Generated_Source\PSoC4/BLE_eventHandler.c ****     }
1108:.\Generated_Source\PSoC4/BLE_eventHandler.c **** #endif /* CYBLE_WSS_CLIENT */
1109:.\Generated_Source\PSoC4/BLE_eventHandler.c **** }
1110:.\Generated_Source\PSoC4/BLE_eventHandler.c **** #endif /* CYBLE_GATT_ROLE_CLIENT */
1111:.\Generated_Source\PSoC4/BLE_eventHandler.c **** 
1112:.\Generated_Source\PSoC4/BLE_eventHandler.c **** 
1113:.\Generated_Source\PSoC4/BLE_eventHandler.c **** /****************************************************************************** 
1114:.\Generated_Source\PSoC4/BLE_eventHandler.c **** ##Function Name: CyBle_DisconnectEventHandler
1115:.\Generated_Source\PSoC4/BLE_eventHandler.c **** *******************************************************************************
1116:.\Generated_Source\PSoC4/BLE_eventHandler.c **** 
1117:.\Generated_Source\PSoC4/BLE_eventHandler.c **** Summary:
1118:.\Generated_Source\PSoC4/BLE_eventHandler.c ****  Handles the GATT Disconnection event from the BLE stack.
1119:.\Generated_Source\PSoC4/BLE_eventHandler.c **** 
1120:.\Generated_Source\PSoC4/BLE_eventHandler.c **** Parameters:
1121:.\Generated_Source\PSoC4/BLE_eventHandler.c ****  None
1122:.\Generated_Source\PSoC4/BLE_eventHandler.c **** 
1123:.\Generated_Source\PSoC4/BLE_eventHandler.c **** Return:
1124:.\Generated_Source\PSoC4/BLE_eventHandler.c ****  None
1125:.\Generated_Source\PSoC4/BLE_eventHandler.c **** 
1126:.\Generated_Source\PSoC4/BLE_eventHandler.c **** ******************************************************************************/
1127:.\Generated_Source\PSoC4/BLE_eventHandler.c **** static void CyBle_GattDisconnectEventHandler(void)
1128:.\Generated_Source\PSoC4/BLE_eventHandler.c **** {
 175              		.loc 1 1128 0
 176              		.cfi_startproc
 177 0000 80B5     		push	{r7, lr}
 178              		.cfi_def_cfa_offset 8
 179              		.cfi_offset 7, -8
 180              		.cfi_offset 14, -4
 181 0002 00AF     		add	r7, sp, #0
 182              		.cfi_def_cfa_register 7
1129:.\Generated_Source\PSoC4/BLE_eventHandler.c ****     cyBle_connHandle.attId = 0u;
ARM GAS  C:\Users\KEVINH~1\AppData\Local\Temp\ccC6tirb.s 			page 24


 183              		.loc 1 1129 0
 184 0004 034B     		ldr	r3, .L9
 185 0006 0022     		mov	r2, #0
 186 0008 5A70     		strb	r2, [r3, #1]
1130:.\Generated_Source\PSoC4/BLE_eventHandler.c ****     cyBle_connHandle.bdHandle = 0u;
 187              		.loc 1 1130 0
 188 000a 024B     		ldr	r3, .L9
 189 000c 0022     		mov	r2, #0
 190 000e 1A70     		strb	r2, [r3]
1131:.\Generated_Source\PSoC4/BLE_eventHandler.c ****     
1132:.\Generated_Source\PSoC4/BLE_eventHandler.c ****     #if (CYBLE_GATT_ROLE_CLIENT)
1133:.\Generated_Source\PSoC4/BLE_eventHandler.c ****         if(CYBLE_CLIENT_STATE_DISCOVERED == CyBle_GetClientState())
1134:.\Generated_Source\PSoC4/BLE_eventHandler.c ****         {
1135:.\Generated_Source\PSoC4/BLE_eventHandler.c ****             CyBle_SetClientState(CYBLE_CLIENT_STATE_DISCONNECTED_DISCOVERED);
1136:.\Generated_Source\PSoC4/BLE_eventHandler.c ****         }
1137:.\Generated_Source\PSoC4/BLE_eventHandler.c ****         else
1138:.\Generated_Source\PSoC4/BLE_eventHandler.c ****         {
1139:.\Generated_Source\PSoC4/BLE_eventHandler.c ****             CyBle_SetClientState(CYBLE_CLIENT_STATE_DISCONNECTED);
1140:.\Generated_Source\PSoC4/BLE_eventHandler.c ****         }
1141:.\Generated_Source\PSoC4/BLE_eventHandler.c ****     #endif /* CYBLE_GATT_ROLE_CLIENT */
1142:.\Generated_Source\PSoC4/BLE_eventHandler.c ****         
1143:.\Generated_Source\PSoC4/BLE_eventHandler.c ****     #ifdef CYBLE_CPS_SERVER
1144:.\Generated_Source\PSoC4/BLE_eventHandler.c ****         #if CYBLE_GAP_ROLE_BROADCASTER
1145:.\Generated_Source\PSoC4/BLE_eventHandler.c ****             CyBle_CpssDisconnectEventHandler();
1146:.\Generated_Source\PSoC4/BLE_eventHandler.c ****         #endif /* CYBLE_GAP_ROLE_BROADCASTER */
1147:.\Generated_Source\PSoC4/BLE_eventHandler.c ****     #endif /* CYBLE_CPS_SERVER */
1148:.\Generated_Source\PSoC4/BLE_eventHandler.c **** 
1149:.\Generated_Source\PSoC4/BLE_eventHandler.c ****     #ifdef CYBLE_CPS_CLIENT
1150:.\Generated_Source\PSoC4/BLE_eventHandler.c ****         CyBle_CpscDisconnectEventHandler();
1151:.\Generated_Source\PSoC4/BLE_eventHandler.c ****     #endif /* CYBLE_CPS_CLIENT */
1152:.\Generated_Source\PSoC4/BLE_eventHandler.c **** 
1153:.\Generated_Source\PSoC4/BLE_eventHandler.c ****     #ifdef CYBLE_IAS_SERVER
1154:.\Generated_Source\PSoC4/BLE_eventHandler.c ****         CyBle_IassDisconnectEventHandler();
1155:.\Generated_Source\PSoC4/BLE_eventHandler.c ****     #endif /* CYBLE_IAS_SERVER */
1156:.\Generated_Source\PSoC4/BLE_eventHandler.c ****     
1157:.\Generated_Source\PSoC4/BLE_eventHandler.c ****     #ifdef CYBLE_GLS_SERVER
1158:.\Generated_Source\PSoC4/BLE_eventHandler.c ****         CyBle_GlsInit();
1159:.\Generated_Source\PSoC4/BLE_eventHandler.c ****     #endif /* CYBLE_GLS_SERVER */
1160:.\Generated_Source\PSoC4/BLE_eventHandler.c ****     
1161:.\Generated_Source\PSoC4/BLE_eventHandler.c ****     #ifdef CYBLE_LNS_SERVER
1162:.\Generated_Source\PSoC4/BLE_eventHandler.c ****         CyBle_LnsInit();
1163:.\Generated_Source\PSoC4/BLE_eventHandler.c ****     #endif /* CYBLE_LNS_SERVER */
1164:.\Generated_Source\PSoC4/BLE_eventHandler.c ****     
1165:.\Generated_Source\PSoC4/BLE_eventHandler.c ****     #ifdef CYBLE_UDS_SERVER
1166:.\Generated_Source\PSoC4/BLE_eventHandler.c ****         CyBle_UdsInit();
1167:.\Generated_Source\PSoC4/BLE_eventHandler.c ****     #endif /* CYBLE_UDS_SERVER */
1168:.\Generated_Source\PSoC4/BLE_eventHandler.c **** }
 191              		.loc 1 1168 0
 192 0010 BD46     		mov	sp, r7
 193              		@ sp needed
 194 0012 80BD     		pop	{r7, pc}
 195              	.L10:
 196              		.align	2
 197              	.L9:
 198 0014 00000000 		.word	cyBle_connHandle
 199              		.cfi_endproc
 200              	.LFE4:
ARM GAS  C:\Users\KEVINH~1\AppData\Local\Temp\ccC6tirb.s 			page 25


 201              		.size	CyBle_GattDisconnectEventHandler, .-CyBle_GattDisconnectEventHandler
 202              		.section	.text.CyBle_TimeOutEventHandler,"ax",%progbits
 203              		.align	2
 204              		.code	16
 205              		.thumb_func
 206              		.type	CyBle_TimeOutEventHandler, %function
 207              	CyBle_TimeOutEventHandler:
 208              	.LFB5:
1169:.\Generated_Source\PSoC4/BLE_eventHandler.c **** 
1170:.\Generated_Source\PSoC4/BLE_eventHandler.c **** 
1171:.\Generated_Source\PSoC4/BLE_eventHandler.c **** /****************************************************************************** 
1172:.\Generated_Source\PSoC4/BLE_eventHandler.c **** ##Function Name: CyBle_TimeOutEventHandler
1173:.\Generated_Source\PSoC4/BLE_eventHandler.c **** *******************************************************************************
1174:.\Generated_Source\PSoC4/BLE_eventHandler.c **** 
1175:.\Generated_Source\PSoC4/BLE_eventHandler.c **** Summary:
1176:.\Generated_Source\PSoC4/BLE_eventHandler.c ****  Handles the CYBLE_EVT_TIMEOUT event from the BLE stack.
1177:.\Generated_Source\PSoC4/BLE_eventHandler.c **** 
1178:.\Generated_Source\PSoC4/BLE_eventHandler.c **** Parameters:
1179:.\Generated_Source\PSoC4/BLE_eventHandler.c ****  *eventParam - The pointer to a structure of type CYBLE_TO_REASON_CODE_T.
1180:.\Generated_Source\PSoC4/BLE_eventHandler.c **** 
1181:.\Generated_Source\PSoC4/BLE_eventHandler.c **** Return:
1182:.\Generated_Source\PSoC4/BLE_eventHandler.c ****  None
1183:.\Generated_Source\PSoC4/BLE_eventHandler.c **** 
1184:.\Generated_Source\PSoC4/BLE_eventHandler.c **** ******************************************************************************/
1185:.\Generated_Source\PSoC4/BLE_eventHandler.c **** static void CyBle_TimeOutEventHandler(const CYBLE_TO_REASON_CODE_T *eventParam)
1186:.\Generated_Source\PSoC4/BLE_eventHandler.c **** {
 209              		.loc 1 1186 0
 210              		.cfi_startproc
 211 0000 80B5     		push	{r7, lr}
 212              		.cfi_def_cfa_offset 8
 213              		.cfi_offset 7, -8
 214              		.cfi_offset 14, -4
 215 0002 82B0     		sub	sp, sp, #8
 216              		.cfi_def_cfa_offset 16
 217 0004 00AF     		add	r7, sp, #0
 218              		.cfi_def_cfa_register 7
 219 0006 7860     		str	r0, [r7, #4]
1187:.\Generated_Source\PSoC4/BLE_eventHandler.c ****     if(*eventParam == CYBLE_GATT_RSP_TO)
1188:.\Generated_Source\PSoC4/BLE_eventHandler.c ****     {
1189:.\Generated_Source\PSoC4/BLE_eventHandler.c ****     #if (CYBLE_GATT_ROLE_CLIENT)
1190:.\Generated_Source\PSoC4/BLE_eventHandler.c ****         if(0u != (cyBle_eventHandlerFlag & CYBLE_AUTO_DISCOVERY))
1191:.\Generated_Source\PSoC4/BLE_eventHandler.c ****         {
1192:.\Generated_Source\PSoC4/BLE_eventHandler.c ****             switch(CyBle_GetClientState())
1193:.\Generated_Source\PSoC4/BLE_eventHandler.c ****             {
1194:.\Generated_Source\PSoC4/BLE_eventHandler.c ****                 case CYBLE_CLIENT_STATE_SRVC_DISCOVERING:
1195:.\Generated_Source\PSoC4/BLE_eventHandler.c ****                     CyBle_ApplCallback(CYBLE_EVT_GATTC_SRVC_DISCOVERY_FAILED, NULL);
1196:.\Generated_Source\PSoC4/BLE_eventHandler.c ****                     break;
1197:.\Generated_Source\PSoC4/BLE_eventHandler.c ****                 case CYBLE_CLIENT_STATE_INCL_DISCOVERING:
1198:.\Generated_Source\PSoC4/BLE_eventHandler.c ****                     CyBle_ApplCallback(CYBLE_EVT_GATTC_INCL_DISCOVERY_FAILED, NULL);
1199:.\Generated_Source\PSoC4/BLE_eventHandler.c ****                     break;
1200:.\Generated_Source\PSoC4/BLE_eventHandler.c ****                 case CYBLE_CLIENT_STATE_CHAR_DISCOVERING:
1201:.\Generated_Source\PSoC4/BLE_eventHandler.c ****                     CyBle_ApplCallback(CYBLE_EVT_GATTC_CHAR_DISCOVERY_FAILED, NULL);
1202:.\Generated_Source\PSoC4/BLE_eventHandler.c ****                     break;
1203:.\Generated_Source\PSoC4/BLE_eventHandler.c ****                 case CYBLE_CLIENT_STATE_DESCR_DISCOVERING:
1204:.\Generated_Source\PSoC4/BLE_eventHandler.c ****                     CyBle_ApplCallback(CYBLE_EVT_GATTC_DESCR_DISCOVERY_FAILED, NULL);
1205:.\Generated_Source\PSoC4/BLE_eventHandler.c ****                     break;
1206:.\Generated_Source\PSoC4/BLE_eventHandler.c ****                 default:        /* Other states should not be set in Auto discovery mode */
ARM GAS  C:\Users\KEVINH~1\AppData\Local\Temp\ccC6tirb.s 			page 26


1207:.\Generated_Source\PSoC4/BLE_eventHandler.c ****                     break;
1208:.\Generated_Source\PSoC4/BLE_eventHandler.c ****             }
1209:.\Generated_Source\PSoC4/BLE_eventHandler.c ****             cyBle_eventHandlerFlag &= (uint8)~CYBLE_AUTO_DISCOVERY;
1210:.\Generated_Source\PSoC4/BLE_eventHandler.c ****             CyBle_SetClientState(CYBLE_CLIENT_STATE_CONNECTED);
1211:.\Generated_Source\PSoC4/BLE_eventHandler.c ****         }
1212:.\Generated_Source\PSoC4/BLE_eventHandler.c ****     #endif /* CYBLE_GATT_ROLE_CLIENT */
1213:.\Generated_Source\PSoC4/BLE_eventHandler.c ****     #ifdef CYBLE_CPS_SERVER
1214:.\Generated_Source\PSoC4/BLE_eventHandler.c ****         CyBle_CpssTimeOutEventHandler();
1215:.\Generated_Source\PSoC4/BLE_eventHandler.c ****     #endif /* CYBLE_CPS_SERVER */
1216:.\Generated_Source\PSoC4/BLE_eventHandler.c ****     }
1217:.\Generated_Source\PSoC4/BLE_eventHandler.c ****     
1218:.\Generated_Source\PSoC4/BLE_eventHandler.c ****     /* Connection procedure timeout */
1219:.\Generated_Source\PSoC4/BLE_eventHandler.c ****     if(*eventParam == CYBLE_GENERIC_TO)
1220:.\Generated_Source\PSoC4/BLE_eventHandler.c ****     {
1221:.\Generated_Source\PSoC4/BLE_eventHandler.c ****     #if(CYBLE_GAP_ROLE_CENTRAL)
1222:.\Generated_Source\PSoC4/BLE_eventHandler.c ****         if(CYBLE_STATE_CONNECTING == CyBle_GetState())
1223:.\Generated_Source\PSoC4/BLE_eventHandler.c ****         {
1224:.\Generated_Source\PSoC4/BLE_eventHandler.c ****             (void)CyBle_GapcCancelDeviceConnection();
1225:.\Generated_Source\PSoC4/BLE_eventHandler.c ****         }
1226:.\Generated_Source\PSoC4/BLE_eventHandler.c ****     #endif /* CYBLE_GAP_ROLE_CENTRAL */
1227:.\Generated_Source\PSoC4/BLE_eventHandler.c ****     }
1228:.\Generated_Source\PSoC4/BLE_eventHandler.c **** }
 220              		.loc 1 1228 0
 221 0008 BD46     		mov	sp, r7
 222 000a 02B0     		add	sp, sp, #8
 223              		@ sp needed
 224 000c 80BD     		pop	{r7, pc}
 225              		.cfi_endproc
 226              	.LFE5:
 227              		.size	CyBle_TimeOutEventHandler, .-CyBle_TimeOutEventHandler
 228              		.section	.text.CyBle_GattConnectReqHandler,"ax",%progbits
 229              		.align	2
 230              		.code	16
 231              		.thumb_func
 232              		.type	CyBle_GattConnectReqHandler, %function
 233              	CyBle_GattConnectReqHandler:
 234              	.LFB6:
1229:.\Generated_Source\PSoC4/BLE_eventHandler.c **** 
1230:.\Generated_Source\PSoC4/BLE_eventHandler.c **** 
1231:.\Generated_Source\PSoC4/BLE_eventHandler.c **** /****************************************************************************** 
1232:.\Generated_Source\PSoC4/BLE_eventHandler.c **** ##Function Name: CyBle_GattConnectReqHandler
1233:.\Generated_Source\PSoC4/BLE_eventHandler.c **** *******************************************************************************
1234:.\Generated_Source\PSoC4/BLE_eventHandler.c **** 
1235:.\Generated_Source\PSoC4/BLE_eventHandler.c **** Summary:
1236:.\Generated_Source\PSoC4/BLE_eventHandler.c ****  Handles the GATT connect event from the BLE stack.
1237:.\Generated_Source\PSoC4/BLE_eventHandler.c **** 
1238:.\Generated_Source\PSoC4/BLE_eventHandler.c **** Parameters:
1239:.\Generated_Source\PSoC4/BLE_eventHandler.c ****  None
1240:.\Generated_Source\PSoC4/BLE_eventHandler.c **** 
1241:.\Generated_Source\PSoC4/BLE_eventHandler.c **** Return:
1242:.\Generated_Source\PSoC4/BLE_eventHandler.c ****  None
1243:.\Generated_Source\PSoC4/BLE_eventHandler.c **** 
1244:.\Generated_Source\PSoC4/BLE_eventHandler.c **** ******************************************************************************/
1245:.\Generated_Source\PSoC4/BLE_eventHandler.c **** static void CyBle_GattConnectReqHandler(void)
1246:.\Generated_Source\PSoC4/BLE_eventHandler.c **** {
 235              		.loc 1 1246 0
 236              		.cfi_startproc
ARM GAS  C:\Users\KEVINH~1\AppData\Local\Temp\ccC6tirb.s 			page 27


 237 0000 80B5     		push	{r7, lr}
 238              		.cfi_def_cfa_offset 8
 239              		.cfi_offset 7, -8
 240              		.cfi_offset 14, -4
 241 0002 00AF     		add	r7, sp, #0
 242              		.cfi_def_cfa_register 7
1247:.\Generated_Source\PSoC4/BLE_eventHandler.c ****     #ifdef CYBLE_CGMS_SERVER
1248:.\Generated_Source\PSoC4/BLE_eventHandler.c ****         CyBle_CgmsInit();
1249:.\Generated_Source\PSoC4/BLE_eventHandler.c ****     #endif /* CYBLE_CGMS_SERVER */
1250:.\Generated_Source\PSoC4/BLE_eventHandler.c ****     
1251:.\Generated_Source\PSoC4/BLE_eventHandler.c ****     #ifdef CYBLE_CPS_SERVER
1252:.\Generated_Source\PSoC4/BLE_eventHandler.c ****         CyBle_CpssConnectEventHandler();
1253:.\Generated_Source\PSoC4/BLE_eventHandler.c ****     #endif /* CYBLE_CPS_SERVER */
1254:.\Generated_Source\PSoC4/BLE_eventHandler.c ****     
1255:.\Generated_Source\PSoC4/BLE_eventHandler.c ****     #ifdef CYBLE_CSCS_SERVER
1256:.\Generated_Source\PSoC4/BLE_eventHandler.c ****             CyBle_CscsInit();
1257:.\Generated_Source\PSoC4/BLE_eventHandler.c ****     #endif /* CYBLE_CSCS_SERVER */
1258:.\Generated_Source\PSoC4/BLE_eventHandler.c ****     
1259:.\Generated_Source\PSoC4/BLE_eventHandler.c ****     #ifdef CYBLE_LLS_SERVER
1260:.\Generated_Source\PSoC4/BLE_eventHandler.c ****         CyBle_LlssConnectEventHandler();
1261:.\Generated_Source\PSoC4/BLE_eventHandler.c ****     #endif /* CYBLE_LLS_SERVER */
1262:.\Generated_Source\PSoC4/BLE_eventHandler.c ****     
1263:.\Generated_Source\PSoC4/BLE_eventHandler.c ****     #ifdef CYBLE_HIDS_SERVER
1264:.\Generated_Source\PSoC4/BLE_eventHandler.c ****         CyBle_HidssOnDeviceConnected();
1265:.\Generated_Source\PSoC4/BLE_eventHandler.c ****     #endif /* CYBLE_HIDS_SERVER */
1266:.\Generated_Source\PSoC4/BLE_eventHandler.c **** 
1267:.\Generated_Source\PSoC4/BLE_eventHandler.c ****     #ifdef CYBLE_RSCS_SERVER
1268:.\Generated_Source\PSoC4/BLE_eventHandler.c ****         CyBle_RscsInit();
1269:.\Generated_Source\PSoC4/BLE_eventHandler.c ****     #endif /* CYBLE_RSCS_SERVER */
1270:.\Generated_Source\PSoC4/BLE_eventHandler.c **** }
 243              		.loc 1 1270 0
 244 0004 BD46     		mov	sp, r7
 245              		@ sp needed
 246 0006 80BD     		pop	{r7, pc}
 247              		.cfi_endproc
 248              	.LFE6:
 249              		.size	CyBle_GattConnectReqHandler, .-CyBle_GattConnectReqHandler
 250              		.section	.text.CyBle_IsDeviceAddressValid,"ax",%progbits
 251              		.align	2
 252              		.code	16
 253              		.thumb_func
 254              		.type	CyBle_IsDeviceAddressValid, %function
 255              	CyBle_IsDeviceAddressValid:
 256              	.LFB7:
1271:.\Generated_Source\PSoC4/BLE_eventHandler.c **** 
1272:.\Generated_Source\PSoC4/BLE_eventHandler.c **** 
1273:.\Generated_Source\PSoC4/BLE_eventHandler.c **** #if (CYBLE_GATT_ROLE_SERVER || CYBLE_GATT_ROLE_CLIENT)
1274:.\Generated_Source\PSoC4/BLE_eventHandler.c **** 
1275:.\Generated_Source\PSoC4/BLE_eventHandler.c **** /****************************************************************************** 
1276:.\Generated_Source\PSoC4/BLE_eventHandler.c **** ##Function Name: CyBle_IsDeviceAddressValid
1277:.\Generated_Source\PSoC4/BLE_eventHandler.c **** *******************************************************************************
1278:.\Generated_Source\PSoC4/BLE_eventHandler.c **** 
1279:.\Generated_Source\PSoC4/BLE_eventHandler.c **** Summary:
1280:.\Generated_Source\PSoC4/BLE_eventHandler.c ****  This function verifies that BLE public address has been programmed to SFLASH 
1281:.\Generated_Source\PSoC4/BLE_eventHandler.c ****  during manufacture.
1282:.\Generated_Source\PSoC4/BLE_eventHandler.c **** 
1283:.\Generated_Source\PSoC4/BLE_eventHandler.c **** Parameters:
ARM GAS  C:\Users\KEVINH~1\AppData\Local\Temp\ccC6tirb.s 			page 28


1284:.\Generated_Source\PSoC4/BLE_eventHandler.c ****  CYBLE_GAP_BD_ADDR_T *sflashDeviceAddress: the pointer to the BD address of 
1285:.\Generated_Source\PSoC4/BLE_eventHandler.c ****                                            type CYBLE_GAP_BD_ADDR_T. 
1286:.\Generated_Source\PSoC4/BLE_eventHandler.c **** 
1287:.\Generated_Source\PSoC4/BLE_eventHandler.c **** Return:
1288:.\Generated_Source\PSoC4/BLE_eventHandler.c ****  Non zero value when a device address differs from the default SFLASH content.
1289:.\Generated_Source\PSoC4/BLE_eventHandler.c **** 
1290:.\Generated_Source\PSoC4/BLE_eventHandler.c **** ******************************************************************************/
1291:.\Generated_Source\PSoC4/BLE_eventHandler.c **** static uint8 CyBle_IsDeviceAddressValid(const CYBLE_GAP_BD_ADDR_T *sflashDeviceAddress)
1292:.\Generated_Source\PSoC4/BLE_eventHandler.c **** {
 257              		.loc 1 1292 0
 258              		.cfi_startproc
 259 0000 80B5     		push	{r7, lr}
 260              		.cfi_def_cfa_offset 8
 261              		.cfi_offset 7, -8
 262              		.cfi_offset 14, -4
 263 0002 84B0     		sub	sp, sp, #16
 264              		.cfi_def_cfa_offset 24
 265 0004 00AF     		add	r7, sp, #0
 266              		.cfi_def_cfa_register 7
 267 0006 7860     		str	r0, [r7, #4]
1293:.\Generated_Source\PSoC4/BLE_eventHandler.c ****     uint8 i;
1294:.\Generated_Source\PSoC4/BLE_eventHandler.c ****     uint8 sflashAddressValid = 0u;
 268              		.loc 1 1294 0
 269 0008 3B1C     		mov	r3, r7
 270 000a 0E33     		add	r3, r3, #14
 271 000c 0022     		mov	r2, #0
 272 000e 1A70     		strb	r2, [r3]
1295:.\Generated_Source\PSoC4/BLE_eventHandler.c ****     
1296:.\Generated_Source\PSoC4/BLE_eventHandler.c ****     if(sflashDeviceAddress -> type == CYBLE_GAP_ADDR_TYPE_PUBLIC)  
 273              		.loc 1 1296 0
 274 0010 7B68     		ldr	r3, [r7, #4]
 275 0012 9B79     		ldrb	r3, [r3, #6]
 276 0014 002B     		cmp	r3, #0
 277 0016 1CD1     		bne	.L14
1297:.\Generated_Source\PSoC4/BLE_eventHandler.c ****     {
1298:.\Generated_Source\PSoC4/BLE_eventHandler.c ****         for(i = 0u; i < CYBLE_GAP_BD_ADDR_SIZE; i++)
 278              		.loc 1 1298 0
 279 0018 3B1C     		mov	r3, r7
 280 001a 0F33     		add	r3, r3, #15
 281 001c 0022     		mov	r2, #0
 282 001e 1A70     		strb	r2, [r3]
 283 0020 12E0     		b	.L15
 284              	.L17:
1299:.\Generated_Source\PSoC4/BLE_eventHandler.c ****         {
1300:.\Generated_Source\PSoC4/BLE_eventHandler.c ****             if(sflashDeviceAddress->bdAddr[i] != 0u)
 285              		.loc 1 1300 0
 286 0022 3B1C     		mov	r3, r7
 287 0024 0F33     		add	r3, r3, #15
 288 0026 1B78     		ldrb	r3, [r3]
 289 0028 7A68     		ldr	r2, [r7, #4]
 290 002a D35C     		ldrb	r3, [r2, r3]
 291 002c 002B     		cmp	r3, #0
 292 002e 04D0     		beq	.L16
1301:.\Generated_Source\PSoC4/BLE_eventHandler.c ****             {
1302:.\Generated_Source\PSoC4/BLE_eventHandler.c ****                 sflashAddressValid = 1u;
 293              		.loc 1 1302 0
 294 0030 3B1C     		mov	r3, r7
ARM GAS  C:\Users\KEVINH~1\AppData\Local\Temp\ccC6tirb.s 			page 29


 295 0032 0E33     		add	r3, r3, #14
 296 0034 0122     		mov	r2, #1
 297 0036 1A70     		strb	r2, [r3]
1303:.\Generated_Source\PSoC4/BLE_eventHandler.c ****                 break;
 298              		.loc 1 1303 0
 299 0038 0BE0     		b	.L14
 300              	.L16:
1298:.\Generated_Source\PSoC4/BLE_eventHandler.c ****         for(i = 0u; i < CYBLE_GAP_BD_ADDR_SIZE; i++)
 301              		.loc 1 1298 0
 302 003a 3B1C     		mov	r3, r7
 303 003c 0F33     		add	r3, r3, #15
 304 003e 1A78     		ldrb	r2, [r3]
 305 0040 3B1C     		mov	r3, r7
 306 0042 0F33     		add	r3, r3, #15
 307 0044 0132     		add	r2, r2, #1
 308 0046 1A70     		strb	r2, [r3]
 309              	.L15:
1298:.\Generated_Source\PSoC4/BLE_eventHandler.c ****         for(i = 0u; i < CYBLE_GAP_BD_ADDR_SIZE; i++)
 310              		.loc 1 1298 0 is_stmt 0 discriminator 1
 311 0048 3B1C     		mov	r3, r7
 312 004a 0F33     		add	r3, r3, #15
 313 004c 1B78     		ldrb	r3, [r3]
 314 004e 052B     		cmp	r3, #5
 315 0050 E7D9     		bls	.L17
 316              	.L14:
1304:.\Generated_Source\PSoC4/BLE_eventHandler.c ****             }
1305:.\Generated_Source\PSoC4/BLE_eventHandler.c ****         }
1306:.\Generated_Source\PSoC4/BLE_eventHandler.c ****     }
1307:.\Generated_Source\PSoC4/BLE_eventHandler.c ****     return (sflashAddressValid);
 317              		.loc 1 1307 0 is_stmt 1
 318 0052 3B1C     		mov	r3, r7
 319 0054 0E33     		add	r3, r3, #14
 320 0056 1B78     		ldrb	r3, [r3]
1308:.\Generated_Source\PSoC4/BLE_eventHandler.c **** }
 321              		.loc 1 1308 0
 322 0058 181C     		mov	r0, r3
 323 005a BD46     		mov	sp, r7
 324 005c 04B0     		add	sp, sp, #16
 325              		@ sp needed
 326 005e 80BD     		pop	{r7, pc}
 327              		.cfi_endproc
 328              	.LFE7:
 329              		.size	CyBle_IsDeviceAddressValid, .-CyBle_IsDeviceAddressValid
 330              		.section	.text.CyBle_L2Cap_ConnParamUpdateRspEventHandler,"ax",%progbits
 331              		.align	2
 332              		.code	16
 333              		.thumb_func
 334              		.type	CyBle_L2Cap_ConnParamUpdateRspEventHandler, %function
 335              	CyBle_L2Cap_ConnParamUpdateRspEventHandler:
 336              	.LFB8:
1309:.\Generated_Source\PSoC4/BLE_eventHandler.c **** #endif /* CYBLE_GATT_ROLE_SERVER || CYBLE_GATT_ROLE_CLIENT */
1310:.\Generated_Source\PSoC4/BLE_eventHandler.c **** 
1311:.\Generated_Source\PSoC4/BLE_eventHandler.c **** 
1312:.\Generated_Source\PSoC4/BLE_eventHandler.c **** /****************************************************************************** 
1313:.\Generated_Source\PSoC4/BLE_eventHandler.c **** ##Function Name: CyBle_L2Cap_ConnParamUpdateRspHandler
1314:.\Generated_Source\PSoC4/BLE_eventHandler.c **** *******************************************************************************
1315:.\Generated_Source\PSoC4/BLE_eventHandler.c **** 
ARM GAS  C:\Users\KEVINH~1\AppData\Local\Temp\ccC6tirb.s 			page 30


1316:.\Generated_Source\PSoC4/BLE_eventHandler.c **** Summary:
1317:.\Generated_Source\PSoC4/BLE_eventHandler.c ****  Handles the L2CAP connection parameter response event from
1318:.\Generated_Source\PSoC4/BLE_eventHandler.c ****  the BLE stack.
1319:.\Generated_Source\PSoC4/BLE_eventHandler.c **** 
1320:.\Generated_Source\PSoC4/BLE_eventHandler.c **** Parameters:
1321:.\Generated_Source\PSoC4/BLE_eventHandler.c ****  uint16 response:
1322:.\Generated_Source\PSoC4/BLE_eventHandler.c ****      * Accepted = 0x0000
1323:.\Generated_Source\PSoC4/BLE_eventHandler.c ****      * Rejected = 0x0001
1324:.\Generated_Source\PSoC4/BLE_eventHandler.c **** 
1325:.\Generated_Source\PSoC4/BLE_eventHandler.c **** Return:
1326:.\Generated_Source\PSoC4/BLE_eventHandler.c ****  None
1327:.\Generated_Source\PSoC4/BLE_eventHandler.c **** 
1328:.\Generated_Source\PSoC4/BLE_eventHandler.c **** ******************************************************************************/
1329:.\Generated_Source\PSoC4/BLE_eventHandler.c **** static void CyBle_L2Cap_ConnParamUpdateRspEventHandler(uint16 response)
1330:.\Generated_Source\PSoC4/BLE_eventHandler.c **** {
 337              		.loc 1 1330 0
 338              		.cfi_startproc
 339 0000 80B5     		push	{r7, lr}
 340              		.cfi_def_cfa_offset 8
 341              		.cfi_offset 7, -8
 342              		.cfi_offset 14, -4
 343 0002 82B0     		sub	sp, sp, #8
 344              		.cfi_def_cfa_offset 16
 345 0004 00AF     		add	r7, sp, #0
 346              		.cfi_def_cfa_register 7
 347 0006 021C     		mov	r2, r0
 348 0008 BB1D     		add	r3, r7, #6
 349 000a 1A80     		strh	r2, [r3]
1331:.\Generated_Source\PSoC4/BLE_eventHandler.c ****     #ifdef CYBLE_CPS_SERVER
1332:.\Generated_Source\PSoC4/BLE_eventHandler.c ****         CyBle_CpssConnParamUpdateRspEventHandler(response);
1333:.\Generated_Source\PSoC4/BLE_eventHandler.c ****     #endif /* CYBLE_CPS_SERVER */
1334:.\Generated_Source\PSoC4/BLE_eventHandler.c ****     
1335:.\Generated_Source\PSoC4/BLE_eventHandler.c ****     /* Unreferenced variable warning workaround */
1336:.\Generated_Source\PSoC4/BLE_eventHandler.c ****     if(response != 0u)
1337:.\Generated_Source\PSoC4/BLE_eventHandler.c ****     {
1338:.\Generated_Source\PSoC4/BLE_eventHandler.c ****     }
1339:.\Generated_Source\PSoC4/BLE_eventHandler.c **** }
 350              		.loc 1 1339 0
 351 000c BD46     		mov	sp, r7
 352 000e 02B0     		add	sp, sp, #8
 353              		@ sp needed
 354 0010 80BD     		pop	{r7, pc}
 355              		.cfi_endproc
 356              	.LFE8:
 357              		.size	CyBle_L2Cap_ConnParamUpdateRspEventHandler, .-CyBle_L2Cap_ConnParamUpdateRspEventHandler
 358 0012 C046     		.section	.text.CyBle_GapConnUpdateCompleteEventHandler,"ax",%progbits
 359              		.align	2
 360              		.code	16
 361              		.thumb_func
 362              		.type	CyBle_GapConnUpdateCompleteEventHandler, %function
 363              	CyBle_GapConnUpdateCompleteEventHandler:
 364              	.LFB9:
1340:.\Generated_Source\PSoC4/BLE_eventHandler.c **** 
1341:.\Generated_Source\PSoC4/BLE_eventHandler.c **** 
1342:.\Generated_Source\PSoC4/BLE_eventHandler.c **** /****************************************************************************** 
1343:.\Generated_Source\PSoC4/BLE_eventHandler.c **** ##Function Name: CyBle_GapConnUpdateCompleteEventHandler
1344:.\Generated_Source\PSoC4/BLE_eventHandler.c **** *******************************************************************************
ARM GAS  C:\Users\KEVINH~1\AppData\Local\Temp\ccC6tirb.s 			page 31


1345:.\Generated_Source\PSoC4/BLE_eventHandler.c **** 
1346:.\Generated_Source\PSoC4/BLE_eventHandler.c **** Summary:
1347:.\Generated_Source\PSoC4/BLE_eventHandler.c ****  Handles the CYBLE_EVT_GAP_CONNECTION_UPDATE_COMPLETE event from
1348:.\Generated_Source\PSoC4/BLE_eventHandler.c ****  the BLE stack.
1349:.\Generated_Source\PSoC4/BLE_eventHandler.c **** 
1350:.\Generated_Source\PSoC4/BLE_eventHandler.c **** Parameters:
1351:.\Generated_Source\PSoC4/BLE_eventHandler.c ****  *eventParam: The pointer to the data structure specified by the event.
1352:.\Generated_Source\PSoC4/BLE_eventHandler.c **** 
1353:.\Generated_Source\PSoC4/BLE_eventHandler.c **** Return:
1354:.\Generated_Source\PSoC4/BLE_eventHandler.c ****  None
1355:.\Generated_Source\PSoC4/BLE_eventHandler.c **** 
1356:.\Generated_Source\PSoC4/BLE_eventHandler.c **** ******************************************************************************/
1357:.\Generated_Source\PSoC4/BLE_eventHandler.c **** static void CyBle_GapConnUpdateCompleteEventHandler(const CYBLE_GAP_CONN_PARAM_UPDATED_IN_CONTROLLE
1358:.\Generated_Source\PSoC4/BLE_eventHandler.c **** {
 365              		.loc 1 1358 0
 366              		.cfi_startproc
 367 0000 80B5     		push	{r7, lr}
 368              		.cfi_def_cfa_offset 8
 369              		.cfi_offset 7, -8
 370              		.cfi_offset 14, -4
 371 0002 82B0     		sub	sp, sp, #8
 372              		.cfi_def_cfa_offset 16
 373 0004 00AF     		add	r7, sp, #0
 374              		.cfi_def_cfa_register 7
 375 0006 7860     		str	r0, [r7, #4]
1359:.\Generated_Source\PSoC4/BLE_eventHandler.c ****     #ifdef CYBLE_CPS_SERVER
1360:.\Generated_Source\PSoC4/BLE_eventHandler.c ****         CyBle_CpssConnUpdateCompleteEventHandler(eventParam);
1361:.\Generated_Source\PSoC4/BLE_eventHandler.c ****     #endif /* CYBLE_CPS_SERVER */
1362:.\Generated_Source\PSoC4/BLE_eventHandler.c ****     
1363:.\Generated_Source\PSoC4/BLE_eventHandler.c ****     /* Unreferenced variable warning workaround */
1364:.\Generated_Source\PSoC4/BLE_eventHandler.c ****     if(eventParam != 0u)
1365:.\Generated_Source\PSoC4/BLE_eventHandler.c ****     {
1366:.\Generated_Source\PSoC4/BLE_eventHandler.c ****     }
1367:.\Generated_Source\PSoC4/BLE_eventHandler.c **** }
 376              		.loc 1 1367 0
 377 0008 BD46     		mov	sp, r7
 378 000a 02B0     		add	sp, sp, #8
 379              		@ sp needed
 380 000c 80BD     		pop	{r7, pc}
 381              		.cfi_endproc
 382              	.LFE9:
 383              		.size	CyBle_GapConnUpdateCompleteEventHandler, .-CyBle_GapConnUpdateCompleteEventHandler
 384              		.section	.text.CyBle_EventHandler,"ax",%progbits
 385              		.align	2
 386              		.global	CyBle_EventHandler
 387              		.code	16
 388              		.thumb_func
 389              		.type	CyBle_EventHandler, %function
 390              	CyBle_EventHandler:
 391              	.LFB10:
1368:.\Generated_Source\PSoC4/BLE_eventHandler.c **** 
1369:.\Generated_Source\PSoC4/BLE_eventHandler.c **** 
1370:.\Generated_Source\PSoC4/BLE_eventHandler.c **** /****************************************************************************** 
1371:.\Generated_Source\PSoC4/BLE_eventHandler.c **** ##Function Name: CyBle_EventHandler
1372:.\Generated_Source\PSoC4/BLE_eventHandler.c **** *******************************************************************************
1373:.\Generated_Source\PSoC4/BLE_eventHandler.c **** 
1374:.\Generated_Source\PSoC4/BLE_eventHandler.c **** Summary:
ARM GAS  C:\Users\KEVINH~1\AppData\Local\Temp\ccC6tirb.s 			page 32


1375:.\Generated_Source\PSoC4/BLE_eventHandler.c ****  Handles the events from the BLE stack
1376:.\Generated_Source\PSoC4/BLE_eventHandler.c **** 
1377:.\Generated_Source\PSoC4/BLE_eventHandler.c **** Parameters:
1378:.\Generated_Source\PSoC4/BLE_eventHandler.c ****  eventCode:    the event code
1379:.\Generated_Source\PSoC4/BLE_eventHandler.c ****  *eventParam:  the event parameters
1380:.\Generated_Source\PSoC4/BLE_eventHandler.c **** 
1381:.\Generated_Source\PSoC4/BLE_eventHandler.c **** Return:
1382:.\Generated_Source\PSoC4/BLE_eventHandler.c ****  None.
1383:.\Generated_Source\PSoC4/BLE_eventHandler.c **** 
1384:.\Generated_Source\PSoC4/BLE_eventHandler.c **** ******************************************************************************/
1385:.\Generated_Source\PSoC4/BLE_eventHandler.c **** void CyBle_EventHandler(uint8 eventCode, void *eventParam)
1386:.\Generated_Source\PSoC4/BLE_eventHandler.c **** {
 392              		.loc 1 1386 0
 393              		.cfi_startproc
 394 0000 80B5     		push	{r7, lr}
 395              		.cfi_def_cfa_offset 8
 396              		.cfi_offset 7, -8
 397              		.cfi_offset 14, -4
 398 0002 84B0     		sub	sp, sp, #16
 399              		.cfi_def_cfa_offset 24
 400 0004 00AF     		add	r7, sp, #0
 401              		.cfi_def_cfa_register 7
 402 0006 021C     		mov	r2, r0
 403 0008 3960     		str	r1, [r7]
 404 000a FB1D     		add	r3, r7, #7
 405 000c 1A70     		strb	r2, [r3]
1387:.\Generated_Source\PSoC4/BLE_eventHandler.c ****     cyBle_eventHandlerFlag |= CYBLE_CALLBACK;
 406              		.loc 1 1387 0
 407 000e 9D4B     		ldr	r3, .L54
 408 0010 1B78     		ldrb	r3, [r3]
 409 0012 DBB2     		uxtb	r3, r3
 410 0014 0122     		mov	r2, #1
 411 0016 1343     		orr	r3, r2
 412 0018 DAB2     		uxtb	r2, r3
 413 001a 9A4B     		ldr	r3, .L54
 414 001c 1A70     		strb	r2, [r3]
1388:.\Generated_Source\PSoC4/BLE_eventHandler.c **** 
1389:.\Generated_Source\PSoC4/BLE_eventHandler.c ****     /* Common Profile event handling */
1390:.\Generated_Source\PSoC4/BLE_eventHandler.c ****     switch(eventCode)
 415              		.loc 1 1390 0
 416 001e FB1D     		add	r3, r7, #7
 417 0020 1B78     		ldrb	r3, [r3]
 418 0022 712B     		cmp	r3, #113
 419 0024 00D9     		bls	.LCB347
 420 0026 11E1     		b	.L53	@long jump
 421              	.LCB347:
 422 0028 9A00     		lsl	r2, r3, #2
 423 002a 974B     		ldr	r3, .L54+4
 424 002c D318     		add	r3, r2, r3
 425 002e 1B68     		ldr	r3, [r3]
 426 0030 9F46     		mov	pc, r3
 427              		.section	.rodata
 428              		.align	2
 429              	.L24:
 430 0000 4C020000 		.word	.L53
 431 0004 32000000 		.word	.L23
 432 0008 DC000000 		.word	.L25
ARM GAS  C:\Users\KEVINH~1\AppData\Local\Temp\ccC6tirb.s 			page 33


 433 000c 4C020000 		.word	.L53
 434 0010 4C020000 		.word	.L53
 435 0014 E6000000 		.word	.L26
 436 0018 4C020000 		.word	.L53
 437 001c 4C020000 		.word	.L53
 438 0020 4C020000 		.word	.L53
 439 0024 4C020000 		.word	.L53
 440 0028 4C020000 		.word	.L53
 441 002c 4C020000 		.word	.L53
 442 0030 4C020000 		.word	.L53
 443 0034 4C020000 		.word	.L53
 444 0038 4C020000 		.word	.L53
 445 003c 4C020000 		.word	.L53
 446 0040 4C020000 		.word	.L53
 447 0044 4C020000 		.word	.L53
 448 0048 4C020000 		.word	.L53
 449 004c 4C020000 		.word	.L53
 450 0050 4C020000 		.word	.L53
 451 0054 4C020000 		.word	.L53
 452 0058 4C020000 		.word	.L53
 453 005c 4C020000 		.word	.L53
 454 0060 4C020000 		.word	.L53
 455 0064 4C020000 		.word	.L53
 456 0068 4C020000 		.word	.L53
 457 006c 4C020000 		.word	.L53
 458 0070 4C020000 		.word	.L53
 459 0074 4C020000 		.word	.L53
 460 0078 4C020000 		.word	.L53
 461 007c 4C020000 		.word	.L53
 462 0080 4C020000 		.word	.L53
 463 0084 F0000000 		.word	.L27
 464 0088 4C020000 		.word	.L53
 465 008c 4C020000 		.word	.L53
 466 0090 4C020000 		.word	.L53
 467 0094 4C020000 		.word	.L53
 468 0098 40010000 		.word	.L28
 469 009c 28010000 		.word	.L29
 470 00a0 38010000 		.word	.L30
 471 00a4 4C020000 		.word	.L53
 472 00a8 1E010000 		.word	.L31
 473 00ac 4C020000 		.word	.L53
 474 00b0 4C020000 		.word	.L53
 475 00b4 4C020000 		.word	.L53
 476 00b8 4C020000 		.word	.L53
 477 00bc 4C020000 		.word	.L53
 478 00c0 4C020000 		.word	.L53
 479 00c4 4C020000 		.word	.L53
 480 00c8 4C020000 		.word	.L53
 481 00cc 4C020000 		.word	.L53
 482 00d0 4C020000 		.word	.L53
 483 00d4 4C020000 		.word	.L53
 484 00d8 4C020000 		.word	.L53
 485 00dc 4C020000 		.word	.L53
 486 00e0 4C020000 		.word	.L53
 487 00e4 4C020000 		.word	.L53
 488 00e8 4C020000 		.word	.L53
 489 00ec 4C020000 		.word	.L53
ARM GAS  C:\Users\KEVINH~1\AppData\Local\Temp\ccC6tirb.s 			page 34


 490 00f0 4C020000 		.word	.L53
 491 00f4 4C020000 		.word	.L53
 492 00f8 4C020000 		.word	.L53
 493 00fc 4C020000 		.word	.L53
 494 0100 4C020000 		.word	.L53
 495 0104 C0010000 		.word	.L32
 496 0108 F6010000 		.word	.L33
 497 010c FC010000 		.word	.L34
 498 0110 4C020000 		.word	.L53
 499 0114 4C020000 		.word	.L53
 500 0118 4C020000 		.word	.L53
 501 011c 4C020000 		.word	.L53
 502 0120 4C020000 		.word	.L53
 503 0124 4C020000 		.word	.L53
 504 0128 4C020000 		.word	.L53
 505 012c 4C020000 		.word	.L53
 506 0130 38020000 		.word	.L35
 507 0134 4C020000 		.word	.L53
 508 0138 4C020000 		.word	.L53
 509 013c 4C020000 		.word	.L53
 510 0140 4C020000 		.word	.L53
 511 0144 4C020000 		.word	.L53
 512 0148 4C020000 		.word	.L53
 513 014c 4C020000 		.word	.L53
 514 0150 42020000 		.word	.L39
 515 0154 4C020000 		.word	.L53
 516 0158 4C020000 		.word	.L53
 517 015c 4C020000 		.word	.L53
 518 0160 4C020000 		.word	.L53
 519 0164 4C020000 		.word	.L53
 520 0168 4C020000 		.word	.L53
 521 016c 4C020000 		.word	.L53
 522 0170 4C020000 		.word	.L53
 523 0174 4C020000 		.word	.L53
 524 0178 4C020000 		.word	.L53
 525 017c 4C020000 		.word	.L53
 526 0180 4C020000 		.word	.L53
 527 0184 4C020000 		.word	.L53
 528 0188 4C020000 		.word	.L53
 529 018c 4C020000 		.word	.L53
 530 0190 4C020000 		.word	.L53
 531 0194 4C020000 		.word	.L53
 532 0198 4C020000 		.word	.L53
 533 019c 4C020000 		.word	.L53
 534 01a0 4C020000 		.word	.L53
 535 01a4 4C020000 		.word	.L53
 536 01a8 4C020000 		.word	.L53
 537 01ac 4C020000 		.word	.L53
 538 01b0 4C020000 		.word	.L53
 539 01b4 4C020000 		.word	.L53
 540 01b8 4C020000 		.word	.L53
 541 01bc 4C020000 		.word	.L53
 542 01c0 4C020000 		.word	.L53
 543 01c4 B4010000 		.word	.L41
 544              		.section	.text.CyBle_EventHandler
 545              	.L23:
 546              	.LBB3:
ARM GAS  C:\Users\KEVINH~1\AppData\Local\Temp\ccC6tirb.s 			page 35


1391:.\Generated_Source\PSoC4/BLE_eventHandler.c ****     {
1392:.\Generated_Source\PSoC4/BLE_eventHandler.c ****         /**********************************************************
1393:.\Generated_Source\PSoC4/BLE_eventHandler.c ****         ##General events
1394:.\Generated_Source\PSoC4/BLE_eventHandler.c ****         ***********************************************************/
1395:.\Generated_Source\PSoC4/BLE_eventHandler.c ****         case CYBLE_EVT_STACK_ON:
1396:.\Generated_Source\PSoC4/BLE_eventHandler.c ****         #if(CYBLE_MODE_PROFILE)
1397:.\Generated_Source\PSoC4/BLE_eventHandler.c ****         {
1398:.\Generated_Source\PSoC4/BLE_eventHandler.c ****             CYBLE_BLESS_PWR_IN_DB_T bleSsPowerLevel;
1399:.\Generated_Source\PSoC4/BLE_eventHandler.c ****             
1400:.\Generated_Source\PSoC4/BLE_eventHandler.c ****             /* Set Tx Power Level for advertising and connection channels */
1401:.\Generated_Source\PSoC4/BLE_eventHandler.c ****             bleSsPowerLevel.blePwrLevelInDbm = CYBLE_TX_POWER_LEVEL_ADV;
 547              		.loc 1 1401 0
 548 0032 3B1C     		mov	r3, r7
 549 0034 0C33     		add	r3, r3, #12
 550 0036 0722     		mov	r2, #7
 551 0038 1A70     		strb	r2, [r3]
1402:.\Generated_Source\PSoC4/BLE_eventHandler.c ****             bleSsPowerLevel.bleSsChId = CYBLE_LL_ADV_CH_TYPE;
 552              		.loc 1 1402 0
 553 003a 3B1C     		mov	r3, r7
 554 003c 0C33     		add	r3, r3, #12
 555 003e 0022     		mov	r2, #0
 556 0040 5A70     		strb	r2, [r3, #1]
1403:.\Generated_Source\PSoC4/BLE_eventHandler.c ****             (void) CyBle_SetTxPowerLevel (&bleSsPowerLevel);
 557              		.loc 1 1403 0
 558 0042 3B1C     		mov	r3, r7
 559 0044 0C33     		add	r3, r3, #12
 560 0046 181C     		mov	r0, r3
 561 0048 FFF7FEFF 		bl	CyBle_SetTxPowerLevel
1404:.\Generated_Source\PSoC4/BLE_eventHandler.c ****             bleSsPowerLevel.blePwrLevelInDbm = CYBLE_TX_POWER_LEVEL_CONN;
 562              		.loc 1 1404 0
 563 004c 3B1C     		mov	r3, r7
 564 004e 0C33     		add	r3, r3, #12
 565 0050 0722     		mov	r2, #7
 566 0052 1A70     		strb	r2, [r3]
1405:.\Generated_Source\PSoC4/BLE_eventHandler.c ****             bleSsPowerLevel.bleSsChId = CYBLE_LL_CONN_CH_TYPE;
 567              		.loc 1 1405 0
 568 0054 3B1C     		mov	r3, r7
 569 0056 0C33     		add	r3, r3, #12
 570 0058 0122     		mov	r2, #1
 571 005a 5A70     		strb	r2, [r3, #1]
1406:.\Generated_Source\PSoC4/BLE_eventHandler.c ****             (void) CyBle_SetTxPowerLevel (&bleSsPowerLevel);
 572              		.loc 1 1406 0
 573 005c 3B1C     		mov	r3, r7
 574 005e 0C33     		add	r3, r3, #12
 575 0060 181C     		mov	r0, r3
 576 0062 FFF7FEFF 		bl	CyBle_SetTxPowerLevel
 577              	.LBE3:
1407:.\Generated_Source\PSoC4/BLE_eventHandler.c ****         }
1408:.\Generated_Source\PSoC4/BLE_eventHandler.c ****         #endif /* CYBLE_MODE_PROFILE */
1409:.\Generated_Source\PSoC4/BLE_eventHandler.c ****         #if (CYBLE_GATT_ROLE_SERVER || CYBLE_GATT_ROLE_CLIENT)
1410:.\Generated_Source\PSoC4/BLE_eventHandler.c ****             /* Set device Address  */
1411:.\Generated_Source\PSoC4/BLE_eventHandler.c ****             if(CyBle_IsDeviceAddressValid(cyBle_sflashDeviceAddress) != 0u)
 578              		.loc 1 1411 0
 579 0066 894B     		ldr	r3, .L54+8
 580 0068 1B68     		ldr	r3, [r3]
 581 006a 181C     		mov	r0, r3
 582 006c FFF7FEFF 		bl	CyBle_IsDeviceAddressValid
ARM GAS  C:\Users\KEVINH~1\AppData\Local\Temp\ccC6tirb.s 			page 36


 583 0070 031C     		mov	r3, r0
 584 0072 002B     		cmp	r3, #0
 585 0074 11D0     		beq	.L42
1412:.\Generated_Source\PSoC4/BLE_eventHandler.c ****             {
1413:.\Generated_Source\PSoC4/BLE_eventHandler.c ****                 (void) CyBle_SetDeviceAddress(cyBle_sflashDeviceAddress);
 586              		.loc 1 1413 0
 587 0076 854B     		ldr	r3, .L54+8
 588 0078 1B68     		ldr	r3, [r3]
 589 007a 181C     		mov	r0, r3
 590 007c FFF7FEFF 		bl	CyBle_SetDeviceAddress
1414:.\Generated_Source\PSoC4/BLE_eventHandler.c ****                 #if(CYBLE_GAP_ROLE_PERIPHERAL || CYBLE_GAP_ROLE_BROADCASTER)
1415:.\Generated_Source\PSoC4/BLE_eventHandler.c ****                     CyBle_ChangeAdDeviceAddress(cyBle_sflashDeviceAddress, 0u);
 591              		.loc 1 1415 0
 592 0080 824B     		ldr	r3, .L54+8
 593 0082 1B68     		ldr	r3, [r3]
 594 0084 181C     		mov	r0, r3
 595 0086 0021     		mov	r1, #0
 596 0088 FFF7FEFF 		bl	CyBle_ChangeAdDeviceAddress
1416:.\Generated_Source\PSoC4/BLE_eventHandler.c ****                     CyBle_ChangeAdDeviceAddress(cyBle_sflashDeviceAddress, 1u);
 597              		.loc 1 1416 0
 598 008c 7F4B     		ldr	r3, .L54+8
 599 008e 1B68     		ldr	r3, [r3]
 600 0090 181C     		mov	r0, r3
 601 0092 0121     		mov	r1, #1
 602 0094 FFF7FEFF 		bl	CyBle_ChangeAdDeviceAddress
 603 0098 19E0     		b	.L43
 604              	.L42:
1417:.\Generated_Source\PSoC4/BLE_eventHandler.c ****                 #endif /* CYBLE_GAP_ROLE_PERIPHERAL || CYBLE_GAP_ROLE_BROADCASTER */    
1418:.\Generated_Source\PSoC4/BLE_eventHandler.c ****             }
1419:.\Generated_Source\PSoC4/BLE_eventHandler.c ****             else
1420:.\Generated_Source\PSoC4/BLE_eventHandler.c ****             {
1421:.\Generated_Source\PSoC4/BLE_eventHandler.c ****             #if (SILICON_GENERATED_DEVICE_ADDRESS != 0u)
1422:.\Generated_Source\PSoC4/BLE_eventHandler.c ****                 cyBle_deviceAddress.bdAddr[0] = CYBLE_SFLASH_DIE_X_REG;
 605              		.loc 1 1422 0
 606 009a 7D4B     		ldr	r3, .L54+12
 607 009c 1A78     		ldrb	r2, [r3]
 608 009e 7D4B     		ldr	r3, .L54+16
 609 00a0 1A70     		strb	r2, [r3]
1423:.\Generated_Source\PSoC4/BLE_eventHandler.c ****                 cyBle_deviceAddress.bdAddr[1] = CYBLE_SFLASH_DIE_Y_REG;
 610              		.loc 1 1423 0
 611 00a2 7D4B     		ldr	r3, .L54+20
 612 00a4 1A78     		ldrb	r2, [r3]
 613 00a6 7B4B     		ldr	r3, .L54+16
 614 00a8 5A70     		strb	r2, [r3, #1]
1424:.\Generated_Source\PSoC4/BLE_eventHandler.c ****                 cyBle_deviceAddress.bdAddr[2] = CYBLE_SFLASH_DIE_WAFER_REG;
 615              		.loc 1 1424 0
 616 00aa 7C4B     		ldr	r3, .L54+24
 617 00ac 1A78     		ldrb	r2, [r3]
 618 00ae 794B     		ldr	r3, .L54+16
 619 00b0 9A70     		strb	r2, [r3, #2]
1425:.\Generated_Source\PSoC4/BLE_eventHandler.c ****             #endif /* SILICON_GENERATED_DEVICE_ADDRESS != 0u */
1426:.\Generated_Source\PSoC4/BLE_eventHandler.c ****                 (void) CyBle_SetDeviceAddress(&cyBle_deviceAddress);
 620              		.loc 1 1426 0
 621 00b2 784B     		ldr	r3, .L54+16
 622 00b4 181C     		mov	r0, r3
 623 00b6 FFF7FEFF 		bl	CyBle_SetDeviceAddress
1427:.\Generated_Source\PSoC4/BLE_eventHandler.c ****                 #if(CYBLE_GAP_ROLE_PERIPHERAL || CYBLE_GAP_ROLE_BROADCASTER)
ARM GAS  C:\Users\KEVINH~1\AppData\Local\Temp\ccC6tirb.s 			page 37


1428:.\Generated_Source\PSoC4/BLE_eventHandler.c ****                     CyBle_ChangeAdDeviceAddress(&cyBle_deviceAddress, 0u);
 624              		.loc 1 1428 0
 625 00ba 764B     		ldr	r3, .L54+16
 626 00bc 181C     		mov	r0, r3
 627 00be 0021     		mov	r1, #0
 628 00c0 FFF7FEFF 		bl	CyBle_ChangeAdDeviceAddress
1429:.\Generated_Source\PSoC4/BLE_eventHandler.c ****                     CyBle_ChangeAdDeviceAddress(&cyBle_deviceAddress, 1u);
 629              		.loc 1 1429 0
 630 00c4 734B     		ldr	r3, .L54+16
 631 00c6 181C     		mov	r0, r3
 632 00c8 0121     		mov	r1, #1
 633 00ca FFF7FEFF 		bl	CyBle_ChangeAdDeviceAddress
 634              	.L43:
1430:.\Generated_Source\PSoC4/BLE_eventHandler.c ****                 #endif /* CYBLE_GAP_ROLE_PERIPHERAL || CYBLE_GAP_ROLE_BROADCASTER */    
1431:.\Generated_Source\PSoC4/BLE_eventHandler.c ****             }
1432:.\Generated_Source\PSoC4/BLE_eventHandler.c ****             /* Set device IO Capability  */
1433:.\Generated_Source\PSoC4/BLE_eventHandler.c ****             (void) CyBle_GapSetIoCap(CYBLE_IO_CAPABILITY);    
 635              		.loc 1 1433 0
 636 00ce 0320     		mov	r0, #3
 637 00d0 FFF7FEFF 		bl	CyBle_GapSetIoCap
1434:.\Generated_Source\PSoC4/BLE_eventHandler.c ****         #endif /* CYBLE_GATT_ROLE_SERVER || CYBLE_GATT_ROLE_CLIENT */
1435:.\Generated_Source\PSoC4/BLE_eventHandler.c ****             CyBle_SetState(CYBLE_STATE_DISCONNECTED);
 638              		.loc 1 1435 0
 639 00d4 724B     		ldr	r3, .L54+28
 640 00d6 0422     		mov	r2, #4
 641 00d8 1A70     		strb	r2, [r3]
1436:.\Generated_Source\PSoC4/BLE_eventHandler.c ****             break;
 642              		.loc 1 1436 0
 643 00da B8E0     		b	.L44
 644              	.L25:
1437:.\Generated_Source\PSoC4/BLE_eventHandler.c ****         case CYBLE_EVT_TIMEOUT:
1438:.\Generated_Source\PSoC4/BLE_eventHandler.c ****             CyBle_TimeOutEventHandler((CYBLE_TO_REASON_CODE_T *)eventParam);
 645              		.loc 1 1438 0
 646 00dc 3B68     		ldr	r3, [r7]
 647 00de 181C     		mov	r0, r3
 648 00e0 FFF7FEFF 		bl	CyBle_TimeOutEventHandler
1439:.\Generated_Source\PSoC4/BLE_eventHandler.c ****             break;
 649              		.loc 1 1439 0
 650 00e4 B3E0     		b	.L44
 651              	.L26:
1440:.\Generated_Source\PSoC4/BLE_eventHandler.c ****     	case CYBLE_EVT_STACK_BUSY_STATUS:
1441:.\Generated_Source\PSoC4/BLE_eventHandler.c ****             cyBle_busyStatus = *(uint8 *)eventParam;
 652              		.loc 1 1441 0
 653 00e6 3B68     		ldr	r3, [r7]
 654 00e8 1A78     		ldrb	r2, [r3]
 655 00ea 6E4B     		ldr	r3, .L54+32
 656 00ec 1A70     		strb	r2, [r3]
1442:.\Generated_Source\PSoC4/BLE_eventHandler.c ****             break;
 657              		.loc 1 1442 0
 658 00ee AEE0     		b	.L44
 659              	.L27:
1443:.\Generated_Source\PSoC4/BLE_eventHandler.c **** 
1444:.\Generated_Source\PSoC4/BLE_eventHandler.c ****         /**********************************************************
1445:.\Generated_Source\PSoC4/BLE_eventHandler.c ****         ##GAP events
1446:.\Generated_Source\PSoC4/BLE_eventHandler.c ****         ***********************************************************/
1447:.\Generated_Source\PSoC4/BLE_eventHandler.c ****         case CYBLE_EVT_GAP_AUTH_REQ:
1448:.\Generated_Source\PSoC4/BLE_eventHandler.c ****         #if(CYBLE_MODE_PROFILE)
ARM GAS  C:\Users\KEVINH~1\AppData\Local\Temp\ccC6tirb.s 			page 38


1449:.\Generated_Source\PSoC4/BLE_eventHandler.c ****             if(0u == (cyBle_eventHandlerFlag & CYBLE_DISABLE_AUTOMATIC_AUTH))
 660              		.loc 1 1449 0
 661 00f0 644B     		ldr	r3, .L54
 662 00f2 1B78     		ldrb	r3, [r3]
 663 00f4 DBB2     		uxtb	r3, r3
 664 00f6 1A1C     		mov	r2, r3
 665 00f8 2023     		mov	r3, #32
 666 00fa 1340     		and	r3, r2
 667 00fc 0ED1     		bne	.L45
1450:.\Generated_Source\PSoC4/BLE_eventHandler.c ****             {
1451:.\Generated_Source\PSoC4/BLE_eventHandler.c ****                 /* If the responding device does not support pairing then the responding 
1452:.\Generated_Source\PSoC4/BLE_eventHandler.c ****                    device shall respond using the Pairing Failed message with the error 
1453:.\Generated_Source\PSoC4/BLE_eventHandler.c ****                    code "Pairing Not Supported" otherwise it responds with a Pairing 
1454:.\Generated_Source\PSoC4/BLE_eventHandler.c ****                    Response message.
1455:.\Generated_Source\PSoC4/BLE_eventHandler.c ****                 */
1456:.\Generated_Source\PSoC4/BLE_eventHandler.c ****                 if(cyBle_authInfo.security == (CYBLE_GAP_SEC_MODE_1 | CYBLE_GAP_SEC_LEVEL_1))
 668              		.loc 1 1456 0
 669 00fe 6A4B     		ldr	r3, .L54+36
 670 0100 1B78     		ldrb	r3, [r3]
 671 0102 102B     		cmp	r3, #16
 672 0104 02D1     		bne	.L46
1457:.\Generated_Source\PSoC4/BLE_eventHandler.c ****                 {
1458:.\Generated_Source\PSoC4/BLE_eventHandler.c ****                     cyBle_authInfo.authErr = CYBLE_GAP_AUTH_ERROR_PAIRING_NOT_SUPPORTED;
 673              		.loc 1 1458 0
 674 0106 684B     		ldr	r3, .L54+36
 675 0108 0522     		mov	r2, #5
 676 010a DA70     		strb	r2, [r3, #3]
 677              	.L46:
1459:.\Generated_Source\PSoC4/BLE_eventHandler.c ****                 }    
1460:.\Generated_Source\PSoC4/BLE_eventHandler.c ****             #if(CYBLE_GAP_ROLE_PERIPHERAL)
1461:.\Generated_Source\PSoC4/BLE_eventHandler.c ****                 (void)CyBle_GappAuthReqReply(cyBle_connHandle.bdHandle, &cyBle_authInfo);
 678              		.loc 1 1461 0
 679 010c 674B     		ldr	r3, .L54+40
 680 010e 1A78     		ldrb	r2, [r3]
 681 0110 654B     		ldr	r3, .L54+36
 682 0112 101C     		mov	r0, r2
 683 0114 191C     		mov	r1, r3
 684 0116 FFF7FEFF 		bl	CyBle_GappAuthReqReply
1462:.\Generated_Source\PSoC4/BLE_eventHandler.c ****             #endif /* CYBLE_GAP_ROLE_PERIPHERAL */
1463:.\Generated_Source\PSoC4/BLE_eventHandler.c ****             #if (CYBLE_GAP_ROLE_CENTRAL)
1464:.\Generated_Source\PSoC4/BLE_eventHandler.c ****                 (void)CyBle_GapAuthReq(cyBle_connHandle.bdHandle, &cyBle_authInfo);
1465:.\Generated_Source\PSoC4/BLE_eventHandler.c ****             #endif /* CYBLE_GAP_ROLE_CENTRAL */
1466:.\Generated_Source\PSoC4/BLE_eventHandler.c ****             }
1467:.\Generated_Source\PSoC4/BLE_eventHandler.c ****         #endif /* CYBLE_MODE_PROFILE */
1468:.\Generated_Source\PSoC4/BLE_eventHandler.c ****             break;
 685              		.loc 1 1468 0
 686 011a 98E0     		b	.L44
 687              	.L45:
 688 011c 97E0     		b	.L44
 689              	.L31:
1469:.\Generated_Source\PSoC4/BLE_eventHandler.c **** 
1470:.\Generated_Source\PSoC4/BLE_eventHandler.c ****         case CYBLE_EVT_GAP_CONNECTION_UPDATE_COMPLETE:
1471:.\Generated_Source\PSoC4/BLE_eventHandler.c ****             CyBle_GapConnUpdateCompleteEventHandler((const CYBLE_GAP_CONN_PARAM_UPDATED_IN_CONTROLL
 690              		.loc 1 1471 0
 691 011e 3B68     		ldr	r3, [r7]
 692 0120 181C     		mov	r0, r3
 693 0122 FFF7FEFF 		bl	CyBle_GapConnUpdateCompleteEventHandler
ARM GAS  C:\Users\KEVINH~1\AppData\Local\Temp\ccC6tirb.s 			page 39


1472:.\Generated_Source\PSoC4/BLE_eventHandler.c ****             break;
 694              		.loc 1 1472 0
 695 0126 92E0     		b	.L44
 696              	.L29:
1473:.\Generated_Source\PSoC4/BLE_eventHandler.c ****             
1474:.\Generated_Source\PSoC4/BLE_eventHandler.c ****         case CYBLE_EVT_GAP_DEVICE_CONNECTED:
1475:.\Generated_Source\PSoC4/BLE_eventHandler.c ****             CyBle_GapConnUpdateCompleteEventHandler((const CYBLE_GAP_CONN_PARAM_UPDATED_IN_CONTROLL
 697              		.loc 1 1475 0
 698 0128 3B68     		ldr	r3, [r7]
 699 012a 181C     		mov	r0, r3
 700 012c FFF7FEFF 		bl	CyBle_GapConnUpdateCompleteEventHandler
1476:.\Generated_Source\PSoC4/BLE_eventHandler.c ****             #if(CYBLE_GAP_ROLE_CENTRAL)
1477:.\Generated_Source\PSoC4/BLE_eventHandler.c ****                 if(cyBle_connectingTimeout != 0u)
1478:.\Generated_Source\PSoC4/BLE_eventHandler.c ****                 {
1479:.\Generated_Source\PSoC4/BLE_eventHandler.c ****                    (void)CyBle_StopTimer();
1480:.\Generated_Source\PSoC4/BLE_eventHandler.c ****                 }
1481:.\Generated_Source\PSoC4/BLE_eventHandler.c ****             #endif /* CYBLE_GAP_ROLE_CENTRAL */
1482:.\Generated_Source\PSoC4/BLE_eventHandler.c ****             CyBle_SetState(CYBLE_STATE_CONNECTED);
 701              		.loc 1 1482 0
 702 0130 5B4B     		ldr	r3, .L54+28
 703 0132 0222     		mov	r2, #2
 704 0134 1A70     		strb	r2, [r3]
1483:.\Generated_Source\PSoC4/BLE_eventHandler.c ****             break;
 705              		.loc 1 1483 0
 706 0136 8AE0     		b	.L44
 707              	.L30:
1484:.\Generated_Source\PSoC4/BLE_eventHandler.c **** 
1485:.\Generated_Source\PSoC4/BLE_eventHandler.c ****         case CYBLE_EVT_GAP_DEVICE_DISCONNECTED:
1486:.\Generated_Source\PSoC4/BLE_eventHandler.c ****             CyBle_SetState(CYBLE_STATE_DISCONNECTED);
 708              		.loc 1 1486 0
 709 0138 594B     		ldr	r3, .L54+28
 710 013a 0422     		mov	r2, #4
 711 013c 1A70     		strb	r2, [r3]
1487:.\Generated_Source\PSoC4/BLE_eventHandler.c ****             break;
 712              		.loc 1 1487 0
 713 013e 86E0     		b	.L44
 714              	.L28:
1488:.\Generated_Source\PSoC4/BLE_eventHandler.c ****         #if(CYBLE_GAP_ROLE_PERIPHERAL || CYBLE_GAP_ROLE_BROADCASTER)
1489:.\Generated_Source\PSoC4/BLE_eventHandler.c ****             
1490:.\Generated_Source\PSoC4/BLE_eventHandler.c ****         case CYBLE_EVT_GAPP_ADVERTISEMENT_START_STOP:
1491:.\Generated_Source\PSoC4/BLE_eventHandler.c ****             #ifdef CYBLE_CPS_SERVER
1492:.\Generated_Source\PSoC4/BLE_eventHandler.c ****                 #if(CYBLE_GAP_ROLE_BROADCASTER)
1493:.\Generated_Source\PSoC4/BLE_eventHandler.c ****                     CyBle_CpssAdvertisementStartStopEventHandler();
1494:.\Generated_Source\PSoC4/BLE_eventHandler.c ****                 #endif /* CYBLE_GAP_ROLE_BROADCASTER */
1495:.\Generated_Source\PSoC4/BLE_eventHandler.c ****             #endif /* CYBLE_CPS_SERVER */
1496:.\Generated_Source\PSoC4/BLE_eventHandler.c ****             
1497:.\Generated_Source\PSoC4/BLE_eventHandler.c ****             if((CYBLE_STATE_CONNECTED != CyBle_GetState()) && ((cyBle_eventHandlerFlag & CYBLE_CALL
 715              		.loc 1 1497 0
 716 0140 574B     		ldr	r3, .L54+28
 717 0142 1B78     		ldrb	r3, [r3]
 718 0144 022B     		cmp	r3, #2
 719 0146 34D0     		beq	.L47
 720              		.loc 1 1497 0 is_stmt 0 discriminator 1
 721 0148 4E4B     		ldr	r3, .L54
 722 014a 1B78     		ldrb	r3, [r3]
 723 014c DBB2     		uxtb	r3, r3
 724 014e 1A1C     		mov	r2, r3
ARM GAS  C:\Users\KEVINH~1\AppData\Local\Temp\ccC6tirb.s 			page 40


 725 0150 0123     		mov	r3, #1
 726 0152 1340     		and	r3, r2
 727 0154 2DD0     		beq	.L47
1498:.\Generated_Source\PSoC4/BLE_eventHandler.c ****             {
1499:.\Generated_Source\PSoC4/BLE_eventHandler.c ****                 /* After CyBle_GappStartAdvertisement first event indicates that advertising has be
1500:.\Generated_Source\PSoC4/BLE_eventHandler.c ****                 if(0u != (cyBle_eventHandlerFlag & CYBLE_START_FLAG))
 728              		.loc 1 1500 0 is_stmt 1
 729 0156 4B4B     		ldr	r3, .L54
 730 0158 1B78     		ldrb	r3, [r3]
 731 015a DBB2     		uxtb	r3, r3
 732 015c 1A1C     		mov	r2, r3
 733 015e 0423     		mov	r3, #4
 734 0160 1340     		and	r3, r2
 735 0162 0BD0     		beq	.L48
1501:.\Generated_Source\PSoC4/BLE_eventHandler.c ****                 {
1502:.\Generated_Source\PSoC4/BLE_eventHandler.c ****                     CyBle_SetState(CYBLE_STATE_ADVERTISING);
 736              		.loc 1 1502 0
 737 0164 4E4B     		ldr	r3, .L54+28
 738 0166 0322     		mov	r2, #3
 739 0168 1A70     		strb	r2, [r3]
1503:.\Generated_Source\PSoC4/BLE_eventHandler.c ****                     cyBle_eventHandlerFlag &= (uint8)~CYBLE_START_FLAG;
 740              		.loc 1 1503 0
 741 016a 464B     		ldr	r3, .L54
 742 016c 1B78     		ldrb	r3, [r3]
 743 016e DBB2     		uxtb	r3, r3
 744 0170 0422     		mov	r2, #4
 745 0172 9343     		bic	r3, r2
 746 0174 DAB2     		uxtb	r2, r3
 747 0176 434B     		ldr	r3, .L54
 748 0178 1A70     		strb	r2, [r3]
 749 017a 1AE0     		b	.L47
 750              	.L48:
1504:.\Generated_Source\PSoC4/BLE_eventHandler.c ****                 }
1505:.\Generated_Source\PSoC4/BLE_eventHandler.c ****                 /* When application initiated stop advertisement */
1506:.\Generated_Source\PSoC4/BLE_eventHandler.c ****                 else if(0u != (cyBle_eventHandlerFlag & CYBLE_STOP_FLAG))
 751              		.loc 1 1506 0
 752 017c 414B     		ldr	r3, .L54
 753 017e 1B78     		ldrb	r3, [r3]
 754 0180 DBB2     		uxtb	r3, r3
 755 0182 1A1C     		mov	r2, r3
 756 0184 0823     		mov	r3, #8
 757 0186 1340     		and	r3, r2
 758 0188 0BD0     		beq	.L49
1507:.\Generated_Source\PSoC4/BLE_eventHandler.c ****                 {
1508:.\Generated_Source\PSoC4/BLE_eventHandler.c ****                     CyBle_SetState(CYBLE_STATE_DISCONNECTED);  
 759              		.loc 1 1508 0
 760 018a 454B     		ldr	r3, .L54+28
 761 018c 0422     		mov	r2, #4
 762 018e 1A70     		strb	r2, [r3]
1509:.\Generated_Source\PSoC4/BLE_eventHandler.c ****                     cyBle_eventHandlerFlag &= (uint8)~CYBLE_STOP_FLAG;
 763              		.loc 1 1509 0
 764 0190 3C4B     		ldr	r3, .L54
 765 0192 1B78     		ldrb	r3, [r3]
 766 0194 DBB2     		uxtb	r3, r3
 767 0196 0822     		mov	r2, #8
 768 0198 9343     		bic	r3, r2
 769 019a DAB2     		uxtb	r2, r3
ARM GAS  C:\Users\KEVINH~1\AppData\Local\Temp\ccC6tirb.s 			page 41


 770 019c 394B     		ldr	r3, .L54
 771 019e 1A70     		strb	r2, [r3]
 772 01a0 07E0     		b	.L47
 773              	.L49:
1510:.\Generated_Source\PSoC4/BLE_eventHandler.c ****                 }
1511:.\Generated_Source\PSoC4/BLE_eventHandler.c ****                 else /* Following event indicates that advertising has been stopped */
1512:.\Generated_Source\PSoC4/BLE_eventHandler.c ****                 {
1513:.\Generated_Source\PSoC4/BLE_eventHandler.c ****                     if(CYBLE_STATE_ADVERTISING == CyBle_GetState())
 774              		.loc 1 1513 0
 775 01a2 3F4B     		ldr	r3, .L54+28
 776 01a4 1B78     		ldrb	r3, [r3]
 777 01a6 032B     		cmp	r3, #3
 778 01a8 03D1     		bne	.L47
1514:.\Generated_Source\PSoC4/BLE_eventHandler.c ****                     {
1515:.\Generated_Source\PSoC4/BLE_eventHandler.c ****                         CyBle_SetState(CYBLE_STATE_DISCONNECTED);
 779              		.loc 1 1515 0
 780 01aa 3D4B     		ldr	r3, .L54+28
 781 01ac 0422     		mov	r2, #4
 782 01ae 1A70     		strb	r2, [r3]
1516:.\Generated_Source\PSoC4/BLE_eventHandler.c ****                     #if ((CYBLE_SLOW_ADV_ENABLED != 0u) && (CYBLE_FAST_ADV_TIMEOUT != 0u))
1517:.\Generated_Source\PSoC4/BLE_eventHandler.c ****                         if(cyBle_advertisingIntervalType == CYBLE_ADVERTISING_FAST)
1518:.\Generated_Source\PSoC4/BLE_eventHandler.c ****                         {
1519:.\Generated_Source\PSoC4/BLE_eventHandler.c ****                             /* When fast advertising time out occur: Start slow advertising */
1520:.\Generated_Source\PSoC4/BLE_eventHandler.c ****                             if(CYBLE_ERROR_OK == CyBle_GappStartAdvertisement(CYBLE_ADVERTISING_SLO
1521:.\Generated_Source\PSoC4/BLE_eventHandler.c ****                             {
1522:.\Generated_Source\PSoC4/BLE_eventHandler.c ****                                 CyBle_SetState(CYBLE_STATE_ADVERTISING);
1523:.\Generated_Source\PSoC4/BLE_eventHandler.c ****                             }
1524:.\Generated_Source\PSoC4/BLE_eventHandler.c ****                         }
1525:.\Generated_Source\PSoC4/BLE_eventHandler.c ****                     #endif /* CYBLE_SLOW_ADV_ENABLED */
1526:.\Generated_Source\PSoC4/BLE_eventHandler.c ****                     }
1527:.\Generated_Source\PSoC4/BLE_eventHandler.c ****                 }
1528:.\Generated_Source\PSoC4/BLE_eventHandler.c ****             }
1529:.\Generated_Source\PSoC4/BLE_eventHandler.c ****             break;
 783              		.loc 1 1529 0
 784 01b0 4DE0     		b	.L44
 785              	.L47:
 786 01b2 4CE0     		b	.L44
 787              	.L41:
1530:.\Generated_Source\PSoC4/BLE_eventHandler.c ****         #endif /* CYBLE_GAP_ROLE_PERIPHERAL || CYBLE_GAP_ROLE_BROADCASTER */
1531:.\Generated_Source\PSoC4/BLE_eventHandler.c ****         
1532:.\Generated_Source\PSoC4/BLE_eventHandler.c ****         #if(CYBLE_GAP_ROLE_CENTRAL || CYBLE_GAP_ROLE_OBSERVER)    
1533:.\Generated_Source\PSoC4/BLE_eventHandler.c ****         case CYBLE_EVT_GAPC_SCAN_START_STOP:
1534:.\Generated_Source\PSoC4/BLE_eventHandler.c ****             #ifdef CYBLE_CPS_CLIENT
1535:.\Generated_Source\PSoC4/BLE_eventHandler.c ****                 CyBle_CpscScanStartStopEventHandler();
1536:.\Generated_Source\PSoC4/BLE_eventHandler.c ****             #endif /* CYBLE_CPS_CLIENT */
1537:.\Generated_Source\PSoC4/BLE_eventHandler.c ****             
1538:.\Generated_Source\PSoC4/BLE_eventHandler.c ****             if((CYBLE_STATE_CONNECTED != CyBle_GetState()) && ((cyBle_eventHandlerFlag & CYBLE_CALL
1539:.\Generated_Source\PSoC4/BLE_eventHandler.c ****             {
1540:.\Generated_Source\PSoC4/BLE_eventHandler.c ****                 /* After CyBle_GapcStartScan first event indicates that scanning has been started *
1541:.\Generated_Source\PSoC4/BLE_eventHandler.c ****                 if(0u != (cyBle_eventHandlerFlag & CYBLE_START_FLAG))
1542:.\Generated_Source\PSoC4/BLE_eventHandler.c ****                 {
1543:.\Generated_Source\PSoC4/BLE_eventHandler.c ****                     CyBle_SetState(CYBLE_STATE_SCANNING);
1544:.\Generated_Source\PSoC4/BLE_eventHandler.c ****                     cyBle_eventHandlerFlag &= (uint8)~CYBLE_START_FLAG;
1545:.\Generated_Source\PSoC4/BLE_eventHandler.c ****                 }
1546:.\Generated_Source\PSoC4/BLE_eventHandler.c ****                 /* When application initiated stop scanning */
1547:.\Generated_Source\PSoC4/BLE_eventHandler.c ****                 else if(0u != (cyBle_eventHandlerFlag & CYBLE_STOP_FLAG))
1548:.\Generated_Source\PSoC4/BLE_eventHandler.c ****                 {
ARM GAS  C:\Users\KEVINH~1\AppData\Local\Temp\ccC6tirb.s 			page 42


1549:.\Generated_Source\PSoC4/BLE_eventHandler.c ****                     CyBle_SetState(CYBLE_STATE_DISCONNECTED);  
1550:.\Generated_Source\PSoC4/BLE_eventHandler.c ****                     cyBle_eventHandlerFlag &= (uint8)~CYBLE_STOP_FLAG;
1551:.\Generated_Source\PSoC4/BLE_eventHandler.c ****                 }
1552:.\Generated_Source\PSoC4/BLE_eventHandler.c ****                 else /* Following event indicates that scanning has been stopped by stack */
1553:.\Generated_Source\PSoC4/BLE_eventHandler.c ****                 {
1554:.\Generated_Source\PSoC4/BLE_eventHandler.c ****                     if(CYBLE_STATE_SCANNING == CyBle_GetState())
1555:.\Generated_Source\PSoC4/BLE_eventHandler.c ****                     {
1556:.\Generated_Source\PSoC4/BLE_eventHandler.c ****                         CyBle_SetState(CYBLE_STATE_DISCONNECTED);  
1557:.\Generated_Source\PSoC4/BLE_eventHandler.c ****                     #if ((CYBLE_SLOW_SCAN_ENABLED != 0u) && (CYBLE_FAST_SCAN_TIMEOUT != 0u))
1558:.\Generated_Source\PSoC4/BLE_eventHandler.c ****                         if(cyBle_scanningIntervalType == CYBLE_SCANNING_FAST)
1559:.\Generated_Source\PSoC4/BLE_eventHandler.c ****                         {
1560:.\Generated_Source\PSoC4/BLE_eventHandler.c ****                             /* When fast scanning time out occur: Start slow scanning */
1561:.\Generated_Source\PSoC4/BLE_eventHandler.c ****                             if(CYBLE_ERROR_OK == CyBle_GapcStartScan(CYBLE_SCANNING_SLOW))
1562:.\Generated_Source\PSoC4/BLE_eventHandler.c ****                             {
1563:.\Generated_Source\PSoC4/BLE_eventHandler.c ****                                 CyBle_SetState(CYBLE_STATE_SCANNING);
1564:.\Generated_Source\PSoC4/BLE_eventHandler.c ****                             }
1565:.\Generated_Source\PSoC4/BLE_eventHandler.c ****                         }
1566:.\Generated_Source\PSoC4/BLE_eventHandler.c ****                     #endif /* CYBLE_SLOW_SCAN_ENABLED */
1567:.\Generated_Source\PSoC4/BLE_eventHandler.c ****                     }
1568:.\Generated_Source\PSoC4/BLE_eventHandler.c ****                 }
1569:.\Generated_Source\PSoC4/BLE_eventHandler.c ****             }
1570:.\Generated_Source\PSoC4/BLE_eventHandler.c ****             break;
1571:.\Generated_Source\PSoC4/BLE_eventHandler.c ****         #endif /* CYBLE_GAP_ROLE_CENTRAL || CYBLE_GAP_ROLE_OBSERVER */
1572:.\Generated_Source\PSoC4/BLE_eventHandler.c **** 
1573:.\Generated_Source\PSoC4/BLE_eventHandler.c ****         /**********************************************************
1574:.\Generated_Source\PSoC4/BLE_eventHandler.c ****         ##L2AP events 
1575:.\Generated_Source\PSoC4/BLE_eventHandler.c ****         ***********************************************************/
1576:.\Generated_Source\PSoC4/BLE_eventHandler.c ****         case CYBLE_EVT_L2CAP_CONN_PARAM_UPDATE_RSP:
1577:.\Generated_Source\PSoC4/BLE_eventHandler.c ****             CyBle_L2Cap_ConnParamUpdateRspEventHandler(*(uint16 *)eventParam);
 788              		.loc 1 1577 0
 789 01b4 3B68     		ldr	r3, [r7]
 790 01b6 1B88     		ldrh	r3, [r3]
 791 01b8 181C     		mov	r0, r3
 792 01ba FFF7FEFF 		bl	CyBle_L2Cap_ConnParamUpdateRspEventHandler
1578:.\Generated_Source\PSoC4/BLE_eventHandler.c ****             break;
 793              		.loc 1 1578 0
 794 01be 46E0     		b	.L44
 795              	.L32:
1579:.\Generated_Source\PSoC4/BLE_eventHandler.c ****         
1580:.\Generated_Source\PSoC4/BLE_eventHandler.c ****         /**********************************************************
1581:.\Generated_Source\PSoC4/BLE_eventHandler.c ****         ##GATT events
1582:.\Generated_Source\PSoC4/BLE_eventHandler.c ****         ***********************************************************/        
1583:.\Generated_Source\PSoC4/BLE_eventHandler.c ****         case CYBLE_EVT_GATT_CONNECT_IND:
1584:.\Generated_Source\PSoC4/BLE_eventHandler.c ****             cyBle_connHandle = *(CYBLE_CONN_HANDLE_T *)eventParam;
 796              		.loc 1 1584 0
 797 01c0 3A4A     		ldr	r2, .L54+40
 798 01c2 3B68     		ldr	r3, [r7]
 799 01c4 111C     		mov	r1, r2
 800 01c6 1A1C     		mov	r2, r3
 801 01c8 0223     		mov	r3, #2
 802 01ca 081C     		mov	r0, r1
 803 01cc 111C     		mov	r1, r2
 804 01ce 1A1C     		mov	r2, r3
 805 01d0 FFF7FEFF 		bl	memcpy
1585:.\Generated_Source\PSoC4/BLE_eventHandler.c ****             
1586:.\Generated_Source\PSoC4/BLE_eventHandler.c ****         #if((CYBLE_GATT_ROLE_SERVER) && (CYBLE_GATT_DB_CCCD_COUNT != 0u))
1587:.\Generated_Source\PSoC4/BLE_eventHandler.c ****             /* Init CCCD values in RAM */
ARM GAS  C:\Users\KEVINH~1\AppData\Local\Temp\ccC6tirb.s 			page 43


1588:.\Generated_Source\PSoC4/BLE_eventHandler.c ****         	(void) memcpy (cyBle_attValuesCCCD, cyBle_attValuesCCCDFlashMemory[cyBle_connHandle.bdHand
 806              		.loc 1 1588 0
 807 01d4 354B     		ldr	r3, .L54+40
 808 01d6 1B78     		ldrb	r3, [r3]
 809 01d8 9A00     		lsl	r2, r3, #2
 810 01da 354B     		ldr	r3, .L54+44
 811 01dc D318     		add	r3, r2, r3
 812 01de 354A     		ldr	r2, .L54+48
 813 01e0 111C     		mov	r1, r2
 814 01e2 1A1C     		mov	r2, r3
 815 01e4 0423     		mov	r3, #4
 816 01e6 081C     		mov	r0, r1
 817 01e8 111C     		mov	r1, r2
 818 01ea 1A1C     		mov	r2, r3
 819 01ec FFF7FEFF 		bl	memcpy
1589:.\Generated_Source\PSoC4/BLE_eventHandler.c ****                             CYBLE_GATT_DB_CCCD_COUNT);
1590:.\Generated_Source\PSoC4/BLE_eventHandler.c ****         #endif /* CYBLE_GATT_ROLE_SERVER */
1591:.\Generated_Source\PSoC4/BLE_eventHandler.c ****         
1592:.\Generated_Source\PSoC4/BLE_eventHandler.c ****         #if (CYBLE_GATT_ROLE_CLIENT)
1593:.\Generated_Source\PSoC4/BLE_eventHandler.c ****             CyBle_SetClientState(CYBLE_CLIENT_STATE_CONNECTED);
1594:.\Generated_Source\PSoC4/BLE_eventHandler.c ****         #endif /* CYBLE_GATT_ROLE_CLIENT */
1595:.\Generated_Source\PSoC4/BLE_eventHandler.c ****         
1596:.\Generated_Source\PSoC4/BLE_eventHandler.c ****             CyBle_GattConnectReqHandler();
 820              		.loc 1 1596 0
 821 01f0 FFF7FEFF 		bl	CyBle_GattConnectReqHandler
1597:.\Generated_Source\PSoC4/BLE_eventHandler.c ****             break;
 822              		.loc 1 1597 0
 823 01f4 2BE0     		b	.L44
 824              	.L33:
1598:.\Generated_Source\PSoC4/BLE_eventHandler.c **** 
1599:.\Generated_Source\PSoC4/BLE_eventHandler.c ****         case CYBLE_EVT_GATT_DISCONNECT_IND:
1600:.\Generated_Source\PSoC4/BLE_eventHandler.c ****             CyBle_GattDisconnectEventHandler();
 825              		.loc 1 1600 0
 826 01f6 FFF7FEFF 		bl	CyBle_GattDisconnectEventHandler
1601:.\Generated_Source\PSoC4/BLE_eventHandler.c ****             break;
 827              		.loc 1 1601 0
 828 01fa 28E0     		b	.L44
 829              	.L34:
 830              	.LBB4:
1602:.\Generated_Source\PSoC4/BLE_eventHandler.c **** 
1603:.\Generated_Source\PSoC4/BLE_eventHandler.c ****     #if((CYBLE_GATT_ROLE_SERVER) || (CYBLE_GATT_ROLE_CLIENT))
1604:.\Generated_Source\PSoC4/BLE_eventHandler.c ****         case CYBLE_EVT_GATTS_XCNHG_MTU_REQ:
1605:.\Generated_Source\PSoC4/BLE_eventHandler.c ****             {
1606:.\Generated_Source\PSoC4/BLE_eventHandler.c ****                 uint16 cyBle_mtuSize;
1607:.\Generated_Source\PSoC4/BLE_eventHandler.c ****                 if(CYBLE_GATT_MTU > ((CYBLE_GATT_XCHG_MTU_PARAM_T *)eventParam)->mtu)
 831              		.loc 1 1607 0
 832 01fc 3B68     		ldr	r3, [r7]
 833 01fe 5B88     		ldrh	r3, [r3, #2]
 834 0200 162B     		cmp	r3, #22
 835 0202 05D8     		bhi	.L50
1608:.\Generated_Source\PSoC4/BLE_eventHandler.c ****                 {
1609:.\Generated_Source\PSoC4/BLE_eventHandler.c ****                     cyBle_mtuSize = ((CYBLE_GATT_XCHG_MTU_PARAM_T *)eventParam)->mtu;
 836              		.loc 1 1609 0
 837 0204 3B1C     		mov	r3, r7
 838 0206 0E33     		add	r3, r3, #14
 839 0208 3A68     		ldr	r2, [r7]
 840 020a 5288     		ldrh	r2, [r2, #2]
ARM GAS  C:\Users\KEVINH~1\AppData\Local\Temp\ccC6tirb.s 			page 44


 841 020c 1A80     		strh	r2, [r3]
 842 020e 03E0     		b	.L51
 843              	.L50:
1610:.\Generated_Source\PSoC4/BLE_eventHandler.c ****                 }
1611:.\Generated_Source\PSoC4/BLE_eventHandler.c ****                 else
1612:.\Generated_Source\PSoC4/BLE_eventHandler.c ****                 {
1613:.\Generated_Source\PSoC4/BLE_eventHandler.c ****                     cyBle_mtuSize = CYBLE_GATT_MTU;
 844              		.loc 1 1613 0
 845 0210 3B1C     		mov	r3, r7
 846 0212 0E33     		add	r3, r3, #14
 847 0214 1722     		mov	r2, #23
 848 0216 1A80     		strh	r2, [r3]
 849              	.L51:
1614:.\Generated_Source\PSoC4/BLE_eventHandler.c ****                 }
1615:.\Generated_Source\PSoC4/BLE_eventHandler.c ****                 (void)CyBle_GattsExchangeMtuRsp(((CYBLE_GATT_XCHG_MTU_PARAM_T *)eventParam)->connHa
 850              		.loc 1 1615 0
 851 0218 3B68     		ldr	r3, [r7]
 852 021a 3A1C     		mov	r2, r7
 853 021c 0E32     		add	r2, r2, #14
 854 021e 1288     		ldrh	r2, [r2]
 855 0220 1988     		ldrh	r1, [r3]
 856 0222 0023     		mov	r3, #0
 857 0224 0904     		lsl	r1, r1, #16
 858 0226 090C     		lsr	r1, r1, #16
 859 0228 1B0C     		lsr	r3, r3, #16
 860 022a 1B04     		lsl	r3, r3, #16
 861 022c 0B43     		orr	r3, r1
 862 022e 181C     		mov	r0, r3
 863 0230 111C     		mov	r1, r2
 864 0232 FFF7FEFF 		bl	CyBle_GattsExchangeMtuRsp
 865              	.LBE4:
1616:.\Generated_Source\PSoC4/BLE_eventHandler.c ****             }
1617:.\Generated_Source\PSoC4/BLE_eventHandler.c ****             break;
 866              		.loc 1 1617 0
 867 0236 0AE0     		b	.L44
 868              	.L35:
1618:.\Generated_Source\PSoC4/BLE_eventHandler.c ****     #endif /* CYBLE_GATT_ROLE_SERVER || CYBLE_GATT_ROLE_CLIENT */
1619:.\Generated_Source\PSoC4/BLE_eventHandler.c ****     
1620:.\Generated_Source\PSoC4/BLE_eventHandler.c ****     #if (CYBLE_GATT_ROLE_CLIENT)
1621:.\Generated_Source\PSoC4/BLE_eventHandler.c ****         case CYBLE_EVT_GAPC_SCAN_PROGRESS_RESULT:
1622:.\Generated_Source\PSoC4/BLE_eventHandler.c ****         #ifdef CYBLE_CPS_CLIENT
1623:.\Generated_Source\PSoC4/BLE_eventHandler.c ****                 CyBle_CpscScanProcessEventHandler((CYBLE_GAPC_ADV_REPORT_T *)eventParam);
1624:.\Generated_Source\PSoC4/BLE_eventHandler.c ****         #endif /* CYBLE_CPS_CLIENT */
1625:.\Generated_Source\PSoC4/BLE_eventHandler.c ****             break;
1626:.\Generated_Source\PSoC4/BLE_eventHandler.c ****     #endif /* CYBLE_GATT_ROLE_CLIENT */
1627:.\Generated_Source\PSoC4/BLE_eventHandler.c **** 
1628:.\Generated_Source\PSoC4/BLE_eventHandler.c ****     #if(CYBLE_GATT_ROLE_SERVER)
1629:.\Generated_Source\PSoC4/BLE_eventHandler.c ****         case CYBLE_EVT_GATTS_WRITE_REQ:
1630:.\Generated_Source\PSoC4/BLE_eventHandler.c ****             CyBle_WriteReqHandler((CYBLE_GATTS_WRITE_REQ_PARAM_T *)eventParam);
 869              		.loc 1 1630 0
 870 0238 3B68     		ldr	r3, [r7]
 871 023a 181C     		mov	r0, r3
 872 023c FFF7FEFF 		bl	CyBle_WriteReqHandler
1631:.\Generated_Source\PSoC4/BLE_eventHandler.c ****             break;
 873              		.loc 1 1631 0
 874 0240 05E0     		b	.L44
 875              	.L39:
ARM GAS  C:\Users\KEVINH~1\AppData\Local\Temp\ccC6tirb.s 			page 45


1632:.\Generated_Source\PSoC4/BLE_eventHandler.c **** 
1633:.\Generated_Source\PSoC4/BLE_eventHandler.c ****         case CYBLE_EVT_GATTS_WRITE_CMD_REQ:
1634:.\Generated_Source\PSoC4/BLE_eventHandler.c ****         #ifdef CYBLE_IAS_SERVER
1635:.\Generated_Source\PSoC4/BLE_eventHandler.c ****             if((cyBle_eventHandlerFlag & CYBLE_CALLBACK) != 0u)
1636:.\Generated_Source\PSoC4/BLE_eventHandler.c ****             {
1637:.\Generated_Source\PSoC4/BLE_eventHandler.c ****                 (void)CyBle_IassWriteCmdEventHandler((CYBLE_GATTS_WRITE_REQ_PARAM_T *)eventParam);
1638:.\Generated_Source\PSoC4/BLE_eventHandler.c ****             }
1639:.\Generated_Source\PSoC4/BLE_eventHandler.c ****         #endif /* CYBLE_IAS_SERVER */
1640:.\Generated_Source\PSoC4/BLE_eventHandler.c ****         #ifdef CYBLE_HIDS_SERVER
1641:.\Generated_Source\PSoC4/BLE_eventHandler.c ****             if((cyBle_eventHandlerFlag & CYBLE_CALLBACK) != 0u)
1642:.\Generated_Source\PSoC4/BLE_eventHandler.c ****             {
1643:.\Generated_Source\PSoC4/BLE_eventHandler.c ****                 (void)CyBle_HidssWriteEventHandler((CYBLE_GATTS_WRITE_REQ_PARAM_T *)eventParam);
1644:.\Generated_Source\PSoC4/BLE_eventHandler.c ****             }
1645:.\Generated_Source\PSoC4/BLE_eventHandler.c ****         #endif /* CYBLE_HIDS_SERVER */
1646:.\Generated_Source\PSoC4/BLE_eventHandler.c ****         #ifdef CYBLE_PASS_SERVER
1647:.\Generated_Source\PSoC4/BLE_eventHandler.c ****             if((cyBle_eventHandlerFlag & CYBLE_CALLBACK) != 0u)
1648:.\Generated_Source\PSoC4/BLE_eventHandler.c ****             {
1649:.\Generated_Source\PSoC4/BLE_eventHandler.c ****                 (void)CyBle_PasssWriteCmdEventHandler((CYBLE_GATTS_WRITE_REQ_PARAM_T *)eventParam);
1650:.\Generated_Source\PSoC4/BLE_eventHandler.c ****             }
1651:.\Generated_Source\PSoC4/BLE_eventHandler.c ****         #endif /* CYBLE_PASS_SERVER */
1652:.\Generated_Source\PSoC4/BLE_eventHandler.c ****         #ifdef CYBLE_RTUS_SERVER
1653:.\Generated_Source\PSoC4/BLE_eventHandler.c ****             if((cyBle_eventHandlerFlag & CYBLE_CALLBACK) != 0u)
1654:.\Generated_Source\PSoC4/BLE_eventHandler.c ****             {
1655:.\Generated_Source\PSoC4/BLE_eventHandler.c ****                 (void)CyBle_RtussWriteCmdEventHandler((CYBLE_GATTS_WRITE_REQ_PARAM_T *)eventParam);
1656:.\Generated_Source\PSoC4/BLE_eventHandler.c ****             }
1657:.\Generated_Source\PSoC4/BLE_eventHandler.c ****         #endif /* CYBLE_RTUS_SERVER */
1658:.\Generated_Source\PSoC4/BLE_eventHandler.c ****         #ifdef CYBLE_SCPS_SERVER
1659:.\Generated_Source\PSoC4/BLE_eventHandler.c ****             if((cyBle_eventHandlerFlag & CYBLE_CALLBACK) != 0u)
1660:.\Generated_Source\PSoC4/BLE_eventHandler.c ****             {
1661:.\Generated_Source\PSoC4/BLE_eventHandler.c ****                 (void)CyBle_ScpssWriteEventHandler((CYBLE_GATTS_WRITE_REQ_PARAM_T *)eventParam);
1662:.\Generated_Source\PSoC4/BLE_eventHandler.c ****             }
1663:.\Generated_Source\PSoC4/BLE_eventHandler.c ****         #endif /* CYBLE_SCPS_SERVER */
1664:.\Generated_Source\PSoC4/BLE_eventHandler.c ****             break;
1665:.\Generated_Source\PSoC4/BLE_eventHandler.c ****         
1666:.\Generated_Source\PSoC4/BLE_eventHandler.c ****         case CYBLE_EVT_GATTS_PREP_WRITE_REQ:
1667:.\Generated_Source\PSoC4/BLE_eventHandler.c ****         #ifdef CYBLE_BMS_SERVER
1668:.\Generated_Source\PSoC4/BLE_eventHandler.c ****             CyBle_BmssPrepareWriteRequestEventHandler((CYBLE_GATTS_PREP_WRITE_REQ_PARAM_T *)eventPa
1669:.\Generated_Source\PSoC4/BLE_eventHandler.c ****         #endif /* CYBLE_BMS_SERVER */
1670:.\Generated_Source\PSoC4/BLE_eventHandler.c ****         #ifdef CYBLE_BTS_SERVER
1671:.\Generated_Source\PSoC4/BLE_eventHandler.c ****             if((cyBle_eventHandlerFlag & CYBLE_CALLBACK) != 0u)
1672:.\Generated_Source\PSoC4/BLE_eventHandler.c ****             {
1673:.\Generated_Source\PSoC4/BLE_eventHandler.c ****                 CyBle_BtssPrepareWriteRequestEventHandler((CYBLE_GATTS_PREP_WRITE_REQ_PARAM_T *)eve
1674:.\Generated_Source\PSoC4/BLE_eventHandler.c ****             }
1675:.\Generated_Source\PSoC4/BLE_eventHandler.c ****         #endif /* CYBLE_BTS_SERVER */
1676:.\Generated_Source\PSoC4/BLE_eventHandler.c ****         #ifdef CYBLE_ESS_SERVER
1677:.\Generated_Source\PSoC4/BLE_eventHandler.c ****             if((cyBle_eventHandlerFlag & CYBLE_CALLBACK) != 0u)
1678:.\Generated_Source\PSoC4/BLE_eventHandler.c ****             {
1679:.\Generated_Source\PSoC4/BLE_eventHandler.c ****                 CyBle_EsssPrepareWriteRequestEventHandler((CYBLE_GATTS_PREP_WRITE_REQ_PARAM_T *)eve
1680:.\Generated_Source\PSoC4/BLE_eventHandler.c ****             }
1681:.\Generated_Source\PSoC4/BLE_eventHandler.c ****         #endif /* CYBLE_ESS_SERVER */
1682:.\Generated_Source\PSoC4/BLE_eventHandler.c **** 		#ifdef CYBLE_UDS_SERVER
1683:.\Generated_Source\PSoC4/BLE_eventHandler.c ****             if((cyBle_eventHandlerFlag & CYBLE_CALLBACK) != 0u)
1684:.\Generated_Source\PSoC4/BLE_eventHandler.c ****             {
1685:.\Generated_Source\PSoC4/BLE_eventHandler.c ****                 CyBle_UdssPrepareWriteRequestEventHandler((CYBLE_GATTS_PREP_WRITE_REQ_PARAM_T *)eve
1686:.\Generated_Source\PSoC4/BLE_eventHandler.c ****             }
1687:.\Generated_Source\PSoC4/BLE_eventHandler.c ****         #endif /* CYBLE_UDS_SERVER */
1688:.\Generated_Source\PSoC4/BLE_eventHandler.c ****             break;
ARM GAS  C:\Users\KEVINH~1\AppData\Local\Temp\ccC6tirb.s 			page 46


1689:.\Generated_Source\PSoC4/BLE_eventHandler.c **** 
1690:.\Generated_Source\PSoC4/BLE_eventHandler.c ****         case CYBLE_EVT_GATTS_EXEC_WRITE_REQ:
1691:.\Generated_Source\PSoC4/BLE_eventHandler.c ****         #ifdef CYBLE_BMS_SERVER
1692:.\Generated_Source\PSoC4/BLE_eventHandler.c ****             CyBle_BmssExecuteWriteRequestEventHandler((CYBLE_GATTS_EXEC_WRITE_REQ_T *)eventParam);
1693:.\Generated_Source\PSoC4/BLE_eventHandler.c ****         #endif /* CYBLE_BMS_SERVER */
1694:.\Generated_Source\PSoC4/BLE_eventHandler.c ****         #ifdef CYBLE_BTS_SERVER
1695:.\Generated_Source\PSoC4/BLE_eventHandler.c ****             if((cyBle_eventHandlerFlag & CYBLE_CALLBACK) != 0u)
1696:.\Generated_Source\PSoC4/BLE_eventHandler.c ****             {
1697:.\Generated_Source\PSoC4/BLE_eventHandler.c ****                 CyBle_BtssExecuteWriteRequestEventHandler((CYBLE_GATTS_EXEC_WRITE_REQ_T *)eventPara
1698:.\Generated_Source\PSoC4/BLE_eventHandler.c ****             }
1699:.\Generated_Source\PSoC4/BLE_eventHandler.c ****         #endif /* CYBLE_BTS_SERVER */
1700:.\Generated_Source\PSoC4/BLE_eventHandler.c ****         #ifdef CYBLE_ESS_SERVER
1701:.\Generated_Source\PSoC4/BLE_eventHandler.c ****             if((cyBle_eventHandlerFlag & CYBLE_CALLBACK) != 0u)
1702:.\Generated_Source\PSoC4/BLE_eventHandler.c ****             {
1703:.\Generated_Source\PSoC4/BLE_eventHandler.c ****                 CyBle_EsssExecuteWriteRequestEventHandler((CYBLE_GATTS_EXEC_WRITE_REQ_T *)eventPara
1704:.\Generated_Source\PSoC4/BLE_eventHandler.c ****             }
1705:.\Generated_Source\PSoC4/BLE_eventHandler.c ****         #endif /* CYBLE_ESS_SERVER */
1706:.\Generated_Source\PSoC4/BLE_eventHandler.c **** 		#ifdef CYBLE_UDS_SERVER
1707:.\Generated_Source\PSoC4/BLE_eventHandler.c ****             if((cyBle_eventHandlerFlag & CYBLE_CALLBACK) != 0u)
1708:.\Generated_Source\PSoC4/BLE_eventHandler.c ****             {
1709:.\Generated_Source\PSoC4/BLE_eventHandler.c ****                 CyBle_UdssExecuteWriteRequestEventHandler((CYBLE_GATTS_EXEC_WRITE_REQ_T *)eventPara
1710:.\Generated_Source\PSoC4/BLE_eventHandler.c ****             }
1711:.\Generated_Source\PSoC4/BLE_eventHandler.c ****         #endif /* CYBLE_UDS_SERVER */
1712:.\Generated_Source\PSoC4/BLE_eventHandler.c ****             break;
1713:.\Generated_Source\PSoC4/BLE_eventHandler.c ****         
1714:.\Generated_Source\PSoC4/BLE_eventHandler.c ****         case CYBLE_EVT_GATTS_HANDLE_VALUE_CNF:
1715:.\Generated_Source\PSoC4/BLE_eventHandler.c ****             CyBle_ValueConfirmation((CYBLE_CONN_HANDLE_T *)eventParam);
 876              		.loc 1 1715 0
 877 0242 3B68     		ldr	r3, [r7]
 878 0244 181C     		mov	r0, r3
 879 0246 FFF7FEFF 		bl	CyBle_ValueConfirmation
1716:.\Generated_Source\PSoC4/BLE_eventHandler.c ****             break;
 880              		.loc 1 1716 0
 881 024a 00E0     		b	.L44
 882              	.L53:
1717:.\Generated_Source\PSoC4/BLE_eventHandler.c ****             
1718:.\Generated_Source\PSoC4/BLE_eventHandler.c ****         case CYBLE_EVT_GATTS_READ_CHAR_VAL_ACCESS_REQ:
1719:.\Generated_Source\PSoC4/BLE_eventHandler.c ****         #ifdef CYBLE_UDS_SERVER
1720:.\Generated_Source\PSoC4/BLE_eventHandler.c ****             CyBle_UdssReadRequestEventHandler((CYBLE_GATTS_CHAR_VAL_READ_REQ_T *)eventParam);
1721:.\Generated_Source\PSoC4/BLE_eventHandler.c ****         #endif /* CYBLE_UDS_SERVER */
1722:.\Generated_Source\PSoC4/BLE_eventHandler.c ****             break;
1723:.\Generated_Source\PSoC4/BLE_eventHandler.c ****             
1724:.\Generated_Source\PSoC4/BLE_eventHandler.c ****     #endif /* CYBLE_GATT_ROLE_SERVER */
1725:.\Generated_Source\PSoC4/BLE_eventHandler.c **** 
1726:.\Generated_Source\PSoC4/BLE_eventHandler.c ****     #if (CYBLE_GATT_ROLE_CLIENT)
1727:.\Generated_Source\PSoC4/BLE_eventHandler.c ****         
1728:.\Generated_Source\PSoC4/BLE_eventHandler.c ****         case CYBLE_EVT_GATTC_READ_BY_GROUP_TYPE_RSP:
1729:.\Generated_Source\PSoC4/BLE_eventHandler.c ****             CyBle_ReadByGroupEventHandler((CYBLE_GATTC_READ_BY_GRP_RSP_PARAM_T *)eventParam);
1730:.\Generated_Source\PSoC4/BLE_eventHandler.c ****             break;
1731:.\Generated_Source\PSoC4/BLE_eventHandler.c **** 
1732:.\Generated_Source\PSoC4/BLE_eventHandler.c ****         case CYBLE_EVT_GATTC_READ_BY_TYPE_RSP:
1733:.\Generated_Source\PSoC4/BLE_eventHandler.c ****             CyBle_ReadByTypeEventHandler((CYBLE_GATTC_READ_BY_TYPE_RSP_PARAM_T *)eventParam);
1734:.\Generated_Source\PSoC4/BLE_eventHandler.c ****             break;
1735:.\Generated_Source\PSoC4/BLE_eventHandler.c **** 
1736:.\Generated_Source\PSoC4/BLE_eventHandler.c ****         case CYBLE_EVT_GATTC_READ_BLOB_RSP:
1737:.\Generated_Source\PSoC4/BLE_eventHandler.c ****         #ifdef CYBLE_ESS_CLIENT
1738:.\Generated_Source\PSoC4/BLE_eventHandler.c ****             CyBle_EsscReadLongRespEventHandler((CYBLE_GATTC_READ_RSP_PARAM_T *)eventParam);
ARM GAS  C:\Users\KEVINH~1\AppData\Local\Temp\ccC6tirb.s 			page 47


1739:.\Generated_Source\PSoC4/BLE_eventHandler.c ****         #endif /* CYBLE_ESS_CLIENT */
1740:.\Generated_Source\PSoC4/BLE_eventHandler.c ****             break;
1741:.\Generated_Source\PSoC4/BLE_eventHandler.c ****         
1742:.\Generated_Source\PSoC4/BLE_eventHandler.c ****         case CYBLE_EVT_GATTC_FIND_INFO_RSP:
1743:.\Generated_Source\PSoC4/BLE_eventHandler.c ****             CyBle_FindInfoEventHandler((CYBLE_GATTC_FIND_INFO_RSP_PARAM_T *)eventParam);
1744:.\Generated_Source\PSoC4/BLE_eventHandler.c ****             break;
1745:.\Generated_Source\PSoC4/BLE_eventHandler.c **** 
1746:.\Generated_Source\PSoC4/BLE_eventHandler.c ****         case CYBLE_EVT_GATTC_ERROR_RSP:
1747:.\Generated_Source\PSoC4/BLE_eventHandler.c ****             CyBle_ErrorResponseEventHandler((CYBLE_GATTC_ERR_RSP_PARAM_T *)eventParam);
1748:.\Generated_Source\PSoC4/BLE_eventHandler.c ****             break;
1749:.\Generated_Source\PSoC4/BLE_eventHandler.c **** 
1750:.\Generated_Source\PSoC4/BLE_eventHandler.c ****         case CYBLE_EVT_GATTC_HANDLE_VALUE_NTF:
1751:.\Generated_Source\PSoC4/BLE_eventHandler.c ****             CyBle_NotificationEventHandler((CYBLE_GATTC_HANDLE_VALUE_NTF_PARAM_T *)eventParam);
1752:.\Generated_Source\PSoC4/BLE_eventHandler.c ****             break;
1753:.\Generated_Source\PSoC4/BLE_eventHandler.c **** 
1754:.\Generated_Source\PSoC4/BLE_eventHandler.c ****         case CYBLE_EVT_GATTC_HANDLE_VALUE_IND:
1755:.\Generated_Source\PSoC4/BLE_eventHandler.c ****             CyBle_GattcIndicationEventHandler((CYBLE_GATTC_HANDLE_VALUE_IND_PARAM_T *)eventParam);
1756:.\Generated_Source\PSoC4/BLE_eventHandler.c ****             CyBle_IndicationEventHandler((CYBLE_GATTC_HANDLE_VALUE_IND_PARAM_T *)eventParam);
1757:.\Generated_Source\PSoC4/BLE_eventHandler.c ****         
1758:.\Generated_Source\PSoC4/BLE_eventHandler.c ****             /* Respond with a Handle Value Confirmation when request handled */
1759:.\Generated_Source\PSoC4/BLE_eventHandler.c ****             if((cyBle_eventHandlerFlag & CYBLE_CALLBACK) == 0u)
1760:.\Generated_Source\PSoC4/BLE_eventHandler.c ****             {
1761:.\Generated_Source\PSoC4/BLE_eventHandler.c ****                 (void)CyBle_GattcConfirmation(((CYBLE_GATTC_HANDLE_VALUE_IND_PARAM_T *)eventParam)-
1762:.\Generated_Source\PSoC4/BLE_eventHandler.c ****             }
1763:.\Generated_Source\PSoC4/BLE_eventHandler.c ****             break;
1764:.\Generated_Source\PSoC4/BLE_eventHandler.c ****         
1765:.\Generated_Source\PSoC4/BLE_eventHandler.c ****         case CYBLE_EVT_GATTC_READ_RSP:
1766:.\Generated_Source\PSoC4/BLE_eventHandler.c ****             CyBle_ReadResponseEventHandler((CYBLE_GATTC_READ_RSP_PARAM_T *)eventParam);
1767:.\Generated_Source\PSoC4/BLE_eventHandler.c ****             break;
1768:.\Generated_Source\PSoC4/BLE_eventHandler.c **** 
1769:.\Generated_Source\PSoC4/BLE_eventHandler.c ****         case CYBLE_EVT_GATTC_WRITE_RSP:
1770:.\Generated_Source\PSoC4/BLE_eventHandler.c ****             CyBle_GattcWriteResponseEventHandler((CYBLE_CONN_HANDLE_T *)eventParam);
1771:.\Generated_Source\PSoC4/BLE_eventHandler.c ****             break;
1772:.\Generated_Source\PSoC4/BLE_eventHandler.c ****             
1773:.\Generated_Source\PSoC4/BLE_eventHandler.c ****         case CYBLE_EVT_GATTC_EXEC_WRITE_RSP:
1774:.\Generated_Source\PSoC4/BLE_eventHandler.c ****         #ifdef CYBLE_BMS_CLIENT
1775:.\Generated_Source\PSoC4/BLE_eventHandler.c ****             CyBle_BmscExecuteWriteResponseEventHandler((CYBLE_GATTC_EXEC_WRITE_RSP_T *)eventParam);
1776:.\Generated_Source\PSoC4/BLE_eventHandler.c ****         #endif /* CYBLE_BMS_CLIENT */
1777:.\Generated_Source\PSoC4/BLE_eventHandler.c ****         #ifdef CYBLE_ESS_CLIENT
1778:.\Generated_Source\PSoC4/BLE_eventHandler.c ****             if((cyBle_eventHandlerFlag & CYBLE_CALLBACK) != 0u)
1779:.\Generated_Source\PSoC4/BLE_eventHandler.c ****             {
1780:.\Generated_Source\PSoC4/BLE_eventHandler.c ****                 CyBle_EsscExecuteWriteResponseEventHandler((CYBLE_GATTC_EXEC_WRITE_RSP_T *)eventPar
1781:.\Generated_Source\PSoC4/BLE_eventHandler.c ****             }
1782:.\Generated_Source\PSoC4/BLE_eventHandler.c ****         #endif /* CYBLE_ESS_CLIENT */
1783:.\Generated_Source\PSoC4/BLE_eventHandler.c ****             break;
1784:.\Generated_Source\PSoC4/BLE_eventHandler.c ****             
1785:.\Generated_Source\PSoC4/BLE_eventHandler.c ****     #endif /* CYBLE_GATT_ROLE_CLIENT */
1786:.\Generated_Source\PSoC4/BLE_eventHandler.c **** 
1787:.\Generated_Source\PSoC4/BLE_eventHandler.c ****     #if((CYBLE_GAP_ROLE_PERIPHERAL || CYBLE_GAP_ROLE_CENTRAL) && (CYBLE_BONDING_REQUIREMENT == CYBL
1788:.\Generated_Source\PSoC4/BLE_eventHandler.c **** 
1789:.\Generated_Source\PSoC4/BLE_eventHandler.c ****         case CYBLE_EVT_PENDING_FLASH_WRITE:
1790:.\Generated_Source\PSoC4/BLE_eventHandler.c ****             cyBle_pendingFlashWrite |= CYBLE_PENDING_STACK_FLASH_WRITE_BIT;
1791:.\Generated_Source\PSoC4/BLE_eventHandler.c ****             break;
1792:.\Generated_Source\PSoC4/BLE_eventHandler.c ****         
1793:.\Generated_Source\PSoC4/BLE_eventHandler.c ****     #endif  /* (CYBLE_BONDING_REQUIREMENT == CYBLE_BONDING_YES) */
1794:.\Generated_Source\PSoC4/BLE_eventHandler.c ****     
1795:.\Generated_Source\PSoC4/BLE_eventHandler.c ****         default:
ARM GAS  C:\Users\KEVINH~1\AppData\Local\Temp\ccC6tirb.s 			page 48


1796:.\Generated_Source\PSoC4/BLE_eventHandler.c ****             break;
 883              		.loc 1 1796 0
 884 024c C046     		mov	r8, r8
 885              	.L44:
1797:.\Generated_Source\PSoC4/BLE_eventHandler.c ****     }
1798:.\Generated_Source\PSoC4/BLE_eventHandler.c **** 
1799:.\Generated_Source\PSoC4/BLE_eventHandler.c ****     if(0u != (cyBle_eventHandlerFlag & (CYBLE_CALLBACK | CYBLE_ENABLE_ALL_EVENTS))) 
 886              		.loc 1 1799 0
 887 024e 0D4B     		ldr	r3, .L54
 888 0250 1B78     		ldrb	r3, [r3]
 889 0252 DBB2     		uxtb	r3, r3
 890 0254 1A1C     		mov	r2, r3
 891 0256 1123     		mov	r3, #17
 892 0258 1340     		and	r3, r2
 893 025a 0FD0     		beq	.L21
1800:.\Generated_Source\PSoC4/BLE_eventHandler.c ****     {
1801:.\Generated_Source\PSoC4/BLE_eventHandler.c ****         cyBle_eventHandlerFlag &= (uint8)~CYBLE_CALLBACK;
 894              		.loc 1 1801 0
 895 025c 094B     		ldr	r3, .L54
 896 025e 1B78     		ldrb	r3, [r3]
 897 0260 DBB2     		uxtb	r3, r3
 898 0262 0122     		mov	r2, #1
 899 0264 9343     		bic	r3, r2
 900 0266 DAB2     		uxtb	r2, r3
 901 0268 064B     		ldr	r3, .L54
 902 026a 1A70     		strb	r2, [r3]
1802:.\Generated_Source\PSoC4/BLE_eventHandler.c ****         CyBle_ApplCallback((uint32)eventCode, eventParam);
 903              		.loc 1 1802 0
 904 026c 124B     		ldr	r3, .L54+52
 905 026e 1B68     		ldr	r3, [r3]
 906 0270 FA1D     		add	r2, r7, #7
 907 0272 1178     		ldrb	r1, [r2]
 908 0274 3A68     		ldr	r2, [r7]
 909 0276 081C     		mov	r0, r1
 910 0278 111C     		mov	r1, r2
 911 027a 9847     		blx	r3
 912              	.L21:
1803:.\Generated_Source\PSoC4/BLE_eventHandler.c ****     }
1804:.\Generated_Source\PSoC4/BLE_eventHandler.c **** 
1805:.\Generated_Source\PSoC4/BLE_eventHandler.c **** }
 913              		.loc 1 1805 0
 914 027c BD46     		mov	sp, r7
 915 027e 04B0     		add	sp, sp, #16
 916              		@ sp needed
 917 0280 80BD     		pop	{r7, pc}
 918              	.L55:
 919 0282 C046     		.align	2
 920              	.L54:
 921 0284 00000000 		.word	cyBle_eventHandlerFlag
 922 0288 00000000 		.word	.L24
 923 028c 00000000 		.word	cyBle_sflashDeviceAddress
 924 0290 7CF1FF0F 		.word	268431740
 925 0294 00000000 		.word	cyBle_deviceAddress
 926 0298 7DF1FF0F 		.word	268431741
 927 029c 7BF1FF0F 		.word	268431739
 928 02a0 00000000 		.word	cyBle_state
 929 02a4 00000000 		.word	cyBle_busyStatus
ARM GAS  C:\Users\KEVINH~1\AppData\Local\Temp\ccC6tirb.s 			page 49


 930 02a8 00000000 		.word	cyBle_authInfo
 931 02ac 00000000 		.word	cyBle_connHandle
 932 02b0 00000000 		.word	cyBle_attValuesCCCDFlashMemory
 933 02b4 00000000 		.word	cyBle_attValuesCCCD
 934 02b8 00000000 		.word	CyBle_ApplCallback
 935              		.cfi_endproc
 936              	.LFE10:
 937              		.size	CyBle_EventHandler, .-CyBle_EventHandler
 938              		.text
 939              	.Letext0:
 940              		.file 2 ".\\Generated_Source\\PSoC4\\cytypes.h"
 941              		.file 3 ".\\Generated_Source\\PSoC4\\BLE_Stack.h"
 942              		.file 4 ".\\Generated_Source\\PSoC4\\BLE_StackHostMain.h"
 943              		.file 5 ".\\Generated_Source\\PSoC4\\BLE_StackGap.h"
 944              		.file 6 ".\\Generated_Source\\PSoC4\\BLE_StackGatt.h"
 945              		.file 7 ".\\Generated_Source\\PSoC4\\BLE_StackGattServer.h"
 946              		.file 8 ".\\Generated_Source\\PSoC4\\BLE.h"
 947              		.file 9 ".\\Generated_Source\\PSoC4\\BLE_dis.h"
 948              		.file 10 ".\\Generated_Source\\PSoC4\\BLE_hrs.h"
 949              		.file 11 ".\\Generated_Source\\PSoC4\\BLE_eventHandler.h"
 950              		.file 12 ".\\Generated_Source\\PSoC4\\BLE_gatt.h"
 951              		.section	.debug_info,"",%progbits
 952              	.Ldebug_info0:
 953 0000 D20A0000 		.4byte	0xad2
 954 0004 0400     		.2byte	0x4
 955 0006 00000000 		.4byte	.Ldebug_abbrev0
 956 000a 04       		.byte	0x4
 957 000b 01       		.uleb128 0x1
 958 000c 4B100000 		.4byte	.LASF257
 959 0010 01       		.byte	0x1
 960 0011 51050000 		.4byte	.LASF258
 961 0015 F6000000 		.4byte	.LASF259
 962 0019 00000000 		.4byte	.Ldebug_ranges0+0
 963 001d 00000000 		.4byte	0
 964 0021 00000000 		.4byte	.Ldebug_line0
 965 0025 02       		.uleb128 0x2
 966 0026 01       		.byte	0x1
 967 0027 06       		.byte	0x6
 968 0028 00060000 		.4byte	.LASF0
 969 002c 02       		.uleb128 0x2
 970 002d 01       		.byte	0x1
 971 002e 08       		.byte	0x8
 972 002f 06070000 		.4byte	.LASF1
 973 0033 02       		.uleb128 0x2
 974 0034 02       		.byte	0x2
 975 0035 05       		.byte	0x5
 976 0036 C5160000 		.4byte	.LASF2
 977 003a 02       		.uleb128 0x2
 978 003b 02       		.byte	0x2
 979 003c 07       		.byte	0x7
 980 003d F5190000 		.4byte	.LASF3
 981 0041 02       		.uleb128 0x2
 982 0042 04       		.byte	0x4
 983 0043 05       		.byte	0x5
 984 0044 AD040000 		.4byte	.LASF4
 985 0048 02       		.uleb128 0x2
 986 0049 04       		.byte	0x4
ARM GAS  C:\Users\KEVINH~1\AppData\Local\Temp\ccC6tirb.s 			page 50


 987 004a 07       		.byte	0x7
 988 004b 030C0000 		.4byte	.LASF5
 989 004f 02       		.uleb128 0x2
 990 0050 08       		.byte	0x8
 991 0051 05       		.byte	0x5
 992 0052 1D0E0000 		.4byte	.LASF6
 993 0056 02       		.uleb128 0x2
 994 0057 08       		.byte	0x8
 995 0058 07       		.byte	0x7
 996 0059 CC130000 		.4byte	.LASF7
 997 005d 03       		.uleb128 0x3
 998 005e 04       		.byte	0x4
 999 005f 05       		.byte	0x5
 1000 0060 696E7400 		.ascii	"int\000"
 1001 0064 02       		.uleb128 0x2
 1002 0065 04       		.byte	0x4
 1003 0066 07       		.byte	0x7
 1004 0067 AA0F0000 		.4byte	.LASF8
 1005 006b 04       		.uleb128 0x4
 1006 006c 67160000 		.4byte	.LASF9
 1007 0070 02       		.byte	0x2
 1008 0071 B3       		.byte	0xb3
 1009 0072 2C000000 		.4byte	0x2c
 1010 0076 04       		.uleb128 0x4
 1011 0077 591B0000 		.4byte	.LASF10
 1012 007b 02       		.byte	0x2
 1013 007c B4       		.byte	0xb4
 1014 007d 3A000000 		.4byte	0x3a
 1015 0081 04       		.uleb128 0x4
 1016 0082 EF000000 		.4byte	.LASF11
 1017 0086 02       		.byte	0x2
 1018 0087 B5       		.byte	0xb5
 1019 0088 48000000 		.4byte	0x48
 1020 008c 02       		.uleb128 0x2
 1021 008d 04       		.byte	0x4
 1022 008e 04       		.byte	0x4
 1023 008f 190F0000 		.4byte	.LASF12
 1024 0093 02       		.uleb128 0x2
 1025 0094 08       		.byte	0x8
 1026 0095 04       		.byte	0x4
 1027 0096 710E0000 		.4byte	.LASF13
 1028 009a 02       		.uleb128 0x2
 1029 009b 01       		.byte	0x1
 1030 009c 08       		.byte	0x8
 1031 009d EB070000 		.4byte	.LASF14
 1032 00a1 05       		.uleb128 0x5
 1033 00a2 6B000000 		.4byte	0x6b
 1034 00a6 02       		.uleb128 0x2
 1035 00a7 04       		.byte	0x4
 1036 00a8 07       		.byte	0x7
 1037 00a9 30000000 		.4byte	.LASF15
 1038 00ad 06       		.uleb128 0x6
 1039 00ae 04       		.byte	0x4
 1040 00af 07       		.uleb128 0x7
 1041 00b0 01       		.byte	0x1
 1042 00b1 03       		.byte	0x3
 1043 00b2 7A       		.byte	0x7a
ARM GAS  C:\Users\KEVINH~1\AppData\Local\Temp\ccC6tirb.s 			page 51


 1044 00b3 34020000 		.4byte	0x234
 1045 00b7 08       		.uleb128 0x8
 1046 00b8 73080000 		.4byte	.LASF16
 1047 00bc 00       		.sleb128 0
 1048 00bd 08       		.uleb128 0x8
 1049 00be F8040000 		.4byte	.LASF17
 1050 00c2 01       		.sleb128 1
 1051 00c3 08       		.uleb128 0x8
 1052 00c4 01140000 		.4byte	.LASF18
 1053 00c8 02       		.sleb128 2
 1054 00c9 08       		.uleb128 0x8
 1055 00ca 41060000 		.4byte	.LASF19
 1056 00ce 03       		.sleb128 3
 1057 00cf 08       		.uleb128 0x8
 1058 00d0 9F1A0000 		.4byte	.LASF20
 1059 00d4 04       		.sleb128 4
 1060 00d5 08       		.uleb128 0x8
 1061 00d6 E7180000 		.4byte	.LASF21
 1062 00da 05       		.sleb128 5
 1063 00db 08       		.uleb128 0x8
 1064 00dc CE170000 		.4byte	.LASF22
 1065 00e0 20       		.sleb128 32
 1066 00e1 08       		.uleb128 0x8
 1067 00e2 8A030000 		.4byte	.LASF23
 1068 00e6 21       		.sleb128 33
 1069 00e7 08       		.uleb128 0x8
 1070 00e8 830D0000 		.4byte	.LASF24
 1071 00ec 22       		.sleb128 34
 1072 00ed 08       		.uleb128 0x8
 1073 00ee CE110000 		.4byte	.LASF25
 1074 00f2 23       		.sleb128 35
 1075 00f3 08       		.uleb128 0x8
 1076 00f4 4C0B0000 		.4byte	.LASF26
 1077 00f8 24       		.sleb128 36
 1078 00f9 08       		.uleb128 0x8
 1079 00fa 680B0000 		.4byte	.LASF27
 1080 00fe 25       		.sleb128 37
 1081 00ff 08       		.uleb128 0x8
 1082 0100 3F160000 		.4byte	.LASF28
 1083 0104 26       		.sleb128 38
 1084 0105 08       		.uleb128 0x8
 1085 0106 7F000000 		.4byte	.LASF29
 1086 010a 27       		.sleb128 39
 1087 010b 08       		.uleb128 0x8
 1088 010c 161B0000 		.4byte	.LASF30
 1089 0110 28       		.sleb128 40
 1090 0111 08       		.uleb128 0x8
 1091 0112 F5120000 		.4byte	.LASF31
 1092 0116 29       		.sleb128 41
 1093 0117 08       		.uleb128 0x8
 1094 0118 DA0C0000 		.4byte	.LASF32
 1095 011c 2A       		.sleb128 42
 1096 011d 08       		.uleb128 0x8
 1097 011e 5B110000 		.4byte	.LASF33
 1098 0122 2B       		.sleb128 43
 1099 0123 08       		.uleb128 0x8
 1100 0124 2D190000 		.4byte	.LASF34
ARM GAS  C:\Users\KEVINH~1\AppData\Local\Temp\ccC6tirb.s 			page 52


 1101 0128 2C       		.sleb128 44
 1102 0129 08       		.uleb128 0x8
 1103 012a 48170000 		.4byte	.LASF35
 1104 012e C000     		.sleb128 64
 1105 0130 08       		.uleb128 0x8
 1106 0131 BF000000 		.4byte	.LASF36
 1107 0135 C100     		.sleb128 65
 1108 0137 08       		.uleb128 0x8
 1109 0138 B41A0000 		.4byte	.LASF37
 1110 013c C200     		.sleb128 66
 1111 013e 08       		.uleb128 0x8
 1112 013f 12130000 		.4byte	.LASF38
 1113 0143 C300     		.sleb128 67
 1114 0145 08       		.uleb128 0x8
 1115 0146 14070000 		.4byte	.LASF39
 1116 014a C400     		.sleb128 68
 1117 014c 08       		.uleb128 0x8
 1118 014d B3060000 		.4byte	.LASF40
 1119 0151 C500     		.sleb128 69
 1120 0153 08       		.uleb128 0x8
 1121 0154 BE150000 		.4byte	.LASF41
 1122 0158 C600     		.sleb128 70
 1123 015a 08       		.uleb128 0x8
 1124 015b A0150000 		.4byte	.LASF42
 1125 015f C700     		.sleb128 71
 1126 0161 08       		.uleb128 0x8
 1127 0162 C4070000 		.4byte	.LASF43
 1128 0166 C800     		.sleb128 72
 1129 0168 08       		.uleb128 0x8
 1130 0169 11120000 		.4byte	.LASF44
 1131 016d C900     		.sleb128 73
 1132 016f 08       		.uleb128 0x8
 1133 0170 DC080000 		.4byte	.LASF45
 1134 0174 CA00     		.sleb128 74
 1135 0176 08       		.uleb128 0x8
 1136 0177 20080000 		.4byte	.LASF46
 1137 017b CB00     		.sleb128 75
 1138 017d 08       		.uleb128 0x8
 1139 017e B4110000 		.4byte	.LASF47
 1140 0182 CC00     		.sleb128 76
 1141 0184 08       		.uleb128 0x8
 1142 0185 0C160000 		.4byte	.LASF48
 1143 0189 CD00     		.sleb128 77
 1144 018b 08       		.uleb128 0x8
 1145 018c 8F040000 		.4byte	.LASF49
 1146 0190 CE00     		.sleb128 78
 1147 0192 08       		.uleb128 0x8
 1148 0193 B70F0000 		.4byte	.LASF50
 1149 0197 CF00     		.sleb128 79
 1150 0199 08       		.uleb128 0x8
 1151 019a AF170000 		.4byte	.LASF51
 1152 019e D000     		.sleb128 80
 1153 01a0 08       		.uleb128 0x8
 1154 01a1 11090000 		.4byte	.LASF52
 1155 01a5 D100     		.sleb128 81
 1156 01a7 08       		.uleb128 0x8
 1157 01a8 69030000 		.4byte	.LASF53
ARM GAS  C:\Users\KEVINH~1\AppData\Local\Temp\ccC6tirb.s 			page 53


 1158 01ac D200     		.sleb128 82
 1159 01ae 08       		.uleb128 0x8
 1160 01af BC180000 		.4byte	.LASF54
 1161 01b3 D300     		.sleb128 83
 1162 01b5 08       		.uleb128 0x8
 1163 01b6 381B0000 		.4byte	.LASF55
 1164 01ba D400     		.sleb128 84
 1165 01bc 08       		.uleb128 0x8
 1166 01bd 3E020000 		.4byte	.LASF56
 1167 01c1 D500     		.sleb128 85
 1168 01c3 08       		.uleb128 0x8
 1169 01c4 B8090000 		.4byte	.LASF57
 1170 01c8 D600     		.sleb128 86
 1171 01ca 08       		.uleb128 0x8
 1172 01cb 1F0F0000 		.4byte	.LASF58
 1173 01cf D700     		.sleb128 87
 1174 01d1 08       		.uleb128 0x8
 1175 01d2 9B190000 		.4byte	.LASF59
 1176 01d6 F000     		.sleb128 112
 1177 01d8 08       		.uleb128 0x8
 1178 01d9 D10A0000 		.4byte	.LASF60
 1179 01dd F100     		.sleb128 113
 1180 01df 08       		.uleb128 0x8
 1181 01e0 A6050000 		.4byte	.LASF61
 1182 01e4 F200     		.sleb128 114
 1183 01e6 08       		.uleb128 0x8
 1184 01e7 91170000 		.4byte	.LASF62
 1185 01eb F300     		.sleb128 115
 1186 01ed 08       		.uleb128 0x8
 1187 01ee 64120000 		.4byte	.LASF63
 1188 01f2 F400     		.sleb128 116
 1189 01f4 08       		.uleb128 0x8
 1190 01f5 620D0000 		.4byte	.LASF64
 1191 01f9 F500     		.sleb128 117
 1192 01fb 08       		.uleb128 0x8
 1193 01fc A3070000 		.4byte	.LASF65
 1194 0200 F600     		.sleb128 118
 1195 0202 08       		.uleb128 0x8
 1196 0203 6D140000 		.4byte	.LASF66
 1197 0207 F700     		.sleb128 119
 1198 0209 08       		.uleb128 0x8
 1199 020a 62020000 		.4byte	.LASF67
 1200 020e F800     		.sleb128 120
 1201 0210 08       		.uleb128 0x8
 1202 0211 4E070000 		.4byte	.LASF68
 1203 0215 F900     		.sleb128 121
 1204 0217 08       		.uleb128 0x8
 1205 0218 F21A0000 		.4byte	.LASF69
 1206 021c FA00     		.sleb128 122
 1207 021e 08       		.uleb128 0x8
 1208 021f 780E0000 		.4byte	.LASF70
 1209 0223 FA01     		.sleb128 250
 1210 0225 08       		.uleb128 0x8
 1211 0226 89180000 		.4byte	.LASF71
 1212 022a FB01     		.sleb128 251
 1213 022c 08       		.uleb128 0x8
 1214 022d 4D110000 		.4byte	.LASF72
ARM GAS  C:\Users\KEVINH~1\AppData\Local\Temp\ccC6tirb.s 			page 54


 1215 0231 FF01     		.sleb128 255
 1216 0233 00       		.byte	0
 1217 0234 09       		.uleb128 0x9
 1218 0235 01       		.byte	0x1
 1219 0236 03       		.byte	0x3
 1220 0237 6002     		.2byte	0x260
 1221 0239 74020000 		.4byte	0x274
 1222 023d 08       		.uleb128 0x8
 1223 023e 0C060000 		.4byte	.LASF73
 1224 0242 01       		.sleb128 1
 1225 0243 08       		.uleb128 0x8
 1226 0244 5A040000 		.4byte	.LASF74
 1227 0248 02       		.sleb128 2
 1228 0249 08       		.uleb128 0x8
 1229 024a C0120000 		.4byte	.LASF75
 1230 024e 03       		.sleb128 3
 1231 024f 08       		.uleb128 0x8
 1232 0250 F4030000 		.4byte	.LASF76
 1233 0254 04       		.sleb128 4
 1234 0255 08       		.uleb128 0x8
 1235 0256 F0070000 		.4byte	.LASF77
 1236 025a 05       		.sleb128 5
 1237 025b 08       		.uleb128 0x8
 1238 025c 300C0000 		.4byte	.LASF78
 1239 0260 06       		.sleb128 6
 1240 0261 08       		.uleb128 0x8
 1241 0262 5D180000 		.4byte	.LASF79
 1242 0266 07       		.sleb128 7
 1243 0267 08       		.uleb128 0x8
 1244 0268 EC0B0000 		.4byte	.LASF80
 1245 026c 08       		.sleb128 8
 1246 026d 08       		.uleb128 0x8
 1247 026e BF0E0000 		.4byte	.LASF81
 1248 0272 09       		.sleb128 9
 1249 0273 00       		.byte	0
 1250 0274 0A       		.uleb128 0xa
 1251 0275 A70D0000 		.4byte	.LASF82
 1252 0279 03       		.byte	0x3
 1253 027a 6A02     		.2byte	0x26a
 1254 027c 34020000 		.4byte	0x234
 1255 0280 09       		.uleb128 0x9
 1256 0281 01       		.byte	0x1
 1257 0282 03       		.byte	0x3
 1258 0283 6E02     		.2byte	0x26e
 1259 0285 9C020000 		.4byte	0x29c
 1260 0289 08       		.uleb128 0x8
 1261 028a 74180000 		.4byte	.LASF83
 1262 028e 00       		.sleb128 0
 1263 028f 08       		.uleb128 0x8
 1264 0290 35100000 		.4byte	.LASF84
 1265 0294 01       		.sleb128 1
 1266 0295 08       		.uleb128 0x8
 1267 0296 86190000 		.4byte	.LASF85
 1268 029a 02       		.sleb128 2
 1269 029b 00       		.byte	0
 1270 029c 0A       		.uleb128 0xa
 1271 029d 6D060000 		.4byte	.LASF86
ARM GAS  C:\Users\KEVINH~1\AppData\Local\Temp\ccC6tirb.s 			page 55


 1272 02a1 03       		.byte	0x3
 1273 02a2 7502     		.2byte	0x275
 1274 02a4 80020000 		.4byte	0x280
 1275 02a8 0B       		.uleb128 0xb
 1276 02a9 02       		.byte	0x2
 1277 02aa 03       		.byte	0x3
 1278 02ab 7802     		.2byte	0x278
 1279 02ad CC020000 		.4byte	0x2cc
 1280 02b1 0C       		.uleb128 0xc
 1281 02b2 71010000 		.4byte	.LASF87
 1282 02b6 03       		.byte	0x3
 1283 02b7 7B02     		.2byte	0x27b
 1284 02b9 74020000 		.4byte	0x274
 1285 02bd 00       		.byte	0
 1286 02be 0C       		.uleb128 0xc
 1287 02bf 9C050000 		.4byte	.LASF88
 1288 02c3 03       		.byte	0x3
 1289 02c4 7D02     		.2byte	0x27d
 1290 02c6 9C020000 		.4byte	0x29c
 1291 02ca 01       		.byte	0x1
 1292 02cb 00       		.byte	0
 1293 02cc 0A       		.uleb128 0xa
 1294 02cd 6E190000 		.4byte	.LASF89
 1295 02d1 03       		.byte	0x3
 1296 02d2 7E02     		.2byte	0x27e
 1297 02d4 A8020000 		.4byte	0x2a8
 1298 02d8 0B       		.uleb128 0xb
 1299 02d9 07       		.byte	0x7
 1300 02da 03       		.byte	0x3
 1301 02db B002     		.2byte	0x2b0
 1302 02dd FC020000 		.4byte	0x2fc
 1303 02e1 0C       		.uleb128 0xc
 1304 02e2 10180000 		.4byte	.LASF90
 1305 02e6 03       		.byte	0x3
 1306 02e7 B202     		.2byte	0x2b2
 1307 02e9 FC020000 		.4byte	0x2fc
 1308 02ed 00       		.byte	0
 1309 02ee 0C       		.uleb128 0xc
 1310 02ef B5020000 		.4byte	.LASF91
 1311 02f3 03       		.byte	0x3
 1312 02f4 B302     		.2byte	0x2b3
 1313 02f6 6B000000 		.4byte	0x6b
 1314 02fa 06       		.byte	0x6
 1315 02fb 00       		.byte	0
 1316 02fc 0D       		.uleb128 0xd
 1317 02fd 6B000000 		.4byte	0x6b
 1318 0301 0C030000 		.4byte	0x30c
 1319 0305 0E       		.uleb128 0xe
 1320 0306 A6000000 		.4byte	0xa6
 1321 030a 05       		.byte	0x5
 1322 030b 00       		.byte	0
 1323 030c 0A       		.uleb128 0xa
 1324 030d EE140000 		.4byte	.LASF92
 1325 0311 03       		.byte	0x3
 1326 0312 B402     		.2byte	0x2b4
 1327 0314 D8020000 		.4byte	0x2d8
 1328 0318 07       		.uleb128 0x7
ARM GAS  C:\Users\KEVINH~1\AppData\Local\Temp\ccC6tirb.s 			page 56


 1329 0319 01       		.byte	0x1
 1330 031a 04       		.byte	0x4
 1331 031b 45       		.byte	0x45
 1332 031c 39030000 		.4byte	0x339
 1333 0320 08       		.uleb128 0x8
 1334 0321 1B150000 		.4byte	.LASF93
 1335 0325 01       		.sleb128 1
 1336 0326 08       		.uleb128 0x8
 1337 0327 BC140000 		.4byte	.LASF94
 1338 032b 02       		.sleb128 2
 1339 032c 08       		.uleb128 0x8
 1340 032d E01A0000 		.4byte	.LASF95
 1341 0331 03       		.sleb128 3
 1342 0332 08       		.uleb128 0x8
 1343 0333 8F150000 		.4byte	.LASF96
 1344 0337 04       		.sleb128 4
 1345 0338 00       		.byte	0
 1346 0339 04       		.uleb128 0x4
 1347 033a BA020000 		.4byte	.LASF97
 1348 033e 04       		.byte	0x4
 1349 033f 52       		.byte	0x52
 1350 0340 18030000 		.4byte	0x318
 1351 0344 07       		.uleb128 0x7
 1352 0345 01       		.byte	0x1
 1353 0346 05       		.byte	0x5
 1354 0347 B2       		.byte	0xb2
 1355 0348 65030000 		.4byte	0x365
 1356 034c 08       		.uleb128 0x8
 1357 034d B6040000 		.4byte	.LASF98
 1358 0351 00       		.sleb128 0
 1359 0352 08       		.uleb128 0x8
 1360 0353 CC040000 		.4byte	.LASF99
 1361 0357 01       		.sleb128 1
 1362 0358 08       		.uleb128 0x8
 1363 0359 E2040000 		.4byte	.LASF100
 1364 035d 02       		.sleb128 2
 1365 035e 08       		.uleb128 0x8
 1366 035f 88090000 		.4byte	.LASF101
 1367 0363 0F       		.sleb128 15
 1368 0364 00       		.byte	0
 1369 0365 07       		.uleb128 0x7
 1370 0366 01       		.byte	0x1
 1371 0367 05       		.byte	0x5
 1372 0368 CC       		.byte	0xcc
 1373 0369 8C030000 		.4byte	0x38c
 1374 036d 08       		.uleb128 0x8
 1375 036e D7030000 		.4byte	.LASF102
 1376 0372 00       		.sleb128 0
 1377 0373 08       		.uleb128 0x8
 1378 0374 0F190000 		.4byte	.LASF103
 1379 0378 01       		.sleb128 1
 1380 0379 08       		.uleb128 0x8
 1381 037a 55080000 		.4byte	.LASF104
 1382 037e 02       		.sleb128 2
 1383 037f 08       		.uleb128 0x8
 1384 0380 9E000000 		.4byte	.LASF105
 1385 0384 03       		.sleb128 3
ARM GAS  C:\Users\KEVINH~1\AppData\Local\Temp\ccC6tirb.s 			page 57


 1386 0385 08       		.uleb128 0x8
 1387 0386 62170000 		.4byte	.LASF106
 1388 038a 04       		.sleb128 4
 1389 038b 00       		.byte	0
 1390 038c 07       		.uleb128 0x7
 1391 038d 01       		.byte	0x1
 1392 038e 05       		.byte	0x5
 1393 038f E2       		.byte	0xe2
 1394 0390 E3030000 		.4byte	0x3e3
 1395 0394 08       		.uleb128 0x8
 1396 0395 DB120000 		.4byte	.LASF107
 1397 0399 00       		.sleb128 0
 1398 039a 08       		.uleb128 0x8
 1399 039b 30040000 		.4byte	.LASF108
 1400 039f 01       		.sleb128 1
 1401 03a0 08       		.uleb128 0x8
 1402 03a1 57130000 		.4byte	.LASF109
 1403 03a5 02       		.sleb128 2
 1404 03a6 08       		.uleb128 0x8
 1405 03a7 760C0000 		.4byte	.LASF110
 1406 03ab 03       		.sleb128 3
 1407 03ac 08       		.uleb128 0x8
 1408 03ad 6C1A0000 		.4byte	.LASF111
 1409 03b1 04       		.sleb128 4
 1410 03b2 08       		.uleb128 0x8
 1411 03b3 64150000 		.4byte	.LASF112
 1412 03b7 05       		.sleb128 5
 1413 03b8 08       		.uleb128 0x8
 1414 03b9 D90D0000 		.4byte	.LASF113
 1415 03bd 06       		.sleb128 6
 1416 03be 08       		.uleb128 0x8
 1417 03bf 4B0C0000 		.4byte	.LASF114
 1418 03c3 07       		.sleb128 7
 1419 03c4 08       		.uleb128 0x8
 1420 03c5 FD020000 		.4byte	.LASF115
 1421 03c9 08       		.sleb128 8
 1422 03ca 08       		.uleb128 0x8
 1423 03cb 3B0D0000 		.4byte	.LASF116
 1424 03cf 09       		.sleb128 9
 1425 03d0 08       		.uleb128 0x8
 1426 03d1 7B070000 		.4byte	.LASF117
 1427 03d5 0A       		.sleb128 10
 1428 03d6 08       		.uleb128 0x8
 1429 03d7 D1020000 		.4byte	.LASF118
 1430 03db 15       		.sleb128 21
 1431 03dc 08       		.uleb128 0x8
 1432 03dd F70A0000 		.4byte	.LASF119
 1433 03e1 18       		.sleb128 24
 1434 03e2 00       		.byte	0
 1435 03e3 0A       		.uleb128 0xa
 1436 03e4 95110000 		.4byte	.LASF120
 1437 03e8 05       		.byte	0x5
 1438 03e9 0E01     		.2byte	0x10e
 1439 03eb 8C030000 		.4byte	0x38c
 1440 03ef 0B       		.uleb128 0xb
 1441 03f0 04       		.byte	0x4
 1442 03f1 05       		.byte	0x5
ARM GAS  C:\Users\KEVINH~1\AppData\Local\Temp\ccC6tirb.s 			page 58


 1443 03f2 2701     		.2byte	0x127
 1444 03f4 2D040000 		.4byte	0x42d
 1445 03f8 0C       		.uleb128 0xc
 1446 03f9 7C160000 		.4byte	.LASF121
 1447 03fd 05       		.byte	0x5
 1448 03fe 3001     		.2byte	0x130
 1449 0400 6B000000 		.4byte	0x6b
 1450 0404 00       		.byte	0
 1451 0405 0C       		.uleb128 0xc
 1452 0406 840F0000 		.4byte	.LASF122
 1453 040a 05       		.byte	0x5
 1454 040b 3601     		.2byte	0x136
 1455 040d 6B000000 		.4byte	0x6b
 1456 0411 01       		.byte	0x1
 1457 0412 0C       		.uleb128 0xc
 1458 0413 39000000 		.4byte	.LASF123
 1459 0417 05       		.byte	0x5
 1460 0418 3C01     		.2byte	0x13c
 1461 041a 6B000000 		.4byte	0x6b
 1462 041e 02       		.byte	0x2
 1463 041f 0C       		.uleb128 0xc
 1464 0420 CF160000 		.4byte	.LASF124
 1465 0424 05       		.byte	0x5
 1466 0425 4001     		.2byte	0x140
 1467 0427 E3030000 		.4byte	0x3e3
 1468 042b 03       		.byte	0x3
 1469 042c 00       		.byte	0
 1470 042d 0A       		.uleb128 0xa
 1471 042e 3F080000 		.4byte	.LASF125
 1472 0432 05       		.byte	0x5
 1473 0433 4201     		.2byte	0x142
 1474 0435 EF030000 		.4byte	0x3ef
 1475 0439 0F       		.uleb128 0xf
 1476 043a 04       		.byte	0x4
 1477 043b 6B000000 		.4byte	0x6b
 1478 043f 0B       		.uleb128 0xb
 1479 0440 08       		.byte	0x8
 1480 0441 05       		.byte	0x5
 1481 0442 AE02     		.2byte	0x2ae
 1482 0444 7D040000 		.4byte	0x47d
 1483 0448 0C       		.uleb128 0xc
 1484 0449 290C0000 		.4byte	.LASF126
 1485 044d 05       		.byte	0x5
 1486 044e B202     		.2byte	0x2b2
 1487 0450 6B000000 		.4byte	0x6b
 1488 0454 00       		.byte	0
 1489 0455 0C       		.uleb128 0xc
 1490 0456 EC190000 		.4byte	.LASF127
 1491 045a 05       		.byte	0x5
 1492 045b B802     		.2byte	0x2b8
 1493 045d 76000000 		.4byte	0x76
 1494 0461 02       		.byte	0x2
 1495 0462 0C       		.uleb128 0xc
 1496 0463 03190000 		.4byte	.LASF128
 1497 0467 05       		.byte	0x5
 1498 0468 BD02     		.2byte	0x2bd
 1499 046a 76000000 		.4byte	0x76
ARM GAS  C:\Users\KEVINH~1\AppData\Local\Temp\ccC6tirb.s 			page 59


 1500 046e 04       		.byte	0x4
 1501 046f 0C       		.uleb128 0xc
 1502 0470 D21A0000 		.4byte	.LASF129
 1503 0474 05       		.byte	0x5
 1504 0475 C302     		.2byte	0x2c3
 1505 0477 76000000 		.4byte	0x76
 1506 047b 06       		.byte	0x6
 1507 047c 00       		.byte	0
 1508 047d 0A       		.uleb128 0xa
 1509 047e 9F130000 		.4byte	.LASF130
 1510 0482 05       		.byte	0x5
 1511 0483 C502     		.2byte	0x2c5
 1512 0485 3F040000 		.4byte	0x43f
 1513 0489 07       		.uleb128 0x7
 1514 048a 01       		.byte	0x1
 1515 048b 06       		.byte	0x6
 1516 048c 48       		.byte	0x48
 1517 048d 43050000 		.4byte	0x543
 1518 0491 08       		.uleb128 0x8
 1519 0492 160A0000 		.4byte	.LASF131
 1520 0496 01       		.sleb128 1
 1521 0497 08       		.uleb128 0x8
 1522 0498 C3080000 		.4byte	.LASF132
 1523 049c 02       		.sleb128 2
 1524 049d 08       		.uleb128 0x8
 1525 049e 76040000 		.4byte	.LASF133
 1526 04a2 03       		.sleb128 3
 1527 04a3 08       		.uleb128 0x8
 1528 04a4 28060000 		.4byte	.LASF134
 1529 04a8 04       		.sleb128 4
 1530 04a9 08       		.uleb128 0x8
 1531 04aa 3E130000 		.4byte	.LASF135
 1532 04ae 05       		.sleb128 5
 1533 04af 08       		.uleb128 0x8
 1534 04b0 9E120000 		.4byte	.LASF136
 1535 04b4 06       		.sleb128 6
 1536 04b5 08       		.uleb128 0x8
 1537 04b6 B5030000 		.4byte	.LASF137
 1538 04ba 07       		.sleb128 7
 1539 04bb 08       		.uleb128 0x8
 1540 04bc 48120000 		.4byte	.LASF138
 1541 04c0 08       		.sleb128 8
 1542 04c1 08       		.uleb128 0x8
 1543 04c2 25030000 		.4byte	.LASF139
 1544 04c6 09       		.sleb128 9
 1545 04c7 08       		.uleb128 0x8
 1546 04c8 150C0000 		.4byte	.LASF140
 1547 04cc 0A       		.sleb128 10
 1548 04cd 08       		.uleb128 0x8
 1549 04ce 49180000 		.4byte	.LASF141
 1550 04d2 0B       		.sleb128 11
 1551 04d3 08       		.uleb128 0x8
 1552 04d4 02150000 		.4byte	.LASF142
 1553 04d8 0C       		.sleb128 12
 1554 04d9 08       		.uleb128 0x8
 1555 04da C2050000 		.4byte	.LASF143
 1556 04de 0D       		.sleb128 13
ARM GAS  C:\Users\KEVINH~1\AppData\Local\Temp\ccC6tirb.s 			page 60


 1557 04df 08       		.uleb128 0x8
 1558 04e0 F4110000 		.4byte	.LASF144
 1559 04e4 0E       		.sleb128 14
 1560 04e5 08       		.uleb128 0x8
 1561 04e6 98020000 		.4byte	.LASF145
 1562 04ea 0F       		.sleb128 15
 1563 04eb 08       		.uleb128 0x8
 1564 04ec 4F1A0000 		.4byte	.LASF146
 1565 04f0 10       		.sleb128 16
 1566 04f1 08       		.uleb128 0x8
 1567 04f2 820B0000 		.4byte	.LASF147
 1568 04f6 11       		.sleb128 17
 1569 04f7 08       		.uleb128 0x8
 1570 04f8 B0160000 		.4byte	.LASF148
 1571 04fc 12       		.sleb128 18
 1572 04fd 08       		.uleb128 0x8
 1573 04fe 0B080000 		.4byte	.LASF149
 1574 0502 13       		.sleb128 19
 1575 0503 08       		.uleb128 0x8
 1576 0504 DA000000 		.4byte	.LASF150
 1577 0508 D200     		.sleb128 82
 1578 050a 08       		.uleb128 0x8
 1579 050b E8010000 		.4byte	.LASF151
 1580 050f 16       		.sleb128 22
 1581 0510 08       		.uleb128 0x8
 1582 0511 FF100000 		.4byte	.LASF152
 1583 0515 17       		.sleb128 23
 1584 0516 08       		.uleb128 0x8
 1585 0517 51190000 		.4byte	.LASF153
 1586 051b 18       		.sleb128 24
 1587 051c 08       		.uleb128 0x8
 1588 051d B40A0000 		.4byte	.LASF154
 1589 0521 19       		.sleb128 25
 1590 0522 08       		.uleb128 0x8
 1591 0523 A60C0000 		.4byte	.LASF155
 1592 0527 1B       		.sleb128 27
 1593 0528 08       		.uleb128 0x8
 1594 0529 32070000 		.4byte	.LASF156
 1595 052d 1D       		.sleb128 29
 1596 052e 08       		.uleb128 0x8
 1597 052f 42000000 		.4byte	.LASF157
 1598 0533 1E       		.sleb128 30
 1599 0534 08       		.uleb128 0x8
 1600 0535 6D0A0000 		.4byte	.LASF158
 1601 0539 D201     		.sleb128 210
 1602 053b 08       		.uleb128 0x8
 1603 053c 26140000 		.4byte	.LASF159
 1604 0540 FF01     		.sleb128 255
 1605 0542 00       		.byte	0
 1606 0543 07       		.uleb128 0x7
 1607 0544 01       		.byte	0x1
 1608 0545 06       		.byte	0x6
 1609 0546 A4       		.byte	0xa4
 1610 0547 1A060000 		.4byte	0x61a
 1611 054b 08       		.uleb128 0x8
 1612 054c 8C140000 		.4byte	.LASF160
 1613 0550 00       		.sleb128 0
ARM GAS  C:\Users\KEVINH~1\AppData\Local\Temp\ccC6tirb.s 			page 61


 1614 0551 08       		.uleb128 0x8
 1615 0552 E3130000 		.4byte	.LASF161
 1616 0556 01       		.sleb128 1
 1617 0557 08       		.uleb128 0x8
 1618 0558 A1010000 		.4byte	.LASF162
 1619 055c 02       		.sleb128 2
 1620 055d 08       		.uleb128 0x8
 1621 055e C9190000 		.4byte	.LASF163
 1622 0562 03       		.sleb128 3
 1623 0563 08       		.uleb128 0x8
 1624 0564 36050000 		.4byte	.LASF164
 1625 0568 04       		.sleb128 4
 1626 0569 08       		.uleb128 0x8
 1627 056a D60F0000 		.4byte	.LASF165
 1628 056e 05       		.sleb128 5
 1629 056f 08       		.uleb128 0x8
 1630 0570 23170000 		.4byte	.LASF166
 1631 0574 06       		.sleb128 6
 1632 0575 08       		.uleb128 0x8
 1633 0576 2A120000 		.4byte	.LASF167
 1634 057a 07       		.sleb128 7
 1635 057b 08       		.uleb128 0x8
 1636 057c 4F0F0000 		.4byte	.LASF168
 1637 0580 08       		.sleb128 8
 1638 0581 08       		.uleb128 0x8
 1639 0582 9F0B0000 		.4byte	.LASF169
 1640 0586 09       		.sleb128 9
 1641 0587 08       		.uleb128 0x8
 1642 0588 2A110000 		.4byte	.LASF170
 1643 058c 0A       		.sleb128 10
 1644 058d 08       		.uleb128 0x8
 1645 058e 66090000 		.4byte	.LASF171
 1646 0592 0B       		.sleb128 11
 1647 0593 08       		.uleb128 0x8
 1648 0594 960E0000 		.4byte	.LASF172
 1649 0598 0C       		.sleb128 12
 1650 0599 08       		.uleb128 0x8
 1651 059a DB050000 		.4byte	.LASF173
 1652 059e 0D       		.sleb128 13
 1653 059f 08       		.uleb128 0x8
 1654 05a0 A5080000 		.4byte	.LASF174
 1655 05a4 0E       		.sleb128 14
 1656 05a5 08       		.uleb128 0x8
 1657 05a6 081A0000 		.4byte	.LASF175
 1658 05aa 0F       		.sleb128 15
 1659 05ab 08       		.uleb128 0x8
 1660 05ac 05020000 		.4byte	.LASF176
 1661 05b0 10       		.sleb128 16
 1662 05b1 08       		.uleb128 0x8
 1663 05b2 C3010000 		.4byte	.LASF177
 1664 05b6 11       		.sleb128 17
 1665 05b7 08       		.uleb128 0x8
 1666 05b8 30090000 		.4byte	.LASF178
 1667 05bc 8001     		.sleb128 128
 1668 05be 08       		.uleb128 0x8
 1669 05bf 1E0B0000 		.4byte	.LASF179
 1670 05c3 8001     		.sleb128 128
ARM GAS  C:\Users\KEVINH~1\AppData\Local\Temp\ccC6tirb.s 			page 62


 1671 05c5 08       		.uleb128 0x8
 1672 05c6 D7160000 		.4byte	.LASF180
 1673 05ca 8001     		.sleb128 128
 1674 05cc 08       		.uleb128 0x8
 1675 05cd CE140000 		.4byte	.LASF181
 1676 05d1 8001     		.sleb128 128
 1677 05d3 08       		.uleb128 0x8
 1678 05d4 C7100000 		.4byte	.LASF182
 1679 05d8 8001     		.sleb128 128
 1680 05da 08       		.uleb128 0x8
 1681 05db C70B0000 		.4byte	.LASF183
 1682 05df 8001     		.sleb128 128
 1683 05e1 08       		.uleb128 0x8
 1684 05e2 8A080000 		.4byte	.LASF184
 1685 05e6 8001     		.sleb128 128
 1686 05e8 08       		.uleb128 0x8
 1687 05e9 890A0000 		.4byte	.LASF185
 1688 05ed 8101     		.sleb128 129
 1689 05ef 08       		.uleb128 0x8
 1690 05f0 DF150000 		.4byte	.LASF186
 1691 05f4 8101     		.sleb128 129
 1692 05f6 08       		.uleb128 0x8
 1693 05f7 00000000 		.4byte	.LASF187
 1694 05fb 8101     		.sleb128 129
 1695 05fd 08       		.uleb128 0x8
 1696 05fe 17180000 		.4byte	.LASF188
 1697 0602 A001     		.sleb128 160
 1698 0604 08       		.uleb128 0x8
 1699 0605 89060000 		.4byte	.LASF189
 1700 0609 FD01     		.sleb128 253
 1701 060b 08       		.uleb128 0x8
 1702 060c D40E0000 		.4byte	.LASF190
 1703 0610 FE01     		.sleb128 254
 1704 0612 08       		.uleb128 0x8
 1705 0613 82120000 		.4byte	.LASF191
 1706 0617 FF01     		.sleb128 255
 1707 0619 00       		.byte	0
 1708 061a 0A       		.uleb128 0xa
 1709 061b A6140000 		.4byte	.LASF192
 1710 061f 06       		.byte	0x6
 1711 0620 4001     		.2byte	0x140
 1712 0622 43050000 		.4byte	0x543
 1713 0626 0A       		.uleb128 0xa
 1714 0627 41140000 		.4byte	.LASF193
 1715 062b 06       		.byte	0x6
 1716 062c 6201     		.2byte	0x162
 1717 062e 76000000 		.4byte	0x76
 1718 0632 0B       		.uleb128 0xb
 1719 0633 02       		.byte	0x2
 1720 0634 06       		.byte	0x6
 1721 0635 6501     		.2byte	0x165
 1722 0637 56060000 		.4byte	0x656
 1723 063b 0C       		.uleb128 0xc
 1724 063c 27040000 		.4byte	.LASF194
 1725 0640 06       		.byte	0x6
 1726 0641 6C01     		.2byte	0x16c
 1727 0643 6B000000 		.4byte	0x6b
ARM GAS  C:\Users\KEVINH~1\AppData\Local\Temp\ccC6tirb.s 			page 63


 1728 0647 00       		.byte	0
 1729 0648 0C       		.uleb128 0xc
 1730 0649 991A0000 		.4byte	.LASF195
 1731 064d 06       		.byte	0x6
 1732 064e 7201     		.2byte	0x172
 1733 0650 6B000000 		.4byte	0x6b
 1734 0654 01       		.byte	0x1
 1735 0655 00       		.byte	0
 1736 0656 0A       		.uleb128 0xa
 1737 0657 A1030000 		.4byte	.LASF196
 1738 065b 06       		.byte	0x6
 1739 065c 7401     		.2byte	0x174
 1740 065e 32060000 		.4byte	0x632
 1741 0662 0B       		.uleb128 0xb
 1742 0663 08       		.byte	0x8
 1743 0664 06       		.byte	0x6
 1744 0665 8901     		.2byte	0x189
 1745 0667 93060000 		.4byte	0x693
 1746 066b 10       		.uleb128 0x10
 1747 066c 76616C00 		.ascii	"val\000"
 1748 0670 06       		.byte	0x6
 1749 0671 8C01     		.2byte	0x18c
 1750 0673 39040000 		.4byte	0x439
 1751 0677 00       		.byte	0
 1752 0678 10       		.uleb128 0x10
 1753 0679 6C656E00 		.ascii	"len\000"
 1754 067d 06       		.byte	0x6
 1755 067e 8F01     		.2byte	0x18f
 1756 0680 76000000 		.4byte	0x76
 1757 0684 04       		.byte	0x4
 1758 0685 0C       		.uleb128 0xc
 1759 0686 451A0000 		.4byte	.LASF197
 1760 068a 06       		.byte	0x6
 1761 068b 9601     		.2byte	0x196
 1762 068d 76000000 		.4byte	0x76
 1763 0691 06       		.byte	0x6
 1764 0692 00       		.byte	0
 1765 0693 0A       		.uleb128 0xa
 1766 0694 85020000 		.4byte	.LASF198
 1767 0698 06       		.byte	0x6
 1768 0699 9801     		.2byte	0x198
 1769 069b 62060000 		.4byte	0x662
 1770 069f 0B       		.uleb128 0xb
 1771 06a0 0C       		.byte	0xc
 1772 06a1 06       		.byte	0x6
 1773 06a2 9B01     		.2byte	0x19b
 1774 06a4 C3060000 		.4byte	0x6c3
 1775 06a8 0C       		.uleb128 0xc
 1776 06a9 A0140000 		.4byte	.LASF199
 1777 06ad 06       		.byte	0x6
 1778 06ae 9E01     		.2byte	0x19e
 1779 06b0 93060000 		.4byte	0x693
 1780 06b4 00       		.byte	0
 1781 06b5 0C       		.uleb128 0xc
 1782 06b6 790F0000 		.4byte	.LASF200
 1783 06ba 06       		.byte	0x6
 1784 06bb A101     		.2byte	0x1a1
ARM GAS  C:\Users\KEVINH~1\AppData\Local\Temp\ccC6tirb.s 			page 64


 1785 06bd 26060000 		.4byte	0x626
 1786 06c1 08       		.byte	0x8
 1787 06c2 00       		.byte	0
 1788 06c3 0A       		.uleb128 0xa
 1789 06c4 7D050000 		.4byte	.LASF201
 1790 06c8 06       		.byte	0x6
 1791 06c9 A301     		.2byte	0x1a3
 1792 06cb 9F060000 		.4byte	0x69f
 1793 06cf 0B       		.uleb128 0xb
 1794 06d0 04       		.byte	0x4
 1795 06d1 06       		.byte	0x6
 1796 06d2 B101     		.2byte	0x1b1
 1797 06d4 F3060000 		.4byte	0x6f3
 1798 06d8 0C       		.uleb128 0xc
 1799 06d9 3F150000 		.4byte	.LASF202
 1800 06dd 06       		.byte	0x6
 1801 06de B401     		.2byte	0x1b4
 1802 06e0 56060000 		.4byte	0x656
 1803 06e4 00       		.byte	0
 1804 06e5 10       		.uleb128 0x10
 1805 06e6 6D747500 		.ascii	"mtu\000"
 1806 06ea 06       		.byte	0x6
 1807 06eb B701     		.2byte	0x1b7
 1808 06ed 76000000 		.4byte	0x76
 1809 06f1 02       		.byte	0x2
 1810 06f2 00       		.byte	0
 1811 06f3 0A       		.uleb128 0xa
 1812 06f4 01100000 		.4byte	.LASF203
 1813 06f8 06       		.byte	0x6
 1814 06f9 B901     		.2byte	0x1b9
 1815 06fb CF060000 		.4byte	0x6cf
 1816 06ff 11       		.uleb128 0x11
 1817 0700 04       		.byte	0x4
 1818 0701 07       		.byte	0x7
 1819 0702 33       		.byte	0x33
 1820 0703 2C070000 		.4byte	0x72c
 1821 0707 12       		.uleb128 0x12
 1822 0708 790F0000 		.4byte	.LASF200
 1823 070c 07       		.byte	0x7
 1824 070d 36       		.byte	0x36
 1825 070e 26060000 		.4byte	0x626
 1826 0712 00       		.byte	0
 1827 0713 12       		.uleb128 0x12
 1828 0714 480F0000 		.4byte	.LASF204
 1829 0718 07       		.byte	0x7
 1830 0719 3C       		.byte	0x3c
 1831 071a 6B000000 		.4byte	0x6b
 1832 071e 02       		.byte	0x2
 1833 071f 12       		.uleb128 0x12
 1834 0720 71070000 		.4byte	.LASF205
 1835 0724 07       		.byte	0x7
 1836 0725 3F       		.byte	0x3f
 1837 0726 1A060000 		.4byte	0x61a
 1838 072a 03       		.byte	0x3
 1839 072b 00       		.byte	0
 1840 072c 04       		.uleb128 0x4
 1841 072d EE060000 		.4byte	.LASF206
ARM GAS  C:\Users\KEVINH~1\AppData\Local\Temp\ccC6tirb.s 			page 65


 1842 0731 07       		.byte	0x7
 1843 0732 41       		.byte	0x41
 1844 0733 FF060000 		.4byte	0x6ff
 1845 0737 11       		.uleb128 0x11
 1846 0738 10       		.byte	0x10
 1847 0739 07       		.byte	0x7
 1848 073a 83       		.byte	0x83
 1849 073b 58070000 		.4byte	0x758
 1850 073f 12       		.uleb128 0x12
 1851 0740 3F150000 		.4byte	.LASF202
 1852 0744 07       		.byte	0x7
 1853 0745 86       		.byte	0x86
 1854 0746 56060000 		.4byte	0x656
 1855 074a 00       		.byte	0
 1856 074b 12       		.uleb128 0x12
 1857 074c 31150000 		.4byte	.LASF207
 1858 0750 07       		.byte	0x7
 1859 0751 89       		.byte	0x89
 1860 0752 C3060000 		.4byte	0x6c3
 1861 0756 04       		.byte	0x4
 1862 0757 00       		.byte	0
 1863 0758 04       		.uleb128 0x4
 1864 0759 8C0F0000 		.4byte	.LASF208
 1865 075d 07       		.byte	0x7
 1866 075e 8B       		.byte	0x8b
 1867 075f 37070000 		.4byte	0x737
 1868 0763 0A       		.uleb128 0xa
 1869 0764 41030000 		.4byte	.LASF209
 1870 0768 08       		.byte	0x8
 1871 0769 2401     		.2byte	0x124
 1872 076b 6F070000 		.4byte	0x76f
 1873 076f 0F       		.uleb128 0xf
 1874 0770 04       		.byte	0x4
 1875 0771 75070000 		.4byte	0x775
 1876 0775 13       		.uleb128 0x13
 1877 0776 85070000 		.4byte	0x785
 1878 077a 14       		.uleb128 0x14
 1879 077b 81000000 		.4byte	0x81
 1880 077f 14       		.uleb128 0x14
 1881 0780 AD000000 		.4byte	0xad
 1882 0784 00       		.byte	0
 1883 0785 07       		.uleb128 0x7
 1884 0786 01       		.byte	0x1
 1885 0787 09       		.byte	0x9
 1886 0788 1D       		.byte	0x1d
 1887 0789 CA070000 		.4byte	0x7ca
 1888 078d 08       		.uleb128 0x8
 1889 078e 83130000 		.4byte	.LASF210
 1890 0792 00       		.sleb128 0
 1891 0793 08       		.uleb128 0x8
 1892 0794 DA090000 		.4byte	.LASF211
 1893 0798 01       		.sleb128 1
 1894 0799 08       		.uleb128 0x8
 1895 079a C20C0000 		.4byte	.LASF212
 1896 079e 02       		.sleb128 2
 1897 079f 08       		.uleb128 0x8
 1898 07a0 0B050000 		.4byte	.LASF213
ARM GAS  C:\Users\KEVINH~1\AppData\Local\Temp\ccC6tirb.s 			page 66


 1899 07a4 03       		.sleb128 3
 1900 07a5 08       		.uleb128 0x8
 1901 07a6 52030000 		.4byte	.LASF214
 1902 07aa 04       		.sleb128 4
 1903 07ab 08       		.uleb128 0x8
 1904 07ac A1090000 		.4byte	.LASF215
 1905 07b0 05       		.sleb128 5
 1906 07b1 08       		.uleb128 0x8
 1907 07b2 020A0000 		.4byte	.LASF216
 1908 07b6 06       		.sleb128 6
 1909 07b7 08       		.uleb128 0x8
 1910 07b8 1D100000 		.4byte	.LASF217
 1911 07bc 07       		.sleb128 7
 1912 07bd 08       		.uleb128 0x8
 1913 07be 4C0E0000 		.4byte	.LASF218
 1914 07c2 08       		.sleb128 8
 1915 07c3 08       		.uleb128 0x8
 1916 07c4 1B000000 		.4byte	.LASF219
 1917 07c8 09       		.sleb128 9
 1918 07c9 00       		.byte	0
 1919 07ca 07       		.uleb128 0x7
 1920 07cb 01       		.byte	0x1
 1921 07cc 0A       		.byte	0xa
 1922 07cd 22       		.byte	0x22
 1923 07ce EB070000 		.4byte	0x7eb
 1924 07d2 08       		.uleb128 0x8
 1925 07d3 30130000 		.4byte	.LASF220
 1926 07d7 00       		.sleb128 0
 1927 07d8 08       		.uleb128 0x8
 1928 07d9 0F0E0000 		.4byte	.LASF221
 1929 07dd 01       		.sleb128 1
 1930 07de 08       		.uleb128 0x8
 1931 07df 1C110000 		.4byte	.LASF222
 1932 07e3 02       		.sleb128 2
 1933 07e4 08       		.uleb128 0x8
 1934 07e5 0E170000 		.4byte	.LASF223
 1935 07e9 03       		.sleb128 3
 1936 07ea 00       		.byte	0
 1937 07eb 09       		.uleb128 0x9
 1938 07ec 01       		.byte	0x1
 1939 07ed 0B       		.byte	0xb
 1940 07ee 1907     		.2byte	0x719
 1941 07f0 13080000 		.4byte	0x813
 1942 07f4 08       		.uleb128 0x8
 1943 07f5 DA060000 		.4byte	.LASF224
 1944 07f9 00       		.sleb128 0
 1945 07fa 08       		.uleb128 0x8
 1946 07fb 140D0000 		.4byte	.LASF225
 1947 07ff 01       		.sleb128 1
 1948 0800 08       		.uleb128 0x8
 1949 0801 2F1A0000 		.4byte	.LASF226
 1950 0805 02       		.sleb128 2
 1951 0806 08       		.uleb128 0x8
 1952 0807 0F040000 		.4byte	.LASF227
 1953 080b 03       		.sleb128 3
 1954 080c 08       		.uleb128 0x8
 1955 080d 26160000 		.4byte	.LASF228
ARM GAS  C:\Users\KEVINH~1\AppData\Local\Temp\ccC6tirb.s 			page 67


 1956 0811 04       		.sleb128 4
 1957 0812 00       		.byte	0
 1958 0813 0A       		.uleb128 0xa
 1959 0814 83170000 		.4byte	.LASF229
 1960 0818 0B       		.byte	0xb
 1961 0819 2707     		.2byte	0x727
 1962 081b EB070000 		.4byte	0x7eb
 1963 081f 15       		.uleb128 0x15
 1964 0820 5E000000 		.4byte	.LASF232
 1965 0824 01       		.byte	0x1
 1966 0825 DE       		.byte	0xde
 1967 0826 00000000 		.4byte	.LFB2
 1968 082a 98000000 		.4byte	.LFE2-.LFB2
 1969 082e 01       		.uleb128 0x1
 1970 082f 9C       		.byte	0x9c
 1971 0830 6A080000 		.4byte	0x86a
 1972 0834 16       		.uleb128 0x16
 1973 0835 74000000 		.4byte	.LASF234
 1974 0839 01       		.byte	0x1
 1975 083a DE       		.byte	0xde
 1976 083b 6A080000 		.4byte	0x86a
 1977 083f 02       		.uleb128 0x2
 1978 0840 91       		.byte	0x91
 1979 0841 64       		.sleb128 -28
 1980 0842 17       		.uleb128 0x17
 1981 0843 C1190000 		.4byte	.LASF230
 1982 0847 01       		.byte	0x1
 1983 0848 E0       		.byte	0xe0
 1984 0849 1A060000 		.4byte	0x61a
 1985 084d 02       		.uleb128 0x2
 1986 084e 91       		.byte	0x91
 1987 084f 6F       		.sleb128 -17
 1988 0850 18       		.uleb128 0x18
 1989 0851 58000000 		.4byte	.LBB2
 1990 0855 2C000000 		.4byte	.LBE2-.LBB2
 1991 0859 19       		.uleb128 0x19
 1992 085a F5100000 		.4byte	.LASF231
 1993 085e 01       		.byte	0x1
 1994 085f 7C01     		.2byte	0x17c
 1995 0861 2C070000 		.4byte	0x72c
 1996 0865 02       		.uleb128 0x2
 1997 0866 91       		.byte	0x91
 1998 0867 68       		.sleb128 -24
 1999 0868 00       		.byte	0
 2000 0869 00       		.byte	0
 2001 086a 0F       		.uleb128 0xf
 2002 086b 04       		.byte	0x4
 2003 086c 58070000 		.4byte	0x758
 2004 0870 1A       		.uleb128 0x1a
 2005 0871 010F0000 		.4byte	.LASF233
 2006 0875 01       		.byte	0x1
 2007 0876 9C01     		.2byte	0x19c
 2008 0878 00000000 		.4byte	.LFB3
 2009 087c 0E000000 		.4byte	.LFE3-.LFB3
 2010 0880 01       		.uleb128 0x1
 2011 0881 9C       		.byte	0x9c
 2012 0882 96080000 		.4byte	0x896
ARM GAS  C:\Users\KEVINH~1\AppData\Local\Temp\ccC6tirb.s 			page 68


 2013 0886 1B       		.uleb128 0x1b
 2014 0887 74000000 		.4byte	.LASF234
 2015 088b 01       		.byte	0x1
 2016 088c 9C01     		.2byte	0x19c
 2017 088e 96080000 		.4byte	0x896
 2018 0892 02       		.uleb128 0x2
 2019 0893 91       		.byte	0x91
 2020 0894 74       		.sleb128 -12
 2021 0895 00       		.byte	0
 2022 0896 0F       		.uleb128 0xf
 2023 0897 04       		.byte	0x4
 2024 0898 9C080000 		.4byte	0x89c
 2025 089c 1C       		.uleb128 0x1c
 2026 089d 56060000 		.4byte	0x656
 2027 08a1 1D       		.uleb128 0x1d
 2028 08a2 2B0E0000 		.4byte	.LASF236
 2029 08a6 01       		.byte	0x1
 2030 08a7 6704     		.2byte	0x467
 2031 08a9 00000000 		.4byte	.LFB4
 2032 08ad 18000000 		.4byte	.LFE4-.LFB4
 2033 08b1 01       		.uleb128 0x1
 2034 08b2 9C       		.byte	0x9c
 2035 08b3 1A       		.uleb128 0x1a
 2036 08b4 4A150000 		.4byte	.LASF235
 2037 08b8 01       		.byte	0x1
 2038 08b9 A104     		.2byte	0x4a1
 2039 08bb 00000000 		.4byte	.LFB5
 2040 08bf 0E000000 		.4byte	.LFE5-.LFB5
 2041 08c3 01       		.uleb128 0x1
 2042 08c4 9C       		.byte	0x9c
 2043 08c5 D9080000 		.4byte	0x8d9
 2044 08c9 1B       		.uleb128 0x1b
 2045 08ca 74000000 		.4byte	.LASF234
 2046 08ce 01       		.byte	0x1
 2047 08cf A104     		.2byte	0x4a1
 2048 08d1 D9080000 		.4byte	0x8d9
 2049 08d5 02       		.uleb128 0x2
 2050 08d6 91       		.byte	0x91
 2051 08d7 74       		.sleb128 -12
 2052 08d8 00       		.byte	0
 2053 08d9 0F       		.uleb128 0xf
 2054 08da 04       		.byte	0x4
 2055 08db DF080000 		.4byte	0x8df
 2056 08df 1C       		.uleb128 0x1c
 2057 08e0 39030000 		.4byte	0x339
 2058 08e4 1D       		.uleb128 0x1d
 2059 08e5 BD0D0000 		.4byte	.LASF237
 2060 08e9 01       		.byte	0x1
 2061 08ea DD04     		.2byte	0x4dd
 2062 08ec 00000000 		.4byte	.LFB6
 2063 08f0 08000000 		.4byte	.LFE6-.LFB6
 2064 08f4 01       		.uleb128 0x1
 2065 08f5 9C       		.byte	0x9c
 2066 08f6 1E       		.uleb128 0x1e
 2067 08f7 7A110000 		.4byte	.LASF260
 2068 08fb 01       		.byte	0x1
 2069 08fc 0B05     		.2byte	0x50b
ARM GAS  C:\Users\KEVINH~1\AppData\Local\Temp\ccC6tirb.s 			page 69


 2070 08fe 6B000000 		.4byte	0x6b
 2071 0902 00000000 		.4byte	.LFB7
 2072 0906 60000000 		.4byte	.LFE7-.LFB7
 2073 090a 01       		.uleb128 0x1
 2074 090b 9C       		.byte	0x9c
 2075 090c 3C090000 		.4byte	0x93c
 2076 0910 1B       		.uleb128 0x1b
 2077 0911 5D0E0000 		.4byte	.LASF238
 2078 0915 01       		.byte	0x1
 2079 0916 0B05     		.2byte	0x50b
 2080 0918 3C090000 		.4byte	0x93c
 2081 091c 02       		.uleb128 0x2
 2082 091d 91       		.byte	0x91
 2083 091e 6C       		.sleb128 -20
 2084 091f 1F       		.uleb128 0x1f
 2085 0920 6900     		.ascii	"i\000"
 2086 0922 01       		.byte	0x1
 2087 0923 0D05     		.2byte	0x50d
 2088 0925 6B000000 		.4byte	0x6b
 2089 0929 02       		.uleb128 0x2
 2090 092a 91       		.byte	0x91
 2091 092b 77       		.sleb128 -9
 2092 092c 19       		.uleb128 0x19
 2093 092d 13140000 		.4byte	.LASF239
 2094 0931 01       		.byte	0x1
 2095 0932 0E05     		.2byte	0x50e
 2096 0934 6B000000 		.4byte	0x6b
 2097 0938 02       		.uleb128 0x2
 2098 0939 91       		.byte	0x91
 2099 093a 76       		.sleb128 -10
 2100 093b 00       		.byte	0
 2101 093c 0F       		.uleb128 0xf
 2102 093d 04       		.byte	0x4
 2103 093e 42090000 		.4byte	0x942
 2104 0942 1C       		.uleb128 0x1c
 2105 0943 0C030000 		.4byte	0x30c
 2106 0947 1A       		.uleb128 0x1a
 2107 0948 85160000 		.4byte	.LASF240
 2108 094c 01       		.byte	0x1
 2109 094d 3105     		.2byte	0x531
 2110 094f 00000000 		.4byte	.LFB8
 2111 0953 12000000 		.4byte	.LFE8-.LFB8
 2112 0957 01       		.uleb128 0x1
 2113 0958 9C       		.byte	0x9c
 2114 0959 6D090000 		.4byte	0x96d
 2115 095d 1B       		.uleb128 0x1b
 2116 095e 40180000 		.4byte	.LASF241
 2117 0962 01       		.byte	0x1
 2118 0963 3105     		.2byte	0x531
 2119 0965 76000000 		.4byte	0x76
 2120 0969 02       		.uleb128 0x2
 2121 096a 91       		.byte	0x91
 2122 096b 76       		.sleb128 -10
 2123 096c 00       		.byte	0
 2124 096d 1A       		.uleb128 0x1a
 2125 096e 2B0A0000 		.4byte	.LASF242
 2126 0972 01       		.byte	0x1
ARM GAS  C:\Users\KEVINH~1\AppData\Local\Temp\ccC6tirb.s 			page 70


 2127 0973 4D05     		.2byte	0x54d
 2128 0975 00000000 		.4byte	.LFB9
 2129 0979 0E000000 		.4byte	.LFE9-.LFB9
 2130 097d 01       		.uleb128 0x1
 2131 097e 9C       		.byte	0x9c
 2132 097f 93090000 		.4byte	0x993
 2133 0983 1B       		.uleb128 0x1b
 2134 0984 74000000 		.4byte	.LASF234
 2135 0988 01       		.byte	0x1
 2136 0989 4D05     		.2byte	0x54d
 2137 098b 93090000 		.4byte	0x993
 2138 098f 02       		.uleb128 0x2
 2139 0990 91       		.byte	0x91
 2140 0991 74       		.sleb128 -12
 2141 0992 00       		.byte	0
 2142 0993 0F       		.uleb128 0xf
 2143 0994 04       		.byte	0x4
 2144 0995 99090000 		.4byte	0x999
 2145 0999 1C       		.uleb128 0x1c
 2146 099a 7D040000 		.4byte	0x47d
 2147 099e 20       		.uleb128 0x20
 2148 099f 5A060000 		.4byte	.LASF261
 2149 09a3 01       		.byte	0x1
 2150 09a4 6905     		.2byte	0x569
 2151 09a6 00000000 		.4byte	.LFB10
 2152 09aa BC020000 		.4byte	.LFE10-.LFB10
 2153 09ae 01       		.uleb128 0x1
 2154 09af 9C       		.byte	0x9c
 2155 09b0 090A0000 		.4byte	0xa09
 2156 09b4 1B       		.uleb128 0x1b
 2157 09b5 DD180000 		.4byte	.LASF243
 2158 09b9 01       		.byte	0x1
 2159 09ba 6905     		.2byte	0x569
 2160 09bc 6B000000 		.4byte	0x6b
 2161 09c0 02       		.uleb128 0x2
 2162 09c1 91       		.byte	0x91
 2163 09c2 6F       		.sleb128 -17
 2164 09c3 1B       		.uleb128 0x1b
 2165 09c4 74000000 		.4byte	.LASF234
 2166 09c8 01       		.byte	0x1
 2167 09c9 6905     		.2byte	0x569
 2168 09cb AD000000 		.4byte	0xad
 2169 09cf 02       		.uleb128 0x2
 2170 09d0 91       		.byte	0x91
 2171 09d1 68       		.sleb128 -24
 2172 09d2 21       		.uleb128 0x21
 2173 09d3 32000000 		.4byte	.LBB3
 2174 09d7 34000000 		.4byte	.LBE3-.LBB3
 2175 09db EF090000 		.4byte	0x9ef
 2176 09df 19       		.uleb128 0x19
 2177 09e0 5D140000 		.4byte	.LASF244
 2178 09e4 01       		.byte	0x1
 2179 09e5 7605     		.2byte	0x576
 2180 09e7 CC020000 		.4byte	0x2cc
 2181 09eb 02       		.uleb128 0x2
 2182 09ec 91       		.byte	0x91
 2183 09ed 74       		.sleb128 -12
ARM GAS  C:\Users\KEVINH~1\AppData\Local\Temp\ccC6tirb.s 			page 71


 2184 09ee 00       		.byte	0
 2185 09ef 18       		.uleb128 0x18
 2186 09f0 FC010000 		.4byte	.LBB4
 2187 09f4 3A000000 		.4byte	.LBE4-.LBB4
 2188 09f8 19       		.uleb128 0x19
 2189 09f9 2D0D0000 		.4byte	.LASF245
 2190 09fd 01       		.byte	0x1
 2191 09fe 4606     		.2byte	0x646
 2192 0a00 76000000 		.4byte	0x76
 2193 0a04 02       		.uleb128 0x2
 2194 0a05 91       		.byte	0x91
 2195 0a06 76       		.sleb128 -10
 2196 0a07 00       		.byte	0
 2197 0a08 00       		.byte	0
 2198 0a09 22       		.uleb128 0x22
 2199 0a0a 2B020000 		.4byte	.LASF246
 2200 0a0e 08       		.byte	0x8
 2201 0a0f 9501     		.2byte	0x195
 2202 0a11 63070000 		.4byte	0x763
 2203 0a15 23       		.uleb128 0x23
 2204 0a16 FA080000 		.4byte	.LASF247
 2205 0a1a 01       		.byte	0x1
 2206 0a1b 41       		.byte	0x41
 2207 0a1c A1000000 		.4byte	0xa1
 2208 0a20 05       		.uleb128 0x5
 2209 0a21 03       		.byte	0x3
 2210 0a22 00000000 		.4byte	cyBle_eventHandlerFlag
 2211 0a26 22       		.uleb128 0x22
 2212 0a27 22050000 		.4byte	.LASF248
 2213 0a2b 08       		.byte	0x8
 2214 0a2c 9901     		.2byte	0x199
 2215 0a2e 0C030000 		.4byte	0x30c
 2216 0a32 22       		.uleb128 0x22
 2217 0a33 530A0000 		.4byte	.LASF249
 2218 0a37 08       		.byte	0x8
 2219 0a38 9A01     		.2byte	0x19a
 2220 0a3a 3E0A0000 		.4byte	0xa3e
 2221 0a3e 0F       		.uleb128 0xf
 2222 0a3f 04       		.byte	0x4
 2223 0a40 0C030000 		.4byte	0x30c
 2224 0a44 23       		.uleb128 0x23
 2225 0a45 6D160000 		.4byte	.LASF250
 2226 0a49 01       		.byte	0x1
 2227 0a4a C5       		.byte	0xc5
 2228 0a4b 2D040000 		.4byte	0x42d
 2229 0a4f 05       		.uleb128 0x5
 2230 0a50 03       		.byte	0x3
 2231 0a51 00000000 		.4byte	cyBle_authInfo
 2232 0a55 0D       		.uleb128 0xd
 2233 0a56 6B000000 		.4byte	0x6b
 2234 0a5a 650A0000 		.4byte	0xa65
 2235 0a5e 0E       		.uleb128 0xe
 2236 0a5f A6000000 		.4byte	0xa6
 2237 0a63 03       		.byte	0x3
 2238 0a64 00       		.byte	0
 2239 0a65 24       		.uleb128 0x24
 2240 0a66 A8180000 		.4byte	.LASF251
ARM GAS  C:\Users\KEVINH~1\AppData\Local\Temp\ccC6tirb.s 			page 72


 2241 0a6a 0C       		.byte	0xc
 2242 0a6b BF       		.byte	0xbf
 2243 0a6c 550A0000 		.4byte	0xa55
 2244 0a70 0D       		.uleb128 0xd
 2245 0a71 6B000000 		.4byte	0x6b
 2246 0a75 860A0000 		.4byte	0xa86
 2247 0a79 0E       		.uleb128 0xe
 2248 0a7a A6000000 		.4byte	0xa6
 2249 0a7e 04       		.byte	0x4
 2250 0a7f 0E       		.uleb128 0xe
 2251 0a80 A6000000 		.4byte	0xa6
 2252 0a84 03       		.byte	0x3
 2253 0a85 00       		.byte	0
 2254 0a86 24       		.uleb128 0x24
 2255 0a87 82010000 		.4byte	.LASF252
 2256 0a8b 0C       		.byte	0xc
 2257 0a8c C1       		.byte	0xc1
 2258 0a8d 910A0000 		.4byte	0xa91
 2259 0a91 1C       		.uleb128 0x1c
 2260 0a92 700A0000 		.4byte	0xa70
 2261 0a96 22       		.uleb128 0x22
 2262 0a97 00160000 		.4byte	.LASF253
 2263 0a9b 0B       		.byte	0xb
 2264 0a9c 0009     		.2byte	0x900
 2265 0a9e 13080000 		.4byte	0x813
 2266 0aa2 23       		.uleb128 0x23
 2267 0aa3 F1090000 		.4byte	.LASF254
 2268 0aa7 01       		.byte	0x1
 2269 0aa8 3F       		.byte	0x3f
 2270 0aa9 56060000 		.4byte	0x656
 2271 0aad 05       		.uleb128 0x5
 2272 0aae 03       		.byte	0x3
 2273 0aaf 00000000 		.4byte	cyBle_connHandle
 2274 0ab3 23       		.uleb128 0x23
 2275 0ab4 030D0000 		.4byte	.LASF255
 2276 0ab8 01       		.byte	0x1
 2277 0ab9 42       		.byte	0x42
 2278 0aba A1000000 		.4byte	0xa1
 2279 0abe 05       		.uleb128 0x5
 2280 0abf 03       		.byte	0x3
 2281 0ac0 00000000 		.4byte	cyBle_busyStatus
 2282 0ac4 23       		.uleb128 0x23
 2283 0ac5 F2170000 		.4byte	.LASF256
 2284 0ac9 01       		.byte	0x1
 2285 0aca 45       		.byte	0x45
 2286 0acb 6B000000 		.4byte	0x6b
 2287 0acf 05       		.uleb128 0x5
 2288 0ad0 03       		.byte	0x3
 2289 0ad1 00000000 		.4byte	cyBle_advertisingIntervalType
 2290 0ad5 00       		.byte	0
 2291              		.section	.debug_abbrev,"",%progbits
 2292              	.Ldebug_abbrev0:
 2293 0000 01       		.uleb128 0x1
 2294 0001 11       		.uleb128 0x11
 2295 0002 01       		.byte	0x1
 2296 0003 25       		.uleb128 0x25
 2297 0004 0E       		.uleb128 0xe
ARM GAS  C:\Users\KEVINH~1\AppData\Local\Temp\ccC6tirb.s 			page 73


 2298 0005 13       		.uleb128 0x13
 2299 0006 0B       		.uleb128 0xb
 2300 0007 03       		.uleb128 0x3
 2301 0008 0E       		.uleb128 0xe
 2302 0009 1B       		.uleb128 0x1b
 2303 000a 0E       		.uleb128 0xe
 2304 000b 55       		.uleb128 0x55
 2305 000c 17       		.uleb128 0x17
 2306 000d 11       		.uleb128 0x11
 2307 000e 01       		.uleb128 0x1
 2308 000f 10       		.uleb128 0x10
 2309 0010 17       		.uleb128 0x17
 2310 0011 00       		.byte	0
 2311 0012 00       		.byte	0
 2312 0013 02       		.uleb128 0x2
 2313 0014 24       		.uleb128 0x24
 2314 0015 00       		.byte	0
 2315 0016 0B       		.uleb128 0xb
 2316 0017 0B       		.uleb128 0xb
 2317 0018 3E       		.uleb128 0x3e
 2318 0019 0B       		.uleb128 0xb
 2319 001a 03       		.uleb128 0x3
 2320 001b 0E       		.uleb128 0xe
 2321 001c 00       		.byte	0
 2322 001d 00       		.byte	0
 2323 001e 03       		.uleb128 0x3
 2324 001f 24       		.uleb128 0x24
 2325 0020 00       		.byte	0
 2326 0021 0B       		.uleb128 0xb
 2327 0022 0B       		.uleb128 0xb
 2328 0023 3E       		.uleb128 0x3e
 2329 0024 0B       		.uleb128 0xb
 2330 0025 03       		.uleb128 0x3
 2331 0026 08       		.uleb128 0x8
 2332 0027 00       		.byte	0
 2333 0028 00       		.byte	0
 2334 0029 04       		.uleb128 0x4
 2335 002a 16       		.uleb128 0x16
 2336 002b 00       		.byte	0
 2337 002c 03       		.uleb128 0x3
 2338 002d 0E       		.uleb128 0xe
 2339 002e 3A       		.uleb128 0x3a
 2340 002f 0B       		.uleb128 0xb
 2341 0030 3B       		.uleb128 0x3b
 2342 0031 0B       		.uleb128 0xb
 2343 0032 49       		.uleb128 0x49
 2344 0033 13       		.uleb128 0x13
 2345 0034 00       		.byte	0
 2346 0035 00       		.byte	0
 2347 0036 05       		.uleb128 0x5
 2348 0037 35       		.uleb128 0x35
 2349 0038 00       		.byte	0
 2350 0039 49       		.uleb128 0x49
 2351 003a 13       		.uleb128 0x13
 2352 003b 00       		.byte	0
 2353 003c 00       		.byte	0
 2354 003d 06       		.uleb128 0x6
ARM GAS  C:\Users\KEVINH~1\AppData\Local\Temp\ccC6tirb.s 			page 74


 2355 003e 0F       		.uleb128 0xf
 2356 003f 00       		.byte	0
 2357 0040 0B       		.uleb128 0xb
 2358 0041 0B       		.uleb128 0xb
 2359 0042 00       		.byte	0
 2360 0043 00       		.byte	0
 2361 0044 07       		.uleb128 0x7
 2362 0045 04       		.uleb128 0x4
 2363 0046 01       		.byte	0x1
 2364 0047 0B       		.uleb128 0xb
 2365 0048 0B       		.uleb128 0xb
 2366 0049 3A       		.uleb128 0x3a
 2367 004a 0B       		.uleb128 0xb
 2368 004b 3B       		.uleb128 0x3b
 2369 004c 0B       		.uleb128 0xb
 2370 004d 01       		.uleb128 0x1
 2371 004e 13       		.uleb128 0x13
 2372 004f 00       		.byte	0
 2373 0050 00       		.byte	0
 2374 0051 08       		.uleb128 0x8
 2375 0052 28       		.uleb128 0x28
 2376 0053 00       		.byte	0
 2377 0054 03       		.uleb128 0x3
 2378 0055 0E       		.uleb128 0xe
 2379 0056 1C       		.uleb128 0x1c
 2380 0057 0D       		.uleb128 0xd
 2381 0058 00       		.byte	0
 2382 0059 00       		.byte	0
 2383 005a 09       		.uleb128 0x9
 2384 005b 04       		.uleb128 0x4
 2385 005c 01       		.byte	0x1
 2386 005d 0B       		.uleb128 0xb
 2387 005e 0B       		.uleb128 0xb
 2388 005f 3A       		.uleb128 0x3a
 2389 0060 0B       		.uleb128 0xb
 2390 0061 3B       		.uleb128 0x3b
 2391 0062 05       		.uleb128 0x5
 2392 0063 01       		.uleb128 0x1
 2393 0064 13       		.uleb128 0x13
 2394 0065 00       		.byte	0
 2395 0066 00       		.byte	0
 2396 0067 0A       		.uleb128 0xa
 2397 0068 16       		.uleb128 0x16
 2398 0069 00       		.byte	0
 2399 006a 03       		.uleb128 0x3
 2400 006b 0E       		.uleb128 0xe
 2401 006c 3A       		.uleb128 0x3a
 2402 006d 0B       		.uleb128 0xb
 2403 006e 3B       		.uleb128 0x3b
 2404 006f 05       		.uleb128 0x5
 2405 0070 49       		.uleb128 0x49
 2406 0071 13       		.uleb128 0x13
 2407 0072 00       		.byte	0
 2408 0073 00       		.byte	0
 2409 0074 0B       		.uleb128 0xb
 2410 0075 13       		.uleb128 0x13
 2411 0076 01       		.byte	0x1
ARM GAS  C:\Users\KEVINH~1\AppData\Local\Temp\ccC6tirb.s 			page 75


 2412 0077 0B       		.uleb128 0xb
 2413 0078 0B       		.uleb128 0xb
 2414 0079 3A       		.uleb128 0x3a
 2415 007a 0B       		.uleb128 0xb
 2416 007b 3B       		.uleb128 0x3b
 2417 007c 05       		.uleb128 0x5
 2418 007d 01       		.uleb128 0x1
 2419 007e 13       		.uleb128 0x13
 2420 007f 00       		.byte	0
 2421 0080 00       		.byte	0
 2422 0081 0C       		.uleb128 0xc
 2423 0082 0D       		.uleb128 0xd
 2424 0083 00       		.byte	0
 2425 0084 03       		.uleb128 0x3
 2426 0085 0E       		.uleb128 0xe
 2427 0086 3A       		.uleb128 0x3a
 2428 0087 0B       		.uleb128 0xb
 2429 0088 3B       		.uleb128 0x3b
 2430 0089 05       		.uleb128 0x5
 2431 008a 49       		.uleb128 0x49
 2432 008b 13       		.uleb128 0x13
 2433 008c 38       		.uleb128 0x38
 2434 008d 0B       		.uleb128 0xb
 2435 008e 00       		.byte	0
 2436 008f 00       		.byte	0
 2437 0090 0D       		.uleb128 0xd
 2438 0091 01       		.uleb128 0x1
 2439 0092 01       		.byte	0x1
 2440 0093 49       		.uleb128 0x49
 2441 0094 13       		.uleb128 0x13
 2442 0095 01       		.uleb128 0x1
 2443 0096 13       		.uleb128 0x13
 2444 0097 00       		.byte	0
 2445 0098 00       		.byte	0
 2446 0099 0E       		.uleb128 0xe
 2447 009a 21       		.uleb128 0x21
 2448 009b 00       		.byte	0
 2449 009c 49       		.uleb128 0x49
 2450 009d 13       		.uleb128 0x13
 2451 009e 2F       		.uleb128 0x2f
 2452 009f 0B       		.uleb128 0xb
 2453 00a0 00       		.byte	0
 2454 00a1 00       		.byte	0
 2455 00a2 0F       		.uleb128 0xf
 2456 00a3 0F       		.uleb128 0xf
 2457 00a4 00       		.byte	0
 2458 00a5 0B       		.uleb128 0xb
 2459 00a6 0B       		.uleb128 0xb
 2460 00a7 49       		.uleb128 0x49
 2461 00a8 13       		.uleb128 0x13
 2462 00a9 00       		.byte	0
 2463 00aa 00       		.byte	0
 2464 00ab 10       		.uleb128 0x10
 2465 00ac 0D       		.uleb128 0xd
 2466 00ad 00       		.byte	0
 2467 00ae 03       		.uleb128 0x3
 2468 00af 08       		.uleb128 0x8
ARM GAS  C:\Users\KEVINH~1\AppData\Local\Temp\ccC6tirb.s 			page 76


 2469 00b0 3A       		.uleb128 0x3a
 2470 00b1 0B       		.uleb128 0xb
 2471 00b2 3B       		.uleb128 0x3b
 2472 00b3 05       		.uleb128 0x5
 2473 00b4 49       		.uleb128 0x49
 2474 00b5 13       		.uleb128 0x13
 2475 00b6 38       		.uleb128 0x38
 2476 00b7 0B       		.uleb128 0xb
 2477 00b8 00       		.byte	0
 2478 00b9 00       		.byte	0
 2479 00ba 11       		.uleb128 0x11
 2480 00bb 13       		.uleb128 0x13
 2481 00bc 01       		.byte	0x1
 2482 00bd 0B       		.uleb128 0xb
 2483 00be 0B       		.uleb128 0xb
 2484 00bf 3A       		.uleb128 0x3a
 2485 00c0 0B       		.uleb128 0xb
 2486 00c1 3B       		.uleb128 0x3b
 2487 00c2 0B       		.uleb128 0xb
 2488 00c3 01       		.uleb128 0x1
 2489 00c4 13       		.uleb128 0x13
 2490 00c5 00       		.byte	0
 2491 00c6 00       		.byte	0
 2492 00c7 12       		.uleb128 0x12
 2493 00c8 0D       		.uleb128 0xd
 2494 00c9 00       		.byte	0
 2495 00ca 03       		.uleb128 0x3
 2496 00cb 0E       		.uleb128 0xe
 2497 00cc 3A       		.uleb128 0x3a
 2498 00cd 0B       		.uleb128 0xb
 2499 00ce 3B       		.uleb128 0x3b
 2500 00cf 0B       		.uleb128 0xb
 2501 00d0 49       		.uleb128 0x49
 2502 00d1 13       		.uleb128 0x13
 2503 00d2 38       		.uleb128 0x38
 2504 00d3 0B       		.uleb128 0xb
 2505 00d4 00       		.byte	0
 2506 00d5 00       		.byte	0
 2507 00d6 13       		.uleb128 0x13
 2508 00d7 15       		.uleb128 0x15
 2509 00d8 01       		.byte	0x1
 2510 00d9 27       		.uleb128 0x27
 2511 00da 19       		.uleb128 0x19
 2512 00db 01       		.uleb128 0x1
 2513 00dc 13       		.uleb128 0x13
 2514 00dd 00       		.byte	0
 2515 00de 00       		.byte	0
 2516 00df 14       		.uleb128 0x14
 2517 00e0 05       		.uleb128 0x5
 2518 00e1 00       		.byte	0
 2519 00e2 49       		.uleb128 0x49
 2520 00e3 13       		.uleb128 0x13
 2521 00e4 00       		.byte	0
 2522 00e5 00       		.byte	0
 2523 00e6 15       		.uleb128 0x15
 2524 00e7 2E       		.uleb128 0x2e
 2525 00e8 01       		.byte	0x1
ARM GAS  C:\Users\KEVINH~1\AppData\Local\Temp\ccC6tirb.s 			page 77


 2526 00e9 03       		.uleb128 0x3
 2527 00ea 0E       		.uleb128 0xe
 2528 00eb 3A       		.uleb128 0x3a
 2529 00ec 0B       		.uleb128 0xb
 2530 00ed 3B       		.uleb128 0x3b
 2531 00ee 0B       		.uleb128 0xb
 2532 00ef 27       		.uleb128 0x27
 2533 00f0 19       		.uleb128 0x19
 2534 00f1 11       		.uleb128 0x11
 2535 00f2 01       		.uleb128 0x1
 2536 00f3 12       		.uleb128 0x12
 2537 00f4 06       		.uleb128 0x6
 2538 00f5 40       		.uleb128 0x40
 2539 00f6 18       		.uleb128 0x18
 2540 00f7 9642     		.uleb128 0x2116
 2541 00f9 19       		.uleb128 0x19
 2542 00fa 01       		.uleb128 0x1
 2543 00fb 13       		.uleb128 0x13
 2544 00fc 00       		.byte	0
 2545 00fd 00       		.byte	0
 2546 00fe 16       		.uleb128 0x16
 2547 00ff 05       		.uleb128 0x5
 2548 0100 00       		.byte	0
 2549 0101 03       		.uleb128 0x3
 2550 0102 0E       		.uleb128 0xe
 2551 0103 3A       		.uleb128 0x3a
 2552 0104 0B       		.uleb128 0xb
 2553 0105 3B       		.uleb128 0x3b
 2554 0106 0B       		.uleb128 0xb
 2555 0107 49       		.uleb128 0x49
 2556 0108 13       		.uleb128 0x13
 2557 0109 02       		.uleb128 0x2
 2558 010a 18       		.uleb128 0x18
 2559 010b 00       		.byte	0
 2560 010c 00       		.byte	0
 2561 010d 17       		.uleb128 0x17
 2562 010e 34       		.uleb128 0x34
 2563 010f 00       		.byte	0
 2564 0110 03       		.uleb128 0x3
 2565 0111 0E       		.uleb128 0xe
 2566 0112 3A       		.uleb128 0x3a
 2567 0113 0B       		.uleb128 0xb
 2568 0114 3B       		.uleb128 0x3b
 2569 0115 0B       		.uleb128 0xb
 2570 0116 49       		.uleb128 0x49
 2571 0117 13       		.uleb128 0x13
 2572 0118 02       		.uleb128 0x2
 2573 0119 18       		.uleb128 0x18
 2574 011a 00       		.byte	0
 2575 011b 00       		.byte	0
 2576 011c 18       		.uleb128 0x18
 2577 011d 0B       		.uleb128 0xb
 2578 011e 01       		.byte	0x1
 2579 011f 11       		.uleb128 0x11
 2580 0120 01       		.uleb128 0x1
 2581 0121 12       		.uleb128 0x12
 2582 0122 06       		.uleb128 0x6
ARM GAS  C:\Users\KEVINH~1\AppData\Local\Temp\ccC6tirb.s 			page 78


 2583 0123 00       		.byte	0
 2584 0124 00       		.byte	0
 2585 0125 19       		.uleb128 0x19
 2586 0126 34       		.uleb128 0x34
 2587 0127 00       		.byte	0
 2588 0128 03       		.uleb128 0x3
 2589 0129 0E       		.uleb128 0xe
 2590 012a 3A       		.uleb128 0x3a
 2591 012b 0B       		.uleb128 0xb
 2592 012c 3B       		.uleb128 0x3b
 2593 012d 05       		.uleb128 0x5
 2594 012e 49       		.uleb128 0x49
 2595 012f 13       		.uleb128 0x13
 2596 0130 02       		.uleb128 0x2
 2597 0131 18       		.uleb128 0x18
 2598 0132 00       		.byte	0
 2599 0133 00       		.byte	0
 2600 0134 1A       		.uleb128 0x1a
 2601 0135 2E       		.uleb128 0x2e
 2602 0136 01       		.byte	0x1
 2603 0137 03       		.uleb128 0x3
 2604 0138 0E       		.uleb128 0xe
 2605 0139 3A       		.uleb128 0x3a
 2606 013a 0B       		.uleb128 0xb
 2607 013b 3B       		.uleb128 0x3b
 2608 013c 05       		.uleb128 0x5
 2609 013d 27       		.uleb128 0x27
 2610 013e 19       		.uleb128 0x19
 2611 013f 11       		.uleb128 0x11
 2612 0140 01       		.uleb128 0x1
 2613 0141 12       		.uleb128 0x12
 2614 0142 06       		.uleb128 0x6
 2615 0143 40       		.uleb128 0x40
 2616 0144 18       		.uleb128 0x18
 2617 0145 9742     		.uleb128 0x2117
 2618 0147 19       		.uleb128 0x19
 2619 0148 01       		.uleb128 0x1
 2620 0149 13       		.uleb128 0x13
 2621 014a 00       		.byte	0
 2622 014b 00       		.byte	0
 2623 014c 1B       		.uleb128 0x1b
 2624 014d 05       		.uleb128 0x5
 2625 014e 00       		.byte	0
 2626 014f 03       		.uleb128 0x3
 2627 0150 0E       		.uleb128 0xe
 2628 0151 3A       		.uleb128 0x3a
 2629 0152 0B       		.uleb128 0xb
 2630 0153 3B       		.uleb128 0x3b
 2631 0154 05       		.uleb128 0x5
 2632 0155 49       		.uleb128 0x49
 2633 0156 13       		.uleb128 0x13
 2634 0157 02       		.uleb128 0x2
 2635 0158 18       		.uleb128 0x18
 2636 0159 00       		.byte	0
 2637 015a 00       		.byte	0
 2638 015b 1C       		.uleb128 0x1c
 2639 015c 26       		.uleb128 0x26
ARM GAS  C:\Users\KEVINH~1\AppData\Local\Temp\ccC6tirb.s 			page 79


 2640 015d 00       		.byte	0
 2641 015e 49       		.uleb128 0x49
 2642 015f 13       		.uleb128 0x13
 2643 0160 00       		.byte	0
 2644 0161 00       		.byte	0
 2645 0162 1D       		.uleb128 0x1d
 2646 0163 2E       		.uleb128 0x2e
 2647 0164 00       		.byte	0
 2648 0165 03       		.uleb128 0x3
 2649 0166 0E       		.uleb128 0xe
 2650 0167 3A       		.uleb128 0x3a
 2651 0168 0B       		.uleb128 0xb
 2652 0169 3B       		.uleb128 0x3b
 2653 016a 05       		.uleb128 0x5
 2654 016b 27       		.uleb128 0x27
 2655 016c 19       		.uleb128 0x19
 2656 016d 11       		.uleb128 0x11
 2657 016e 01       		.uleb128 0x1
 2658 016f 12       		.uleb128 0x12
 2659 0170 06       		.uleb128 0x6
 2660 0171 40       		.uleb128 0x40
 2661 0172 18       		.uleb128 0x18
 2662 0173 9742     		.uleb128 0x2117
 2663 0175 19       		.uleb128 0x19
 2664 0176 00       		.byte	0
 2665 0177 00       		.byte	0
 2666 0178 1E       		.uleb128 0x1e
 2667 0179 2E       		.uleb128 0x2e
 2668 017a 01       		.byte	0x1
 2669 017b 03       		.uleb128 0x3
 2670 017c 0E       		.uleb128 0xe
 2671 017d 3A       		.uleb128 0x3a
 2672 017e 0B       		.uleb128 0xb
 2673 017f 3B       		.uleb128 0x3b
 2674 0180 05       		.uleb128 0x5
 2675 0181 27       		.uleb128 0x27
 2676 0182 19       		.uleb128 0x19
 2677 0183 49       		.uleb128 0x49
 2678 0184 13       		.uleb128 0x13
 2679 0185 11       		.uleb128 0x11
 2680 0186 01       		.uleb128 0x1
 2681 0187 12       		.uleb128 0x12
 2682 0188 06       		.uleb128 0x6
 2683 0189 40       		.uleb128 0x40
 2684 018a 18       		.uleb128 0x18
 2685 018b 9742     		.uleb128 0x2117
 2686 018d 19       		.uleb128 0x19
 2687 018e 01       		.uleb128 0x1
 2688 018f 13       		.uleb128 0x13
 2689 0190 00       		.byte	0
 2690 0191 00       		.byte	0
 2691 0192 1F       		.uleb128 0x1f
 2692 0193 34       		.uleb128 0x34
 2693 0194 00       		.byte	0
 2694 0195 03       		.uleb128 0x3
 2695 0196 08       		.uleb128 0x8
 2696 0197 3A       		.uleb128 0x3a
ARM GAS  C:\Users\KEVINH~1\AppData\Local\Temp\ccC6tirb.s 			page 80


 2697 0198 0B       		.uleb128 0xb
 2698 0199 3B       		.uleb128 0x3b
 2699 019a 05       		.uleb128 0x5
 2700 019b 49       		.uleb128 0x49
 2701 019c 13       		.uleb128 0x13
 2702 019d 02       		.uleb128 0x2
 2703 019e 18       		.uleb128 0x18
 2704 019f 00       		.byte	0
 2705 01a0 00       		.byte	0
 2706 01a1 20       		.uleb128 0x20
 2707 01a2 2E       		.uleb128 0x2e
 2708 01a3 01       		.byte	0x1
 2709 01a4 3F       		.uleb128 0x3f
 2710 01a5 19       		.uleb128 0x19
 2711 01a6 03       		.uleb128 0x3
 2712 01a7 0E       		.uleb128 0xe
 2713 01a8 3A       		.uleb128 0x3a
 2714 01a9 0B       		.uleb128 0xb
 2715 01aa 3B       		.uleb128 0x3b
 2716 01ab 05       		.uleb128 0x5
 2717 01ac 27       		.uleb128 0x27
 2718 01ad 19       		.uleb128 0x19
 2719 01ae 11       		.uleb128 0x11
 2720 01af 01       		.uleb128 0x1
 2721 01b0 12       		.uleb128 0x12
 2722 01b1 06       		.uleb128 0x6
 2723 01b2 40       		.uleb128 0x40
 2724 01b3 18       		.uleb128 0x18
 2725 01b4 9642     		.uleb128 0x2116
 2726 01b6 19       		.uleb128 0x19
 2727 01b7 01       		.uleb128 0x1
 2728 01b8 13       		.uleb128 0x13
 2729 01b9 00       		.byte	0
 2730 01ba 00       		.byte	0
 2731 01bb 21       		.uleb128 0x21
 2732 01bc 0B       		.uleb128 0xb
 2733 01bd 01       		.byte	0x1
 2734 01be 11       		.uleb128 0x11
 2735 01bf 01       		.uleb128 0x1
 2736 01c0 12       		.uleb128 0x12
 2737 01c1 06       		.uleb128 0x6
 2738 01c2 01       		.uleb128 0x1
 2739 01c3 13       		.uleb128 0x13
 2740 01c4 00       		.byte	0
 2741 01c5 00       		.byte	0
 2742 01c6 22       		.uleb128 0x22
 2743 01c7 34       		.uleb128 0x34
 2744 01c8 00       		.byte	0
 2745 01c9 03       		.uleb128 0x3
 2746 01ca 0E       		.uleb128 0xe
 2747 01cb 3A       		.uleb128 0x3a
 2748 01cc 0B       		.uleb128 0xb
 2749 01cd 3B       		.uleb128 0x3b
 2750 01ce 05       		.uleb128 0x5
 2751 01cf 49       		.uleb128 0x49
 2752 01d0 13       		.uleb128 0x13
 2753 01d1 3F       		.uleb128 0x3f
ARM GAS  C:\Users\KEVINH~1\AppData\Local\Temp\ccC6tirb.s 			page 81


 2754 01d2 19       		.uleb128 0x19
 2755 01d3 3C       		.uleb128 0x3c
 2756 01d4 19       		.uleb128 0x19
 2757 01d5 00       		.byte	0
 2758 01d6 00       		.byte	0
 2759 01d7 23       		.uleb128 0x23
 2760 01d8 34       		.uleb128 0x34
 2761 01d9 00       		.byte	0
 2762 01da 03       		.uleb128 0x3
 2763 01db 0E       		.uleb128 0xe
 2764 01dc 3A       		.uleb128 0x3a
 2765 01dd 0B       		.uleb128 0xb
 2766 01de 3B       		.uleb128 0x3b
 2767 01df 0B       		.uleb128 0xb
 2768 01e0 49       		.uleb128 0x49
 2769 01e1 13       		.uleb128 0x13
 2770 01e2 3F       		.uleb128 0x3f
 2771 01e3 19       		.uleb128 0x19
 2772 01e4 02       		.uleb128 0x2
 2773 01e5 18       		.uleb128 0x18
 2774 01e6 00       		.byte	0
 2775 01e7 00       		.byte	0
 2776 01e8 24       		.uleb128 0x24
 2777 01e9 34       		.uleb128 0x34
 2778 01ea 00       		.byte	0
 2779 01eb 03       		.uleb128 0x3
 2780 01ec 0E       		.uleb128 0xe
 2781 01ed 3A       		.uleb128 0x3a
 2782 01ee 0B       		.uleb128 0xb
 2783 01ef 3B       		.uleb128 0x3b
 2784 01f0 0B       		.uleb128 0xb
 2785 01f1 49       		.uleb128 0x49
 2786 01f2 13       		.uleb128 0x13
 2787 01f3 3F       		.uleb128 0x3f
 2788 01f4 19       		.uleb128 0x19
 2789 01f5 3C       		.uleb128 0x3c
 2790 01f6 19       		.uleb128 0x19
 2791 01f7 00       		.byte	0
 2792 01f8 00       		.byte	0
 2793 01f9 00       		.byte	0
 2794              		.section	.debug_aranges,"",%progbits
 2795 0000 5C000000 		.4byte	0x5c
 2796 0004 0200     		.2byte	0x2
 2797 0006 00000000 		.4byte	.Ldebug_info0
 2798 000a 04       		.byte	0x4
 2799 000b 00       		.byte	0
 2800 000c 0000     		.2byte	0
 2801 000e 0000     		.2byte	0
 2802 0010 00000000 		.4byte	.LFB2
 2803 0014 98000000 		.4byte	.LFE2-.LFB2
 2804 0018 00000000 		.4byte	.LFB3
 2805 001c 0E000000 		.4byte	.LFE3-.LFB3
 2806 0020 00000000 		.4byte	.LFB4
 2807 0024 18000000 		.4byte	.LFE4-.LFB4
 2808 0028 00000000 		.4byte	.LFB5
 2809 002c 0E000000 		.4byte	.LFE5-.LFB5
 2810 0030 00000000 		.4byte	.LFB6
ARM GAS  C:\Users\KEVINH~1\AppData\Local\Temp\ccC6tirb.s 			page 82


 2811 0034 08000000 		.4byte	.LFE6-.LFB6
 2812 0038 00000000 		.4byte	.LFB7
 2813 003c 60000000 		.4byte	.LFE7-.LFB7
 2814 0040 00000000 		.4byte	.LFB8
 2815 0044 12000000 		.4byte	.LFE8-.LFB8
 2816 0048 00000000 		.4byte	.LFB9
 2817 004c 0E000000 		.4byte	.LFE9-.LFB9
 2818 0050 00000000 		.4byte	.LFB10
 2819 0054 BC020000 		.4byte	.LFE10-.LFB10
 2820 0058 00000000 		.4byte	0
 2821 005c 00000000 		.4byte	0
 2822              		.section	.debug_ranges,"",%progbits
 2823              	.Ldebug_ranges0:
 2824 0000 00000000 		.4byte	.LFB2
 2825 0004 98000000 		.4byte	.LFE2
 2826 0008 00000000 		.4byte	.LFB3
 2827 000c 0E000000 		.4byte	.LFE3
 2828 0010 00000000 		.4byte	.LFB4
 2829 0014 18000000 		.4byte	.LFE4
 2830 0018 00000000 		.4byte	.LFB5
 2831 001c 0E000000 		.4byte	.LFE5
 2832 0020 00000000 		.4byte	.LFB6
 2833 0024 08000000 		.4byte	.LFE6
 2834 0028 00000000 		.4byte	.LFB7
 2835 002c 60000000 		.4byte	.LFE7
 2836 0030 00000000 		.4byte	.LFB8
 2837 0034 12000000 		.4byte	.LFE8
 2838 0038 00000000 		.4byte	.LFB9
 2839 003c 0E000000 		.4byte	.LFE9
 2840 0040 00000000 		.4byte	.LFB10
 2841 0044 BC020000 		.4byte	.LFE10
 2842 0048 00000000 		.4byte	0
 2843 004c 00000000 		.4byte	0
 2844              		.section	.debug_line,"",%progbits
 2845              	.Ldebug_line0:
 2846 0000 2B020000 		.section	.debug_str,"MS",%progbits,1
 2846      0200FA00 
 2846      00000201 
 2846      FB0E0D00 
 2846      01010101 
 2847              	.LASF187:
 2848 0000 4359424C 		.ascii	"CYBLE_GATT_ERR_INVALID_CRC\000"
 2848      455F4741 
 2848      54545F45 
 2848      52525F49 
 2848      4E56414C 
 2849              	.LASF219:
 2850 001b 4359424C 		.ascii	"CYBLE_DIS_CHAR_COUNT\000"
 2850      455F4449 
 2850      535F4348 
 2850      41525F43 
 2850      4F554E54 
 2851              	.LASF15:
 2852 0030 73697A65 		.ascii	"sizetype\000"
 2852      74797065 
 2852      00
 2853              	.LASF123:
ARM GAS  C:\Users\KEVINH~1\AppData\Local\Temp\ccC6tirb.s 			page 83


 2854 0039 656B6579 		.ascii	"ekeySize\000"
 2854      53697A65 
 2854      00
 2855              	.LASF157:
 2856 0042 4359424C 		.ascii	"CYBLE_GATT_HANDLE_VALUE_CNF\000"
 2856      455F4741 
 2856      54545F48 
 2856      414E444C 
 2856      455F5641 
 2857              	.LASF232:
 2858 005e 4379426C 		.ascii	"CyBle_WriteReqHandler\000"
 2858      655F5772 
 2858      69746552 
 2858      65714861 
 2858      6E646C65 
 2859              	.LASF234:
 2860 0074 6576656E 		.ascii	"eventParam\000"
 2860      74506172 
 2860      616D00
 2861              	.LASF29:
 2862 007f 4359424C 		.ascii	"CYBLE_EVT_GAP_DEVICE_CONNECTED\000"
 2862      455F4556 
 2862      545F4741 
 2862      505F4445 
 2862      56494345 
 2863              	.LASF105:
 2864 009e 4359424C 		.ascii	"CYBLE_GAP_IOCAP_NOINPUT_NOOUTPUT\000"
 2864      455F4741 
 2864      505F494F 
 2864      4341505F 
 2864      4E4F494E 
 2865              	.LASF36:
 2866 00bf 4359424C 		.ascii	"CYBLE_EVT_GATT_CONNECT_IND\000"
 2866      455F4556 
 2866      545F4741 
 2866      54545F43 
 2866      4F4E4E45 
 2867              	.LASF150:
 2868 00da 4359424C 		.ascii	"CYBLE_GATT_WRITE_CMD\000"
 2868      455F4741 
 2868      54545F57 
 2868      52495445 
 2868      5F434D44 
 2869              	.LASF11:
 2870 00ef 75696E74 		.ascii	"uint32\000"
 2870      333200
 2871              	.LASF259:
 2872 00f6 433A5C55 		.ascii	"C:\\Users\\kevinhung\\Desktop\\ble\\Cypress BLE Wor"
 2872      73657273 
 2872      5C6B6576 
 2872      696E6875 
 2872      6E675C44 
 2873 0124 6B73686F 		.ascii	"kshop\\Workshop Exrecises and Manuals\\Template Lab"
 2873      705C576F 
 2873      726B7368 
 2873      6F702045 
 2873      78726563 
ARM GAS  C:\Users\KEVINH~1\AppData\Local\Temp\ccC6tirb.s 			page 84


 2874 0155 735C424C 		.ascii	"s\\BLE Lab 2\\BLE Lab 2.cydsn\000"
 2874      45204C61 
 2874      6220325C 
 2874      424C4520 
 2874      4C616220 
 2875              	.LASF87:
 2876 0171 626C6550 		.ascii	"blePwrLevelInDbm\000"
 2876      77724C65 
 2876      76656C49 
 2876      6E44626D 
 2876      00
 2877              	.LASF252:
 2878 0182 6379426C 		.ascii	"cyBle_attValuesCCCDFlashMemory\000"
 2878      655F6174 
 2878      7456616C 
 2878      75657343 
 2878      43434446 
 2879              	.LASF162:
 2880 01a1 4359424C 		.ascii	"CYBLE_GATT_ERR_READ_NOT_PERMITTED\000"
 2880      455F4741 
 2880      54545F45 
 2880      52525F52 
 2880      4541445F 
 2881              	.LASF177:
 2882 01c3 4359424C 		.ascii	"CYBLE_GATT_ERR_INSUFFICIENT_RESOURCE\000"
 2882      455F4741 
 2882      54545F45 
 2882      52525F49 
 2882      4E535546 
 2883              	.LASF151:
 2884 01e8 4359424C 		.ascii	"CYBLE_GATT_PREPARE_WRITE_REQ\000"
 2884      455F4741 
 2884      54545F50 
 2884      52455041 
 2884      52455F57 
 2885              	.LASF176:
 2886 0205 4359424C 		.ascii	"CYBLE_GATT_ERR_UNSUPPORTED_GROUP_TYPE\000"
 2886      455F4741 
 2886      54545F45 
 2886      52525F55 
 2886      4E535550 
 2887              	.LASF246:
 2888 022b 4379426C 		.ascii	"CyBle_ApplCallback\000"
 2888      655F4170 
 2888      706C4361 
 2888      6C6C6261 
 2888      636B00
 2889              	.LASF56:
 2890 023e 4359424C 		.ascii	"CYBLE_EVT_GATTS_DATA_SIGNED_CMD_REQ\000"
 2890      455F4556 
 2890      545F4741 
 2890      5454535F 
 2890      44415441 
 2891              	.LASF67:
 2892 0262 4359424C 		.ascii	"CYBLE_EVT_L2CAP_CBFC_RX_CREDIT_IND\000"
 2892      455F4556 
 2892      545F4C32 
ARM GAS  C:\Users\KEVINH~1\AppData\Local\Temp\ccC6tirb.s 			page 85


 2892      4341505F 
 2892      43424643 
 2893              	.LASF198:
 2894 0285 4359424C 		.ascii	"CYBLE_GATT_VALUE_T\000"
 2894      455F4741 
 2894      54545F56 
 2894      414C5545 
 2894      5F5400
 2895              	.LASF145:
 2896 0298 4359424C 		.ascii	"CYBLE_GATT_READ_MULTIPLE_RSP\000"
 2896      455F4741 
 2896      54545F52 
 2896      4541445F 
 2896      4D554C54 
 2897              	.LASF91:
 2898 02b5 74797065 		.ascii	"type\000"
 2898      00
 2899              	.LASF97:
 2900 02ba 4359424C 		.ascii	"CYBLE_TO_REASON_CODE_T\000"
 2900      455F544F 
 2900      5F524541 
 2900      534F4E5F 
 2900      434F4445 
 2901              	.LASF118:
 2902 02d1 4359424C 		.ascii	"CYBLE_GAP_AUTH_ERROR_AUTHENTICATION_TIMEOUT\000"
 2902      455F4741 
 2902      505F4155 
 2902      54485F45 
 2902      52524F52 
 2903              	.LASF115:
 2904 02fd 4359424C 		.ascii	"CYBLE_GAP_AUTH_ERROR_UNSPECIFIED_REASON\000"
 2904      455F4741 
 2904      505F4155 
 2904      54485F45 
 2904      52524F52 
 2905              	.LASF139:
 2906 0325 4359424C 		.ascii	"CYBLE_GATT_READ_BY_TYPE_RSP\000"
 2906      455F4741 
 2906      54545F52 
 2906      4541445F 
 2906      42595F54 
 2907              	.LASF209:
 2908 0341 4359424C 		.ascii	"CYBLE_CALLBACK_T\000"
 2908      455F4341 
 2908      4C4C4241 
 2908      434B5F54 
 2908      00
 2909              	.LASF214:
 2910 0352 4359424C 		.ascii	"CYBLE_DIS_FIRMWARE_REV\000"
 2910      455F4449 
 2910      535F4649 
 2910      524D5741 
 2910      52455F52 
 2911              	.LASF53:
 2912 0369 4359424C 		.ascii	"CYBLE_EVT_GATTC_HANDLE_VALUE_NTF\000"
 2912      455F4556 
 2912      545F4741 
ARM GAS  C:\Users\KEVINH~1\AppData\Local\Temp\ccC6tirb.s 			page 86


 2912      5454435F 
 2912      48414E44 
 2913              	.LASF23:
 2914 038a 4359424C 		.ascii	"CYBLE_EVT_GAP_AUTH_REQ\000"
 2914      455F4556 
 2914      545F4741 
 2914      505F4155 
 2914      54485F52 
 2915              	.LASF196:
 2916 03a1 4359424C 		.ascii	"CYBLE_CONN_HANDLE_T\000"
 2916      455F434F 
 2916      4E4E5F48 
 2916      414E444C 
 2916      455F5400 
 2917              	.LASF137:
 2918 03b5 4359424C 		.ascii	"CYBLE_GATT_FIND_BY_TYPE_VALUE_RSP\000"
 2918      455F4741 
 2918      54545F46 
 2918      494E445F 
 2918      42595F54 
 2919              	.LASF102:
 2920 03d7 4359424C 		.ascii	"CYBLE_GAP_IOCAP_DISPLAY_ONLY\000"
 2920      455F4741 
 2920      505F494F 
 2920      4341505F 
 2920      44495350 
 2921              	.LASF76:
 2922 03f4 4359424C 		.ascii	"CYBLE_LL_PWR_LVL_NEG_3_DBM\000"
 2922      455F4C4C 
 2922      5F505752 
 2922      5F4C564C 
 2922      5F4E4547 
 2923              	.LASF227:
 2924 040f 4359424C 		.ascii	"CYBLE_STATE_ADVERTISING\000"
 2924      455F5354 
 2924      4154455F 
 2924      41445645 
 2924      52544953 
 2925              	.LASF194:
 2926 0427 62644861 		.ascii	"bdHandle\000"
 2926      6E646C65 
 2926      00
 2927              	.LASF108:
 2928 0430 4359424C 		.ascii	"CYBLE_GAP_AUTH_ERROR_PASSKEY_ENTRY_FAILED\000"
 2928      455F4741 
 2928      505F4155 
 2928      54485F45 
 2928      52524F52 
 2929              	.LASF74:
 2930 045a 4359424C 		.ascii	"CYBLE_LL_PWR_LVL_NEG_12_DBM\000"
 2930      455F4C4C 
 2930      5F505752 
 2930      5F4C564C 
 2930      5F4E4547 
 2931              	.LASF133:
 2932 0476 4359424C 		.ascii	"CYBLE_GATT_XCHNG_MTU_RSP\000"
 2932      455F4741 
ARM GAS  C:\Users\KEVINH~1\AppData\Local\Temp\ccC6tirb.s 			page 87


 2932      54545F58 
 2932      43484E47 
 2932      5F4D5455 
 2933              	.LASF49:
 2934 048f 4359424C 		.ascii	"CYBLE_EVT_GATTS_WRITE_CMD_REQ\000"
 2934      455F4556 
 2934      545F4741 
 2934      5454535F 
 2934      57524954 
 2935              	.LASF4:
 2936 04ad 6C6F6E67 		.ascii	"long int\000"
 2936      20696E74 
 2936      00
 2937              	.LASF98:
 2938 04b6 4359424C 		.ascii	"CYBLE_GAP_SEC_LEVEL_1\000"
 2938      455F4741 
 2938      505F5345 
 2938      435F4C45 
 2938      56454C5F 
 2939              	.LASF99:
 2940 04cc 4359424C 		.ascii	"CYBLE_GAP_SEC_LEVEL_2\000"
 2940      455F4741 
 2940      505F5345 
 2940      435F4C45 
 2940      56454C5F 
 2941              	.LASF100:
 2942 04e2 4359424C 		.ascii	"CYBLE_GAP_SEC_LEVEL_3\000"
 2942      455F4741 
 2942      505F5345 
 2942      435F4C45 
 2942      56454C5F 
 2943              	.LASF17:
 2944 04f8 4359424C 		.ascii	"CYBLE_EVT_STACK_ON\000"
 2944      455F4556 
 2944      545F5354 
 2944      41434B5F 
 2944      4F4E00
 2945              	.LASF213:
 2946 050b 4359424C 		.ascii	"CYBLE_DIS_HARDWARE_REV\000"
 2946      455F4449 
 2946      535F4841 
 2946      52445741 
 2946      52455F52 
 2947              	.LASF248:
 2948 0522 6379426C 		.ascii	"cyBle_deviceAddress\000"
 2948      655F6465 
 2948      76696365 
 2948      41646472 
 2948      65737300 
 2949              	.LASF164:
 2950 0536 4359424C 		.ascii	"CYBLE_GATT_ERR_INVALID_PDU\000"
 2950      455F4741 
 2950      54545F45 
 2950      52525F49 
 2950      4E56414C 
 2951              	.LASF258:
 2952 0551 2E5C4765 		.ascii	".\\Generated_Source\\PSoC4\\BLE_eventHandler.c\000"
ARM GAS  C:\Users\KEVINH~1\AppData\Local\Temp\ccC6tirb.s 			page 88


 2952      6E657261 
 2952      7465645F 
 2952      536F7572 
 2952      63655C50 
 2953              	.LASF201:
 2954 057d 4359424C 		.ascii	"CYBLE_GATT_HANDLE_VALUE_PAIR_T\000"
 2954      455F4741 
 2954      54545F48 
 2954      414E444C 
 2954      455F5641 
 2955              	.LASF88:
 2956 059c 626C6553 		.ascii	"bleSsChId\000"
 2956      73436849 
 2956      6400
 2957              	.LASF61:
 2958 05a6 4359424C 		.ascii	"CYBLE_EVT_L2CAP_COMMAND_REJ\000"
 2958      455F4556 
 2958      545F4C32 
 2958      4341505F 
 2958      434F4D4D 
 2959              	.LASF143:
 2960 05c2 4359424C 		.ascii	"CYBLE_GATT_READ_BLOB_RSP\000"
 2960      455F4741 
 2960      54545F52 
 2960      4541445F 
 2960      424C4F42 
 2961              	.LASF173:
 2962 05db 4359424C 		.ascii	"CYBLE_GATT_ERR_INVALID_ATTRIBUTE_LEN\000"
 2962      455F4741 
 2962      54545F45 
 2962      52525F49 
 2962      4E56414C 
 2963              	.LASF0:
 2964 0600 7369676E 		.ascii	"signed char\000"
 2964      65642063 
 2964      68617200 
 2965              	.LASF73:
 2966 060c 4359424C 		.ascii	"CYBLE_LL_PWR_LVL_NEG_18_DBM\000"
 2966      455F4C4C 
 2966      5F505752 
 2966      5F4C564C 
 2966      5F4E4547 
 2967              	.LASF134:
 2968 0628 4359424C 		.ascii	"CYBLE_GATT_FIND_INFO_REQ\000"
 2968      455F4741 
 2968      54545F46 
 2968      494E445F 
 2968      494E464F 
 2969              	.LASF19:
 2970 0641 4359424C 		.ascii	"CYBLE_EVT_HARDWARE_ERROR\000"
 2970      455F4556 
 2970      545F4841 
 2970      52445741 
 2970      52455F45 
 2971              	.LASF261:
 2972 065a 4379426C 		.ascii	"CyBle_EventHandler\000"
 2972      655F4576 
ARM GAS  C:\Users\KEVINH~1\AppData\Local\Temp\ccC6tirb.s 			page 89


 2972      656E7448 
 2972      616E646C 
 2972      657200
 2973              	.LASF86:
 2974 066d 4359424C 		.ascii	"CYBLE_BLESS_PHY_CH_GRP_ID_T\000"
 2974      455F424C 
 2974      4553535F 
 2974      5048595F 
 2974      43485F47 
 2975              	.LASF189:
 2976 0689 4359424C 		.ascii	"CYBLE_GATT_ERR_CCCD_IMPROPERLY_CONFIGURED\000"
 2976      455F4741 
 2976      54545F45 
 2976      52525F43 
 2976      4343445F 
 2977              	.LASF40:
 2978 06b3 4359424C 		.ascii	"CYBLE_EVT_GATTC_READ_BY_GROUP_TYPE_RSP\000"
 2978      455F4556 
 2978      545F4741 
 2978      5454435F 
 2978      52454144 
 2979              	.LASF224:
 2980 06da 4359424C 		.ascii	"CYBLE_STATE_STOPPED\000"
 2980      455F5354 
 2980      4154455F 
 2980      53544F50 
 2980      50454400 
 2981              	.LASF206:
 2982 06ee 4359424C 		.ascii	"CYBLE_GATTS_ERR_PARAM_T\000"
 2982      455F4741 
 2982      5454535F 
 2982      4552525F 
 2982      50415241 
 2983              	.LASF1:
 2984 0706 756E7369 		.ascii	"unsigned char\000"
 2984      676E6564 
 2984      20636861 
 2984      7200
 2985              	.LASF39:
 2986 0714 4359424C 		.ascii	"CYBLE_EVT_GATTC_XCHNG_MTU_RSP\000"
 2986      455F4556 
 2986      545F4741 
 2986      5454435F 
 2986      5843484E 
 2987              	.LASF156:
 2988 0732 4359424C 		.ascii	"CYBLE_GATT_HANDLE_VALUE_IND\000"
 2988      455F4741 
 2988      54545F48 
 2988      414E444C 
 2988      455F5641 
 2989              	.LASF68:
 2990 074e 4359424C 		.ascii	"CYBLE_EVT_L2CAP_CBFC_TX_CREDIT_IND\000"
 2990      455F4556 
 2990      545F4C32 
 2990      4341505F 
 2990      43424643 
 2991              	.LASF205:
ARM GAS  C:\Users\KEVINH~1\AppData\Local\Temp\ccC6tirb.s 			page 90


 2992 0771 6572726F 		.ascii	"errorCode\000"
 2992      72436F64 
 2992      6500
 2993              	.LASF117:
 2994 077b 4359424C 		.ascii	"CYBLE_GAP_AUTH_ERROR_INVALID_PARAMETERS\000"
 2994      455F4741 
 2994      505F4155 
 2994      54485F45 
 2994      52524F52 
 2995              	.LASF65:
 2996 07a3 4359424C 		.ascii	"CYBLE_EVT_L2CAP_CBFC_DISCONN_CNF\000"
 2996      455F4556 
 2996      545F4C32 
 2996      4341505F 
 2996      43424643 
 2997              	.LASF43:
 2998 07c4 4359424C 		.ascii	"CYBLE_EVT_GATTC_FIND_BY_TYPE_VALUE_RSP\000"
 2998      455F4556 
 2998      545F4741 
 2998      5454435F 
 2998      46494E44 
 2999              	.LASF14:
 3000 07eb 63686172 		.ascii	"char\000"
 3000      00
 3001              	.LASF77:
 3002 07f0 4359424C 		.ascii	"CYBLE_LL_PWR_LVL_NEG_2_DBM\000"
 3002      455F4C4C 
 3002      5F505752 
 3002      5F4C564C 
 3002      5F4E4547 
 3003              	.LASF149:
 3004 080b 4359424C 		.ascii	"CYBLE_GATT_WRITE_RSP\000"
 3004      455F4741 
 3004      54545F57 
 3004      52495445 
 3004      5F525350 
 3005              	.LASF46:
 3006 0820 4359424C 		.ascii	"CYBLE_EVT_GATTC_READ_MULTI_RSP\000"
 3006      455F4556 
 3006      545F4741 
 3006      5454435F 
 3006      52454144 
 3007              	.LASF125:
 3008 083f 4359424C 		.ascii	"CYBLE_GAP_AUTH_INFO_T\000"
 3008      455F4741 
 3008      505F4155 
 3008      54485F49 
 3008      4E464F5F 
 3009              	.LASF104:
 3010 0855 4359424C 		.ascii	"CYBLE_GAP_IOCAP_KEYBOARD_ONLY\000"
 3010      455F4741 
 3010      505F494F 
 3010      4341505F 
 3010      4B455942 
 3011              	.LASF16:
 3012 0873 4359424C 		.ascii	"CYBLE_EVT_HOST_INVALID\000"
 3012      455F4556 
ARM GAS  C:\Users\KEVINH~1\AppData\Local\Temp\ccC6tirb.s 			page 91


 3012      545F484F 
 3012      53545F49 
 3012      4E56414C 
 3013              	.LASF184:
 3014 088a 4359424C 		.ascii	"CYBLE_GATT_ERR_MISSING_CRC\000"
 3014      455F4741 
 3014      54545F45 
 3014      52525F4D 
 3014      49535349 
 3015              	.LASF174:
 3016 08a5 4359424C 		.ascii	"CYBLE_GATT_ERR_UNLIKELY_ERROR\000"
 3016      455F4741 
 3016      54545F45 
 3016      52525F55 
 3016      4E4C494B 
 3017              	.LASF132:
 3018 08c3 4359424C 		.ascii	"CYBLE_GATT_XCNHG_MTU_REQ\000"
 3018      455F4741 
 3018      54545F58 
 3018      434E4847 
 3018      5F4D5455 
 3019              	.LASF45:
 3020 08dc 4359424C 		.ascii	"CYBLE_EVT_GATTC_READ_BLOB_RSP\000"
 3020      455F4556 
 3020      545F4741 
 3020      5454435F 
 3020      52454144 
 3021              	.LASF247:
 3022 08fa 6379426C 		.ascii	"cyBle_eventHandlerFlag\000"
 3022      655F6576 
 3022      656E7448 
 3022      616E646C 
 3022      6572466C 
 3023              	.LASF52:
 3024 0911 4359424C 		.ascii	"CYBLE_EVT_GATTC_EXEC_WRITE_RSP\000"
 3024      455F4556 
 3024      545F4741 
 3024      5454435F 
 3024      45584543 
 3025              	.LASF178:
 3026 0930 4359424C 		.ascii	"CYBLE_GATT_ERR_HEART_RATE_CONTROL_POINT_NOT_SUPPORT"
 3026      455F4741 
 3026      54545F45 
 3026      52525F48 
 3026      45415254 
 3027 0963 454400   		.ascii	"ED\000"
 3028              	.LASF171:
 3029 0966 4359424C 		.ascii	"CYBLE_GATT_ERR_ATTRIBUTE_NOT_LONG\000"
 3029      455F4741 
 3029      54545F45 
 3029      52525F41 
 3029      54545249 
 3030              	.LASF101:
 3031 0988 4359424C 		.ascii	"CYBLE_GAP_SEC_LEVEL_MASK\000"
 3031      455F4741 
 3031      505F5345 
 3031      435F4C45 
ARM GAS  C:\Users\KEVINH~1\AppData\Local\Temp\ccC6tirb.s 			page 92


 3031      56454C5F 
 3032              	.LASF215:
 3033 09a1 4359424C 		.ascii	"CYBLE_DIS_SOFTWARE_REV\000"
 3033      455F4449 
 3033      535F534F 
 3033      46545741 
 3033      52455F52 
 3034              	.LASF57:
 3035 09b8 4359424C 		.ascii	"CYBLE_EVT_GATTC_STOP_CMD_COMPLETE\000"
 3035      455F4556 
 3035      545F4741 
 3035      5454435F 
 3035      53544F50 
 3036              	.LASF211:
 3037 09da 4359424C 		.ascii	"CYBLE_DIS_MODEL_NUMBER\000"
 3037      455F4449 
 3037      535F4D4F 
 3037      44454C5F 
 3037      4E554D42 
 3038              	.LASF254:
 3039 09f1 6379426C 		.ascii	"cyBle_connHandle\000"
 3039      655F636F 
 3039      6E6E4861 
 3039      6E646C65 
 3039      00
 3040              	.LASF216:
 3041 0a02 4359424C 		.ascii	"CYBLE_DIS_SYSTEM_ID\000"
 3041      455F4449 
 3041      535F5359 
 3041      5354454D 
 3041      5F494400 
 3042              	.LASF131:
 3043 0a16 4359424C 		.ascii	"CYBLE_GATT_ERROR_RSP\000"
 3043      455F4741 
 3043      54545F45 
 3043      52524F52 
 3043      5F525350 
 3044              	.LASF242:
 3045 0a2b 4379426C 		.ascii	"CyBle_GapConnUpdateCompleteEventHandler\000"
 3045      655F4761 
 3045      70436F6E 
 3045      6E557064 
 3045      61746543 
 3046              	.LASF249:
 3047 0a53 6379426C 		.ascii	"cyBle_sflashDeviceAddress\000"
 3047      655F7366 
 3047      6C617368 
 3047      44657669 
 3047      63654164 
 3048              	.LASF158:
 3049 0a6d 4359424C 		.ascii	"CYBLE_GATT_SIGNED_WRITE_CMD\000"
 3049      455F4741 
 3049      54545F53 
 3049      49474E45 
 3049      445F5752 
 3050              	.LASF185:
 3051 0a89 4359424C 		.ascii	"CYBLE_GATTS_ERR_CCCD_IMPROPERLY_CONFIGURED\000"
ARM GAS  C:\Users\KEVINH~1\AppData\Local\Temp\ccC6tirb.s 			page 93


 3051      455F4741 
 3051      5454535F 
 3051      4552525F 
 3051      43434344 
 3052              	.LASF154:
 3053 0ab4 4359424C 		.ascii	"CYBLE_GATT_EXECUTE_WRITE_RSP\000"
 3053      455F4741 
 3053      54545F45 
 3053      58454355 
 3053      54455F57 
 3054              	.LASF60:
 3055 0ad1 4359424C 		.ascii	"CYBLE_EVT_L2CAP_CONN_PARAM_UPDATE_RSP\000"
 3055      455F4556 
 3055      545F4C32 
 3055      4341505F 
 3055      434F4E4E 
 3056              	.LASF119:
 3057 0af7 4359424C 		.ascii	"CYBLE_GAP_AUTH_ERROR_LINK_DISCONNECTED\000"
 3057      455F4741 
 3057      505F4155 
 3057      54485F45 
 3057      52524F52 
 3058              	.LASF179:
 3059 0b1e 4359424C 		.ascii	"CYBLE_GATT_ERR_USER_DATA_ACCESS_NOT_PERMITTED\000"
 3059      455F4741 
 3059      54545F45 
 3059      52525F55 
 3059      5345525F 
 3060              	.LASF26:
 3061 0b4c 4359424C 		.ascii	"CYBLE_EVT_GAP_AUTH_COMPLETE\000"
 3061      455F4556 
 3061      545F4741 
 3061      505F4155 
 3061      54485F43 
 3062              	.LASF27:
 3063 0b68 4359424C 		.ascii	"CYBLE_EVT_GAP_AUTH_FAILED\000"
 3063      455F4556 
 3063      545F4741 
 3063      505F4155 
 3063      54485F46 
 3064              	.LASF147:
 3065 0b82 4359424C 		.ascii	"CYBLE_GATT_READ_BY_GROUP_RSP\000"
 3065      455F4741 
 3065      54545F52 
 3065      4541445F 
 3065      42595F47 
 3066              	.LASF169:
 3067 0b9f 4359424C 		.ascii	"CYBLE_GATT_ERR_PREPARE_WRITE_QUEUE_FULL\000"
 3067      455F4741 
 3067      54545F45 
 3067      52525F50 
 3067      52455041 
 3068              	.LASF183:
 3069 0bc7 4359424C 		.ascii	"CYBLE_GATT_ERR_OP_CODE_NOT_SUPPORTED\000"
 3069      455F4741 
 3069      54545F45 
 3069      52525F4F 
ARM GAS  C:\Users\KEVINH~1\AppData\Local\Temp\ccC6tirb.s 			page 94


 3069      505F434F 
 3070              	.LASF80:
 3071 0bec 4359424C 		.ascii	"CYBLE_LL_PWR_LVL_3_DBM\000"
 3071      455F4C4C 
 3071      5F505752 
 3071      5F4C564C 
 3071      5F335F44 
 3072              	.LASF5:
 3073 0c03 6C6F6E67 		.ascii	"long unsigned int\000"
 3073      20756E73 
 3073      69676E65 
 3073      6420696E 
 3073      7400
 3074              	.LASF140:
 3075 0c15 4359424C 		.ascii	"CYBLE_GATT_READ_REQ\000"
 3075      455F4741 
 3075      54545F52 
 3075      4541445F 
 3075      52455100 
 3076              	.LASF126:
 3077 0c29 73746174 		.ascii	"status\000"
 3077      757300
 3078              	.LASF78:
 3079 0c30 4359424C 		.ascii	"CYBLE_LL_PWR_LVL_NEG_1_DBM\000"
 3079      455F4C4C 
 3079      5F505752 
 3079      5F4C564C 
 3079      5F4E4547 
 3080              	.LASF114:
 3081 0c4b 4359424C 		.ascii	"CYBLE_GAP_AUTH_ERROR_COMMAND_NOT_SUPPORTED\000"
 3081      455F4741 
 3081      505F4155 
 3081      54485F45 
 3081      52524F52 
 3082              	.LASF110:
 3083 0c76 4359424C 		.ascii	"CYBLE_GAP_AUTH_ERROR_AUTHENTICATION_REQ_NOT_MET\000"
 3083      455F4741 
 3083      505F4155 
 3083      54485F45 
 3083      52524F52 
 3084              	.LASF155:
 3085 0ca6 4359424C 		.ascii	"CYBLE_GATT_HANDLE_VALUE_NTF\000"
 3085      455F4741 
 3085      54545F48 
 3085      414E444C 
 3085      455F5641 
 3086              	.LASF212:
 3087 0cc2 4359424C 		.ascii	"CYBLE_DIS_SERIAL_NUMBER\000"
 3087      455F4449 
 3087      535F5345 
 3087      5249414C 
 3087      5F4E554D 
 3088              	.LASF32:
 3089 0cda 4359424C 		.ascii	"CYBLE_EVT_GAP_CONNECTION_UPDATE_COMPLETE\000"
 3089      455F4556 
 3089      545F4741 
 3089      505F434F 
ARM GAS  C:\Users\KEVINH~1\AppData\Local\Temp\ccC6tirb.s 			page 95


 3089      4E4E4543 
 3090              	.LASF255:
 3091 0d03 6379426C 		.ascii	"cyBle_busyStatus\000"
 3091      655F6275 
 3091      73795374 
 3091      61747573 
 3091      00
 3092              	.LASF225:
 3093 0d14 4359424C 		.ascii	"CYBLE_STATE_INITIALIZING\000"
 3093      455F5354 
 3093      4154455F 
 3093      494E4954 
 3093      49414C49 
 3094              	.LASF245:
 3095 0d2d 6379426C 		.ascii	"cyBle_mtuSize\000"
 3095      655F6D74 
 3095      7553697A 
 3095      6500
 3096              	.LASF116:
 3097 0d3b 4359424C 		.ascii	"CYBLE_GAP_AUTH_ERROR_REPEATED_ATTEMPTS\000"
 3097      455F4741 
 3097      505F4155 
 3097      54485F45 
 3097      52524F52 
 3098              	.LASF64:
 3099 0d62 4359424C 		.ascii	"CYBLE_EVT_L2CAP_CBFC_DISCONN_IND\000"
 3099      455F4556 
 3099      545F4C32 
 3099      4341505F 
 3099      43424643 
 3100              	.LASF24:
 3101 0d83 4359424C 		.ascii	"CYBLE_EVT_GAP_PASSKEY_ENTRY_REQUEST\000"
 3101      455F4556 
 3101      545F4741 
 3101      505F5041 
 3101      53534B45 
 3102              	.LASF82:
 3103 0da7 4359424C 		.ascii	"CYBLE_BLESS_PWR_LVL_T\000"
 3103      455F424C 
 3103      4553535F 
 3103      5057525F 
 3103      4C564C5F 
 3104              	.LASF237:
 3105 0dbd 4379426C 		.ascii	"CyBle_GattConnectReqHandler\000"
 3105      655F4761 
 3105      7474436F 
 3105      6E6E6563 
 3105      74526571 
 3106              	.LASF113:
 3107 0dd9 4359424C 		.ascii	"CYBLE_GAP_AUTH_ERROR_INSUFFICIENT_ENCRYPTION_KEY_SI"
 3107      455F4741 
 3107      505F4155 
 3107      54485F45 
 3107      52524F52 
 3108 0e0c 5A4500   		.ascii	"ZE\000"
 3109              	.LASF221:
 3110 0e0f 4359424C 		.ascii	"CYBLE_HRS_BSL\000"
ARM GAS  C:\Users\KEVINH~1\AppData\Local\Temp\ccC6tirb.s 			page 96


 3110      455F4852 
 3110      535F4253 
 3110      4C00
 3111              	.LASF6:
 3112 0e1d 6C6F6E67 		.ascii	"long long int\000"
 3112      206C6F6E 
 3112      6720696E 
 3112      7400
 3113              	.LASF236:
 3114 0e2b 4379426C 		.ascii	"CyBle_GattDisconnectEventHandler\000"
 3114      655F4761 
 3114      74744469 
 3114      73636F6E 
 3114      6E656374 
 3115              	.LASF218:
 3116 0e4c 4359424C 		.ascii	"CYBLE_DIS_PNP_ID\000"
 3116      455F4449 
 3116      535F504E 
 3116      505F4944 
 3116      00
 3117              	.LASF238:
 3118 0e5d 73666C61 		.ascii	"sflashDeviceAddress\000"
 3118      73684465 
 3118      76696365 
 3118      41646472 
 3118      65737300 
 3119              	.LASF13:
 3120 0e71 646F7562 		.ascii	"double\000"
 3120      6C6500
 3121              	.LASF70:
 3122 0e78 4359424C 		.ascii	"CYBLE_EVT_PENDING_FLASH_WRITE\000"
 3122      455F4556 
 3122      545F5045 
 3122      4E44494E 
 3122      475F464C 
 3123              	.LASF172:
 3124 0e96 4359424C 		.ascii	"CYBLE_GATT_ERR_INSUFFICIENT_ENC_KEY_SIZE\000"
 3124      455F4741 
 3124      54545F45 
 3124      52525F49 
 3124      4E535546 
 3125              	.LASF81:
 3126 0ebf 4359424C 		.ascii	"CYBLE_LL_PWR_LVL_MAX\000"
 3126      455F4C4C 
 3126      5F505752 
 3126      5F4C564C 
 3126      5F4D4158 
 3127              	.LASF190:
 3128 0ed4 4359424C 		.ascii	"CYBLE_GATT_ERR_PROCEDURE_ALREADY_IN_PROGRESS\000"
 3128      455F4741 
 3128      54545F45 
 3128      52525F50 
 3128      524F4345 
 3129              	.LASF233:
 3130 0f01 4379426C 		.ascii	"CyBle_ValueConfirmation\000"
 3130      655F5661 
 3130      6C756543 
ARM GAS  C:\Users\KEVINH~1\AppData\Local\Temp\ccC6tirb.s 			page 97


 3130      6F6E6669 
 3130      726D6174 
 3131              	.LASF12:
 3132 0f19 666C6F61 		.ascii	"float\000"
 3132      7400
 3133              	.LASF58:
 3134 0f1f 4359424C 		.ascii	"CYBLE_EVT_GATTS_READ_CHAR_VAL_ACCESS_REQ\000"
 3134      455F4556 
 3134      545F4741 
 3134      5454535F 
 3134      52454144 
 3135              	.LASF204:
 3136 0f48 6F70636F 		.ascii	"opcode\000"
 3136      646500
 3137              	.LASF168:
 3138 0f4f 4359424C 		.ascii	"CYBLE_GATT_ERR_INSUFFICIENT_AUTHORIZATION\000"
 3138      455F4741 
 3138      54545F45 
 3138      52525F49 
 3138      4E535546 
 3139              	.LASF200:
 3140 0f79 61747472 		.ascii	"attrHandle\000"
 3140      48616E64 
 3140      6C6500
 3141              	.LASF122:
 3142 0f84 626F6E64 		.ascii	"bonding\000"
 3142      696E6700 
 3143              	.LASF208:
 3144 0f8c 4359424C 		.ascii	"CYBLE_GATTS_WRITE_REQ_PARAM_T\000"
 3144      455F4741 
 3144      5454535F 
 3144      57524954 
 3144      455F5245 
 3145              	.LASF8:
 3146 0faa 756E7369 		.ascii	"unsigned int\000"
 3146      676E6564 
 3146      20696E74 
 3146      00
 3147              	.LASF50:
 3148 0fb7 4359424C 		.ascii	"CYBLE_EVT_GATTS_PREP_WRITE_REQ\000"
 3148      455F4556 
 3148      545F4741 
 3148      5454535F 
 3148      50524550 
 3149              	.LASF165:
 3150 0fd6 4359424C 		.ascii	"CYBLE_GATT_ERR_INSUFFICIENT_AUTHENTICATION\000"
 3150      455F4741 
 3150      54545F45 
 3150      52525F49 
 3150      4E535546 
 3151              	.LASF203:
 3152 1001 4359424C 		.ascii	"CYBLE_GATT_XCHG_MTU_PARAM_T\000"
 3152      455F4741 
 3152      54545F58 
 3152      4348475F 
 3152      4D54555F 
 3153              	.LASF217:
ARM GAS  C:\Users\KEVINH~1\AppData\Local\Temp\ccC6tirb.s 			page 98


 3154 101d 4359424C 		.ascii	"CYBLE_DIS_REG_CERT_DATA\000"
 3154      455F4449 
 3154      535F5245 
 3154      475F4345 
 3154      52545F44 
 3155              	.LASF84:
 3156 1035 4359424C 		.ascii	"CYBLE_LL_CONN_CH_TYPE\000"
 3156      455F4C4C 
 3156      5F434F4E 
 3156      4E5F4348 
 3156      5F545950 
 3157              	.LASF257:
 3158 104b 474E5520 		.ascii	"GNU C 4.8.4 20140526 (release) [ARM/embedded-4_8-br"
 3158      4320342E 
 3158      382E3420 
 3158      32303134 
 3158      30353236 
 3159 107e 616E6368 		.ascii	"anch revision 211358] -mcpu=cortex-m0 -mthumb -g -O"
 3159      20726576 
 3159      6973696F 
 3159      6E203231 
 3159      31333538 
 3160 10b1 30202D66 		.ascii	"0 -ffunction-sections\000"
 3160      66756E63 
 3160      74696F6E 
 3160      2D736563 
 3160      74696F6E 
 3161              	.LASF182:
 3162 10c7 4359424C 		.ascii	"CYBLE_GATTS_ERR_PROCEDURE_ALREADY_IN_PROGRESS\000"
 3162      455F4741 
 3162      5454535F 
 3162      4552525F 
 3162      50524F43 
 3163              	.LASF231:
 3164 10f5 6572725F 		.ascii	"err_param\000"
 3164      70617261 
 3164      6D00
 3165              	.LASF152:
 3166 10ff 4359424C 		.ascii	"CYBLE_GATT_PREPARE_WRITE_RSP\000"
 3166      455F4741 
 3166      54545F50 
 3166      52455041 
 3166      52455F57 
 3167              	.LASF222:
 3168 111c 4359424C 		.ascii	"CYBLE_HRS_CPT\000"
 3168      455F4852 
 3168      535F4350 
 3168      5400
 3169              	.LASF170:
 3170 112a 4359424C 		.ascii	"CYBLE_GATT_ERR_ATTRIBUTE_NOT_FOUND\000"
 3170      455F4741 
 3170      54545F45 
 3170      52525F41 
 3170      54545249 
 3171              	.LASF72:
 3172 114d 4359424C 		.ascii	"CYBLE_EVT_MAX\000"
 3172      455F4556 
ARM GAS  C:\Users\KEVINH~1\AppData\Local\Temp\ccC6tirb.s 			page 99


 3172      545F4D41 
 3172      5800
 3173              	.LASF33:
 3174 115b 4359424C 		.ascii	"CYBLE_EVT_GAPC_SCAN_START_STOP\000"
 3174      455F4556 
 3174      545F4741 
 3174      50435F53 
 3174      43414E5F 
 3175              	.LASF260:
 3176 117a 4379426C 		.ascii	"CyBle_IsDeviceAddressValid\000"
 3176      655F4973 
 3176      44657669 
 3176      63654164 
 3176      64726573 
 3177              	.LASF120:
 3178 1195 4359424C 		.ascii	"CYBLE_GAP_AUTH_FAILED_REASON_T\000"
 3178      455F4741 
 3178      505F4155 
 3178      54485F46 
 3178      41494C45 
 3179              	.LASF47:
 3180 11b4 4359424C 		.ascii	"CYBLE_EVT_GATTS_WRITE_REQ\000"
 3180      455F4556 
 3180      545F4741 
 3180      5454535F 
 3180      57524954 
 3181              	.LASF25:
 3182 11ce 4359424C 		.ascii	"CYBLE_EVT_GAP_PASSKEY_DISPLAY_REQUEST\000"
 3182      455F4556 
 3182      545F4741 
 3182      505F5041 
 3182      53534B45 
 3183              	.LASF144:
 3184 11f4 4359424C 		.ascii	"CYBLE_GATT_READ_MULTIPLE_REQ\000"
 3184      455F4741 
 3184      54545F52 
 3184      4541445F 
 3184      4D554C54 
 3185              	.LASF44:
 3186 1211 4359424C 		.ascii	"CYBLE_EVT_GATTC_READ_RSP\000"
 3186      455F4556 
 3186      545F4741 
 3186      5454435F 
 3186      52454144 
 3187              	.LASF167:
 3188 122a 4359424C 		.ascii	"CYBLE_GATT_ERR_INVALID_OFFSET\000"
 3188      455F4741 
 3188      54545F45 
 3188      52525F49 
 3188      4E56414C 
 3189              	.LASF138:
 3190 1248 4359424C 		.ascii	"CYBLE_GATT_READ_BY_TYPE_REQ\000"
 3190      455F4741 
 3190      54545F52 
 3190      4541445F 
 3190      42595F54 
 3191              	.LASF63:
ARM GAS  C:\Users\KEVINH~1\AppData\Local\Temp\ccC6tirb.s 			page 100


 3192 1264 4359424C 		.ascii	"CYBLE_EVT_L2CAP_CBFC_CONN_CNF\000"
 3192      455F4556 
 3192      545F4C32 
 3192      4341505F 
 3192      43424643 
 3193              	.LASF191:
 3194 1282 4359424C 		.ascii	"CYBLE_GATT_ERR_OUT_OF_RANGE\000"
 3194      455F4741 
 3194      54545F45 
 3194      52525F4F 
 3194      55545F4F 
 3195              	.LASF136:
 3196 129e 4359424C 		.ascii	"CYBLE_GATT_FIND_BY_TYPE_VALUE_REQ\000"
 3196      455F4741 
 3196      54545F46 
 3196      494E445F 
 3196      42595F54 
 3197              	.LASF75:
 3198 12c0 4359424C 		.ascii	"CYBLE_LL_PWR_LVL_NEG_6_DBM\000"
 3198      455F4C4C 
 3198      5F505752 
 3198      5F4C564C 
 3198      5F4E4547 
 3199              	.LASF107:
 3200 12db 4359424C 		.ascii	"CYBLE_GAP_AUTH_ERROR_NONE\000"
 3200      455F4741 
 3200      505F4155 
 3200      54485F45 
 3200      52524F52 
 3201              	.LASF31:
 3202 12f5 4359424C 		.ascii	"CYBLE_EVT_GAP_ENCRYPT_CHANGE\000"
 3202      455F4556 
 3202      545F4741 
 3202      505F454E 
 3202      43525950 
 3203              	.LASF38:
 3204 1312 4359424C 		.ascii	"CYBLE_EVT_GATTS_XCNHG_MTU_REQ\000"
 3204      455F4556 
 3204      545F4741 
 3204      5454535F 
 3204      58434E48 
 3205              	.LASF220:
 3206 1330 4359424C 		.ascii	"CYBLE_HRS_HRM\000"
 3206      455F4852 
 3206      535F4852 
 3206      4D00
 3207              	.LASF135:
 3208 133e 4359424C 		.ascii	"CYBLE_GATT_FIND_INFO_RSP\000"
 3208      455F4741 
 3208      54545F46 
 3208      494E445F 
 3208      494E464F 
 3209              	.LASF109:
 3210 1357 4359424C 		.ascii	"CYBLE_GAP_AUTH_ERROR_OOB_DATA_NOT_AVAILABLE\000"
 3210      455F4741 
 3210      505F4155 
 3210      54485F45 
ARM GAS  C:\Users\KEVINH~1\AppData\Local\Temp\ccC6tirb.s 			page 101


 3210      52524F52 
 3211              	.LASF210:
 3212 1383 4359424C 		.ascii	"CYBLE_DIS_MANUFACTURER_NAME\000"
 3212      455F4449 
 3212      535F4D41 
 3212      4E554641 
 3212      43545552 
 3213              	.LASF130:
 3214 139f 4359424C 		.ascii	"CYBLE_GAP_CONN_PARAM_UPDATED_IN_CONTROLLER_T\000"
 3214      455F4741 
 3214      505F434F 
 3214      4E4E5F50 
 3214      4152414D 
 3215              	.LASF7:
 3216 13cc 6C6F6E67 		.ascii	"long long unsigned int\000"
 3216      206C6F6E 
 3216      6720756E 
 3216      7369676E 
 3216      65642069 
 3217              	.LASF161:
 3218 13e3 4359424C 		.ascii	"CYBLE_GATT_ERR_INVALID_HANDLE\000"
 3218      455F4741 
 3218      54545F45 
 3218      52525F49 
 3218      4E56414C 
 3219              	.LASF18:
 3220 1401 4359424C 		.ascii	"CYBLE_EVT_TIMEOUT\000"
 3220      455F4556 
 3220      545F5449 
 3220      4D454F55 
 3220      5400
 3221              	.LASF239:
 3222 1413 73666C61 		.ascii	"sflashAddressValid\000"
 3222      73684164 
 3222      64726573 
 3222      7356616C 
 3222      696400
 3223              	.LASF159:
 3224 1426 4359424C 		.ascii	"CYBLE_GATT_UNKNOWN_PDU_IND\000"
 3224      455F4741 
 3224      54545F55 
 3224      4E4B4E4F 
 3224      574E5F50 
 3225              	.LASF193:
 3226 1441 4359424C 		.ascii	"CYBLE_GATT_DB_ATTR_HANDLE_T\000"
 3226      455F4741 
 3226      54545F44 
 3226      425F4154 
 3226      54525F48 
 3227              	.LASF244:
 3228 145d 626C6553 		.ascii	"bleSsPowerLevel\000"
 3228      73506F77 
 3228      65724C65 
 3228      76656C00 
 3229              	.LASF66:
 3230 146d 4359424C 		.ascii	"CYBLE_EVT_L2CAP_CBFC_DATA_READ\000"
 3230      455F4556 
ARM GAS  C:\Users\KEVINH~1\AppData\Local\Temp\ccC6tirb.s 			page 102


 3230      545F4C32 
 3230      4341505F 
 3230      43424643 
 3231              	.LASF160:
 3232 148c 4359424C 		.ascii	"CYBLE_GATT_ERR_NONE\000"
 3232      455F4741 
 3232      54545F45 
 3232      52525F4E 
 3232      4F4E4500 
 3233              	.LASF199:
 3234 14a0 76616C75 		.ascii	"value\000"
 3234      6500
 3235              	.LASF192:
 3236 14a6 4359424C 		.ascii	"CYBLE_GATT_ERR_CODE_T\000"
 3236      455F4741 
 3236      54545F45 
 3236      52525F43 
 3236      4F44455F 
 3237              	.LASF94:
 3238 14bc 4359424C 		.ascii	"CYBLE_GAP_SCAN_TO\000"
 3238      455F4741 
 3238      505F5343 
 3238      414E5F54 
 3238      4F00
 3239              	.LASF181:
 3240 14ce 4359424C 		.ascii	"CYBLE_GATT_ERR_HTS_OUT_OF_RANGE\000"
 3240      455F4741 
 3240      54545F45 
 3240      52525F48 
 3240      54535F4F 
 3241              	.LASF92:
 3242 14ee 4359424C 		.ascii	"CYBLE_GAP_BD_ADDR_T\000"
 3242      455F4741 
 3242      505F4244 
 3242      5F414444 
 3242      525F5400 
 3243              	.LASF142:
 3244 1502 4359424C 		.ascii	"CYBLE_GATT_READ_BLOB_REQ\000"
 3244      455F4741 
 3244      54545F52 
 3244      4541445F 
 3244      424C4F42 
 3245              	.LASF93:
 3246 151b 4359424C 		.ascii	"CYBLE_GAP_ADV_MODE_TO\000"
 3246      455F4741 
 3246      505F4144 
 3246      565F4D4F 
 3246      44455F54 
 3247              	.LASF207:
 3248 1531 68616E64 		.ascii	"handleValPair\000"
 3248      6C655661 
 3248      6C506169 
 3248      7200
 3249              	.LASF202:
 3250 153f 636F6E6E 		.ascii	"connHandle\000"
 3250      48616E64 
 3250      6C6500
ARM GAS  C:\Users\KEVINH~1\AppData\Local\Temp\ccC6tirb.s 			page 103


 3251              	.LASF235:
 3252 154a 4379426C 		.ascii	"CyBle_TimeOutEventHandler\000"
 3252      655F5469 
 3252      6D654F75 
 3252      74457665 
 3252      6E744861 
 3253              	.LASF112:
 3254 1564 4359424C 		.ascii	"CYBLE_GAP_AUTH_ERROR_PAIRING_NOT_SUPPORTED\000"
 3254      455F4741 
 3254      505F4155 
 3254      54485F45 
 3254      52524F52 
 3255              	.LASF96:
 3256 158f 4359424C 		.ascii	"CYBLE_GENERIC_TO\000"
 3256      455F4745 
 3256      4E455249 
 3256      435F544F 
 3256      00
 3257              	.LASF42:
 3258 15a0 4359424C 		.ascii	"CYBLE_EVT_GATTC_FIND_INFO_RSP\000"
 3258      455F4556 
 3258      545F4741 
 3258      5454435F 
 3258      46494E44 
 3259              	.LASF41:
 3260 15be 4359424C 		.ascii	"CYBLE_EVT_GATTC_READ_BY_TYPE_RSP\000"
 3260      455F4556 
 3260      545F4741 
 3260      5454435F 
 3260      52454144 
 3261              	.LASF186:
 3262 15df 4359424C 		.ascii	"CYBLE_GATTS_ERR_OPERATION_FAILED\000"
 3262      455F4741 
 3262      5454535F 
 3262      4552525F 
 3262      4F504552 
 3263              	.LASF253:
 3264 1600 6379426C 		.ascii	"cyBle_state\000"
 3264      655F7374 
 3264      61746500 
 3265              	.LASF48:
 3266 160c 4359424C 		.ascii	"CYBLE_EVT_GATTC_WRITE_RSP\000"
 3266      455F4556 
 3266      545F4741 
 3266      5454435F 
 3266      57524954 
 3267              	.LASF228:
 3268 1626 4359424C 		.ascii	"CYBLE_STATE_DISCONNECTED\000"
 3268      455F5354 
 3268      4154455F 
 3268      44495343 
 3268      4F4E4E45 
 3269              	.LASF28:
 3270 163f 4359424C 		.ascii	"CYBLE_EVT_GAPP_ADVERTISEMENT_START_STOP\000"
 3270      455F4556 
 3270      545F4741 
 3270      50505F41 
ARM GAS  C:\Users\KEVINH~1\AppData\Local\Temp\ccC6tirb.s 			page 104


 3270      44564552 
 3271              	.LASF9:
 3272 1667 75696E74 		.ascii	"uint8\000"
 3272      3800
 3273              	.LASF250:
 3274 166d 6379426C 		.ascii	"cyBle_authInfo\000"
 3274      655F6175 
 3274      7468496E 
 3274      666F00
 3275              	.LASF121:
 3276 167c 73656375 		.ascii	"security\000"
 3276      72697479 
 3276      00
 3277              	.LASF240:
 3278 1685 4379426C 		.ascii	"CyBle_L2Cap_ConnParamUpdateRspEventHandler\000"
 3278      655F4C32 
 3278      4361705F 
 3278      436F6E6E 
 3278      50617261 
 3279              	.LASF148:
 3280 16b0 4359424C 		.ascii	"CYBLE_GATT_WRITE_REQ\000"
 3280      455F4741 
 3280      54545F57 
 3280      52495445 
 3280      5F524551 
 3281              	.LASF2:
 3282 16c5 73686F72 		.ascii	"short int\000"
 3282      7420696E 
 3282      7400
 3283              	.LASF124:
 3284 16cf 61757468 		.ascii	"authErr\000"
 3284      45727200 
 3285              	.LASF180:
 3286 16d7 4359424C 		.ascii	"CYBLE_GATT_ERR_CPS_INAPPROPRIATE_CONNECTION_PARAMET"
 3286      455F4741 
 3286      54545F45 
 3286      52525F43 
 3286      50535F49 
 3287 170a 45525300 		.ascii	"ERS\000"
 3288              	.LASF223:
 3289 170e 4359424C 		.ascii	"CYBLE_HRS_CHAR_COUNT\000"
 3289      455F4852 
 3289      535F4348 
 3289      41525F43 
 3289      4F554E54 
 3290              	.LASF166:
 3291 1723 4359424C 		.ascii	"CYBLE_GATT_ERR_REQUEST_NOT_SUPPORTED\000"
 3291      455F4741 
 3291      54545F45 
 3291      52525F52 
 3291      45515545 
 3292              	.LASF35:
 3293 1748 4359424C 		.ascii	"CYBLE_EVT_GATTC_ERROR_RSP\000"
 3293      455F4556 
 3293      545F4741 
 3293      5454435F 
 3293      4552524F 
ARM GAS  C:\Users\KEVINH~1\AppData\Local\Temp\ccC6tirb.s 			page 105


 3294              	.LASF106:
 3295 1762 4359424C 		.ascii	"CYBLE_GAP_IOCAP_KEYBOARD_DISPLAY\000"
 3295      455F4741 
 3295      505F494F 
 3295      4341505F 
 3295      4B455942 
 3296              	.LASF229:
 3297 1783 4359424C 		.ascii	"CYBLE_STATE_T\000"
 3297      455F5354 
 3297      4154455F 
 3297      5400
 3298              	.LASF62:
 3299 1791 4359424C 		.ascii	"CYBLE_EVT_L2CAP_CBFC_CONN_IND\000"
 3299      455F4556 
 3299      545F4C32 
 3299      4341505F 
 3299      43424643 
 3300              	.LASF51:
 3301 17af 4359424C 		.ascii	"CYBLE_EVT_GATTS_EXEC_WRITE_REQ\000"
 3301      455F4556 
 3301      545F4741 
 3301      5454535F 
 3301      45584543 
 3302              	.LASF22:
 3303 17ce 4359424C 		.ascii	"CYBLE_EVT_GAPC_SCAN_PROGRESS_RESULT\000"
 3303      455F4556 
 3303      545F4741 
 3303      50435F53 
 3303      43414E5F 
 3304              	.LASF256:
 3305 17f2 6379426C 		.ascii	"cyBle_advertisingIntervalType\000"
 3305      655F6164 
 3305      76657274 
 3305      6973696E 
 3305      67496E74 
 3306              	.LASF90:
 3307 1810 62644164 		.ascii	"bdAddr\000"
 3307      647200
 3308              	.LASF188:
 3309 1817 4359424C 		.ascii	"CYBLE_GATT_ERR_ANS_COMMAND_NOT_SUPPORTED\000"
 3309      455F4741 
 3309      54545F45 
 3309      52525F41 
 3309      4E535F43 
 3310              	.LASF241:
 3311 1840 72657370 		.ascii	"response\000"
 3311      6F6E7365 
 3311      00
 3312              	.LASF141:
 3313 1849 4359424C 		.ascii	"CYBLE_GATT_READ_RSP\000"
 3313      455F4741 
 3313      54545F52 
 3313      4541445F 
 3313      52535000 
 3314              	.LASF79:
 3315 185d 4359424C 		.ascii	"CYBLE_LL_PWR_LVL_0_DBM\000"
 3315      455F4C4C 
ARM GAS  C:\Users\KEVINH~1\AppData\Local\Temp\ccC6tirb.s 			page 106


 3315      5F505752 
 3315      5F4C564C 
 3315      5F305F44 
 3316              	.LASF83:
 3317 1874 4359424C 		.ascii	"CYBLE_LL_ADV_CH_TYPE\000"
 3317      455F4C4C 
 3317      5F414456 
 3317      5F43485F 
 3317      54595045 
 3318              	.LASF71:
 3319 1889 4359424C 		.ascii	"CYBLE_EVT_LE_PING_AUTH_TIMEOUT\000"
 3319      455F4556 
 3319      545F4C45 
 3319      5F50494E 
 3319      475F4155 
 3320              	.LASF251:
 3321 18a8 6379426C 		.ascii	"cyBle_attValuesCCCD\000"
 3321      655F6174 
 3321      7456616C 
 3321      75657343 
 3321      43434400 
 3322              	.LASF54:
 3323 18bc 4359424C 		.ascii	"CYBLE_EVT_GATTC_HANDLE_VALUE_IND\000"
 3323      455F4556 
 3323      545F4741 
 3323      5454435F 
 3323      48414E44 
 3324              	.LASF243:
 3325 18dd 6576656E 		.ascii	"eventCode\000"
 3325      74436F64 
 3325      6500
 3326              	.LASF21:
 3327 18e7 4359424C 		.ascii	"CYBLE_EVT_STACK_BUSY_STATUS\000"
 3327      455F4556 
 3327      545F5354 
 3327      41434B5F 
 3327      42555359 
 3328              	.LASF128:
 3329 1903 636F6E6E 		.ascii	"connLatency\000"
 3329      4C617465 
 3329      6E637900 
 3330              	.LASF103:
 3331 190f 4359424C 		.ascii	"CYBLE_GAP_IOCAP_DISPLAY_YESNO\000"
 3331      455F4741 
 3331      505F494F 
 3331      4341505F 
 3331      44495350 
 3332              	.LASF34:
 3333 192d 4359424C 		.ascii	"CYBLE_EVT_GAP_KEYINFO_EXCHNGE_CMPLT\000"
 3333      455F4556 
 3333      545F4741 
 3333      505F4B45 
 3333      59494E46 
 3334              	.LASF153:
 3335 1951 4359424C 		.ascii	"CYBLE_GATT_EXECUTE_WRITE_REQ\000"
 3335      455F4741 
 3335      54545F45 
ARM GAS  C:\Users\KEVINH~1\AppData\Local\Temp\ccC6tirb.s 			page 107


 3335      58454355 
 3335      54455F57 
 3336              	.LASF89:
 3337 196e 4359424C 		.ascii	"CYBLE_BLESS_PWR_IN_DB_T\000"
 3337      455F424C 
 3337      4553535F 
 3337      5057525F 
 3337      494E5F44 
 3338              	.LASF85:
 3339 1986 4359424C 		.ascii	"CYBLE_LL_MAX_CH_TYPE\000"
 3339      455F4C4C 
 3339      5F4D4158 
 3339      5F43485F 
 3339      54595045 
 3340              	.LASF59:
 3341 199b 4359424C 		.ascii	"CYBLE_EVT_L2CAP_CONN_PARAM_UPDATE_REQ\000"
 3341      455F4556 
 3341      545F4C32 
 3341      4341505F 
 3341      434F4E4E 
 3342              	.LASF230:
 3343 19c1 67617474 		.ascii	"gattErr\000"
 3343      45727200 
 3344              	.LASF163:
 3345 19c9 4359424C 		.ascii	"CYBLE_GATT_ERR_WRITE_NOT_PERMITTED\000"
 3345      455F4741 
 3345      54545F45 
 3345      52525F57 
 3345      52495445 
 3346              	.LASF127:
 3347 19ec 636F6E6E 		.ascii	"connIntv\000"
 3347      496E7476 
 3347      00
 3348              	.LASF3:
 3349 19f5 73686F72 		.ascii	"short unsigned int\000"
 3349      7420756E 
 3349      7369676E 
 3349      65642069 
 3349      6E7400
 3350              	.LASF175:
 3351 1a08 4359424C 		.ascii	"CYBLE_GATT_ERR_INSUFFICIENT_ENCRYPTION\000"
 3351      455F4741 
 3351      54545F45 
 3351      52525F49 
 3351      4E535546 
 3352              	.LASF226:
 3353 1a2f 4359424C 		.ascii	"CYBLE_STATE_CONNECTED\000"
 3353      455F5354 
 3353      4154455F 
 3353      434F4E4E 
 3353      45435445 
 3354              	.LASF197:
 3355 1a45 61637475 		.ascii	"actualLen\000"
 3355      616C4C65 
 3355      6E00
 3356              	.LASF146:
 3357 1a4f 4359424C 		.ascii	"CYBLE_GATT_READ_BY_GROUP_REQ\000"
ARM GAS  C:\Users\KEVINH~1\AppData\Local\Temp\ccC6tirb.s 			page 108


 3357      455F4741 
 3357      54545F52 
 3357      4541445F 
 3357      42595F47 
 3358              	.LASF111:
 3359 1a6c 4359424C 		.ascii	"CYBLE_GAP_AUTH_ERROR_CONFIRM_VALUE_NOT_MATCH\000"
 3359      455F4741 
 3359      505F4155 
 3359      54485F45 
 3359      52524F52 
 3360              	.LASF195:
 3361 1a99 61747449 		.ascii	"attId\000"
 3361      6400
 3362              	.LASF20:
 3363 1a9f 4359424C 		.ascii	"CYBLE_EVT_HCI_STATUS\000"
 3363      455F4556 
 3363      545F4843 
 3363      495F5354 
 3363      41545553 
 3364              	.LASF37:
 3365 1ab4 4359424C 		.ascii	"CYBLE_EVT_GATT_DISCONNECT_IND\000"
 3365      455F4556 
 3365      545F4741 
 3365      54545F44 
 3365      4953434F 
 3366              	.LASF129:
 3367 1ad2 73757065 		.ascii	"supervisionTO\000"
 3367      72766973 
 3367      696F6E54 
 3367      4F00
 3368              	.LASF95:
 3369 1ae0 4359424C 		.ascii	"CYBLE_GATT_RSP_TO\000"
 3369      455F4741 
 3369      54545F52 
 3369      53505F54 
 3369      4F00
 3370              	.LASF69:
 3371 1af2 4359424C 		.ascii	"CYBLE_EVT_L2CAP_CBFC_DATA_WRITE_IND\000"
 3371      455F4556 
 3371      545F4C32 
 3371      4341505F 
 3371      43424643 
 3372              	.LASF30:
 3373 1b16 4359424C 		.ascii	"CYBLE_EVT_GAP_DEVICE_DISCONNECTED\000"
 3373      455F4556 
 3373      545F4741 
 3373      505F4445 
 3373      56494345 
 3374              	.LASF55:
 3375 1b38 4359424C 		.ascii	"CYBLE_EVT_GATTS_HANDLE_VALUE_CNF\000"
 3375      455F4556 
 3375      545F4741 
 3375      5454535F 
 3375      48414E44 
 3376              	.LASF10:
 3377 1b59 75696E74 		.ascii	"uint16\000"
 3377      313600
ARM GAS  C:\Users\KEVINH~1\AppData\Local\Temp\ccC6tirb.s 			page 109


 3378              		.ident	"GCC: (GNU Tools for ARM Embedded Processors) 4.8.4 20140526 (release) [ARM/embedded-4_8-br
