ARM GAS  C:\Users\KEVINH~1\AppData\Local\Temp\ccPbMdcC.s 			page 1


   1              		.cpu cortex-m0
   2              		.fpu softvfp
   3              		.eabi_attribute 20, 1
   4              		.eabi_attribute 21, 1
   5              		.eabi_attribute 23, 3
   6              		.eabi_attribute 24, 1
   7              		.eabi_attribute 25, 1
   8              		.eabi_attribute 26, 1
   9              		.eabi_attribute 30, 6
  10              		.eabi_attribute 34, 0
  11              		.eabi_attribute 18, 4
  12              		.code	16
  13              		.file	"BLE_hrs.c"
  14              		.text
  15              	.Ltext0:
  16              		.cfi_sections	.debug_frame
  17              		.bss
  18              		.align	2
  19              	CyBle_HrsApplCallback:
  20 0000 00000000 		.space	4
  21              		.global	cyBle_hrss
  22              		.section	.rodata
  23              		.align	2
  24              		.type	cyBle_hrss, %object
  25              		.size	cyBle_hrss, 10
  26              	cyBle_hrss:
  27 0000 0C00     		.short	12
  28 0002 0E00     		.short	14
  29 0004 1100     		.short	17
  30 0006 1300     		.short	19
  31 0008 0F00     		.short	15
  32 000a 0000     		.section	.text.CyBle_HrsInit,"ax",%progbits
  33              		.align	2
  34              		.global	CyBle_HrsInit
  35              		.code	16
  36              		.thumb_func
  37              		.type	CyBle_HrsInit, %function
  38              	CyBle_HrsInit:
  39              	.LFB2:
  40              		.file 1 ".\\Generated_Source\\PSoC4\\BLE_hrs.c"
   1:.\Generated_Source\PSoC4/BLE_hrs.c **** /*******************************************************************************
   2:.\Generated_Source\PSoC4/BLE_hrs.c **** File Name: CYBLE_hrs.c
   3:.\Generated_Source\PSoC4/BLE_hrs.c **** Version 2.0
   4:.\Generated_Source\PSoC4/BLE_hrs.c **** 
   5:.\Generated_Source\PSoC4/BLE_hrs.c **** Description:
   6:.\Generated_Source\PSoC4/BLE_hrs.c ****  This file contains the source code for the Heart Rate Service of 
   7:.\Generated_Source\PSoC4/BLE_hrs.c ****  the BLE Component.
   8:.\Generated_Source\PSoC4/BLE_hrs.c **** 
   9:.\Generated_Source\PSoC4/BLE_hrs.c **** ********************************************************************************
  10:.\Generated_Source\PSoC4/BLE_hrs.c **** Copyright 2014-2015, Cypress Semiconductor Corporation.  All rights reserved.
  11:.\Generated_Source\PSoC4/BLE_hrs.c **** You may use this file only in accordance with the license, terms, conditions,
  12:.\Generated_Source\PSoC4/BLE_hrs.c **** disclaimers, and limitations in the end user license agreement accompanying
  13:.\Generated_Source\PSoC4/BLE_hrs.c **** the software package with which this file was provided.
  14:.\Generated_Source\PSoC4/BLE_hrs.c **** *******************************************************************************/
  15:.\Generated_Source\PSoC4/BLE_hrs.c **** 
  16:.\Generated_Source\PSoC4/BLE_hrs.c **** 
  17:.\Generated_Source\PSoC4/BLE_hrs.c **** #include "BLE_eventHandler.h"
ARM GAS  C:\Users\KEVINH~1\AppData\Local\Temp\ccPbMdcC.s 			page 2


  18:.\Generated_Source\PSoC4/BLE_hrs.c **** 
  19:.\Generated_Source\PSoC4/BLE_hrs.c **** static CYBLE_CALLBACK_T CyBle_HrsApplCallback;
  20:.\Generated_Source\PSoC4/BLE_hrs.c **** 
  21:.\Generated_Source\PSoC4/BLE_hrs.c **** #ifdef CYBLE_HRS_SERVER
  22:.\Generated_Source\PSoC4/BLE_hrs.c **** 
  23:.\Generated_Source\PSoC4/BLE_hrs.c **** const CYBLE_HRSS_T cyBle_hrss =
  24:.\Generated_Source\PSoC4/BLE_hrs.c **** {
  25:.\Generated_Source\PSoC4/BLE_hrs.c ****     0x000Cu,    /* Handle of the HRS service */
  26:.\Generated_Source\PSoC4/BLE_hrs.c ****     {
  27:.\Generated_Source\PSoC4/BLE_hrs.c ****         0x000Eu, /* Handle of the Heart Rate Measurement characteristic */ 
  28:.\Generated_Source\PSoC4/BLE_hrs.c ****         0x0011u, /* Handle of the Body Sensor Location characteristic */ 
  29:.\Generated_Source\PSoC4/BLE_hrs.c ****         0x0013u, /* Handle of the Heart Rate Control Point characteristic */ 
  30:.\Generated_Source\PSoC4/BLE_hrs.c ****     },
  31:.\Generated_Source\PSoC4/BLE_hrs.c ****     0x000Fu,    /* Handle of the Client Characteristic Configuration descriptor */
  32:.\Generated_Source\PSoC4/BLE_hrs.c **** };
  33:.\Generated_Source\PSoC4/BLE_hrs.c **** 
  34:.\Generated_Source\PSoC4/BLE_hrs.c **** #endif /* CYBLE_HRS_SERVER */
  35:.\Generated_Source\PSoC4/BLE_hrs.c **** 
  36:.\Generated_Source\PSoC4/BLE_hrs.c **** #ifdef CYBLE_HRS_CLIENT
  37:.\Generated_Source\PSoC4/BLE_hrs.c ****     
  38:.\Generated_Source\PSoC4/BLE_hrs.c **** /* Server's Heart Rate Service characteristics GATT DB handles structure */
  39:.\Generated_Source\PSoC4/BLE_hrs.c **** CYBLE_HRSC_T cyBle_hrsc;
  40:.\Generated_Source\PSoC4/BLE_hrs.c **** 
  41:.\Generated_Source\PSoC4/BLE_hrs.c **** /* Internal storage for last request handle to check the response */
  42:.\Generated_Source\PSoC4/BLE_hrs.c **** static CYBLE_GATT_DB_ATTR_HANDLE_T cyBle_hrscReqHandle;
  43:.\Generated_Source\PSoC4/BLE_hrs.c **** #endif /* CYBLE_HRS_CLIENT */
  44:.\Generated_Source\PSoC4/BLE_hrs.c **** 
  45:.\Generated_Source\PSoC4/BLE_hrs.c **** 
  46:.\Generated_Source\PSoC4/BLE_hrs.c **** /****************************************************************************** 
  47:.\Generated_Source\PSoC4/BLE_hrs.c **** ##Function Name: CyBle_HrsInit
  48:.\Generated_Source\PSoC4/BLE_hrs.c **** *******************************************************************************
  49:.\Generated_Source\PSoC4/BLE_hrs.c **** 
  50:.\Generated_Source\PSoC4/BLE_hrs.c **** Summary:
  51:.\Generated_Source\PSoC4/BLE_hrs.c ****  Initializes the profile internals.
  52:.\Generated_Source\PSoC4/BLE_hrs.c **** 
  53:.\Generated_Source\PSoC4/BLE_hrs.c **** Parameters:
  54:.\Generated_Source\PSoC4/BLE_hrs.c ****  None
  55:.\Generated_Source\PSoC4/BLE_hrs.c **** 
  56:.\Generated_Source\PSoC4/BLE_hrs.c **** Return:
  57:.\Generated_Source\PSoC4/BLE_hrs.c ****  None
  58:.\Generated_Source\PSoC4/BLE_hrs.c **** 
  59:.\Generated_Source\PSoC4/BLE_hrs.c **** ******************************************************************************/
  60:.\Generated_Source\PSoC4/BLE_hrs.c **** void CyBle_HrsInit(void)
  61:.\Generated_Source\PSoC4/BLE_hrs.c **** {
  41              		.loc 1 61 0
  42              		.cfi_startproc
  43 0000 80B5     		push	{r7, lr}
  44              		.cfi_def_cfa_offset 8
  45              		.cfi_offset 7, -8
  46              		.cfi_offset 14, -4
  47 0002 00AF     		add	r7, sp, #0
  48              		.cfi_def_cfa_register 7
  62:.\Generated_Source\PSoC4/BLE_hrs.c **** #ifdef CYBLE_HRS_CLIENT
  63:.\Generated_Source\PSoC4/BLE_hrs.c ****     (void)memset(&cyBle_hrsc, 0, sizeof(cyBle_hrsc));
  64:.\Generated_Source\PSoC4/BLE_hrs.c ****     cyBle_hrscReqHandle = CYBLE_GATT_INVALID_ATTR_HANDLE_VALUE;
  65:.\Generated_Source\PSoC4/BLE_hrs.c **** #endif /* CYBLE_GATT_ROLE_CLIENT */
  66:.\Generated_Source\PSoC4/BLE_hrs.c **** }
ARM GAS  C:\Users\KEVINH~1\AppData\Local\Temp\ccPbMdcC.s 			page 3


  49              		.loc 1 66 0
  50 0004 BD46     		mov	sp, r7
  51              		@ sp needed
  52 0006 80BD     		pop	{r7, pc}
  53              		.cfi_endproc
  54              	.LFE2:
  55              		.size	CyBle_HrsInit, .-CyBle_HrsInit
  56              		.section	.text.CyBle_HrsRegisterAttrCallback,"ax",%progbits
  57              		.align	2
  58              		.global	CyBle_HrsRegisterAttrCallback
  59              		.code	16
  60              		.thumb_func
  61              		.type	CyBle_HrsRegisterAttrCallback, %function
  62              	CyBle_HrsRegisterAttrCallback:
  63              	.LFB3:
  67:.\Generated_Source\PSoC4/BLE_hrs.c **** 
  68:.\Generated_Source\PSoC4/BLE_hrs.c **** 
  69:.\Generated_Source\PSoC4/BLE_hrs.c **** /****************************************************************************** 
  70:.\Generated_Source\PSoC4/BLE_hrs.c **** ##Function Name: CyBle_HrsRegisterAttrCallback
  71:.\Generated_Source\PSoC4/BLE_hrs.c **** *******************************************************************************
  72:.\Generated_Source\PSoC4/BLE_hrs.c **** 
  73:.\Generated_Source\PSoC4/BLE_hrs.c **** Summary:
  74:.\Generated_Source\PSoC4/BLE_hrs.c ****  Registers a callback function for service specific attribute operations.
  75:.\Generated_Source\PSoC4/BLE_hrs.c **** 
  76:.\Generated_Source\PSoC4/BLE_hrs.c **** Parameters:
  77:.\Generated_Source\PSoC4/BLE_hrs.c ****  callbackFunc: An application layer event callback function to receive 
  78:.\Generated_Source\PSoC4/BLE_hrs.c ****                    events from the BLE Component. The definition of 
  79:.\Generated_Source\PSoC4/BLE_hrs.c ****                    CYBLE_CALLBACK_T for HRS Service is,
  80:.\Generated_Source\PSoC4/BLE_hrs.c ****             
  81:.\Generated_Source\PSoC4/BLE_hrs.c ****                    typedef void (* CYBLE_CALLBACK_T) (uint32 eventCode, 
  82:.\Generated_Source\PSoC4/BLE_hrs.c ****                                                       void *eventParam)
  83:.\Generated_Source\PSoC4/BLE_hrs.c **** 
  84:.\Generated_Source\PSoC4/BLE_hrs.c ****                    * eventCode indicates the event that triggered this 
  85:.\Generated_Source\PSoC4/BLE_hrs.c ****                      callback (e.g. CYBLE_EVT_HRSS_NOTIFICATION_ENABLED).
  86:.\Generated_Source\PSoC4/BLE_hrs.c ****                    * eventParam contains the parameters corresponding to the 
  87:.\Generated_Source\PSoC4/BLE_hrs.c ****                      current event. (e.g. pointer to CYBLE_HRS_CHAR_VALUE_T
  88:.\Generated_Source\PSoC4/BLE_hrs.c ****                      structure that contains details of the characteristic 
  89:.\Generated_Source\PSoC4/BLE_hrs.c ****                      for which notification enabled event was triggered).
  90:.\Generated_Source\PSoC4/BLE_hrs.c **** 
  91:.\Generated_Source\PSoC4/BLE_hrs.c **** Return:
  92:.\Generated_Source\PSoC4/BLE_hrs.c ****  None
  93:.\Generated_Source\PSoC4/BLE_hrs.c **** 
  94:.\Generated_Source\PSoC4/BLE_hrs.c **** ******************************************************************************/
  95:.\Generated_Source\PSoC4/BLE_hrs.c **** void CyBle_HrsRegisterAttrCallback(CYBLE_CALLBACK_T callbackFunc)
  96:.\Generated_Source\PSoC4/BLE_hrs.c **** {
  64              		.loc 1 96 0
  65              		.cfi_startproc
  66 0000 80B5     		push	{r7, lr}
  67              		.cfi_def_cfa_offset 8
  68              		.cfi_offset 7, -8
  69              		.cfi_offset 14, -4
  70 0002 82B0     		sub	sp, sp, #8
  71              		.cfi_def_cfa_offset 16
  72 0004 00AF     		add	r7, sp, #0
  73              		.cfi_def_cfa_register 7
  74 0006 7860     		str	r0, [r7, #4]
  97:.\Generated_Source\PSoC4/BLE_hrs.c ****     CyBle_HrsApplCallback = callbackFunc;
ARM GAS  C:\Users\KEVINH~1\AppData\Local\Temp\ccPbMdcC.s 			page 4


  75              		.loc 1 97 0
  76 0008 024B     		ldr	r3, .L3
  77 000a 7A68     		ldr	r2, [r7, #4]
  78 000c 1A60     		str	r2, [r3]
  98:.\Generated_Source\PSoC4/BLE_hrs.c **** }
  79              		.loc 1 98 0
  80 000e BD46     		mov	sp, r7
  81 0010 02B0     		add	sp, sp, #8
  82              		@ sp needed
  83 0012 80BD     		pop	{r7, pc}
  84              	.L4:
  85              		.align	2
  86              	.L3:
  87 0014 00000000 		.word	CyBle_HrsApplCallback
  88              		.cfi_endproc
  89              	.LFE3:
  90              		.size	CyBle_HrsRegisterAttrCallback, .-CyBle_HrsRegisterAttrCallback
  91              		.section	.text.CyBle_HrssSetCharacteristicValue,"ax",%progbits
  92              		.align	2
  93              		.global	CyBle_HrssSetCharacteristicValue
  94              		.code	16
  95              		.thumb_func
  96              		.type	CyBle_HrssSetCharacteristicValue, %function
  97              	CyBle_HrssSetCharacteristicValue:
  98              	.LFB4:
  99:.\Generated_Source\PSoC4/BLE_hrs.c **** 
 100:.\Generated_Source\PSoC4/BLE_hrs.c **** 
 101:.\Generated_Source\PSoC4/BLE_hrs.c **** #ifdef CYBLE_HRS_SERVER
 102:.\Generated_Source\PSoC4/BLE_hrs.c **** 
 103:.\Generated_Source\PSoC4/BLE_hrs.c **** 
 104:.\Generated_Source\PSoC4/BLE_hrs.c **** /****************************************************************************** 
 105:.\Generated_Source\PSoC4/BLE_hrs.c **** ##Function Name: CyBle_HrssSetCharacteristicValue
 106:.\Generated_Source\PSoC4/BLE_hrs.c **** *******************************************************************************
 107:.\Generated_Source\PSoC4/BLE_hrs.c **** 
 108:.\Generated_Source\PSoC4/BLE_hrs.c **** Summary:
 109:.\Generated_Source\PSoC4/BLE_hrs.c ****  Sets local characteristic value of the specified Heart Rate Service 
 110:.\Generated_Source\PSoC4/BLE_hrs.c ****  characteristic.
 111:.\Generated_Source\PSoC4/BLE_hrs.c **** 
 112:.\Generated_Source\PSoC4/BLE_hrs.c **** Parameters:
 113:.\Generated_Source\PSoC4/BLE_hrs.c ****  charIndex: The index of a service characteristic.
 114:.\Generated_Source\PSoC4/BLE_hrs.c ****  attrSize: The size of the characteristic value attribute. The Heart Rate
 115:.\Generated_Source\PSoC4/BLE_hrs.c ****             Measurement characteristic has a 20 byte length (by default).
 116:.\Generated_Source\PSoC4/BLE_hrs.c ****             The Body Sensor Location and Control Point characteristic
 117:.\Generated_Source\PSoC4/BLE_hrs.c ****             both have 1 byte length.
 118:.\Generated_Source\PSoC4/BLE_hrs.c ****  *attrValue: The pointer to the characteristic value data that should be
 119:.\Generated_Source\PSoC4/BLE_hrs.c ****                   stored in the GATT database.
 120:.\Generated_Source\PSoC4/BLE_hrs.c **** 
 121:.\Generated_Source\PSoC4/BLE_hrs.c **** Return:
 122:.\Generated_Source\PSoC4/BLE_hrs.c ****  Return value is of type CYBLE_API_RESULT_T.
 123:.\Generated_Source\PSoC4/BLE_hrs.c ****  * CYBLE_ERROR_OK - The request handled successfully.
 124:.\Generated_Source\PSoC4/BLE_hrs.c ****  * CYBLE_ERROR_INVALID_PARAMETER - Validation of the input parameter failed.
 125:.\Generated_Source\PSoC4/BLE_hrs.c ****  * CYBLE_ERROR_GATT_DB_INVALID_ATTR_HANDLE - Optional characteristic is absent
 126:.\Generated_Source\PSoC4/BLE_hrs.c **** 
 127:.\Generated_Source\PSoC4/BLE_hrs.c **** ******************************************************************************/
 128:.\Generated_Source\PSoC4/BLE_hrs.c **** CYBLE_API_RESULT_T CyBle_HrssSetCharacteristicValue(CYBLE_HRS_CHAR_INDEX_T charIndex, uint8 attrSiz
 129:.\Generated_Source\PSoC4/BLE_hrs.c **** {
  99              		.loc 1 129 0
ARM GAS  C:\Users\KEVINH~1\AppData\Local\Temp\ccPbMdcC.s 			page 5


 100              		.cfi_startproc
 101 0000 80B5     		push	{r7, lr}
 102              		.cfi_def_cfa_offset 8
 103              		.cfi_offset 7, -8
 104              		.cfi_offset 14, -4
 105 0002 86B0     		sub	sp, sp, #24
 106              		.cfi_def_cfa_offset 32
 107 0004 00AF     		add	r7, sp, #0
 108              		.cfi_def_cfa_register 7
 109 0006 3A60     		str	r2, [r7]
 110 0008 FB1D     		add	r3, r7, #7
 111 000a 021C     		add	r2, r0, #0
 112 000c 1A70     		strb	r2, [r3]
 113 000e BB1D     		add	r3, r7, #6
 114 0010 0A1C     		add	r2, r1, #0
 115 0012 1A70     		strb	r2, [r3]
 130:.\Generated_Source\PSoC4/BLE_hrs.c ****     CYBLE_API_RESULT_T apiResult = CYBLE_ERROR_OK;
 116              		.loc 1 130 0
 117 0014 3B1C     		mov	r3, r7
 118 0016 1633     		add	r3, r3, #22
 119 0018 0022     		mov	r2, #0
 120 001a 1A80     		strh	r2, [r3]
 131:.\Generated_Source\PSoC4/BLE_hrs.c ****     CYBLE_GATT_HANDLE_VALUE_PAIR_T locHandleValuePair;
 132:.\Generated_Source\PSoC4/BLE_hrs.c **** 
 133:.\Generated_Source\PSoC4/BLE_hrs.c ****     if(charIndex >= CYBLE_HRS_CHAR_COUNT)
 121              		.loc 1 133 0
 122 001c FB1D     		add	r3, r7, #7
 123 001e 1B78     		ldrb	r3, [r3]
 124 0020 022B     		cmp	r3, #2
 125 0022 04D9     		bls	.L6
 134:.\Generated_Source\PSoC4/BLE_hrs.c ****     {
 135:.\Generated_Source\PSoC4/BLE_hrs.c ****         apiResult = CYBLE_ERROR_INVALID_PARAMETER;
 126              		.loc 1 135 0
 127 0024 3B1C     		mov	r3, r7
 128 0026 1633     		add	r3, r3, #22
 129 0028 0122     		mov	r2, #1
 130 002a 1A80     		strh	r2, [r3]
 131 002c 2DE0     		b	.L7
 132              	.L6:
 136:.\Generated_Source\PSoC4/BLE_hrs.c ****     }
 137:.\Generated_Source\PSoC4/BLE_hrs.c **** 	else if((charIndex == CYBLE_HRS_BSL) && (!CYBLE_HRS_IS_BSL_SUPPORTED))
 133              		.loc 1 137 0
 134 002e FB1D     		add	r3, r7, #7
 135 0030 1B78     		ldrb	r3, [r3]
 136 0032 012B     		cmp	r3, #1
 137 0034 07D1     		bne	.L8
 138              		.loc 1 137 0 is_stmt 0 discriminator 1
 139 0036 1123     		mov	r3, #17
 140 0038 002B     		cmp	r3, #0
 141 003a 04D1     		bne	.L8
 138:.\Generated_Source\PSoC4/BLE_hrs.c ****     {
 139:.\Generated_Source\PSoC4/BLE_hrs.c ****         apiResult = CYBLE_ERROR_GATT_DB_INVALID_ATTR_HANDLE;
 142              		.loc 1 139 0 is_stmt 1
 143 003c 3B1C     		mov	r3, r7
 144 003e 1633     		add	r3, r3, #22
 145 0040 1322     		mov	r2, #19
 146 0042 1A80     		strh	r2, [r3]
ARM GAS  C:\Users\KEVINH~1\AppData\Local\Temp\ccPbMdcC.s 			page 6


 147 0044 21E0     		b	.L7
 148              	.L8:
 140:.\Generated_Source\PSoC4/BLE_hrs.c ****     }
 141:.\Generated_Source\PSoC4/BLE_hrs.c ****     else
 142:.\Generated_Source\PSoC4/BLE_hrs.c ****     {
 143:.\Generated_Source\PSoC4/BLE_hrs.c ****         /* Store characteristic value into GATT database */
 144:.\Generated_Source\PSoC4/BLE_hrs.c ****         locHandleValuePair.attrHandle = cyBle_hrss.charHandle[charIndex];
 149              		.loc 1 144 0
 150 0046 FB1D     		add	r3, r7, #7
 151 0048 1B78     		ldrb	r3, [r3]
 152 004a 134A     		ldr	r2, .L10
 153 004c 5B00     		lsl	r3, r3, #1
 154 004e D318     		add	r3, r2, r3
 155 0050 5A88     		ldrh	r2, [r3, #2]
 156 0052 3B1C     		mov	r3, r7
 157 0054 0833     		add	r3, r3, #8
 158 0056 1A81     		strh	r2, [r3, #8]
 145:.\Generated_Source\PSoC4/BLE_hrs.c ****         locHandleValuePair.value.len = attrSize;
 159              		.loc 1 145 0
 160 0058 BB1D     		add	r3, r7, #6
 161 005a 1B78     		ldrb	r3, [r3]
 162 005c 9AB2     		uxth	r2, r3
 163 005e 3B1C     		mov	r3, r7
 164 0060 0833     		add	r3, r3, #8
 165 0062 9A80     		strh	r2, [r3, #4]
 146:.\Generated_Source\PSoC4/BLE_hrs.c ****         locHandleValuePair.value.val = attrValue;
 166              		.loc 1 146 0
 167 0064 3B1C     		mov	r3, r7
 168 0066 0833     		add	r3, r3, #8
 169 0068 3A68     		ldr	r2, [r7]
 170 006a 1A60     		str	r2, [r3]
 147:.\Generated_Source\PSoC4/BLE_hrs.c ****         
 148:.\Generated_Source\PSoC4/BLE_hrs.c ****         if(CYBLE_GATT_ERR_NONE != CyBle_GattsWriteAttributeValue(&locHandleValuePair,
 171              		.loc 1 148 0
 172 006c 3B1C     		mov	r3, r7
 173 006e 0833     		add	r3, r3, #8
 174 0070 181C     		mov	r0, r3
 175 0072 0021     		mov	r1, #0
 176 0074 0022     		mov	r2, #0
 177 0076 0023     		mov	r3, #0
 178 0078 FFF7FEFF 		bl	CyBle_GattsWriteAttributeValue
 179 007c 031C     		mov	r3, r0
 180 007e 002B     		cmp	r3, #0
 181 0080 03D0     		beq	.L7
 149:.\Generated_Source\PSoC4/BLE_hrs.c ****                                                 0u, NULL, CYBLE_GATT_DB_LOCALLY_INITIATED))
 150:.\Generated_Source\PSoC4/BLE_hrs.c ****         {
 151:.\Generated_Source\PSoC4/BLE_hrs.c ****             apiResult = CYBLE_ERROR_INVALID_PARAMETER;
 182              		.loc 1 151 0
 183 0082 3B1C     		mov	r3, r7
 184 0084 1633     		add	r3, r3, #22
 185 0086 0122     		mov	r2, #1
 186 0088 1A80     		strh	r2, [r3]
 187              	.L7:
 152:.\Generated_Source\PSoC4/BLE_hrs.c ****         }
 153:.\Generated_Source\PSoC4/BLE_hrs.c ****     }
 154:.\Generated_Source\PSoC4/BLE_hrs.c **** 
 155:.\Generated_Source\PSoC4/BLE_hrs.c ****     return (apiResult);
ARM GAS  C:\Users\KEVINH~1\AppData\Local\Temp\ccPbMdcC.s 			page 7


 188              		.loc 1 155 0
 189 008a 3B1C     		mov	r3, r7
 190 008c 1633     		add	r3, r3, #22
 191 008e 1B88     		ldrh	r3, [r3]
 156:.\Generated_Source\PSoC4/BLE_hrs.c **** }
 192              		.loc 1 156 0
 193 0090 181C     		mov	r0, r3
 194 0092 BD46     		mov	sp, r7
 195 0094 06B0     		add	sp, sp, #24
 196              		@ sp needed
 197 0096 80BD     		pop	{r7, pc}
 198              	.L11:
 199              		.align	2
 200              	.L10:
 201 0098 00000000 		.word	cyBle_hrss
 202              		.cfi_endproc
 203              	.LFE4:
 204              		.size	CyBle_HrssSetCharacteristicValue, .-CyBle_HrssSetCharacteristicValue
 205              		.section	.text.CyBle_HrssGetCharacteristicValue,"ax",%progbits
 206              		.align	2
 207              		.global	CyBle_HrssGetCharacteristicValue
 208              		.code	16
 209              		.thumb_func
 210              		.type	CyBle_HrssGetCharacteristicValue, %function
 211              	CyBle_HrssGetCharacteristicValue:
 212              	.LFB5:
 157:.\Generated_Source\PSoC4/BLE_hrs.c **** 
 158:.\Generated_Source\PSoC4/BLE_hrs.c **** 
 159:.\Generated_Source\PSoC4/BLE_hrs.c **** /****************************************************************************** 
 160:.\Generated_Source\PSoC4/BLE_hrs.c **** ##Function Name: CyBle_HrssGetCharacteristicValue
 161:.\Generated_Source\PSoC4/BLE_hrs.c **** *******************************************************************************
 162:.\Generated_Source\PSoC4/BLE_hrs.c **** 
 163:.\Generated_Source\PSoC4/BLE_hrs.c **** Summary:
 164:.\Generated_Source\PSoC4/BLE_hrs.c ****  Gets the local characteristic value of specified Heart Rate Service 
 165:.\Generated_Source\PSoC4/BLE_hrs.c ****  characteristic.
 166:.\Generated_Source\PSoC4/BLE_hrs.c **** 
 167:.\Generated_Source\PSoC4/BLE_hrs.c **** Parameters:
 168:.\Generated_Source\PSoC4/BLE_hrs.c ****  charIndex:  The index of a service characteristic.
 169:.\Generated_Source\PSoC4/BLE_hrs.c ****  attrSize:   The size of the characteristic value attribute. The Heart Rate
 170:.\Generated_Source\PSoC4/BLE_hrs.c ****              Measurement characteristic has a 20 byte length (by default).
 171:.\Generated_Source\PSoC4/BLE_hrs.c ****              The Body Sensor Location and Control Point characteristic
 172:.\Generated_Source\PSoC4/BLE_hrs.c ****              both have 1 byte length.
 173:.\Generated_Source\PSoC4/BLE_hrs.c ****  *attrValue: The pointer to the location where characteristic value data 
 174:.\Generated_Source\PSoC4/BLE_hrs.c ****              should be stored. 
 175:.\Generated_Source\PSoC4/BLE_hrs.c **** 
 176:.\Generated_Source\PSoC4/BLE_hrs.c **** Return:
 177:.\Generated_Source\PSoC4/BLE_hrs.c ****  Return value is of type CYBLE_API_RESULT_T.
 178:.\Generated_Source\PSoC4/BLE_hrs.c ****  * CYBLE_ERROR_OK - The request handled successfully
 179:.\Generated_Source\PSoC4/BLE_hrs.c ****  * CYBLE_ERROR_INVALID_PARAMETER - Validation of the input parameter failed
 180:.\Generated_Source\PSoC4/BLE_hrs.c ****  * CYBLE_ERROR_GATT_DB_INVALID_ATTR_HANDLE - Optional characteristic is absent
 181:.\Generated_Source\PSoC4/BLE_hrs.c **** 
 182:.\Generated_Source\PSoC4/BLE_hrs.c **** ******************************************************************************/
 183:.\Generated_Source\PSoC4/BLE_hrs.c **** CYBLE_API_RESULT_T CyBle_HrssGetCharacteristicValue(CYBLE_HRS_CHAR_INDEX_T charIndex, uint8 attrSiz
 184:.\Generated_Source\PSoC4/BLE_hrs.c **** {
 213              		.loc 1 184 0
 214              		.cfi_startproc
 215 0000 80B5     		push	{r7, lr}
ARM GAS  C:\Users\KEVINH~1\AppData\Local\Temp\ccPbMdcC.s 			page 8


 216              		.cfi_def_cfa_offset 8
 217              		.cfi_offset 7, -8
 218              		.cfi_offset 14, -4
 219 0002 86B0     		sub	sp, sp, #24
 220              		.cfi_def_cfa_offset 32
 221 0004 00AF     		add	r7, sp, #0
 222              		.cfi_def_cfa_register 7
 223 0006 3A60     		str	r2, [r7]
 224 0008 FB1D     		add	r3, r7, #7
 225 000a 021C     		add	r2, r0, #0
 226 000c 1A70     		strb	r2, [r3]
 227 000e BB1D     		add	r3, r7, #6
 228 0010 0A1C     		add	r2, r1, #0
 229 0012 1A70     		strb	r2, [r3]
 185:.\Generated_Source\PSoC4/BLE_hrs.c ****     CYBLE_API_RESULT_T apiResult = CYBLE_ERROR_OK;
 230              		.loc 1 185 0
 231 0014 3B1C     		mov	r3, r7
 232 0016 1633     		add	r3, r3, #22
 233 0018 0022     		mov	r2, #0
 234 001a 1A80     		strh	r2, [r3]
 186:.\Generated_Source\PSoC4/BLE_hrs.c ****     CYBLE_GATT_HANDLE_VALUE_PAIR_T locHandleValuePair;
 187:.\Generated_Source\PSoC4/BLE_hrs.c **** 
 188:.\Generated_Source\PSoC4/BLE_hrs.c ****     if(charIndex >= CYBLE_HRS_CHAR_COUNT)
 235              		.loc 1 188 0
 236 001c FB1D     		add	r3, r7, #7
 237 001e 1B78     		ldrb	r3, [r3]
 238 0020 022B     		cmp	r3, #2
 239 0022 04D9     		bls	.L13
 189:.\Generated_Source\PSoC4/BLE_hrs.c ****     {
 190:.\Generated_Source\PSoC4/BLE_hrs.c ****         apiResult = CYBLE_ERROR_INVALID_PARAMETER;
 240              		.loc 1 190 0
 241 0024 3B1C     		mov	r3, r7
 242 0026 1633     		add	r3, r3, #22
 243 0028 0122     		mov	r2, #1
 244 002a 1A80     		strh	r2, [r3]
 245 002c 2CE0     		b	.L14
 246              	.L13:
 191:.\Generated_Source\PSoC4/BLE_hrs.c ****     }
 192:.\Generated_Source\PSoC4/BLE_hrs.c **** 	else if((charIndex == CYBLE_HRS_BSL) && (!CYBLE_HRS_IS_BSL_SUPPORTED))
 247              		.loc 1 192 0
 248 002e FB1D     		add	r3, r7, #7
 249 0030 1B78     		ldrb	r3, [r3]
 250 0032 012B     		cmp	r3, #1
 251 0034 07D1     		bne	.L15
 252              		.loc 1 192 0 is_stmt 0 discriminator 1
 253 0036 1123     		mov	r3, #17
 254 0038 002B     		cmp	r3, #0
 255 003a 04D1     		bne	.L15
 193:.\Generated_Source\PSoC4/BLE_hrs.c ****     {
 194:.\Generated_Source\PSoC4/BLE_hrs.c ****         apiResult = CYBLE_ERROR_GATT_DB_INVALID_ATTR_HANDLE;
 256              		.loc 1 194 0 is_stmt 1
 257 003c 3B1C     		mov	r3, r7
 258 003e 1633     		add	r3, r3, #22
 259 0040 1322     		mov	r2, #19
 260 0042 1A80     		strh	r2, [r3]
 261 0044 20E0     		b	.L14
 262              	.L15:
ARM GAS  C:\Users\KEVINH~1\AppData\Local\Temp\ccPbMdcC.s 			page 9


 195:.\Generated_Source\PSoC4/BLE_hrs.c ****     }
 196:.\Generated_Source\PSoC4/BLE_hrs.c ****     else
 197:.\Generated_Source\PSoC4/BLE_hrs.c ****     {
 198:.\Generated_Source\PSoC4/BLE_hrs.c ****         /* Get characteristic value from GATT database */
 199:.\Generated_Source\PSoC4/BLE_hrs.c ****         locHandleValuePair.attrHandle = cyBle_hrss.charHandle[charIndex];
 263              		.loc 1 199 0
 264 0046 FB1D     		add	r3, r7, #7
 265 0048 1B78     		ldrb	r3, [r3]
 266 004a 134A     		ldr	r2, .L17
 267 004c 5B00     		lsl	r3, r3, #1
 268 004e D318     		add	r3, r2, r3
 269 0050 5A88     		ldrh	r2, [r3, #2]
 270 0052 3B1C     		mov	r3, r7
 271 0054 0833     		add	r3, r3, #8
 272 0056 1A81     		strh	r2, [r3, #8]
 200:.\Generated_Source\PSoC4/BLE_hrs.c ****         locHandleValuePair.value.len = attrSize;
 273              		.loc 1 200 0
 274 0058 BB1D     		add	r3, r7, #6
 275 005a 1B78     		ldrb	r3, [r3]
 276 005c 9AB2     		uxth	r2, r3
 277 005e 3B1C     		mov	r3, r7
 278 0060 0833     		add	r3, r3, #8
 279 0062 9A80     		strh	r2, [r3, #4]
 201:.\Generated_Source\PSoC4/BLE_hrs.c ****         locHandleValuePair.value.val = attrValue;
 280              		.loc 1 201 0
 281 0064 3B1C     		mov	r3, r7
 282 0066 0833     		add	r3, r3, #8
 283 0068 3A68     		ldr	r2, [r7]
 284 006a 1A60     		str	r2, [r3]
 202:.\Generated_Source\PSoC4/BLE_hrs.c ****         
 203:.\Generated_Source\PSoC4/BLE_hrs.c ****         if(CYBLE_GATT_ERR_NONE != CyBle_GattsReadAttributeValue(&locHandleValuePair, 0u,
 285              		.loc 1 203 0
 286 006c 3B1C     		mov	r3, r7
 287 006e 0833     		add	r3, r3, #8
 288 0070 181C     		mov	r0, r3
 289 0072 0021     		mov	r1, #0
 290 0074 0122     		mov	r2, #1
 291 0076 FFF7FEFF 		bl	CyBle_GattsReadAttributeValue
 292 007a 031C     		mov	r3, r0
 293 007c 002B     		cmp	r3, #0
 294 007e 03D0     		beq	.L14
 204:.\Generated_Source\PSoC4/BLE_hrs.c ****                                     CYBLE_GATT_DB_READ | CYBLE_GATT_DB_LOCALLY_INITIATED))
 205:.\Generated_Source\PSoC4/BLE_hrs.c ****         {
 206:.\Generated_Source\PSoC4/BLE_hrs.c ****             apiResult = CYBLE_ERROR_INVALID_PARAMETER;
 295              		.loc 1 206 0
 296 0080 3B1C     		mov	r3, r7
 297 0082 1633     		add	r3, r3, #22
 298 0084 0122     		mov	r2, #1
 299 0086 1A80     		strh	r2, [r3]
 300              	.L14:
 207:.\Generated_Source\PSoC4/BLE_hrs.c ****         }  
 208:.\Generated_Source\PSoC4/BLE_hrs.c ****     }
 209:.\Generated_Source\PSoC4/BLE_hrs.c **** 
 210:.\Generated_Source\PSoC4/BLE_hrs.c ****     return (apiResult);
 301              		.loc 1 210 0
 302 0088 3B1C     		mov	r3, r7
 303 008a 1633     		add	r3, r3, #22
ARM GAS  C:\Users\KEVINH~1\AppData\Local\Temp\ccPbMdcC.s 			page 10


 304 008c 1B88     		ldrh	r3, [r3]
 211:.\Generated_Source\PSoC4/BLE_hrs.c **** }
 305              		.loc 1 211 0
 306 008e 181C     		mov	r0, r3
 307 0090 BD46     		mov	sp, r7
 308 0092 06B0     		add	sp, sp, #24
 309              		@ sp needed
 310 0094 80BD     		pop	{r7, pc}
 311              	.L18:
 312 0096 C046     		.align	2
 313              	.L17:
 314 0098 00000000 		.word	cyBle_hrss
 315              		.cfi_endproc
 316              	.LFE5:
 317              		.size	CyBle_HrssGetCharacteristicValue, .-CyBle_HrssGetCharacteristicValue
 318              		.section	.text.CyBle_HrssGetCharacteristicDescriptor,"ax",%progbits
 319              		.align	2
 320              		.global	CyBle_HrssGetCharacteristicDescriptor
 321              		.code	16
 322              		.thumb_func
 323              		.type	CyBle_HrssGetCharacteristicDescriptor, %function
 324              	CyBle_HrssGetCharacteristicDescriptor:
 325              	.LFB6:
 212:.\Generated_Source\PSoC4/BLE_hrs.c **** 
 213:.\Generated_Source\PSoC4/BLE_hrs.c **** 
 214:.\Generated_Source\PSoC4/BLE_hrs.c **** /****************************************************************************** 
 215:.\Generated_Source\PSoC4/BLE_hrs.c **** ##Function Name: CyBle_HrssGetCharacteristicDescriptor
 216:.\Generated_Source\PSoC4/BLE_hrs.c **** *******************************************************************************
 217:.\Generated_Source\PSoC4/BLE_hrs.c **** 
 218:.\Generated_Source\PSoC4/BLE_hrs.c **** Summary:
 219:.\Generated_Source\PSoC4/BLE_hrs.c ****  Gets the local characteristic descriptor of the specified Heart Rate 
 220:.\Generated_Source\PSoC4/BLE_hrs.c ****  Service characteristic.
 221:.\Generated_Source\PSoC4/BLE_hrs.c **** 
 222:.\Generated_Source\PSoC4/BLE_hrs.c **** Parameters:
 223:.\Generated_Source\PSoC4/BLE_hrs.c ****  charIndex:  The index of the characteristic.
 224:.\Generated_Source\PSoC4/BLE_hrs.c ****  descrIndex: The index of the descriptor.
 225:.\Generated_Source\PSoC4/BLE_hrs.c ****  attrSize:   The size of the descriptor value attribute. The Heart Rate
 226:.\Generated_Source\PSoC4/BLE_hrs.c ****              Measurement characteristic client configuration descriptor has
 227:.\Generated_Source\PSoC4/BLE_hrs.c ****              2 bytes length.
 228:.\Generated_Source\PSoC4/BLE_hrs.c ****  *attrValue: The pointer to the location where characteristic descriptor 
 229:.\Generated_Source\PSoC4/BLE_hrs.c ****              value data should be stored. 
 230:.\Generated_Source\PSoC4/BLE_hrs.c **** 
 231:.\Generated_Source\PSoC4/BLE_hrs.c **** Return:
 232:.\Generated_Source\PSoC4/BLE_hrs.c ****  Return value is of type CYBLE_API_RESULT_T.
 233:.\Generated_Source\PSoC4/BLE_hrs.c ****  * CYBLE_ERROR_OK - The request handled successfully
 234:.\Generated_Source\PSoC4/BLE_hrs.c ****  * CYBLE_ERROR_INVALID_PARAMETER - Validation of the input parameter failed
 235:.\Generated_Source\PSoC4/BLE_hrs.c ****  * CYBLE_ERROR_GATT_DB_INVALID_ATTR_HANDLE - Optional descriptor is absent
 236:.\Generated_Source\PSoC4/BLE_hrs.c **** 
 237:.\Generated_Source\PSoC4/BLE_hrs.c **** ******************************************************************************/
 238:.\Generated_Source\PSoC4/BLE_hrs.c **** CYBLE_API_RESULT_T CyBle_HrssGetCharacteristicDescriptor(CYBLE_HRS_CHAR_INDEX_T charIndex, 
 239:.\Generated_Source\PSoC4/BLE_hrs.c ****                                                          CYBLE_HRS_DESCR_INDEX_T descrIndex,
 240:.\Generated_Source\PSoC4/BLE_hrs.c ****                                                          uint8 attrSize, uint8 *attrValue)
 241:.\Generated_Source\PSoC4/BLE_hrs.c **** {
 326              		.loc 1 241 0
 327              		.cfi_startproc
 328 0000 80B5     		push	{r7, lr}
 329              		.cfi_def_cfa_offset 8
ARM GAS  C:\Users\KEVINH~1\AppData\Local\Temp\ccPbMdcC.s 			page 11


 330              		.cfi_offset 7, -8
 331              		.cfi_offset 14, -4
 332 0002 86B0     		sub	sp, sp, #24
 333              		.cfi_def_cfa_offset 32
 334 0004 00AF     		add	r7, sp, #0
 335              		.cfi_def_cfa_register 7
 336 0006 3B60     		str	r3, [r7]
 337 0008 FB1D     		add	r3, r7, #7
 338 000a 1870     		strb	r0, [r3]
 339 000c BB1D     		add	r3, r7, #6
 340 000e 1970     		strb	r1, [r3]
 341 0010 7B1D     		add	r3, r7, #5
 342 0012 1A70     		strb	r2, [r3]
 242:.\Generated_Source\PSoC4/BLE_hrs.c ****     CYBLE_API_RESULT_T apiResult;
 243:.\Generated_Source\PSoC4/BLE_hrs.c ****     CYBLE_GATT_HANDLE_VALUE_PAIR_T locHandleValuePair;
 244:.\Generated_Source\PSoC4/BLE_hrs.c **** 
 245:.\Generated_Source\PSoC4/BLE_hrs.c ****     if((charIndex >= CYBLE_HRS_CHAR_COUNT) || (descrIndex >= CYBLE_HRS_DESCR_COUNT))
 343              		.loc 1 245 0
 344 0014 FB1D     		add	r3, r7, #7
 345 0016 1B78     		ldrb	r3, [r3]
 346 0018 022B     		cmp	r3, #2
 347 001a 03D8     		bhi	.L20
 348              		.loc 1 245 0 is_stmt 0 discriminator 1
 349 001c BB1D     		add	r3, r7, #6
 350 001e 1B78     		ldrb	r3, [r3]
 351 0020 002B     		cmp	r3, #0
 352 0022 04D0     		beq	.L21
 353              	.L20:
 246:.\Generated_Source\PSoC4/BLE_hrs.c ****     {
 247:.\Generated_Source\PSoC4/BLE_hrs.c ****         apiResult = CYBLE_ERROR_INVALID_PARAMETER;
 354              		.loc 1 247 0 is_stmt 1
 355 0024 3B1C     		mov	r3, r7
 356 0026 1633     		add	r3, r3, #22
 357 0028 0122     		mov	r2, #1
 358 002a 1A80     		strh	r2, [r3]
 359 002c 2DE0     		b	.L22
 360              	.L21:
 248:.\Generated_Source\PSoC4/BLE_hrs.c ****     }
 249:.\Generated_Source\PSoC4/BLE_hrs.c ****     else if((charIndex != CYBLE_HRS_HRM) || (descrIndex != CYBLE_HRS_HRM_CCCD))
 361              		.loc 1 249 0
 362 002e FB1D     		add	r3, r7, #7
 363 0030 1B78     		ldrb	r3, [r3]
 364 0032 002B     		cmp	r3, #0
 365 0034 03D1     		bne	.L23
 366              		.loc 1 249 0 is_stmt 0 discriminator 1
 367 0036 BB1D     		add	r3, r7, #6
 368 0038 1B78     		ldrb	r3, [r3]
 369 003a 002B     		cmp	r3, #0
 370 003c 04D0     		beq	.L24
 371              	.L23:
 250:.\Generated_Source\PSoC4/BLE_hrs.c **** 	{
 251:.\Generated_Source\PSoC4/BLE_hrs.c **** 		apiResult = CYBLE_ERROR_GATT_DB_INVALID_ATTR_HANDLE;
 372              		.loc 1 251 0 is_stmt 1
 373 003e 3B1C     		mov	r3, r7
 374 0040 1633     		add	r3, r3, #22
 375 0042 1322     		mov	r2, #19
 376 0044 1A80     		strh	r2, [r3]
ARM GAS  C:\Users\KEVINH~1\AppData\Local\Temp\ccPbMdcC.s 			page 12


 377 0046 20E0     		b	.L22
 378              	.L24:
 252:.\Generated_Source\PSoC4/BLE_hrs.c **** 	}
 253:.\Generated_Source\PSoC4/BLE_hrs.c **** 	else
 254:.\Generated_Source\PSoC4/BLE_hrs.c **** 	{
 255:.\Generated_Source\PSoC4/BLE_hrs.c **** 		/* Get data from database */
 256:.\Generated_Source\PSoC4/BLE_hrs.c **** 		locHandleValuePair.attrHandle = cyBle_hrss.hrmCccdHandle;
 379              		.loc 1 256 0
 380 0048 0F22     		mov	r2, #15
 381 004a 3B1C     		mov	r3, r7
 382 004c 0833     		add	r3, r3, #8
 383 004e 1A81     		strh	r2, [r3, #8]
 257:.\Generated_Source\PSoC4/BLE_hrs.c **** 		locHandleValuePair.value.len = attrSize;
 384              		.loc 1 257 0
 385 0050 7B1D     		add	r3, r7, #5
 386 0052 1B78     		ldrb	r3, [r3]
 387 0054 9AB2     		uxth	r2, r3
 388 0056 3B1C     		mov	r3, r7
 389 0058 0833     		add	r3, r3, #8
 390 005a 9A80     		strh	r2, [r3, #4]
 258:.\Generated_Source\PSoC4/BLE_hrs.c **** 		locHandleValuePair.value.val = attrValue;
 391              		.loc 1 258 0
 392 005c 3B1C     		mov	r3, r7
 393 005e 0833     		add	r3, r3, #8
 394 0060 3A68     		ldr	r2, [r7]
 395 0062 1A60     		str	r2, [r3]
 259:.\Generated_Source\PSoC4/BLE_hrs.c **** 
 260:.\Generated_Source\PSoC4/BLE_hrs.c **** 		if(CYBLE_GATT_ERR_NONE != CyBle_GattsReadAttributeValue(&locHandleValuePair, 0u,
 396              		.loc 1 260 0
 397 0064 3B1C     		mov	r3, r7
 398 0066 0833     		add	r3, r3, #8
 399 0068 181C     		mov	r0, r3
 400 006a 0021     		mov	r1, #0
 401 006c 0122     		mov	r2, #1
 402 006e FFF7FEFF 		bl	CyBle_GattsReadAttributeValue
 403 0072 031C     		mov	r3, r0
 404 0074 002B     		cmp	r3, #0
 405 0076 04D0     		beq	.L25
 261:.\Generated_Source\PSoC4/BLE_hrs.c **** 						CYBLE_GATT_DB_READ | CYBLE_GATT_DB_LOCALLY_INITIATED))
 262:.\Generated_Source\PSoC4/BLE_hrs.c **** 		{
 263:.\Generated_Source\PSoC4/BLE_hrs.c **** 			apiResult = CYBLE_ERROR_INVALID_PARAMETER;
 406              		.loc 1 263 0
 407 0078 3B1C     		mov	r3, r7
 408 007a 1633     		add	r3, r3, #22
 409 007c 0122     		mov	r2, #1
 410 007e 1A80     		strh	r2, [r3]
 411 0080 03E0     		b	.L22
 412              	.L25:
 264:.\Generated_Source\PSoC4/BLE_hrs.c **** 		}
 265:.\Generated_Source\PSoC4/BLE_hrs.c **** 		else
 266:.\Generated_Source\PSoC4/BLE_hrs.c **** 		{
 267:.\Generated_Source\PSoC4/BLE_hrs.c **** 			apiResult = CYBLE_ERROR_OK;
 413              		.loc 1 267 0
 414 0082 3B1C     		mov	r3, r7
 415 0084 1633     		add	r3, r3, #22
 416 0086 0022     		mov	r2, #0
 417 0088 1A80     		strh	r2, [r3]
ARM GAS  C:\Users\KEVINH~1\AppData\Local\Temp\ccPbMdcC.s 			page 13


 418              	.L22:
 268:.\Generated_Source\PSoC4/BLE_hrs.c **** 		}
 269:.\Generated_Source\PSoC4/BLE_hrs.c **** 	}
 270:.\Generated_Source\PSoC4/BLE_hrs.c ****     
 271:.\Generated_Source\PSoC4/BLE_hrs.c **** 
 272:.\Generated_Source\PSoC4/BLE_hrs.c ****     return (apiResult);
 419              		.loc 1 272 0
 420 008a 3B1C     		mov	r3, r7
 421 008c 1633     		add	r3, r3, #22
 422 008e 1B88     		ldrh	r3, [r3]
 273:.\Generated_Source\PSoC4/BLE_hrs.c **** }
 423              		.loc 1 273 0
 424 0090 181C     		mov	r0, r3
 425 0092 BD46     		mov	sp, r7
 426 0094 06B0     		add	sp, sp, #24
 427              		@ sp needed
 428 0096 80BD     		pop	{r7, pc}
 429              		.cfi_endproc
 430              	.LFE6:
 431              		.size	CyBle_HrssGetCharacteristicDescriptor, .-CyBle_HrssGetCharacteristicDescriptor
 432              		.section	.text.CyBle_HrssSendNotification,"ax",%progbits
 433              		.align	2
 434              		.global	CyBle_HrssSendNotification
 435              		.code	16
 436              		.thumb_func
 437              		.type	CyBle_HrssSendNotification, %function
 438              	CyBle_HrssSendNotification:
 439              	.LFB7:
 274:.\Generated_Source\PSoC4/BLE_hrs.c **** 
 275:.\Generated_Source\PSoC4/BLE_hrs.c **** 
 276:.\Generated_Source\PSoC4/BLE_hrs.c **** /****************************************************************************** 
 277:.\Generated_Source\PSoC4/BLE_hrs.c **** ##Function Name: CyBle_HrssSendNotification
 278:.\Generated_Source\PSoC4/BLE_hrs.c **** *******************************************************************************
 279:.\Generated_Source\PSoC4/BLE_hrs.c **** 
 280:.\Generated_Source\PSoC4/BLE_hrs.c **** Summary:
 281:.\Generated_Source\PSoC4/BLE_hrs.c ****  Sends notification of a specified Heart Rate Service characteristic value 
 282:.\Generated_Source\PSoC4/BLE_hrs.c ****  to the Client device. No response is expected.
 283:.\Generated_Source\PSoC4/BLE_hrs.c ****  
 284:.\Generated_Source\PSoC4/BLE_hrs.c ****  The CYBLE_EVT_HRSC_NOTIFICATION event is received by the peer device, on 
 285:.\Generated_Source\PSoC4/BLE_hrs.c ****  invoking this function.
 286:.\Generated_Source\PSoC4/BLE_hrs.c **** 
 287:.\Generated_Source\PSoC4/BLE_hrs.c **** Parameters:
 288:.\Generated_Source\PSoC4/BLE_hrs.c ****  connHandle: The connection handle which consist of the device ID and ATT
 289:.\Generated_Source\PSoC4/BLE_hrs.c ****              connection ID.
 290:.\Generated_Source\PSoC4/BLE_hrs.c ****  charIndex:  The index of a service characteristic.
 291:.\Generated_Source\PSoC4/BLE_hrs.c ****  attrSize:   The size of the characteristic value attribute. The Heart Rate
 292:.\Generated_Source\PSoC4/BLE_hrs.c ****              Measurement characteristic has a 20 byte length (by default).
 293:.\Generated_Source\PSoC4/BLE_hrs.c ****              The Body Sensor Location and Control Point characteristic
 294:.\Generated_Source\PSoC4/BLE_hrs.c ****              both have 1 byte length.
 295:.\Generated_Source\PSoC4/BLE_hrs.c ****  *attrValue: The pointer to the characteristic value data that should be 
 296:.\Generated_Source\PSoC4/BLE_hrs.c ****              sent to the client device.
 297:.\Generated_Source\PSoC4/BLE_hrs.c **** 
 298:.\Generated_Source\PSoC4/BLE_hrs.c **** Return:
 299:.\Generated_Source\PSoC4/BLE_hrs.c ****  Return value is of type CYBLE_API_RESULT_T.
 300:.\Generated_Source\PSoC4/BLE_hrs.c ****   * CYBLE_ERROR_OK - The request handled successfully
 301:.\Generated_Source\PSoC4/BLE_hrs.c ****   * CYBLE_ERROR_INVALID_PARAMETER - Validation of the input parameter failed
 302:.\Generated_Source\PSoC4/BLE_hrs.c ****   * CYBLE_ERROR_INVALID_OPERATION - This operation is not permitted
ARM GAS  C:\Users\KEVINH~1\AppData\Local\Temp\ccPbMdcC.s 			page 14


 303:.\Generated_Source\PSoC4/BLE_hrs.c ****   * CYBLE_ERROR_INVALID_STATE - Connection with the client is not established
 304:.\Generated_Source\PSoC4/BLE_hrs.c ****   * CYBLE_ERROR_MEMORY_ALLOCATION_FAILED - Memory allocation failed. 
 305:.\Generated_Source\PSoC4/BLE_hrs.c ****   * CYBLE_ERROR_NTF_DISABLED - Notification is not enabled by the client.
 306:.\Generated_Source\PSoC4/BLE_hrs.c **** 
 307:.\Generated_Source\PSoC4/BLE_hrs.c **** ******************************************************************************/
 308:.\Generated_Source\PSoC4/BLE_hrs.c **** CYBLE_API_RESULT_T CyBle_HrssSendNotification(CYBLE_CONN_HANDLE_T connHandle, CYBLE_HRS_CHAR_INDEX_
 309:.\Generated_Source\PSoC4/BLE_hrs.c ****                                               uint8 attrSize, uint8 *attrValue)
 310:.\Generated_Source\PSoC4/BLE_hrs.c **** {
 440              		.loc 1 310 0
 441              		.cfi_startproc
 442 0000 90B5     		push	{r4, r7, lr}
 443              		.cfi_def_cfa_offset 12
 444              		.cfi_offset 4, -12
 445              		.cfi_offset 7, -8
 446              		.cfi_offset 14, -4
 447 0002 89B0     		sub	sp, sp, #36
 448              		.cfi_def_cfa_offset 48
 449 0004 00AF     		add	r7, sp, #0
 450              		.cfi_def_cfa_register 7
 451 0006 3C1C     		mov	r4, r7
 452 0008 0C34     		add	r4, r4, #12
 453 000a 2080     		strh	r0, [r4]
 454 000c 7B60     		str	r3, [r7, #4]
 455 000e 3B1C     		mov	r3, r7
 456 0010 0B33     		add	r3, r3, #11
 457 0012 1970     		strb	r1, [r3]
 458 0014 3B1C     		mov	r3, r7
 459 0016 0A33     		add	r3, r3, #10
 460 0018 1A70     		strb	r2, [r3]
 311:.\Generated_Source\PSoC4/BLE_hrs.c ****     CYBLE_API_RESULT_T apiResult;
 312:.\Generated_Source\PSoC4/BLE_hrs.c ****     CYBLE_GATTS_HANDLE_VALUE_NTF_T ntfReqParam;
 313:.\Generated_Source\PSoC4/BLE_hrs.c ****     
 314:.\Generated_Source\PSoC4/BLE_hrs.c ****     /* Send Notification if it is enabled and connected */
 315:.\Generated_Source\PSoC4/BLE_hrs.c ****     if(CYBLE_STATE_CONNECTED != CyBle_GetState())
 461              		.loc 1 315 0
 462 001a 2D4B     		ldr	r3, .L34
 463 001c 1B78     		ldrb	r3, [r3]
 464 001e 022B     		cmp	r3, #2
 465 0020 05D0     		beq	.L28
 316:.\Generated_Source\PSoC4/BLE_hrs.c ****     {
 317:.\Generated_Source\PSoC4/BLE_hrs.c ****         apiResult = CYBLE_ERROR_INVALID_STATE;
 466              		.loc 1 317 0
 467 0022 3B1C     		mov	r3, r7
 468 0024 1E33     		add	r3, r3, #30
 469 0026 0422     		mov	r2, #4
 470 0028 FF32     		add	r2, r2, #255
 471 002a 1A80     		strh	r2, [r3]
 472 002c 48E0     		b	.L29
 473              	.L28:
 318:.\Generated_Source\PSoC4/BLE_hrs.c ****     }
 319:.\Generated_Source\PSoC4/BLE_hrs.c ****     else if(charIndex >= CYBLE_HRS_CHAR_COUNT)
 474              		.loc 1 319 0
 475 002e 3B1C     		mov	r3, r7
 476 0030 0B33     		add	r3, r3, #11
 477 0032 1B78     		ldrb	r3, [r3]
 478 0034 022B     		cmp	r3, #2
 479 0036 04D9     		bls	.L30
ARM GAS  C:\Users\KEVINH~1\AppData\Local\Temp\ccPbMdcC.s 			page 15


 320:.\Generated_Source\PSoC4/BLE_hrs.c ****     {
 321:.\Generated_Source\PSoC4/BLE_hrs.c ****         apiResult = CYBLE_ERROR_INVALID_PARAMETER;
 480              		.loc 1 321 0
 481 0038 3B1C     		mov	r3, r7
 482 003a 1E33     		add	r3, r3, #30
 483 003c 0122     		mov	r2, #1
 484 003e 1A80     		strh	r2, [r3]
 485 0040 3EE0     		b	.L29
 486              	.L30:
 322:.\Generated_Source\PSoC4/BLE_hrs.c ****     }
 323:.\Generated_Source\PSoC4/BLE_hrs.c ****     else if((cyBle_hrss.hrmCccdHandle == CYBLE_GATT_INVALID_ATTR_HANDLE_VALUE)
 487              		.loc 1 323 0
 488 0042 0F23     		mov	r3, #15
 489 0044 002B     		cmp	r3, #0
 490 0046 14D0     		beq	.L31
 324:.\Generated_Source\PSoC4/BLE_hrs.c ****                 || (!CYBLE_IS_NOTIFICATION_ENABLED(cyBle_hrss.hrmCccdHandle)))
 491              		.loc 1 324 0
 492 0048 0F23     		mov	r3, #15
 493 004a 5A1E     		sub	r2, r3, #1
 494 004c 2149     		ldr	r1, .L34+4
 495 004e 131C     		mov	r3, r2
 496 0050 9B00     		lsl	r3, r3, #2
 497 0052 9B18     		add	r3, r3, r2
 498 0054 9B00     		lsl	r3, r3, #2
 499 0056 CB18     		add	r3, r1, r3
 500 0058 0833     		add	r3, r3, #8
 501 005a 9B68     		ldr	r3, [r3, #8]
 502 005c 5B68     		ldr	r3, [r3, #4]
 503 005e 181C     		mov	r0, r3
 504 0060 FFF7FEFF 		bl	CyBle_Get16ByPtr
 505 0064 031C     		mov	r3, r0
 506 0066 1A1C     		mov	r2, r3
 507 0068 0123     		mov	r3, #1
 508 006a 1340     		and	r3, r2
 509 006c 9BB2     		uxth	r3, r3
 510 006e 002B     		cmp	r3, #0
 511 0070 05D1     		bne	.L32
 512              	.L31:
 325:.\Generated_Source\PSoC4/BLE_hrs.c ****     {
 326:.\Generated_Source\PSoC4/BLE_hrs.c ****         apiResult = CYBLE_ERROR_NTF_DISABLED;
 513              		.loc 1 326 0
 514 0072 3B1C     		mov	r3, r7
 515 0074 1E33     		add	r3, r3, #30
 516 0076 8022     		mov	r2, #128
 517 0078 5200     		lsl	r2, r2, #1
 518 007a 1A80     		strh	r2, [r3]
 519 007c 20E0     		b	.L29
 520              	.L32:
 327:.\Generated_Source\PSoC4/BLE_hrs.c ****     }
 328:.\Generated_Source\PSoC4/BLE_hrs.c ****     else
 329:.\Generated_Source\PSoC4/BLE_hrs.c ****     {
 330:.\Generated_Source\PSoC4/BLE_hrs.c ****         /* Fill all fields of write request structure ... */
 331:.\Generated_Source\PSoC4/BLE_hrs.c ****         ntfReqParam.attrHandle = cyBle_hrss.charHandle[charIndex]; 
 521              		.loc 1 331 0
 522 007e 3B1C     		mov	r3, r7
 523 0080 0B33     		add	r3, r3, #11
 524 0082 1B78     		ldrb	r3, [r3]
ARM GAS  C:\Users\KEVINH~1\AppData\Local\Temp\ccPbMdcC.s 			page 16


 525 0084 144A     		ldr	r2, .L34+8
 526 0086 5B00     		lsl	r3, r3, #1
 527 0088 D318     		add	r3, r2, r3
 528 008a 5A88     		ldrh	r2, [r3, #2]
 529 008c 3B1C     		mov	r3, r7
 530 008e 1033     		add	r3, r3, #16
 531 0090 1A81     		strh	r2, [r3, #8]
 332:.\Generated_Source\PSoC4/BLE_hrs.c ****         ntfReqParam.value.val = attrValue;
 532              		.loc 1 332 0
 533 0092 3B1C     		mov	r3, r7
 534 0094 1033     		add	r3, r3, #16
 535 0096 7A68     		ldr	r2, [r7, #4]
 536 0098 1A60     		str	r2, [r3]
 333:.\Generated_Source\PSoC4/BLE_hrs.c ****         ntfReqParam.value.len = attrSize;
 537              		.loc 1 333 0
 538 009a 3B1C     		mov	r3, r7
 539 009c 0A33     		add	r3, r3, #10
 540 009e 1B78     		ldrb	r3, [r3]
 541 00a0 9AB2     		uxth	r2, r3
 542 00a2 3B1C     		mov	r3, r7
 543 00a4 1033     		add	r3, r3, #16
 544 00a6 9A80     		strh	r2, [r3, #4]
 334:.\Generated_Source\PSoC4/BLE_hrs.c ****         
 335:.\Generated_Source\PSoC4/BLE_hrs.c ****         /* Send notification to client using previously filled structure */
 336:.\Generated_Source\PSoC4/BLE_hrs.c ****         apiResult = CyBle_GattsNotification(connHandle, &ntfReqParam);
 545              		.loc 1 336 0
 546 00a8 3C1C     		mov	r4, r7
 547 00aa 1E34     		add	r4, r4, #30
 548 00ac 3B1C     		mov	r3, r7
 549 00ae 0C33     		add	r3, r3, #12
 550 00b0 3A1C     		mov	r2, r7
 551 00b2 1032     		add	r2, r2, #16
 552 00b4 1868     		ldr	r0, [r3]
 553 00b6 111C     		mov	r1, r2
 554 00b8 FFF7FEFF 		bl	CyBle_GattsNotification
 555 00bc 031C     		mov	r3, r0
 556 00be 2380     		strh	r3, [r4]
 557              	.L29:
 337:.\Generated_Source\PSoC4/BLE_hrs.c ****     }
 338:.\Generated_Source\PSoC4/BLE_hrs.c **** 
 339:.\Generated_Source\PSoC4/BLE_hrs.c ****     return (apiResult);
 558              		.loc 1 339 0
 559 00c0 3B1C     		mov	r3, r7
 560 00c2 1E33     		add	r3, r3, #30
 561 00c4 1B88     		ldrh	r3, [r3]
 340:.\Generated_Source\PSoC4/BLE_hrs.c **** }
 562              		.loc 1 340 0
 563 00c6 181C     		mov	r0, r3
 564 00c8 BD46     		mov	sp, r7
 565 00ca 09B0     		add	sp, sp, #36
 566              		@ sp needed
 567 00cc 90BD     		pop	{r4, r7, pc}
 568              	.L35:
 569 00ce C046     		.align	2
 570              	.L34:
 571 00d0 00000000 		.word	cyBle_state
 572 00d4 00000000 		.word	cyBle_gattDB
ARM GAS  C:\Users\KEVINH~1\AppData\Local\Temp\ccPbMdcC.s 			page 17


 573 00d8 00000000 		.word	cyBle_hrss
 574              		.cfi_endproc
 575              	.LFE7:
 576              		.size	CyBle_HrssSendNotification, .-CyBle_HrssSendNotification
 577              		.section	.text.CyBle_HrssWriteEventHandler,"ax",%progbits
 578              		.align	2
 579              		.global	CyBle_HrssWriteEventHandler
 580              		.code	16
 581              		.thumb_func
 582              		.type	CyBle_HrssWriteEventHandler, %function
 583              	CyBle_HrssWriteEventHandler:
 584              	.LFB8:
 341:.\Generated_Source\PSoC4/BLE_hrs.c **** 
 342:.\Generated_Source\PSoC4/BLE_hrs.c **** 
 343:.\Generated_Source\PSoC4/BLE_hrs.c **** /****************************************************************************** 
 344:.\Generated_Source\PSoC4/BLE_hrs.c **** ##Function Name: CyBle_HrssWriteEventHandler
 345:.\Generated_Source\PSoC4/BLE_hrs.c **** *******************************************************************************
 346:.\Generated_Source\PSoC4/BLE_hrs.c **** 
 347:.\Generated_Source\PSoC4/BLE_hrs.c **** Summary:
 348:.\Generated_Source\PSoC4/BLE_hrs.c ****  Handles the Heart Rate Measurement Client Configuration Characteristic
 349:.\Generated_Source\PSoC4/BLE_hrs.c ****  Descriptor Write Event or Control Point Characteristic Write Event.
 350:.\Generated_Source\PSoC4/BLE_hrs.c **** 
 351:.\Generated_Source\PSoC4/BLE_hrs.c **** Parameters:
 352:.\Generated_Source\PSoC4/BLE_hrs.c ****  void *eventParam: The pointer to the data structure specified by the event.
 353:.\Generated_Source\PSoC4/BLE_hrs.c **** 
 354:.\Generated_Source\PSoC4/BLE_hrs.c **** Return:
 355:.\Generated_Source\PSoC4/BLE_hrs.c ****  None
 356:.\Generated_Source\PSoC4/BLE_hrs.c **** 
 357:.\Generated_Source\PSoC4/BLE_hrs.c **** ******************************************************************************/
 358:.\Generated_Source\PSoC4/BLE_hrs.c **** CYBLE_GATT_ERR_CODE_T CyBle_HrssWriteEventHandler(CYBLE_GATTS_WRITE_REQ_PARAM_T *eventParam)
 359:.\Generated_Source\PSoC4/BLE_hrs.c **** {
 585              		.loc 1 359 0
 586              		.cfi_startproc
 587 0000 90B5     		push	{r4, r7, lr}
 588              		.cfi_def_cfa_offset 12
 589              		.cfi_offset 4, -12
 590              		.cfi_offset 7, -8
 591              		.cfi_offset 14, -4
 592 0002 87B0     		sub	sp, sp, #28
 593              		.cfi_def_cfa_offset 40
 594 0004 00AF     		add	r7, sp, #0
 595              		.cfi_def_cfa_register 7
 596 0006 7860     		str	r0, [r7, #4]
 360:.\Generated_Source\PSoC4/BLE_hrs.c ****     uint32 eventCode = 0u;
 597              		.loc 1 360 0
 598 0008 0023     		mov	r3, #0
 599 000a 7B61     		str	r3, [r7, #20]
 361:.\Generated_Source\PSoC4/BLE_hrs.c ****     CYBLE_GATT_ERR_CODE_T gattErr = CYBLE_GATT_ERR_NONE;
 600              		.loc 1 361 0
 601 000c 3B1C     		mov	r3, r7
 602 000e 1333     		add	r3, r3, #19
 603 0010 0022     		mov	r2, #0
 604 0012 1A70     		strb	r2, [r3]
 362:.\Generated_Source\PSoC4/BLE_hrs.c ****     CYBLE_HRS_CHAR_VALUE_T locCharIndex;
 363:.\Generated_Source\PSoC4/BLE_hrs.c **** 
 364:.\Generated_Source\PSoC4/BLE_hrs.c ****     locCharIndex.connHandle = eventParam->connHandle;
 605              		.loc 1 364 0
ARM GAS  C:\Users\KEVINH~1\AppData\Local\Temp\ccPbMdcC.s 			page 18


 606 0014 3B1C     		mov	r3, r7
 607 0016 0833     		add	r3, r3, #8
 608 0018 7A68     		ldr	r2, [r7, #4]
 609 001a 1288     		ldrh	r2, [r2]
 610 001c 1A80     		strh	r2, [r3]
 365:.\Generated_Source\PSoC4/BLE_hrs.c ****     locCharIndex.value = NULL;
 611              		.loc 1 365 0
 612 001e 3B1C     		mov	r3, r7
 613 0020 0833     		add	r3, r3, #8
 614 0022 0022     		mov	r2, #0
 615 0024 5A60     		str	r2, [r3, #4]
 366:.\Generated_Source\PSoC4/BLE_hrs.c ****     
 367:.\Generated_Source\PSoC4/BLE_hrs.c ****     if(eventParam->handleValPair.attrHandle == cyBle_hrss.hrmCccdHandle)
 616              		.loc 1 367 0
 617 0026 7B68     		ldr	r3, [r7, #4]
 618 0028 9A89     		ldrh	r2, [r3, #12]
 619 002a 0F23     		mov	r3, #15
 620 002c 9A42     		cmp	r2, r3
 621 002e 1FD1     		bne	.L37
 368:.\Generated_Source\PSoC4/BLE_hrs.c ****     {
 369:.\Generated_Source\PSoC4/BLE_hrs.c ****         locCharIndex.charIndex = CYBLE_HRS_HRM;
 622              		.loc 1 369 0
 623 0030 3B1C     		mov	r3, r7
 624 0032 0833     		add	r3, r3, #8
 625 0034 0022     		mov	r2, #0
 626 0036 9A70     		strb	r2, [r3, #2]
 370:.\Generated_Source\PSoC4/BLE_hrs.c ****         /* Heart Rate Measurement characteristic descriptor write request */
 371:.\Generated_Source\PSoC4/BLE_hrs.c ****         if(CYBLE_IS_NOTIFICATION_ENABLED_IN_PTR(eventParam->handleValPair.value.val))
 627              		.loc 1 371 0
 628 0038 7B68     		ldr	r3, [r7, #4]
 629 003a 5B68     		ldr	r3, [r3, #4]
 630 003c 181C     		mov	r0, r3
 631 003e FFF7FEFF 		bl	CyBle_Get16ByPtr
 632 0042 031C     		mov	r3, r0
 633 0044 1A1C     		mov	r2, r3
 634 0046 0123     		mov	r3, #1
 635 0048 1340     		and	r3, r2
 636 004a 9BB2     		uxth	r3, r3
 637 004c 002B     		cmp	r3, #0
 638 004e 03D0     		beq	.L38
 372:.\Generated_Source\PSoC4/BLE_hrs.c ****         {
 373:.\Generated_Source\PSoC4/BLE_hrs.c ****             eventCode = (uint32)CYBLE_EVT_HRSS_NOTIFICATION_ENABLED;
 639              		.loc 1 373 0
 640 0050 CA23     		mov	r3, #202
 641 0052 5B00     		lsl	r3, r3, #1
 642 0054 7B61     		str	r3, [r7, #20]
 643 0056 02E0     		b	.L39
 644              	.L38:
 374:.\Generated_Source\PSoC4/BLE_hrs.c ****         }
 375:.\Generated_Source\PSoC4/BLE_hrs.c ****         else
 376:.\Generated_Source\PSoC4/BLE_hrs.c ****         {
 377:.\Generated_Source\PSoC4/BLE_hrs.c ****             eventCode = (uint32)CYBLE_EVT_HRSS_NOTIFICATION_DISABLED;
 645              		.loc 1 377 0
 646 0058 9623     		mov	r3, #150
 647 005a FF33     		add	r3, r3, #255
 648 005c 7B61     		str	r3, [r7, #20]
 649              	.L39:
ARM GAS  C:\Users\KEVINH~1\AppData\Local\Temp\ccPbMdcC.s 			page 19


 378:.\Generated_Source\PSoC4/BLE_hrs.c ****         }
 379:.\Generated_Source\PSoC4/BLE_hrs.c ****     #if((CYBLE_GAP_ROLE_PERIPHERAL || CYBLE_GAP_ROLE_CENTRAL) && (CYBLE_BONDING_REQUIREMENT == CYBL
 380:.\Generated_Source\PSoC4/BLE_hrs.c ****         /* Set flag to store bonding data to flash */
 381:.\Generated_Source\PSoC4/BLE_hrs.c ****         cyBle_pendingFlashWrite |= CYBLE_PENDING_CCCD_FLASH_WRITE_BIT;
 382:.\Generated_Source\PSoC4/BLE_hrs.c ****     #endif /* (CYBLE_BONDING_REQUIREMENT == CYBLE_BONDING_YES) */
 383:.\Generated_Source\PSoC4/BLE_hrs.c ****         
 384:.\Generated_Source\PSoC4/BLE_hrs.c ****         cyBle_eventHandlerFlag &= (uint8)~CYBLE_CALLBACK;
 650              		.loc 1 384 0 discriminator 1
 651 005e 2B4B     		ldr	r3, .L46
 652 0060 1B78     		ldrb	r3, [r3]
 653 0062 DBB2     		uxtb	r3, r3
 654 0064 0122     		mov	r2, #1
 655 0066 9343     		bic	r3, r2
 656 0068 DAB2     		uxtb	r2, r3
 657 006a 284B     		ldr	r3, .L46
 658 006c 1A70     		strb	r2, [r3]
 659 006e 1DE0     		b	.L40
 660              	.L37:
 385:.\Generated_Source\PSoC4/BLE_hrs.c ****     }
 386:.\Generated_Source\PSoC4/BLE_hrs.c ****     else if(eventParam->handleValPair.attrHandle == cyBle_hrss.charHandle[CYBLE_HRS_CPT])
 661              		.loc 1 386 0
 662 0070 7B68     		ldr	r3, [r7, #4]
 663 0072 9A89     		ldrh	r2, [r3, #12]
 664 0074 1323     		mov	r3, #19
 665 0076 9A42     		cmp	r2, r3
 666 0078 18D1     		bne	.L40
 387:.\Generated_Source\PSoC4/BLE_hrs.c ****     {
 388:.\Generated_Source\PSoC4/BLE_hrs.c ****         locCharIndex.charIndex = CYBLE_HRS_CPT;
 667              		.loc 1 388 0
 668 007a 3B1C     		mov	r3, r7
 669 007c 0833     		add	r3, r3, #8
 670 007e 0222     		mov	r2, #2
 671 0080 9A70     		strb	r2, [r3, #2]
 389:.\Generated_Source\PSoC4/BLE_hrs.c ****         /* Heart Rate Control Point characteristic write request */
 390:.\Generated_Source\PSoC4/BLE_hrs.c ****         if(CYBLE_HRS_RESET_ENERGY_EXPENDED == eventParam->handleValPair.value.val[0u])
 672              		.loc 1 390 0
 673 0082 7B68     		ldr	r3, [r7, #4]
 674 0084 5B68     		ldr	r3, [r3, #4]
 675 0086 1B78     		ldrb	r3, [r3]
 676 0088 012B     		cmp	r3, #1
 677 008a 03D1     		bne	.L41
 391:.\Generated_Source\PSoC4/BLE_hrs.c ****         {
 392:.\Generated_Source\PSoC4/BLE_hrs.c ****             eventCode = (uint32)CYBLE_EVT_HRSS_ENERGY_EXPENDED_RESET;
 678              		.loc 1 392 0
 679 008c 9423     		mov	r3, #148
 680 008e FF33     		add	r3, r3, #255
 681 0090 7B61     		str	r3, [r7, #20]
 682 0092 03E0     		b	.L42
 683              	.L41:
 393:.\Generated_Source\PSoC4/BLE_hrs.c ****         }
 394:.\Generated_Source\PSoC4/BLE_hrs.c ****         else
 395:.\Generated_Source\PSoC4/BLE_hrs.c ****         {
 396:.\Generated_Source\PSoC4/BLE_hrs.c ****             gattErr = CYBLE_GATT_ERR_HEART_RATE_CONTROL_POINT_NOT_SUPPORTED;
 684              		.loc 1 396 0
 685 0094 3B1C     		mov	r3, r7
 686 0096 1333     		add	r3, r3, #19
 687 0098 8022     		mov	r2, #128
ARM GAS  C:\Users\KEVINH~1\AppData\Local\Temp\ccPbMdcC.s 			page 20


 688 009a 1A70     		strb	r2, [r3]
 689              	.L42:
 397:.\Generated_Source\PSoC4/BLE_hrs.c ****         }
 398:.\Generated_Source\PSoC4/BLE_hrs.c ****         
 399:.\Generated_Source\PSoC4/BLE_hrs.c ****         cyBle_eventHandlerFlag &= (uint8)~CYBLE_CALLBACK;
 690              		.loc 1 399 0 discriminator 2
 691 009c 1B4B     		ldr	r3, .L46
 692 009e 1B78     		ldrb	r3, [r3]
 693 00a0 DBB2     		uxtb	r3, r3
 694 00a2 0122     		mov	r2, #1
 695 00a4 9343     		bic	r3, r2
 696 00a6 DAB2     		uxtb	r2, r3
 697 00a8 184B     		ldr	r3, .L46
 698 00aa 1A70     		strb	r2, [r3]
 699              	.L40:
 400:.\Generated_Source\PSoC4/BLE_hrs.c ****     }
 401:.\Generated_Source\PSoC4/BLE_hrs.c ****     else
 402:.\Generated_Source\PSoC4/BLE_hrs.c ****     {
 403:.\Generated_Source\PSoC4/BLE_hrs.c ****         /* Heart Rate Service doesn't support any other write requests */
 404:.\Generated_Source\PSoC4/BLE_hrs.c ****     }
 405:.\Generated_Source\PSoC4/BLE_hrs.c **** 
 406:.\Generated_Source\PSoC4/BLE_hrs.c ****     if(0u != eventCode)
 700              		.loc 1 406 0
 701 00ac 7B69     		ldr	r3, [r7, #20]
 702 00ae 002B     		cmp	r3, #0
 703 00b0 24D0     		beq	.L43
 407:.\Generated_Source\PSoC4/BLE_hrs.c ****     {
 408:.\Generated_Source\PSoC4/BLE_hrs.c ****         gattErr = CyBle_GattsWriteAttributeValue(&eventParam->handleValPair, 0u, 
 704              		.loc 1 408 0
 705 00b2 7B68     		ldr	r3, [r7, #4]
 706 00b4 1A1D     		add	r2, r3, #4
 707 00b6 7B68     		ldr	r3, [r7, #4]
 708 00b8 3C1C     		mov	r4, r7
 709 00ba 1334     		add	r4, r4, #19
 710 00bc 101C     		mov	r0, r2
 711 00be 0021     		mov	r1, #0
 712 00c0 1A1C     		mov	r2, r3
 713 00c2 4023     		mov	r3, #64
 714 00c4 FFF7FEFF 		bl	CyBle_GattsWriteAttributeValue
 715 00c8 031C     		mov	r3, r0
 716 00ca 2370     		strb	r3, [r4]
 409:.\Generated_Source\PSoC4/BLE_hrs.c ****                     &eventParam->connHandle, CYBLE_GATT_DB_PEER_INITIATED);
 410:.\Generated_Source\PSoC4/BLE_hrs.c ****         
 411:.\Generated_Source\PSoC4/BLE_hrs.c ****         if(CYBLE_GATT_ERR_NONE == gattErr)
 717              		.loc 1 411 0
 718 00cc 3B1C     		mov	r3, r7
 719 00ce 1333     		add	r3, r3, #19
 720 00d0 1B78     		ldrb	r3, [r3]
 721 00d2 002B     		cmp	r3, #0
 722 00d4 12D1     		bne	.L43
 412:.\Generated_Source\PSoC4/BLE_hrs.c ****         {
 413:.\Generated_Source\PSoC4/BLE_hrs.c ****             if(NULL != CyBle_HrsApplCallback)
 723              		.loc 1 413 0
 724 00d6 0E4B     		ldr	r3, .L46+4
 725 00d8 1B68     		ldr	r3, [r3]
 726 00da 002B     		cmp	r3, #0
 727 00dc 08D0     		beq	.L44
ARM GAS  C:\Users\KEVINH~1\AppData\Local\Temp\ccPbMdcC.s 			page 21


 414:.\Generated_Source\PSoC4/BLE_hrs.c ****             {
 415:.\Generated_Source\PSoC4/BLE_hrs.c ****                 CyBle_HrsApplCallback(eventCode, &locCharIndex);
 728              		.loc 1 415 0
 729 00de 0C4B     		ldr	r3, .L46+4
 730 00e0 1B68     		ldr	r3, [r3]
 731 00e2 7969     		ldr	r1, [r7, #20]
 732 00e4 3A1C     		mov	r2, r7
 733 00e6 0832     		add	r2, r2, #8
 734 00e8 081C     		mov	r0, r1
 735 00ea 111C     		mov	r1, r2
 736 00ec 9847     		blx	r3
 737 00ee 05E0     		b	.L43
 738              	.L44:
 416:.\Generated_Source\PSoC4/BLE_hrs.c ****             }
 417:.\Generated_Source\PSoC4/BLE_hrs.c ****             else
 418:.\Generated_Source\PSoC4/BLE_hrs.c ****             {
 419:.\Generated_Source\PSoC4/BLE_hrs.c ****                 CyBle_ApplCallback(CYBLE_EVT_GATTS_WRITE_REQ, eventParam);
 739              		.loc 1 419 0
 740 00f0 084B     		ldr	r3, .L46+8
 741 00f2 1B68     		ldr	r3, [r3]
 742 00f4 7A68     		ldr	r2, [r7, #4]
 743 00f6 4C20     		mov	r0, #76
 744 00f8 111C     		mov	r1, r2
 745 00fa 9847     		blx	r3
 746              	.L43:
 420:.\Generated_Source\PSoC4/BLE_hrs.c ****             }
 421:.\Generated_Source\PSoC4/BLE_hrs.c ****         }
 422:.\Generated_Source\PSoC4/BLE_hrs.c ****     }
 423:.\Generated_Source\PSoC4/BLE_hrs.c **** 
 424:.\Generated_Source\PSoC4/BLE_hrs.c ****     return (gattErr);
 747              		.loc 1 424 0
 748 00fc 3B1C     		mov	r3, r7
 749 00fe 1333     		add	r3, r3, #19
 750 0100 1B78     		ldrb	r3, [r3]
 425:.\Generated_Source\PSoC4/BLE_hrs.c **** }
 751              		.loc 1 425 0
 752 0102 181C     		mov	r0, r3
 753 0104 BD46     		mov	sp, r7
 754 0106 07B0     		add	sp, sp, #28
 755              		@ sp needed
 756 0108 90BD     		pop	{r4, r7, pc}
 757              	.L47:
 758 010a C046     		.align	2
 759              	.L46:
 760 010c 00000000 		.word	cyBle_eventHandlerFlag
 761 0110 00000000 		.word	CyBle_HrsApplCallback
 762 0114 00000000 		.word	CyBle_ApplCallback
 763              		.cfi_endproc
 764              	.LFE8:
 765              		.size	CyBle_HrssWriteEventHandler, .-CyBle_HrssWriteEventHandler
 766              		.text
 767              	.Letext0:
 768              		.file 2 ".\\Generated_Source\\PSoC4\\cytypes.h"
 769              		.file 3 ".\\Generated_Source\\PSoC4\\BLE_Stack.h"
 770              		.file 4 ".\\Generated_Source\\PSoC4\\BLE_StackGatt.h"
 771              		.file 5 ".\\Generated_Source\\PSoC4\\BLE_StackGattServer.h"
 772              		.file 6 ".\\Generated_Source\\PSoC4\\BLE_StackGattDb.h"
ARM GAS  C:\Users\KEVINH~1\AppData\Local\Temp\ccPbMdcC.s 			page 22


 773              		.file 7 ".\\Generated_Source\\PSoC4\\BLE.h"
 774              		.file 8 ".\\Generated_Source\\PSoC4\\BLE_dis.h"
 775              		.file 9 ".\\Generated_Source\\PSoC4\\BLE_hrs.h"
 776              		.file 10 ".\\Generated_Source\\PSoC4\\BLE_eventHandler.h"
 777              		.file 11 ".\\Generated_Source\\PSoC4\\BLE_gatt.h"