ARM GAS  C:\Users\KEVINH~1\AppData\Local\Temp\ccwJsVAk.s 			page 1


   1              		.cpu cortex-m0
   2              		.fpu softvfp
   3              		.eabi_attribute 20, 1
   4              		.eabi_attribute 21, 1
   5              		.eabi_attribute 23, 3
   6              		.eabi_attribute 24, 1
   7              		.eabi_attribute 25, 1
   8              		.eabi_attribute 26, 1
   9              		.eabi_attribute 30, 1
  10              		.eabi_attribute 34, 0
  11              		.eabi_attribute 18, 4
  12              		.code	16
  13              		.file	"BLE.c"
  14              		.text
  15              	.Ltext0:
  16              		.cfi_sections	.debug_frame
  17              		.section	.text.CyBle_ChangeAdLocalName,"ax",%progbits
  18              		.align	2
  19              		.code	16
  20              		.thumb_func
  21              		.type	CyBle_ChangeAdLocalName, %function
  22              	CyBle_ChangeAdLocalName:
  23              	.LFB9:
  24              		.file 1 ".\\Generated_Source\\PSoC4\\BLE.c"
   1:.\Generated_Source\PSoC4/BLE.c **** /*******************************************************************************
   2:.\Generated_Source\PSoC4/BLE.c **** File Name: CYBLE.c
   3:.\Generated_Source\PSoC4/BLE.c **** Version 2.0
   4:.\Generated_Source\PSoC4/BLE.c **** 
   5:.\Generated_Source\PSoC4/BLE.c **** Description:
   6:.\Generated_Source\PSoC4/BLE.c ****  This file contains the source code for the Common APIs of the BLE Component.
   7:.\Generated_Source\PSoC4/BLE.c **** 
   8:.\Generated_Source\PSoC4/BLE.c **** ********************************************************************************
   9:.\Generated_Source\PSoC4/BLE.c **** Copyright 2014-2015, Cypress Semiconductor Corporation.  All rights reserved.
  10:.\Generated_Source\PSoC4/BLE.c **** You may use this file only in accordance with the license, terms, conditions,
  11:.\Generated_Source\PSoC4/BLE.c **** disclaimers, and limitations in the end user license agreement accompanying
  12:.\Generated_Source\PSoC4/BLE.c **** the software package with which this file was provided.
  13:.\Generated_Source\PSoC4/BLE.c **** *******************************************************************************/
  14:.\Generated_Source\PSoC4/BLE.c **** 
  15:.\Generated_Source\PSoC4/BLE.c **** #include "BLE_eventHandler.h"
  16:.\Generated_Source\PSoC4/BLE.c **** #include "BLE_HAL_PVT.h"
  17:.\Generated_Source\PSoC4/BLE.c **** 
  18:.\Generated_Source\PSoC4/BLE.c **** 
  19:.\Generated_Source\PSoC4/BLE.c **** /***************************************
  20:.\Generated_Source\PSoC4/BLE.c **** ##Function Prototypes
  21:.\Generated_Source\PSoC4/BLE.c **** ***************************************/
  22:.\Generated_Source\PSoC4/BLE.c **** 
  23:.\Generated_Source\PSoC4/BLE.c **** #if(CYBLE_GATT_ROLE_SERVER)
  24:.\Generated_Source\PSoC4/BLE.c ****     #if(CYBLE_GAP_ROLE_PERIPHERAL)
  25:.\Generated_Source\PSoC4/BLE.c ****         static void CyBle_ChangeAdLocalName(const char8 name[], uint8 dest);
  26:.\Generated_Source\PSoC4/BLE.c ****     #endif /* (CYBLE_GAP_ROLE_PERIPHERAL) */
  27:.\Generated_Source\PSoC4/BLE.c **** #endif /* (CYBLE_GATT_ROLE_SERVER) */
  28:.\Generated_Source\PSoC4/BLE.c ****     
  29:.\Generated_Source\PSoC4/BLE.c **** 
  30:.\Generated_Source\PSoC4/BLE.c **** /***************************************
  31:.\Generated_Source\PSoC4/BLE.c **** ##Global Variables
  32:.\Generated_Source\PSoC4/BLE.c **** ***************************************/
  33:.\Generated_Source\PSoC4/BLE.c **** 
ARM GAS  C:\Users\KEVINH~1\AppData\Local\Temp\ccwJsVAk.s 			page 2


  34:.\Generated_Source\PSoC4/BLE.c **** /* Indicates whether the BLE has been initialized. The variable is initialized to
  35:.\Generated_Source\PSoC4/BLE.c ****    0 and set to 1 the first time CyBle_Start() is called. This allows the component
  36:.\Generated_Source\PSoC4/BLE.c ****    to restart without reinitialization after the first call to the CyBle_Start() 
  37:.\Generated_Source\PSoC4/BLE.c ****    routine. If reinitialization of the component is required, the variable should 
  38:.\Generated_Source\PSoC4/BLE.c ****    be set to 0 before the CyBle_Start() routine is called. Alternatively, the BLE
  39:.\Generated_Source\PSoC4/BLE.c ****    can be reinitialized by calling the CyBle_Init() function.
  40:.\Generated_Source\PSoC4/BLE.c **** */
  41:.\Generated_Source\PSoC4/BLE.c **** uint8  cyBle_initVar = 0u;
  42:.\Generated_Source\PSoC4/BLE.c **** 
  43:.\Generated_Source\PSoC4/BLE.c **** /* Allocate RAM memory for stack. This buffer could be reused by application when 
  44:.\Generated_Source\PSoC4/BLE.c ****    BLE component is stopped. 
  45:.\Generated_Source\PSoC4/BLE.c **** */
  46:.\Generated_Source\PSoC4/BLE.c **** CYBLE_CYALIGNED_BEGIN uint8 cyBle_stackMemoryRam[CYBLE_STACK_RAM_SIZE] CYBLE_CYALIGNED_END;
  47:.\Generated_Source\PSoC4/BLE.c **** 
  48:.\Generated_Source\PSoC4/BLE.c **** #if(CYBLE_GAP_ROLE_PERIPHERAL || CYBLE_GAP_ROLE_BROADCASTER)
  49:.\Generated_Source\PSoC4/BLE.c **** 
  50:.\Generated_Source\PSoC4/BLE.c **** CYBLE_GAPP_DISC_PARAM_T cyBle_discoveryParam =
  51:.\Generated_Source\PSoC4/BLE.c **** {
  52:.\Generated_Source\PSoC4/BLE.c ****     0x0020u,    /* uint16 advertising_interval_min */
  53:.\Generated_Source\PSoC4/BLE.c ****     0x0030u,    /* uint16 advertising_interval_max */
  54:.\Generated_Source\PSoC4/BLE.c ****     CYBLE_GAPP_CONNECTABLE_UNDIRECTED_ADV, /* uint8 advertising_type */
  55:.\Generated_Source\PSoC4/BLE.c ****     0x00u,      /* uint8 own_addr_type */
  56:.\Generated_Source\PSoC4/BLE.c ****     0x00u,      /* uint8 direct_addr_type */
  57:.\Generated_Source\PSoC4/BLE.c ****     {0x00u, 0x00u, 0x00u, 0x50u, 0xA0u, 0x00u}, /* uint8* direct_addr */
  58:.\Generated_Source\PSoC4/BLE.c ****     0x07u,      /* uint8 advertising_channel_map */
  59:.\Generated_Source\PSoC4/BLE.c ****     0x00u,      /* uint8 advertising_filter_policy */
  60:.\Generated_Source\PSoC4/BLE.c **** };
  61:.\Generated_Source\PSoC4/BLE.c **** 
  62:.\Generated_Source\PSoC4/BLE.c **** CYBLE_GAPP_DISC_DATA_T cyBle_discoveryData =
  63:.\Generated_Source\PSoC4/BLE.c **** {
  64:.\Generated_Source\PSoC4/BLE.c ****     { 0x02u, 0x01u, 0x06u, 0x0Au, 0x09u, 0x42u, 0x4Cu,
  65:.\Generated_Source\PSoC4/BLE.c ****     0x45u, 0x20u, 0x4Cu, 0x61u, 0x62u, 0x20u, 0x34u, 0x00u,
  66:.\Generated_Source\PSoC4/BLE.c ****     0x00u, 0x00u, 0x00u, 0x00u, 0x00u, 0x00u, 0x00u, 0x00u,
  67:.\Generated_Source\PSoC4/BLE.c ****     0x00u, 0x00u, 0x00u, 0x00u, 0x00u, 0x00u, 0x00u, 0x00u }, /* uint8 advertising_data[CYBLE_MAX_A
  68:.\Generated_Source\PSoC4/BLE.c ****     0x0Eu,      /* uint8 adv_data_length */
  69:.\Generated_Source\PSoC4/BLE.c **** };
  70:.\Generated_Source\PSoC4/BLE.c **** 
  71:.\Generated_Source\PSoC4/BLE.c **** CYBLE_GAPP_SCAN_RSP_DATA_T cyBle_scanRspData =
  72:.\Generated_Source\PSoC4/BLE.c **** {
  73:.\Generated_Source\PSoC4/BLE.c ****     { 0x00u, 0x00u, 0x00u, 0x00u, 0x00u, 0x00u, 0x00u,
  74:.\Generated_Source\PSoC4/BLE.c ****     0x00u, 0x00u, 0x00u, 0x00u, 0x00u, 0x00u, 0x00u, 0x00u,
  75:.\Generated_Source\PSoC4/BLE.c ****     0x00u, 0x00u, 0x00u, 0x00u, 0x00u, 0x00u, 0x00u, 0x00u,
  76:.\Generated_Source\PSoC4/BLE.c ****     0x00u, 0x00u, 0x00u, 0x00u, 0x00u, 0x00u, 0x00u, 0x00u }, /* uint8 scan_rsp_data[CYBLE_MAX_SCAN
  77:.\Generated_Source\PSoC4/BLE.c ****     0x00u,      /* uint8 scan_rsp_data_length */
  78:.\Generated_Source\PSoC4/BLE.c **** };
  79:.\Generated_Source\PSoC4/BLE.c **** 
  80:.\Generated_Source\PSoC4/BLE.c **** /* This variable of type CYBLE_GAPP_DISC_MODE_INFO_T is present only when 
  81:.\Generated_Source\PSoC4/BLE.c ****    the BLE component is configured for Peripheral GAP role or Central and 
  82:.\Generated_Source\PSoC4/BLE.c ****    Peripheral GAP role. It contains the Advertisement settings and also the 
  83:.\Generated_Source\PSoC4/BLE.c ****    Advertisement and Scan response data parameters entered in the customizer.
  84:.\Generated_Source\PSoC4/BLE.c ****    This variable can be used by advanced users to change Advertisement settings,
  85:.\Generated_Source\PSoC4/BLE.c ****    Advertisement or Scan response data in runtime. 
  86:.\Generated_Source\PSoC4/BLE.c **** */
  87:.\Generated_Source\PSoC4/BLE.c **** CYBLE_GAPP_DISC_MODE_INFO_T cyBle_discoveryModeInfo =
  88:.\Generated_Source\PSoC4/BLE.c **** {
  89:.\Generated_Source\PSoC4/BLE.c ****     0x02u,      /* uint8 discMode */
  90:.\Generated_Source\PSoC4/BLE.c ****     &cyBle_discoveryParam,
ARM GAS  C:\Users\KEVINH~1\AppData\Local\Temp\ccwJsVAk.s 			page 3


  91:.\Generated_Source\PSoC4/BLE.c ****     &cyBle_discoveryData,
  92:.\Generated_Source\PSoC4/BLE.c ****     &cyBle_scanRspData,
  93:.\Generated_Source\PSoC4/BLE.c ****     0x001Eu,    /* uint16 advTo */
  94:.\Generated_Source\PSoC4/BLE.c **** };
  95:.\Generated_Source\PSoC4/BLE.c **** 
  96:.\Generated_Source\PSoC4/BLE.c **** 
  97:.\Generated_Source\PSoC4/BLE.c **** #endif /* CYBLE_GAP_ROLE_PERIPHERAL || CYBLE_GAP_ROLE_BROADCASTER */
  98:.\Generated_Source\PSoC4/BLE.c **** 
  99:.\Generated_Source\PSoC4/BLE.c **** #if(CYBLE_GAP_ROLE_CENTRAL)
 100:.\Generated_Source\PSoC4/BLE.c ****     
 101:.\Generated_Source\PSoC4/BLE.c **** CYBLE_GAPC_CONN_PARAM_T cyBle_connectionParameters;
 102:.\Generated_Source\PSoC4/BLE.c **** 
 103:.\Generated_Source\PSoC4/BLE.c **** /* Connecting timeout is set to 30 seconds in CyBle_Init function. 
 104:.\Generated_Source\PSoC4/BLE.c ****    Not zero value starts timer in CyBle_GapcConnectDevice API.
 105:.\Generated_Source\PSoC4/BLE.c **** */
 106:.\Generated_Source\PSoC4/BLE.c **** uint16 cyBle_connectingTimeout;
 107:.\Generated_Source\PSoC4/BLE.c ****     
 108:.\Generated_Source\PSoC4/BLE.c **** #endif /* CYBLE_GAP_ROLE_CENTRAL */
 109:.\Generated_Source\PSoC4/BLE.c **** 
 110:.\Generated_Source\PSoC4/BLE.c **** #if(CYBLE_GAP_ROLE_CENTRAL || CYBLE_GAP_ROLE_OBSERVER)
 111:.\Generated_Source\PSoC4/BLE.c ****     
 112:.\Generated_Source\PSoC4/BLE.c **** 
 113:.\Generated_Source\PSoC4/BLE.c ****     
 114:.\Generated_Source\PSoC4/BLE.c **** #endif /* CYBLE_GAP_ROLE_CENTRAL || CYBLE_GAP_ROLE_OBSERVER */
 115:.\Generated_Source\PSoC4/BLE.c **** 
 116:.\Generated_Source\PSoC4/BLE.c **** #if((CYBLE_GAP_ROLE_PERIPHERAL || CYBLE_GAP_ROLE_CENTRAL) && (CYBLE_BONDING_REQUIREMENT == CYBLE_BO
 117:.\Generated_Source\PSoC4/BLE.c **** 
 118:.\Generated_Source\PSoC4/BLE.c **** uint8 cyBle_pendingFlashWrite;
 119:.\Generated_Source\PSoC4/BLE.c ****     
 120:.\Generated_Source\PSoC4/BLE.c **** #endif  /* (CYBLE_BONDING_REQUIREMENT == CYBLE_BONDING_YES) */
 121:.\Generated_Source\PSoC4/BLE.c **** 
 122:.\Generated_Source\PSoC4/BLE.c **** CYBLE_CALLBACK_T CyBle_ApplCallback;
 123:.\Generated_Source\PSoC4/BLE.c **** CYBLE_GAP_BD_ADDR_T cyBle_deviceAddress = {{0x00u, 0x00u, 0x00u, 0x50u, 0xA0u, 0x00u}, 0x00u };
 124:.\Generated_Source\PSoC4/BLE.c **** CYBLE_GAP_BD_ADDR_T * cyBle_sflashDeviceAddress = CYBLE_SFLASH_DEVICE_ADDRESS_PTR;
 125:.\Generated_Source\PSoC4/BLE.c **** 
 126:.\Generated_Source\PSoC4/BLE.c **** 
 127:.\Generated_Source\PSoC4/BLE.c **** /******************************************************************************
 128:.\Generated_Source\PSoC4/BLE.c **** ##Function Name: CyBle_Init
 129:.\Generated_Source\PSoC4/BLE.c **** *******************************************************************************
 130:.\Generated_Source\PSoC4/BLE.c ****  Summary:
 131:.\Generated_Source\PSoC4/BLE.c ****   Initializes the component with the parameters set in the customizer.
 132:.\Generated_Source\PSoC4/BLE.c **** 
 133:.\Generated_Source\PSoC4/BLE.c ****  Parameters:
 134:.\Generated_Source\PSoC4/BLE.c ****   None
 135:.\Generated_Source\PSoC4/BLE.c **** 
 136:.\Generated_Source\PSoC4/BLE.c ****  Return:
 137:.\Generated_Source\PSoC4/BLE.c ****   None
 138:.\Generated_Source\PSoC4/BLE.c **** 
 139:.\Generated_Source\PSoC4/BLE.c **** ******************************************************************************/
 140:.\Generated_Source\PSoC4/BLE.c **** void CyBle_Init(void)
 141:.\Generated_Source\PSoC4/BLE.c **** {
 142:.\Generated_Source\PSoC4/BLE.c ****     cyBle_eventHandlerFlag = 0u;
 143:.\Generated_Source\PSoC4/BLE.c ****     cyBle_busyStatus = CYBLE_STACK_STATE_FREE;
 144:.\Generated_Source\PSoC4/BLE.c ****     
 145:.\Generated_Source\PSoC4/BLE.c ****     #if(CYBLE_GAP_ROLE_PERIPHERAL || CYBLE_GAP_ROLE_BROADCASTER) 
 146:.\Generated_Source\PSoC4/BLE.c ****         cyBle_advertisingIntervalType = CYBLE_ADVERTISING_FAST; 
 147:.\Generated_Source\PSoC4/BLE.c ****     #endif /* (CYBLE_GAP_ROLE_PERIPHERAL || CYBLE_GAP_ROLE_BROADCASTER)  */
ARM GAS  C:\Users\KEVINH~1\AppData\Local\Temp\ccwJsVAk.s 			page 4


 148:.\Generated_Source\PSoC4/BLE.c ****     #if(CYBLE_GAP_ROLE_CENTRAL || CYBLE_GAP_ROLE_OBSERVER)
 149:.\Generated_Source\PSoC4/BLE.c ****         cyBle_scanningIntervalType = CYBLE_SCANNING_FAST; 
 150:.\Generated_Source\PSoC4/BLE.c ****     #endif /* (CYBLE_GAP_ROLE_CENTRAL || CYBLE_GAP_ROLE_OBSERVER) */
 151:.\Generated_Source\PSoC4/BLE.c ****         
 152:.\Generated_Source\PSoC4/BLE.c ****     /* Init default connection parameters. 
 153:.\Generated_Source\PSoC4/BLE.c ****        Application may change it before initiating a connection */
 154:.\Generated_Source\PSoC4/BLE.c ****     #if(CYBLE_GAP_ROLE_CENTRAL)
 155:.\Generated_Source\PSoC4/BLE.c ****         cyBle_connectionParameters.scanIntv = cyBle_discoveryInfo.scanIntv;
 156:.\Generated_Source\PSoC4/BLE.c ****         cyBle_connectionParameters.scanWindow = cyBle_discoveryInfo.scanWindow;
 157:.\Generated_Source\PSoC4/BLE.c ****         cyBle_connectionParameters.ownAddrType = cyBle_discoveryInfo.ownAddrType;
 158:.\Generated_Source\PSoC4/BLE.c ****         cyBle_connectionParameters.initiatorFilterPolicy = cyBle_discoveryInfo.scanFilterPolicy;
 159:.\Generated_Source\PSoC4/BLE.c ****         cyBle_connectionParameters.connIntvMin = CYBLE_GAPC_CONNECTION_INTERVAL_MIN;
 160:.\Generated_Source\PSoC4/BLE.c ****         cyBle_connectionParameters.connIntvMax = CYBLE_GAPC_CONNECTION_INTERVAL_MAX;
 161:.\Generated_Source\PSoC4/BLE.c ****         cyBle_connectionParameters.connLatency = CYBLE_GAPC_CONNECTION_SLAVE_LATENCY;
 162:.\Generated_Source\PSoC4/BLE.c ****         cyBle_connectionParameters.supervisionTO = CYBLE_GAPC_CONNECTION_TIME_OUT;
 163:.\Generated_Source\PSoC4/BLE.c ****         cyBle_connectionParameters.minCeLength = 0x0000u;
 164:.\Generated_Source\PSoC4/BLE.c ****         cyBle_connectionParameters.maxCeLength = 0xFFFFu;
 165:.\Generated_Source\PSoC4/BLE.c ****         
 166:.\Generated_Source\PSoC4/BLE.c ****         cyBle_connectingTimeout = CYBLE_GAPC_CONNECTING_TIMEOUT;
 167:.\Generated_Source\PSoC4/BLE.c ****     #endif /* CYBLE_GAP_ROLE_CENTRAL */
 168:.\Generated_Source\PSoC4/BLE.c **** 
 169:.\Generated_Source\PSoC4/BLE.c ****     CyBle_ServiceInit();
 170:.\Generated_Source\PSoC4/BLE.c **** 
 171:.\Generated_Source\PSoC4/BLE.c **** #if((CYBLE_GAP_ROLE_PERIPHERAL || CYBLE_GAP_ROLE_CENTRAL) && (CYBLE_BONDING_REQUIREMENT == CYBLE_BO
 172:.\Generated_Source\PSoC4/BLE.c ****     cyBle_pendingFlashWrite = 0u;
 173:.\Generated_Source\PSoC4/BLE.c **** #endif  /* (CYBLE_BONDING_REQUIREMENT == CYBLE_BONDING_YES) */
 174:.\Generated_Source\PSoC4/BLE.c **** 
 175:.\Generated_Source\PSoC4/BLE.c **** }
 176:.\Generated_Source\PSoC4/BLE.c **** 
 177:.\Generated_Source\PSoC4/BLE.c **** 
 178:.\Generated_Source\PSoC4/BLE.c **** /******************************************************************************
 179:.\Generated_Source\PSoC4/BLE.c **** ##Function Name: CyBle_ServiceInit
 180:.\Generated_Source\PSoC4/BLE.c **** *******************************************************************************
 181:.\Generated_Source\PSoC4/BLE.c **** 
 182:.\Generated_Source\PSoC4/BLE.c **** Summary:
 183:.\Generated_Source\PSoC4/BLE.c ****  Initializes all included services.
 184:.\Generated_Source\PSoC4/BLE.c **** 
 185:.\Generated_Source\PSoC4/BLE.c **** Parameters:
 186:.\Generated_Source\PSoC4/BLE.c ****  None
 187:.\Generated_Source\PSoC4/BLE.c **** 
 188:.\Generated_Source\PSoC4/BLE.c **** Return:
 189:.\Generated_Source\PSoC4/BLE.c ****  None
 190:.\Generated_Source\PSoC4/BLE.c **** 
 191:.\Generated_Source\PSoC4/BLE.c **** ******************************************************************************/
 192:.\Generated_Source\PSoC4/BLE.c **** void CyBle_ServiceInit(void)
 193:.\Generated_Source\PSoC4/BLE.c **** {
 194:.\Generated_Source\PSoC4/BLE.c ****     #if(CYBLE_GATT_ROLE_CLIENT)
 195:.\Generated_Source\PSoC4/BLE.c ****         (void)memset(&cyBle_gapc, 0, sizeof(cyBle_gapc));
 196:.\Generated_Source\PSoC4/BLE.c ****         (void)memset(&cyBle_gattc, 0, sizeof(cyBle_gattc));
 197:.\Generated_Source\PSoC4/BLE.c ****     #endif /* CYBLE_GATT_ROLE_CLIENT */
 198:.\Generated_Source\PSoC4/BLE.c ****     
 199:.\Generated_Source\PSoC4/BLE.c ****     #ifdef CYBLE_ANS
 200:.\Generated_Source\PSoC4/BLE.c ****         CyBle_AnsInit();
 201:.\Generated_Source\PSoC4/BLE.c ****     #endif /* CYBLE_ANS */
 202:.\Generated_Source\PSoC4/BLE.c ****     
 203:.\Generated_Source\PSoC4/BLE.c ****     #ifdef CYBLE_BAS
 204:.\Generated_Source\PSoC4/BLE.c ****         CyBle_BasInit();
ARM GAS  C:\Users\KEVINH~1\AppData\Local\Temp\ccwJsVAk.s 			page 5


 205:.\Generated_Source\PSoC4/BLE.c ****     #endif /* CYBLE_BAS */
 206:.\Generated_Source\PSoC4/BLE.c ****     
 207:.\Generated_Source\PSoC4/BLE.c ****     #ifdef CYBLE_BLS
 208:.\Generated_Source\PSoC4/BLE.c ****         CyBle_BlsInit();
 209:.\Generated_Source\PSoC4/BLE.c ****     #endif /* CYBLE_BLS */
 210:.\Generated_Source\PSoC4/BLE.c ****     
 211:.\Generated_Source\PSoC4/BLE.c ****     #ifdef CYBLE_BMS
 212:.\Generated_Source\PSoC4/BLE.c ****         CyBle_BmsInit();
 213:.\Generated_Source\PSoC4/BLE.c ****     #endif /* CYBLE_BMS */
 214:.\Generated_Source\PSoC4/BLE.c ****     
 215:.\Generated_Source\PSoC4/BLE.c ****     #ifdef CYBLE_CGMS
 216:.\Generated_Source\PSoC4/BLE.c ****         CyBle_CgmsInit();
 217:.\Generated_Source\PSoC4/BLE.c ****     #endif /* CYBLE_CGMS */
 218:.\Generated_Source\PSoC4/BLE.c **** 
 219:.\Generated_Source\PSoC4/BLE.c ****     #ifdef CYBLE_CPS
 220:.\Generated_Source\PSoC4/BLE.c ****         CyBle_CpsInit();
 221:.\Generated_Source\PSoC4/BLE.c ****     #endif /* CYBLE_CPS */
 222:.\Generated_Source\PSoC4/BLE.c **** 
 223:.\Generated_Source\PSoC4/BLE.c ****     #ifdef CYBLE_CSCS
 224:.\Generated_Source\PSoC4/BLE.c ****         CyBle_CscsInit();
 225:.\Generated_Source\PSoC4/BLE.c ****     #endif /* CYBLE_CSCS */
 226:.\Generated_Source\PSoC4/BLE.c ****     
 227:.\Generated_Source\PSoC4/BLE.c ****     #ifdef CYBLE_CTS
 228:.\Generated_Source\PSoC4/BLE.c ****         CyBle_CtsInit();
 229:.\Generated_Source\PSoC4/BLE.c ****     #endif /* CYBLE_CTS */
 230:.\Generated_Source\PSoC4/BLE.c **** 
 231:.\Generated_Source\PSoC4/BLE.c ****     #ifdef CYBLE_DIS
 232:.\Generated_Source\PSoC4/BLE.c ****         CyBle_DisInit();
 233:.\Generated_Source\PSoC4/BLE.c ****     #endif /* CYBLE_DIS */
 234:.\Generated_Source\PSoC4/BLE.c **** 
 235:.\Generated_Source\PSoC4/BLE.c ****     #ifdef CYBLE_ESS
 236:.\Generated_Source\PSoC4/BLE.c ****         CyBle_EssInit();
 237:.\Generated_Source\PSoC4/BLE.c ****     #endif /* CYBLE_ESS */
 238:.\Generated_Source\PSoC4/BLE.c ****     
 239:.\Generated_Source\PSoC4/BLE.c ****     #ifdef CYBLE_GLS
 240:.\Generated_Source\PSoC4/BLE.c ****         CyBle_GlsInit();
 241:.\Generated_Source\PSoC4/BLE.c ****     #endif /* CYBLE_GLS */
 242:.\Generated_Source\PSoC4/BLE.c ****     
 243:.\Generated_Source\PSoC4/BLE.c ****     #ifdef CYBLE_CUSTOM
 244:.\Generated_Source\PSoC4/BLE.c ****         CyBle_CustomInit();
 245:.\Generated_Source\PSoC4/BLE.c ****     #endif /* CYBLE_CUSTOM */
 246:.\Generated_Source\PSoC4/BLE.c **** 
 247:.\Generated_Source\PSoC4/BLE.c ****     #ifdef CYBLE_HIDS
 248:.\Generated_Source\PSoC4/BLE.c ****         CyBle_HidsInit();
 249:.\Generated_Source\PSoC4/BLE.c ****     #endif /* CYBLE_HIDS */
 250:.\Generated_Source\PSoC4/BLE.c **** 
 251:.\Generated_Source\PSoC4/BLE.c ****     #ifdef CYBLE_HRS
 252:.\Generated_Source\PSoC4/BLE.c ****         CyBle_HrsInit();
 253:.\Generated_Source\PSoC4/BLE.c ****     #endif /* CYBLE_HRS */
 254:.\Generated_Source\PSoC4/BLE.c ****     
 255:.\Generated_Source\PSoC4/BLE.c ****     #ifdef CYBLE_HTS
 256:.\Generated_Source\PSoC4/BLE.c ****         CyBle_HtsInit();
 257:.\Generated_Source\PSoC4/BLE.c ****     #endif /* CYBLE_RSCS */
 258:.\Generated_Source\PSoC4/BLE.c **** 
 259:.\Generated_Source\PSoC4/BLE.c ****     #ifdef CYBLE_IAS
 260:.\Generated_Source\PSoC4/BLE.c ****         CyBle_IasInit();
 261:.\Generated_Source\PSoC4/BLE.c ****     #endif /* CYBLE_IAS */
ARM GAS  C:\Users\KEVINH~1\AppData\Local\Temp\ccwJsVAk.s 			page 6


 262:.\Generated_Source\PSoC4/BLE.c **** 
 263:.\Generated_Source\PSoC4/BLE.c ****     #ifdef CYBLE_LLS
 264:.\Generated_Source\PSoC4/BLE.c ****         CyBle_LlsInit();
 265:.\Generated_Source\PSoC4/BLE.c ****     #endif /* CYBLE_LLS */
 266:.\Generated_Source\PSoC4/BLE.c **** 
 267:.\Generated_Source\PSoC4/BLE.c ****     #ifdef CYBLE_RTUS
 268:.\Generated_Source\PSoC4/BLE.c ****         CyBle_RtusInit();
 269:.\Generated_Source\PSoC4/BLE.c ****     #endif /* CYBLE_RTUS */
 270:.\Generated_Source\PSoC4/BLE.c **** 
 271:.\Generated_Source\PSoC4/BLE.c ****     #ifdef CYBLE_LNS
 272:.\Generated_Source\PSoC4/BLE.c ****         CyBle_LnsInit();
 273:.\Generated_Source\PSoC4/BLE.c ****     #endif /* CYBLE_LNS */
 274:.\Generated_Source\PSoC4/BLE.c ****     
 275:.\Generated_Source\PSoC4/BLE.c ****     #ifdef CYBLE_PASS
 276:.\Generated_Source\PSoC4/BLE.c ****         CyBle_PassInit();
 277:.\Generated_Source\PSoC4/BLE.c ****     #endif /* CYBLE_PASS */
 278:.\Generated_Source\PSoC4/BLE.c ****     
 279:.\Generated_Source\PSoC4/BLE.c ****     #ifdef CYBLE_RSCS
 280:.\Generated_Source\PSoC4/BLE.c ****         CyBle_RscsInit();
 281:.\Generated_Source\PSoC4/BLE.c ****     #endif /* CYBLE_RSCS */
 282:.\Generated_Source\PSoC4/BLE.c **** 
 283:.\Generated_Source\PSoC4/BLE.c ****     #ifdef CYBLE_SCPS
 284:.\Generated_Source\PSoC4/BLE.c ****         CyBle_ScpsInit();
 285:.\Generated_Source\PSoC4/BLE.c ****     #endif /* CYBLE_SCPS */
 286:.\Generated_Source\PSoC4/BLE.c ****     
 287:.\Generated_Source\PSoC4/BLE.c ****     #ifdef CYBLE_TPS
 288:.\Generated_Source\PSoC4/BLE.c ****         CyBle_TpsInit();
 289:.\Generated_Source\PSoC4/BLE.c ****     #endif /* CYBLE_TPS */
 290:.\Generated_Source\PSoC4/BLE.c ****     
 291:.\Generated_Source\PSoC4/BLE.c ****     #ifdef CYBLE_UDS
 292:.\Generated_Source\PSoC4/BLE.c ****         CyBle_UdsInit();
 293:.\Generated_Source\PSoC4/BLE.c ****     #endif /* CYBLE_UDS */
 294:.\Generated_Source\PSoC4/BLE.c **** 
 295:.\Generated_Source\PSoC4/BLE.c ****     #ifdef CYBLE_WSS
 296:.\Generated_Source\PSoC4/BLE.c ****         CyBle_WssInit();
 297:.\Generated_Source\PSoC4/BLE.c ****     #endif /* CYBLE_WSS */
 298:.\Generated_Source\PSoC4/BLE.c **** }
 299:.\Generated_Source\PSoC4/BLE.c **** 
 300:.\Generated_Source\PSoC4/BLE.c **** 
 301:.\Generated_Source\PSoC4/BLE.c **** /******************************************************************************
 302:.\Generated_Source\PSoC4/BLE.c **** ##Function Name: CyBle_Start
 303:.\Generated_Source\PSoC4/BLE.c **** *******************************************************************************
 304:.\Generated_Source\PSoC4/BLE.c **** 
 305:.\Generated_Source\PSoC4/BLE.c **** Summary:
 306:.\Generated_Source\PSoC4/BLE.c ****  This function initializes the BLE Stack, which consists of the BLE Stack 
 307:.\Generated_Source\PSoC4/BLE.c ****  Manager, BLE Controller, and BLE Host modules. It takes care of initializing
 308:.\Generated_Source\PSoC4/BLE.c ****  the Profile layer, schedulers, Timer and other platform related
 309:.\Generated_Source\PSoC4/BLE.c ****  resources required for the BLE component. It also registers the callback 
 310:.\Generated_Source\PSoC4/BLE.c ****  function for BLE events that will be registered in the BLE stack.
 311:.\Generated_Source\PSoC4/BLE.c **** 
 312:.\Generated_Source\PSoC4/BLE.c ****  Note that this function does not reset the BLE Stack.
 313:.\Generated_Source\PSoC4/BLE.c **** 
 314:.\Generated_Source\PSoC4/BLE.c ****  For HCI-Mode of operation, this function will not initialize the BLE Host 
 315:.\Generated_Source\PSoC4/BLE.c ****  module.
 316:.\Generated_Source\PSoC4/BLE.c **** 
 317:.\Generated_Source\PSoC4/BLE.c ****  Calling this function results in the generation of CYBLE_EVT_STACK_ON event
 318:.\Generated_Source\PSoC4/BLE.c ****  on successful initialization of the BLE Stack.
ARM GAS  C:\Users\KEVINH~1\AppData\Local\Temp\ccwJsVAk.s 			page 7


 319:.\Generated_Source\PSoC4/BLE.c **** 
 320:.\Generated_Source\PSoC4/BLE.c **** Parameters:
 321:.\Generated_Source\PSoC4/BLE.c ****  callbackFunc: Event callback function to receive events from BLE stack.
 322:.\Generated_Source\PSoC4/BLE.c ****   CYBLE_CALLBACK_T is a function pointer type.
 323:.\Generated_Source\PSoC4/BLE.c **** 
 324:.\Generated_Source\PSoC4/BLE.c **** Return:
 325:.\Generated_Source\PSoC4/BLE.c ****  CYBLE_API_RESULT_T : Return value indicates if the function succeeded or 
 326:.\Generated_Source\PSoC4/BLE.c ****  failed. Following are the possible error codes.
 327:.\Generated_Source\PSoC4/BLE.c ****  <table>
 328:.\Generated_Source\PSoC4/BLE.c ****   Errors codes                        Description
 329:.\Generated_Source\PSoC4/BLE.c ****   ------------                        -----------------
 330:.\Generated_Source\PSoC4/BLE.c ****   CYBLE_ERROR_OK                      On successful operation.
 331:.\Generated_Source\PSoC4/BLE.c ****   CYBLE_ERROR_INVALID_PARAMETER       On passing a NULL pointer to the 
 332:.\Generated_Source\PSoC4/BLE.c ****                                        function when the BLE stack is not 
 333:.\Generated_Source\PSoC4/BLE.c ****                                        built in HCI mode.
 334:.\Generated_Source\PSoC4/BLE.c ****                                        CYBLE_ERROR_INVALID_PARAMETER
 335:.\Generated_Source\PSoC4/BLE.c ****                                        is never returned in HCI mode.
 336:.\Generated_Source\PSoC4/BLE.c ****   CYBLE_ERROR_REPEATED_ATTEMPTS       On invoking this function more
 337:.\Generated_Source\PSoC4/BLE.c ****                                        than once without calling
 338:.\Generated_Source\PSoC4/BLE.c ****                                        CyBle_Shutdown() function 
 339:.\Generated_Source\PSoC4/BLE.c ****                                        between calls to this function.
 340:.\Generated_Source\PSoC4/BLE.c ****  </table>
 341:.\Generated_Source\PSoC4/BLE.c **** 
 342:.\Generated_Source\PSoC4/BLE.c ****  Global variables:
 343:.\Generated_Source\PSoC4/BLE.c ****   The BLE_intiVar variable is used to indicate initial
 344:.\Generated_Source\PSoC4/BLE.c ****   configuration of this component. The variable is initialized to zero (0u)
 345:.\Generated_Source\PSoC4/BLE.c ****   and set to one (1u) the first time BLE_Start() is called. This
 346:.\Generated_Source\PSoC4/BLE.c ****   allows for component initialization without re-initialization in all
 347:.\Generated_Source\PSoC4/BLE.c ****   subsequent calls to the BLE_Start() routine.
 348:.\Generated_Source\PSoC4/BLE.c **** 
 349:.\Generated_Source\PSoC4/BLE.c **** ******************************************************************************/
 350:.\Generated_Source\PSoC4/BLE.c **** CYBLE_API_RESULT_T CyBle_Start(CYBLE_CALLBACK_T callbackFunc)
 351:.\Generated_Source\PSoC4/BLE.c **** {
 352:.\Generated_Source\PSoC4/BLE.c ****     CYBLE_API_RESULT_T apiResult = CYBLE_ERROR_INVALID_PARAMETER;
 353:.\Generated_Source\PSoC4/BLE.c ****     
 354:.\Generated_Source\PSoC4/BLE.c ****     /* If not initialized then initialize all the required hardware and software */
 355:.\Generated_Source\PSoC4/BLE.c ****     if(cyBle_initVar == 0u)
 356:.\Generated_Source\PSoC4/BLE.c ****     {
 357:.\Generated_Source\PSoC4/BLE.c ****         CyBle_Init();
 358:.\Generated_Source\PSoC4/BLE.c ****         cyBle_initVar = 1u;
 359:.\Generated_Source\PSoC4/BLE.c ****     }
 360:.\Generated_Source\PSoC4/BLE.c ****     
 361:.\Generated_Source\PSoC4/BLE.c ****     if(callbackFunc != NULL)
 362:.\Generated_Source\PSoC4/BLE.c ****     {
 363:.\Generated_Source\PSoC4/BLE.c ****     #if(CYBLE_MODE_PROFILE)
 364:.\Generated_Source\PSoC4/BLE.c ****         CYBLE_STK_APP_DATA_BUFF_T dataBuff[CYBLE_STACK_BUF_COUNT] = 
 365:.\Generated_Source\PSoC4/BLE.c ****         {
 366:.\Generated_Source\PSoC4/BLE.c ****             {CYBLE_GATT_MTU_PLUS_L2CAP_HEADER, CYBLE_GATT_MTU_BUF_COUNT},
 367:.\Generated_Source\PSoC4/BLE.c ****             {CYBLE_GATT_MAX_ATTR_LEN, 1u},
 368:.\Generated_Source\PSoC4/BLE.c ****             {CYBLE_L2CAP_PSM_SIZE, CYBLE_L2CAP_PSM_COUNT},
 369:.\Generated_Source\PSoC4/BLE.c ****             {CYBLE_L2CAP_CBFC_CHANNEL_SIZE, CYBLE_L2CAP_LOGICAL_CHANNEL_COUNT},
 370:.\Generated_Source\PSoC4/BLE.c ****             {CYBLE_L2CAP_MTU, CYBLE_L2CAP_LOGICAL_CHANNEL_COUNT},
 371:.\Generated_Source\PSoC4/BLE.c ****             {CYBLE_L2CAP_MPS, CYBLE_L2CAP_LOGICAL_CHANNEL_COUNT * (CYBLE_L2CAP_MTU/CYBLE_L2CAP_MPS)
 372:.\Generated_Source\PSoC4/BLE.c ****         }; 
 373:.\Generated_Source\PSoC4/BLE.c ****     
 374:.\Generated_Source\PSoC4/BLE.c ****         apiResult = CyBle_StackInit(&CyBle_EventHandler, cyBle_stackMemoryRam, CYBLE_STACK_RAM_SIZE
 375:.\Generated_Source\PSoC4/BLE.c ****             dataBuff, CYBLE_STACK_BUF_COUNT);
ARM GAS  C:\Users\KEVINH~1\AppData\Local\Temp\ccwJsVAk.s 			page 8


 376:.\Generated_Source\PSoC4/BLE.c ****     #else
 377:.\Generated_Source\PSoC4/BLE.c ****         apiResult = CyBle_StackInit(&CyBle_EventHandler, cyBle_stackMemoryRam, CYBLE_STACK_RAM_SIZE
 378:.\Generated_Source\PSoC4/BLE.c ****     #endif /* CYBLE_MODE_PROFILE */  
 379:.\Generated_Source\PSoC4/BLE.c **** 
 380:.\Generated_Source\PSoC4/BLE.c ****         CyBle_ApplCallback = callbackFunc;
 381:.\Generated_Source\PSoC4/BLE.c ****         
 382:.\Generated_Source\PSoC4/BLE.c **** 
 383:.\Generated_Source\PSoC4/BLE.c ****         if(apiResult == CYBLE_ERROR_OK)
 384:.\Generated_Source\PSoC4/BLE.c ****         {
 385:.\Generated_Source\PSoC4/BLE.c ****             CyBle_SetState(CYBLE_STATE_INITIALIZING);
 386:.\Generated_Source\PSoC4/BLE.c ****             
 387:.\Generated_Source\PSoC4/BLE.c ****         #if (CYBLE_GATT_ROLE_CLIENT)
 388:.\Generated_Source\PSoC4/BLE.c ****             CyBle_SetClientState(CYBLE_CLIENT_STATE_DISCONNECTED);
 389:.\Generated_Source\PSoC4/BLE.c ****         #endif /* CYBLE_GATT_ROLE_CLIENT */
 390:.\Generated_Source\PSoC4/BLE.c ****             
 391:.\Generated_Source\PSoC4/BLE.c ****         #if(CYBLE_GATT_ROLE_SERVER)
 392:.\Generated_Source\PSoC4/BLE.c ****             apiResult = CyBle_GattsDbRegister(cyBle_gattDB, CYBLE_GATT_DB_INDEX_COUNT, CYBLE_GATT_D
 393:.\Generated_Source\PSoC4/BLE.c ****         #endif /* CYBLE_GATT_ROLE_SERVER */
 394:.\Generated_Source\PSoC4/BLE.c ****         }
 395:.\Generated_Source\PSoC4/BLE.c ****     }
 396:.\Generated_Source\PSoC4/BLE.c **** 
 397:.\Generated_Source\PSoC4/BLE.c ****     return (apiResult);
 398:.\Generated_Source\PSoC4/BLE.c **** }
 399:.\Generated_Source\PSoC4/BLE.c **** 
 400:.\Generated_Source\PSoC4/BLE.c **** 
 401:.\Generated_Source\PSoC4/BLE.c **** /******************************************************************************
 402:.\Generated_Source\PSoC4/BLE.c **** ##Function Name: CyBle_Stop
 403:.\Generated_Source\PSoC4/BLE.c **** *******************************************************************************
 404:.\Generated_Source\PSoC4/BLE.c **** 
 405:.\Generated_Source\PSoC4/BLE.c **** Summary:
 406:.\Generated_Source\PSoC4/BLE.c ****  This function stops any ongoing operation in the BLE Stack and forces the 
 407:.\Generated_Source\PSoC4/BLE.c ****  BLE Stack to shut down. The only function that can be called after calling
 408:.\Generated_Source\PSoC4/BLE.c ****  this function is CyBle_Start(). 
 409:.\Generated_Source\PSoC4/BLE.c **** 
 410:.\Generated_Source\PSoC4/BLE.c **** Parameters:
 411:.\Generated_Source\PSoC4/BLE.c ****  None
 412:.\Generated_Source\PSoC4/BLE.c **** 
 413:.\Generated_Source\PSoC4/BLE.c **** Return:
 414:.\Generated_Source\PSoC4/BLE.c ****  None
 415:.\Generated_Source\PSoC4/BLE.c **** 
 416:.\Generated_Source\PSoC4/BLE.c **** ******************************************************************************/
 417:.\Generated_Source\PSoC4/BLE.c **** void CyBle_Stop(void)
 418:.\Generated_Source\PSoC4/BLE.c **** {
 419:.\Generated_Source\PSoC4/BLE.c ****     CyBle_Shutdown();                         /* Stop all ongoing activities */
 420:.\Generated_Source\PSoC4/BLE.c ****     CyBle_SetState(CYBLE_STATE_STOPPED);
 421:.\Generated_Source\PSoC4/BLE.c **** }
 422:.\Generated_Source\PSoC4/BLE.c **** 
 423:.\Generated_Source\PSoC4/BLE.c **** 
 424:.\Generated_Source\PSoC4/BLE.c **** #if((CYBLE_GAP_ROLE_PERIPHERAL || CYBLE_GAP_ROLE_CENTRAL) && (CYBLE_BONDING_REQUIREMENT == CYBLE_BO
 425:.\Generated_Source\PSoC4/BLE.c **** 
 426:.\Generated_Source\PSoC4/BLE.c ****     
 427:.\Generated_Source\PSoC4/BLE.c **** /******************************************************************************
 428:.\Generated_Source\PSoC4/BLE.c **** ##Function Name: CyBle_StoreBondingData
 429:.\Generated_Source\PSoC4/BLE.c **** *******************************************************************************
 430:.\Generated_Source\PSoC4/BLE.c **** 
 431:.\Generated_Source\PSoC4/BLE.c **** Summary:
 432:.\Generated_Source\PSoC4/BLE.c ****  This function writes the new bonding data from RAM to the dedicated Flash 
ARM GAS  C:\Users\KEVINH~1\AppData\Local\Temp\ccwJsVAk.s 			page 9


 433:.\Generated_Source\PSoC4/BLE.c ****  location as defined by the component. It performs data comparing between RAM
 434:.\Generated_Source\PSoC4/BLE.c ****  and Flash before writing to Flash. If there is no change between RAM and Flash
 435:.\Generated_Source\PSoC4/BLE.c ****  data, then no write is performed. It writes only one flash row in one call.
 436:.\Generated_Source\PSoC4/BLE.c ****  Application should keep calling this function till API return CYBLE_ERROR_OK. 
 437:.\Generated_Source\PSoC4/BLE.c ****  This function is available only when Bonding requirement is selected in
 438:.\Generated_Source\PSoC4/BLE.c ****  Security settings.    
 439:.\Generated_Source\PSoC4/BLE.c ****     
 440:.\Generated_Source\PSoC4/BLE.c **** Parameters:
 441:.\Generated_Source\PSoC4/BLE.c ****  isForceWrite:  If value is set to 0, then stack will check if flash write 
 442:.\Generated_Source\PSoC4/BLE.c ****                 is permissible. 
 443:.\Generated_Source\PSoC4/BLE.c ****  
 444:.\Generated_Source\PSoC4/BLE.c **** Return:
 445:.\Generated_Source\PSoC4/BLE.c ****  Return value is of type CYBLE_API_RESULT_T.
 446:.\Generated_Source\PSoC4/BLE.c ****  * CYBLE_ERROR_OK - On successful operation
 447:.\Generated_Source\PSoC4/BLE.c ****  * CYBLE_ERROR_FLASH_WRITE_NOT_PERMITED - Flash Write is not complete
 448:.\Generated_Source\PSoC4/BLE.c ****    
 449:.\Generated_Source\PSoC4/BLE.c ****  Side Effects:
 450:.\Generated_Source\PSoC4/BLE.c ****   For BLE devices with 128K of Flash memory this API will automatically 
 451:.\Generated_Source\PSoC4/BLE.c ****   modify the clock settings for the device.
 452:.\Generated_Source\PSoC4/BLE.c ****   Writing to flash requires changes to be done to the IMO (set to 48 MHz)
 453:.\Generated_Source\PSoC4/BLE.c ****   and HFCLK (source set to IMO) settings. The configuration is restored before
 454:.\Generated_Source\PSoC4/BLE.c ****   returning. This will impact the operation of most of the hardware in the
 455:.\Generated_Source\PSoC4/BLE.c ****   device.
 456:.\Generated_Source\PSoC4/BLE.c **** 
 457:.\Generated_Source\PSoC4/BLE.c ****  Global variables:
 458:.\Generated_Source\PSoC4/BLE.c ****   The BLE_pendingFlashWrite variable is used to detect status
 459:.\Generated_Source\PSoC4/BLE.c ****   of pending write to flash operation for stack data and CCCD.
 460:.\Generated_Source\PSoC4/BLE.c ****   This API automatically clears pending bits after write operation complete.
 461:.\Generated_Source\PSoC4/BLE.c ****     
 462:.\Generated_Source\PSoC4/BLE.c **** ******************************************************************************/
 463:.\Generated_Source\PSoC4/BLE.c **** CYBLE_API_RESULT_T CyBle_StoreBondingData(uint8 isForceWrite)
 464:.\Generated_Source\PSoC4/BLE.c **** {
 465:.\Generated_Source\PSoC4/BLE.c ****     CYBLE_API_RESULT_T apiResult = CYBLE_ERROR_OK;
 466:.\Generated_Source\PSoC4/BLE.c ****     
 467:.\Generated_Source\PSoC4/BLE.c ****     /* Store Stack data */
 468:.\Generated_Source\PSoC4/BLE.c ****     if((cyBle_pendingFlashWrite & CYBLE_PENDING_STACK_FLASH_WRITE_BIT) != 0u)
 469:.\Generated_Source\PSoC4/BLE.c ****     {
 470:.\Generated_Source\PSoC4/BLE.c ****         apiResult = CyBle_StoreStackData(isForceWrite);
 471:.\Generated_Source\PSoC4/BLE.c ****         if(apiResult == CYBLE_ERROR_OK)
 472:.\Generated_Source\PSoC4/BLE.c ****         {
 473:.\Generated_Source\PSoC4/BLE.c ****             cyBle_pendingFlashWrite &= (uint8)~CYBLE_PENDING_STACK_FLASH_WRITE_BIT;
 474:.\Generated_Source\PSoC4/BLE.c ****             /* Change apiResult if there are more pending data to store */
 475:.\Generated_Source\PSoC4/BLE.c ****             if((cyBle_pendingFlashWrite & CYBLE_PENDING_CCCD_FLASH_WRITE_BIT) != 0u)
 476:.\Generated_Source\PSoC4/BLE.c ****             {
 477:.\Generated_Source\PSoC4/BLE.c ****                 apiResult = CYBLE_ERROR_FLASH_WRITE_NOT_PERMITED;
 478:.\Generated_Source\PSoC4/BLE.c ****             }
 479:.\Generated_Source\PSoC4/BLE.c ****         }
 480:.\Generated_Source\PSoC4/BLE.c ****     }
 481:.\Generated_Source\PSoC4/BLE.c **** #if(CYBLE_GATT_DB_CCCD_COUNT != 0u)
 482:.\Generated_Source\PSoC4/BLE.c ****     /* Store CCCD values */
 483:.\Generated_Source\PSoC4/BLE.c ****     if( ((apiResult == CYBLE_ERROR_OK) || (isForceWrite != 0u)) && 
 484:.\Generated_Source\PSoC4/BLE.c ****         ((cyBle_pendingFlashWrite & CYBLE_PENDING_CCCD_FLASH_WRITE_BIT) != 0u) &&
 485:.\Generated_Source\PSoC4/BLE.c ****         (cyBle_connHandle.bdHandle <= CYBLE_GAP_MAX_BONDED_DEVICE))
 486:.\Generated_Source\PSoC4/BLE.c ****     {
 487:.\Generated_Source\PSoC4/BLE.c ****         apiResult = CyBle_StoreAppData(cyBle_attValuesCCCD, cyBle_attValuesCCCDFlashMemory[cyBle_co
 488:.\Generated_Source\PSoC4/BLE.c ****                                        CYBLE_GATT_DB_CCCD_COUNT, isForceWrite);
 489:.\Generated_Source\PSoC4/BLE.c ****         if(apiResult == CYBLE_ERROR_OK)
ARM GAS  C:\Users\KEVINH~1\AppData\Local\Temp\ccwJsVAk.s 			page 10


 490:.\Generated_Source\PSoC4/BLE.c ****         {
 491:.\Generated_Source\PSoC4/BLE.c ****             cyBle_pendingFlashWrite &= (uint8)~CYBLE_PENDING_CCCD_FLASH_WRITE_BIT;
 492:.\Generated_Source\PSoC4/BLE.c ****         }
 493:.\Generated_Source\PSoC4/BLE.c ****     }
 494:.\Generated_Source\PSoC4/BLE.c **** #endif /* CYBLE_GATT_DB_CCCD_COUNT != 0u */
 495:.\Generated_Source\PSoC4/BLE.c ****     return(apiResult);
 496:.\Generated_Source\PSoC4/BLE.c **** }
 497:.\Generated_Source\PSoC4/BLE.c **** 
 498:.\Generated_Source\PSoC4/BLE.c **** 
 499:.\Generated_Source\PSoC4/BLE.c **** #endif /* (CYBLE_GAP_ROLE_PERIPHERAL || CYBLE_GAP_ROLE_CENTRAL) && (CYBLE_BONDING_REQUIREMENT == CY
 500:.\Generated_Source\PSoC4/BLE.c **** 
 501:.\Generated_Source\PSoC4/BLE.c **** 
 502:.\Generated_Source\PSoC4/BLE.c **** #if(CYBLE_GAP_ROLE_PERIPHERAL || CYBLE_GAP_ROLE_BROADCASTER)
 503:.\Generated_Source\PSoC4/BLE.c **** 
 504:.\Generated_Source\PSoC4/BLE.c ****     /******************************************************************************
 505:.\Generated_Source\PSoC4/BLE.c ****     ##Function Name: CyBle_GappStartAdvertisement
 506:.\Generated_Source\PSoC4/BLE.c ****     *******************************************************************************
 507:.\Generated_Source\PSoC4/BLE.c ****     
 508:.\Generated_Source\PSoC4/BLE.c ****     Summary:
 509:.\Generated_Source\PSoC4/BLE.c ****      This function is used to start the advertisement using the advertisement data 
 510:.\Generated_Source\PSoC4/BLE.c ****      set in the component customizer's GUI. After invoking this API, the device 
 511:.\Generated_Source\PSoC4/BLE.c ****      will be available for connection by the devices configured for GAP central 
 512:.\Generated_Source\PSoC4/BLE.c ****      role. It is only included if the device is configured for GAP Peripheral or 
 513:.\Generated_Source\PSoC4/BLE.c ****      GAP Peripheral + Central role.
 514:.\Generated_Source\PSoC4/BLE.c ****      
 515:.\Generated_Source\PSoC4/BLE.c ****      On start of advertisement, GAP Peripheral receives the
 516:.\Generated_Source\PSoC4/BLE.c ****      CYBLE_EVT_GAPP_ADVERTISEMENT_START_STOP event. The following events are 
 517:.\Generated_Source\PSoC4/BLE.c ****      possible on invoking this function:
 518:.\Generated_Source\PSoC4/BLE.c ****      
 519:.\Generated_Source\PSoC4/BLE.c ****      * CYBLE_EVT_GAP_DEVICE_CONNECTED: If the device connects to remote GAP 
 520:.\Generated_Source\PSoC4/BLE.c ****                                          Central device
 521:.\Generated_Source\PSoC4/BLE.c ****      * CYBLE_EVT_TIMEOUT: If no device in GAP Central mode connects to this 
 522:.\Generated_Source\PSoC4/BLE.c ****                           device within the specified timeout limit. Stack 
 523:.\Generated_Source\PSoC4/BLE.c ****                           automatically initiate stop advertising when Slow 
 524:.\Generated_Source\PSoC4/BLE.c ****                           advertising was initiated, or starts Slow advertising
 525:.\Generated_Source\PSoC4/BLE.c ****                           after Fast advertising timeout occur.
 526:.\Generated_Source\PSoC4/BLE.c ****      * CYBLE_EVT_GAPP_ADVERTISEMENT_START_STOP: If device started or stopped
 527:.\Generated_Source\PSoC4/BLE.c ****                                                   advertising. Use CyBle_GetState()
 528:.\Generated_Source\PSoC4/BLE.c ****                                                   to determine the state. Sequential 
 529:.\Generated_Source\PSoC4/BLE.c ****                                                   advertising could be started when
 530:.\Generated_Source\PSoC4/BLE.c ****                                                   CYBLE_STATE_DISCONNECTED state is
 531:.\Generated_Source\PSoC4/BLE.c ****                                                   returned.
 532:.\Generated_Source\PSoC4/BLE.c **** 
 533:.\Generated_Source\PSoC4/BLE.c ****     Parameters:
 534:.\Generated_Source\PSoC4/BLE.c ****      uint8 advertisingIntervalType: Fast or slow advertising interval with timings
 535:.\Generated_Source\PSoC4/BLE.c ****                                     entered in Advertising settings section of the
 536:.\Generated_Source\PSoC4/BLE.c ****                                     customizer.
 537:.\Generated_Source\PSoC4/BLE.c ****      * CYBLE_ADVERTISING_FAST   0x00u
 538:.\Generated_Source\PSoC4/BLE.c ****      * CYBLE_ADVERTISING_SLOW   0x01u
 539:.\Generated_Source\PSoC4/BLE.c ****      * CYBLE_ADVERTISING_CUSTOM 0x02u
 540:.\Generated_Source\PSoC4/BLE.c ****     
 541:.\Generated_Source\PSoC4/BLE.c ****     Return:
 542:.\Generated_Source\PSoC4/BLE.c ****      CYBLE_API_RESULT_T : Return value indicates if the function succeeded or
 543:.\Generated_Source\PSoC4/BLE.c ****      failed. Following are the possible error codes.
 544:.\Generated_Source\PSoC4/BLE.c ****      <table>
 545:.\Generated_Source\PSoC4/BLE.c ****       Errors codes                        Description
 546:.\Generated_Source\PSoC4/BLE.c ****       ------------                        -----------
ARM GAS  C:\Users\KEVINH~1\AppData\Local\Temp\ccwJsVAk.s 			page 11


 547:.\Generated_Source\PSoC4/BLE.c ****       CYBLE_ERROR_OK                      On successful operation.
 548:.\Generated_Source\PSoC4/BLE.c ****       CYBLE_ERROR_INVALID_PARAMETER       On passing an invalid parameter.
 549:.\Generated_Source\PSoC4/BLE.c ****       CYBLE_ERROR_INVALID_STATE           On calling this API not in 
 550:.\Generated_Source\PSoC4/BLE.c ****                                           Disconnected state.
 551:.\Generated_Source\PSoC4/BLE.c ****      </table>
 552:.\Generated_Source\PSoC4/BLE.c ****     
 553:.\Generated_Source\PSoC4/BLE.c ****     ******************************************************************************/
 554:.\Generated_Source\PSoC4/BLE.c ****     CYBLE_API_RESULT_T CyBle_GappStartAdvertisement(uint8 advertisingIntervalType)
 555:.\Generated_Source\PSoC4/BLE.c ****     {
 556:.\Generated_Source\PSoC4/BLE.c ****         CYBLE_API_RESULT_T apiResult;
 557:.\Generated_Source\PSoC4/BLE.c ****         
 558:.\Generated_Source\PSoC4/BLE.c ****         if(advertisingIntervalType > CYBLE_ADVERTISING_CUSTOM)
 559:.\Generated_Source\PSoC4/BLE.c ****         {
 560:.\Generated_Source\PSoC4/BLE.c ****             apiResult = CYBLE_ERROR_INVALID_PARAMETER;
 561:.\Generated_Source\PSoC4/BLE.c ****         }
 562:.\Generated_Source\PSoC4/BLE.c ****         else if((CYBLE_STATE_DISCONNECTED == CyBle_GetState()) && ((cyBle_eventHandlerFlag & CYBLE_
 563:.\Generated_Source\PSoC4/BLE.c ****         {   
 564:.\Generated_Source\PSoC4/BLE.c ****             if(advertisingIntervalType == CYBLE_ADVERTISING_FAST)
 565:.\Generated_Source\PSoC4/BLE.c ****             {
 566:.\Generated_Source\PSoC4/BLE.c ****                 cyBle_discoveryModeInfo.advTo = CYBLE_FAST_ADV_TIMEOUT;
 567:.\Generated_Source\PSoC4/BLE.c ****                 cyBle_discoveryModeInfo.advParam->advIntvMin = CYBLE_FAST_ADV_INT_MIN;
 568:.\Generated_Source\PSoC4/BLE.c ****                 cyBle_discoveryModeInfo.advParam->advIntvMax = CYBLE_FAST_ADV_INT_MAX;
 569:.\Generated_Source\PSoC4/BLE.c ****             }
 570:.\Generated_Source\PSoC4/BLE.c ****             else if(advertisingIntervalType == CYBLE_ADVERTISING_SLOW)
 571:.\Generated_Source\PSoC4/BLE.c ****             {
 572:.\Generated_Source\PSoC4/BLE.c ****                 cyBle_discoveryModeInfo.advTo = CYBLE_SLOW_ADV_TIMEOUT;
 573:.\Generated_Source\PSoC4/BLE.c ****                 cyBle_discoveryModeInfo.advParam->advIntvMin = CYBLE_SLOW_ADV_INT_MIN;
 574:.\Generated_Source\PSoC4/BLE.c ****                 cyBle_discoveryModeInfo.advParam->advIntvMax = CYBLE_SLOW_ADV_INT_MAX;
 575:.\Generated_Source\PSoC4/BLE.c ****             }       
 576:.\Generated_Source\PSoC4/BLE.c ****             else /* Do not update advertising intervals */
 577:.\Generated_Source\PSoC4/BLE.c ****             {
 578:.\Generated_Source\PSoC4/BLE.c ****             }
 579:.\Generated_Source\PSoC4/BLE.c ****             cyBle_advertisingIntervalType = advertisingIntervalType;
 580:.\Generated_Source\PSoC4/BLE.c ****             apiResult = CyBle_GappEnterDiscoveryMode(&cyBle_discoveryModeInfo);
 581:.\Generated_Source\PSoC4/BLE.c ****         
 582:.\Generated_Source\PSoC4/BLE.c ****             if(CYBLE_ERROR_OK == apiResult)
 583:.\Generated_Source\PSoC4/BLE.c ****             {
 584:.\Generated_Source\PSoC4/BLE.c ****                 cyBle_eventHandlerFlag |= CYBLE_START_FLAG;
 585:.\Generated_Source\PSoC4/BLE.c ****             }
 586:.\Generated_Source\PSoC4/BLE.c ****         }
 587:.\Generated_Source\PSoC4/BLE.c ****         else
 588:.\Generated_Source\PSoC4/BLE.c ****         {
 589:.\Generated_Source\PSoC4/BLE.c ****             apiResult = CYBLE_ERROR_INVALID_STATE;
 590:.\Generated_Source\PSoC4/BLE.c ****         }
 591:.\Generated_Source\PSoC4/BLE.c **** 
 592:.\Generated_Source\PSoC4/BLE.c ****         return (apiResult);
 593:.\Generated_Source\PSoC4/BLE.c ****     }
 594:.\Generated_Source\PSoC4/BLE.c **** 
 595:.\Generated_Source\PSoC4/BLE.c ****     
 596:.\Generated_Source\PSoC4/BLE.c ****     /******************************************************************************
 597:.\Generated_Source\PSoC4/BLE.c ****     ##Function Name: CyBle_GappStopAdvertisement
 598:.\Generated_Source\PSoC4/BLE.c ****     *******************************************************************************
 599:.\Generated_Source\PSoC4/BLE.c ****     
 600:.\Generated_Source\PSoC4/BLE.c ****      Summary:
 601:.\Generated_Source\PSoC4/BLE.c ****       This function can be used to exit from discovery mode. After the execution 
 602:.\Generated_Source\PSoC4/BLE.c ****       of this function, there will no longer be any advertisements. On stopping 
 603:.\Generated_Source\PSoC4/BLE.c ****       advertising, GAP Peripheral receives CYBLE_EVT_GAPP_ADVERTISEMENT_START_STOP
ARM GAS  C:\Users\KEVINH~1\AppData\Local\Temp\ccwJsVAk.s 			page 12


 604:.\Generated_Source\PSoC4/BLE.c ****       event. It is expected that the application layer tracks the function call 
 605:.\Generated_Source\PSoC4/BLE.c ****       performed before occurrence of this event as this event can occur on making 
 606:.\Generated_Source\PSoC4/BLE.c ****       a call to Cy_BleGappStartAdvertisement(), CyBle_GappEnterDiscoveryMode(), 
 607:.\Generated_Source\PSoC4/BLE.c ****       or CyBle_GappStartAdvertisement() functions as well.
 608:.\Generated_Source\PSoC4/BLE.c ****       
 609:.\Generated_Source\PSoC4/BLE.c ****       The following event occurs on invoking this function:
 610:.\Generated_Source\PSoC4/BLE.c ****       * CYBLE_EVT_GAPP_ADVERTISEMENT_START_STOP
 611:.\Generated_Source\PSoC4/BLE.c ****     
 612:.\Generated_Source\PSoC4/BLE.c ****      Parameters:
 613:.\Generated_Source\PSoC4/BLE.c ****       None
 614:.\Generated_Source\PSoC4/BLE.c ****     
 615:.\Generated_Source\PSoC4/BLE.c ****      Return:
 616:.\Generated_Source\PSoC4/BLE.c ****       None
 617:.\Generated_Source\PSoC4/BLE.c ****     
 618:.\Generated_Source\PSoC4/BLE.c ****     ******************************************************************************/
 619:.\Generated_Source\PSoC4/BLE.c ****     void CyBle_GappStopAdvertisement(void)
 620:.\Generated_Source\PSoC4/BLE.c ****     {
 621:.\Generated_Source\PSoC4/BLE.c ****         CyBle_GappExitDiscoveryMode();
 622:.\Generated_Source\PSoC4/BLE.c ****         cyBle_eventHandlerFlag |= CYBLE_STOP_FLAG;
 623:.\Generated_Source\PSoC4/BLE.c ****     }
 624:.\Generated_Source\PSoC4/BLE.c ****     
 625:.\Generated_Source\PSoC4/BLE.c ****     
 626:.\Generated_Source\PSoC4/BLE.c ****     /******************************************************************************
 627:.\Generated_Source\PSoC4/BLE.c ****     ##Function Name: CyBle_ChangeAdDeviceAddress
 628:.\Generated_Source\PSoC4/BLE.c ****     *******************************************************************************
 629:.\Generated_Source\PSoC4/BLE.c **** 
 630:.\Generated_Source\PSoC4/BLE.c ****     Summary:
 631:.\Generated_Source\PSoC4/BLE.c ****      This API is used to set the Bluetooth device address into the advertisement 
 632:.\Generated_Source\PSoC4/BLE.c ****      or scan response data structure.
 633:.\Generated_Source\PSoC4/BLE.c **** 
 634:.\Generated_Source\PSoC4/BLE.c ****     Parameters:
 635:.\Generated_Source\PSoC4/BLE.c ****      bdAddr: Bluetooth Device address. The variable is of type CYBLE_GAP_BD_ADDR_T
 636:.\Generated_Source\PSoC4/BLE.c ****      uint8 dest: 0 - avrevtisement structure, not zero value selects scan response
 637:.\Generated_Source\PSoC4/BLE.c ****                  structure.
 638:.\Generated_Source\PSoC4/BLE.c **** 
 639:.\Generated_Source\PSoC4/BLE.c ****     Return:
 640:.\Generated_Source\PSoC4/BLE.c ****      None
 641:.\Generated_Source\PSoC4/BLE.c ****  
 642:.\Generated_Source\PSoC4/BLE.c ****     ******************************************************************************/
 643:.\Generated_Source\PSoC4/BLE.c ****     void CyBle_ChangeAdDeviceAddress(const CYBLE_GAP_BD_ADDR_T* bdAddr, uint8 dest)
 644:.\Generated_Source\PSoC4/BLE.c ****     {
 645:.\Generated_Source\PSoC4/BLE.c ****         uint8 i;
 646:.\Generated_Source\PSoC4/BLE.c ****         uint8 *destBuffer = NULL;
 647:.\Generated_Source\PSoC4/BLE.c ****         
 648:.\Generated_Source\PSoC4/BLE.c ****         if(dest == 0u)      /* Destination - advertising structure */
 649:.\Generated_Source\PSoC4/BLE.c ****         {
 650:.\Generated_Source\PSoC4/BLE.c ****             #ifdef CYBLE_ADV_PKT_INDEX_BLUETOOTH_DEVICE_ADDRESS
 651:.\Generated_Source\PSoC4/BLE.c ****                 destBuffer = &cyBle_discoveryData.advData[CYBLE_ADV_PKT_INDEX_BLUETOOTH_DEVICE_ADDR
 652:.\Generated_Source\PSoC4/BLE.c ****             #endif /* CYBLE_ADV_PKT_INDEX_BLUETOOTH_DEVICE_ADDRESS */
 653:.\Generated_Source\PSoC4/BLE.c ****         }
 654:.\Generated_Source\PSoC4/BLE.c ****         else                /* Destination - scan response structure */
 655:.\Generated_Source\PSoC4/BLE.c ****         {
 656:.\Generated_Source\PSoC4/BLE.c ****             #ifdef CYBLE_SCN_PKT_INDEX_BLUETOOTH_DEVICE_ADDRESS
 657:.\Generated_Source\PSoC4/BLE.c ****                 destBuffer = &cyBle_scanRspData.scanRspData[CYBLE_SCN_PKT_INDEX_BLUETOOTH_DEVICE_AD
 658:.\Generated_Source\PSoC4/BLE.c ****             #endif /* CYBLE_SCN_PKT_INDEX_BLUETOOTH_DEVICE_ADDRESS */    
 659:.\Generated_Source\PSoC4/BLE.c ****         }
 660:.\Generated_Source\PSoC4/BLE.c ****         
ARM GAS  C:\Users\KEVINH~1\AppData\Local\Temp\ccwJsVAk.s 			page 13


 661:.\Generated_Source\PSoC4/BLE.c ****         if(destBuffer != NULL)
 662:.\Generated_Source\PSoC4/BLE.c ****         {
 663:.\Generated_Source\PSoC4/BLE.c ****             /* Update Device Address type */
 664:.\Generated_Source\PSoC4/BLE.c ****             destBuffer[0u] = bdAddr->type;
 665:.\Generated_Source\PSoC4/BLE.c ****             
 666:.\Generated_Source\PSoC4/BLE.c ****             for(i = 0; i < CYBLE_GAP_BD_ADDR_SIZE; i++)
 667:.\Generated_Source\PSoC4/BLE.c ****             {
 668:.\Generated_Source\PSoC4/BLE.c ****                 destBuffer[i + 1u] = bdAddr->bdAddr[i];
 669:.\Generated_Source\PSoC4/BLE.c ****             }
 670:.\Generated_Source\PSoC4/BLE.c ****         }
 671:.\Generated_Source\PSoC4/BLE.c ****     }
 672:.\Generated_Source\PSoC4/BLE.c ****   
 673:.\Generated_Source\PSoC4/BLE.c **** #endif /* CYBLE_GAP_ROLE_PERIPHERAL || CYBLE_GAP_ROLE_BROADCASTER */
 674:.\Generated_Source\PSoC4/BLE.c **** 
 675:.\Generated_Source\PSoC4/BLE.c **** 
 676:.\Generated_Source\PSoC4/BLE.c **** #if(CYBLE_GAP_ROLE_CENTRAL || CYBLE_GAP_ROLE_OBSERVER)
 677:.\Generated_Source\PSoC4/BLE.c **** 
 678:.\Generated_Source\PSoC4/BLE.c ****     /******************************************************************************
 679:.\Generated_Source\PSoC4/BLE.c ****     ##Function Name: CyBle_GapcStartScan
 680:.\Generated_Source\PSoC4/BLE.c ****     *******************************************************************************
 681:.\Generated_Source\PSoC4/BLE.c ****     
 682:.\Generated_Source\PSoC4/BLE.c ****      Summary:
 683:.\Generated_Source\PSoC4/BLE.c ****       This function is used for discovering GAP peripheral devices that are 
 684:.\Generated_Source\PSoC4/BLE.c ****       available for connection. It performs the scanning routine using the 
 685:.\Generated_Source\PSoC4/BLE.c ****       parameters entered in the component's customizer.
 686:.\Generated_Source\PSoC4/BLE.c ****       
 687:.\Generated_Source\PSoC4/BLE.c ****       As soon as the discovery operation starts, CYBLE_EVT_GAPC_SCAN_START_STOP 
 688:.\Generated_Source\PSoC4/BLE.c ****       event is generated. The CYBLE_EVT_GAPC_SCAN_PROGRESS_RESULT event is 
 689:.\Generated_Source\PSoC4/BLE.c ****       generated when a GAP peripheral device is located. There are three discovery
 690:.\Generated_Source\PSoC4/BLE.c ****       procedures can be selected in the customizer's GUI:
 691:.\Generated_Source\PSoC4/BLE.c ****       
 692:.\Generated_Source\PSoC4/BLE.c ****       * Observation procedure: A device performing the observer role receives only
 693:.\Generated_Source\PSoC4/BLE.c ****                                advertisement data from devices irrespective of 
 694:.\Generated_Source\PSoC4/BLE.c ****                                their discoverable mode settings. Advertisement 
 695:.\Generated_Source\PSoC4/BLE.c ****                                data received is provided by the event,      
 696:.\Generated_Source\PSoC4/BLE.c ****                                CYBLE_EVT_GAPC_SCAN_PROGRESS_RESULT. This procedure
 697:.\Generated_Source\PSoC4/BLE.c ****                                requires the scanType sub parameter to be passive
 698:.\Generated_Source\PSoC4/BLE.c ****                                scanning. 
 699:.\Generated_Source\PSoC4/BLE.c ****       
 700:.\Generated_Source\PSoC4/BLE.c ****       * Limited Discovery procedure: A device performing the limited discovery
 701:.\Generated_Source\PSoC4/BLE.c ****                                      procedure receives advertisement data and 
 702:.\Generated_Source\PSoC4/BLE.c ****                                      scan# response data from devices in the 
 703:.\Generated_Source\PSoC4/BLE.c ****                                      limited discoverable mode only. Received data
 704:.\Generated_Source\PSoC4/BLE.c ****                                      is provided by the event, 
 705:.\Generated_Source\PSoC4/BLE.c ****                                      CYBLE_EVT_GAPC_SCAN_PROGRESS_RESULT. This 
 706:.\Generated_Source\PSoC4/BLE.c ****                                      procedure requires the scanType sub-parameter 
 707:.\Generated_Source\PSoC4/BLE.c ****                                      to be active scanning.
 708:.\Generated_Source\PSoC4/BLE.c ****       
 709:.\Generated_Source\PSoC4/BLE.c ****       * General Discovery procedure: A device performing the general discovery 
 710:.\Generated_Source\PSoC4/BLE.c ****                                      procedure receives the advertisement data and
 711:.\Generated_Source\PSoC4/BLE.c ****                                      scan response data from devices in both 
 712:.\Generated_Source\PSoC4/BLE.c ****                                      limited discoverable mode and the general 
 713:.\Generated_Source\PSoC4/BLE.c ****                                      discoverable mode. Received data is provided
 714:.\Generated_Source\PSoC4/BLE.c ****                                      by the event,
 715:.\Generated_Source\PSoC4/BLE.c ****                                      CYBLE_EVT_GAPC_SCAN_PROGRESS_RESULT. This 
 716:.\Generated_Source\PSoC4/BLE.c ****                                      procedure requires the scanType sub-parameter
 717:.\Generated_Source\PSoC4/BLE.c ****                                      to be active scanning.
ARM GAS  C:\Users\KEVINH~1\AppData\Local\Temp\ccwJsVAk.s 			page 14


 718:.\Generated_Source\PSoC4/BLE.c ****       
 719:.\Generated_Source\PSoC4/BLE.c ****       Every Advertisement / Scan response packet received results in a new event, 
 720:.\Generated_Source\PSoC4/BLE.c ****       CYBLE_EVT_GAPC_SCAN_PROGRESS_RESULT.
 721:.\Generated_Source\PSoC4/BLE.c ****       If 'scanTo' sub-parameter is a non-zero value, then upon commencement of 
 722:.\Generated_Source\PSoC4/BLE.c ****       discovery procedure and elapsed time = 'scanTo', CYBLE_EVT_TIMEOUT event
 723:.\Generated_Source\PSoC4/BLE.c ****       is generated with the event parameter indicating CYBLE_GAP_SCAN_TO.
 724:.\Generated_Source\PSoC4/BLE.c ****       Possible generated events are:
 725:.\Generated_Source\PSoC4/BLE.c ****       * CYBLE_EVT_GAPC_SCAN_START_STOP: If a device started or stopped scanning. 
 726:.\Generated_Source\PSoC4/BLE.c ****                                         Use CyBle_GetState() to determine the 
 727:.\Generated_Source\PSoC4/BLE.c ****                                         state. Sequential scanning could be 
 728:.\Generated_Source\PSoC4/BLE.c ****                                         started when CYBLE_STATE_DISCONNECTED 
 729:.\Generated_Source\PSoC4/BLE.c ****                                         state is returned. 
 730:.\Generated_Source\PSoC4/BLE.c ****       * CYBLE_EVT_GAPC_SCAN_PROGRESS_RESULT 
 731:.\Generated_Source\PSoC4/BLE.c ****       * CYBLE_EVT_TIMEOUT (CYBLE_GAP_SCAN_TO)
 732:.\Generated_Source\PSoC4/BLE.c ****     
 733:.\Generated_Source\PSoC4/BLE.c ****      Parameters:
 734:.\Generated_Source\PSoC4/BLE.c ****       uint8 scanningIntervalType:  Fast or slow scanning interval with
 735:.\Generated_Source\PSoC4/BLE.c ****           timings entered in Scan settings section of the customiser.
 736:.\Generated_Source\PSoC4/BLE.c ****     	  * CYBLE_SCANNING_FAST   0x00u
 737:.\Generated_Source\PSoC4/BLE.c ****     	  * CYBLE_SCANNING_SLOW   0x01u
 738:.\Generated_Source\PSoC4/BLE.c ****     	  * CYBLE_SCANNING_CUSTOM 0x02u
 739:.\Generated_Source\PSoC4/BLE.c ****     
 740:.\Generated_Source\PSoC4/BLE.c ****     Return:
 741:.\Generated_Source\PSoC4/BLE.c ****      CYBLE_API_RESULT_T : Return value indicates if the function succeeded or
 742:.\Generated_Source\PSoC4/BLE.c ****      failed. Following are the possible error codes.
 743:.\Generated_Source\PSoC4/BLE.c ****      <table>
 744:.\Generated_Source\PSoC4/BLE.c ****       Errors codes                        Description
 745:.\Generated_Source\PSoC4/BLE.c ****       ------------                        -----------
 746:.\Generated_Source\PSoC4/BLE.c ****       CYBLE_ERROR_OK                      On successful operation.
 747:.\Generated_Source\PSoC4/BLE.c ****       CYBLE_ERROR_STACK_INTERNAL          An error occurred in the BLE stack.
 748:.\Generated_Source\PSoC4/BLE.c ****       CYBLE_ERROR_INVALID_PARAMETER       On passing an invalid parameter.
 749:.\Generated_Source\PSoC4/BLE.c ****      </table>
 750:.\Generated_Source\PSoC4/BLE.c ****      
 751:.\Generated_Source\PSoC4/BLE.c ****     ******************************************************************************/
 752:.\Generated_Source\PSoC4/BLE.c ****     CYBLE_API_RESULT_T CyBle_GapcStartScan(uint8 scanningIntervalType)
 753:.\Generated_Source\PSoC4/BLE.c ****     {
 754:.\Generated_Source\PSoC4/BLE.c ****         CYBLE_API_RESULT_T apiResult;
 755:.\Generated_Source\PSoC4/BLE.c **** 
 756:.\Generated_Source\PSoC4/BLE.c ****         if(scanningIntervalType > CYBLE_SCANNING_CUSTOM)
 757:.\Generated_Source\PSoC4/BLE.c ****         {
 758:.\Generated_Source\PSoC4/BLE.c ****             apiResult = CYBLE_ERROR_INVALID_PARAMETER;
 759:.\Generated_Source\PSoC4/BLE.c ****         }
 760:.\Generated_Source\PSoC4/BLE.c ****         else
 761:.\Generated_Source\PSoC4/BLE.c ****         {
 762:.\Generated_Source\PSoC4/BLE.c ****             if(scanningIntervalType == CYBLE_SCANNING_FAST)
 763:.\Generated_Source\PSoC4/BLE.c ****             {
 764:.\Generated_Source\PSoC4/BLE.c ****                 cyBle_discoveryInfo.scanTo = CYBLE_FAST_SCAN_TIMEOUT;
 765:.\Generated_Source\PSoC4/BLE.c ****                 cyBle_discoveryInfo.scanIntv = CYBLE_FAST_SCAN_INTERVAL;
 766:.\Generated_Source\PSoC4/BLE.c ****                 cyBle_discoveryInfo.scanWindow = CYBLE_FAST_SCAN_WINDOW;
 767:.\Generated_Source\PSoC4/BLE.c ****             }
 768:.\Generated_Source\PSoC4/BLE.c ****             else if(scanningIntervalType == CYBLE_SCANNING_SLOW)
 769:.\Generated_Source\PSoC4/BLE.c ****             {
 770:.\Generated_Source\PSoC4/BLE.c ****                 cyBle_discoveryInfo.scanTo = CYBLE_SLOW_SCAN_TIMEOUT;
 771:.\Generated_Source\PSoC4/BLE.c ****                 cyBle_discoveryInfo.scanIntv = CYBLE_SLOW_SCAN_INTERVAL;
 772:.\Generated_Source\PSoC4/BLE.c ****                 cyBle_discoveryInfo.scanWindow = CYBLE_SLOW_SCAN_WINDOW;
 773:.\Generated_Source\PSoC4/BLE.c ****             }       
 774:.\Generated_Source\PSoC4/BLE.c ****             else /* Do not update scanning intervals */
ARM GAS  C:\Users\KEVINH~1\AppData\Local\Temp\ccwJsVAk.s 			page 15


 775:.\Generated_Source\PSoC4/BLE.c ****             {
 776:.\Generated_Source\PSoC4/BLE.c ****             }
 777:.\Generated_Source\PSoC4/BLE.c ****             
 778:.\Generated_Source\PSoC4/BLE.c ****             cyBle_scanningIntervalType = scanningIntervalType;
 779:.\Generated_Source\PSoC4/BLE.c ****             apiResult = CyBle_GapcStartDiscovery(&cyBle_discoveryInfo);
 780:.\Generated_Source\PSoC4/BLE.c ****         
 781:.\Generated_Source\PSoC4/BLE.c ****             if(CYBLE_ERROR_OK == apiResult)
 782:.\Generated_Source\PSoC4/BLE.c ****             {
 783:.\Generated_Source\PSoC4/BLE.c ****                 cyBle_eventHandlerFlag |= CYBLE_START_FLAG;
 784:.\Generated_Source\PSoC4/BLE.c ****             }
 785:.\Generated_Source\PSoC4/BLE.c ****         }
 786:.\Generated_Source\PSoC4/BLE.c ****        
 787:.\Generated_Source\PSoC4/BLE.c ****         return (apiResult);
 788:.\Generated_Source\PSoC4/BLE.c ****     }
 789:.\Generated_Source\PSoC4/BLE.c ****     
 790:.\Generated_Source\PSoC4/BLE.c ****     
 791:.\Generated_Source\PSoC4/BLE.c ****     /******************************************************************************
 792:.\Generated_Source\PSoC4/BLE.c ****     ##Function Name: CyBle_GapcStopScan
 793:.\Generated_Source\PSoC4/BLE.c ****     *******************************************************************************
 794:.\Generated_Source\PSoC4/BLE.c ****     
 795:.\Generated_Source\PSoC4/BLE.c ****      Summary:
 796:.\Generated_Source\PSoC4/BLE.c ****       This function used to stop the discovery of devices. On stopping discovery
 797:.\Generated_Source\PSoC4/BLE.c ****       operation, CYBLE_EVT_GAPC_SCAN_START_STOP event is generated. Application
 798:.\Generated_Source\PSoC4/BLE.c ****       layer needs to keep track of the function call made before receiving this
 799:.\Generated_Source\PSoC4/BLE.c ****       event to associate this event with either the start or stop discovery
 800:.\Generated_Source\PSoC4/BLE.c ****       function.
 801:.\Generated_Source\PSoC4/BLE.c ****     
 802:.\Generated_Source\PSoC4/BLE.c ****       Possible events generated are:
 803:.\Generated_Source\PSoC4/BLE.c ****        * CYBLE_EVT_GAPC_SCAN_START_STOP
 804:.\Generated_Source\PSoC4/BLE.c ****     
 805:.\Generated_Source\PSoC4/BLE.c ****      Parameters:
 806:.\Generated_Source\PSoC4/BLE.c ****       None
 807:.\Generated_Source\PSoC4/BLE.c ****     
 808:.\Generated_Source\PSoC4/BLE.c ****      Return:
 809:.\Generated_Source\PSoC4/BLE.c ****       None
 810:.\Generated_Source\PSoC4/BLE.c ****     
 811:.\Generated_Source\PSoC4/BLE.c ****     ******************************************************************************/
 812:.\Generated_Source\PSoC4/BLE.c ****     void CyBle_GapcStopScan(void)
 813:.\Generated_Source\PSoC4/BLE.c ****     {
 814:.\Generated_Source\PSoC4/BLE.c ****         CyBle_GapcStopDiscovery();
 815:.\Generated_Source\PSoC4/BLE.c ****         
 816:.\Generated_Source\PSoC4/BLE.c ****         cyBle_eventHandlerFlag |= CYBLE_STOP_FLAG;
 817:.\Generated_Source\PSoC4/BLE.c ****     }
 818:.\Generated_Source\PSoC4/BLE.c **** 
 819:.\Generated_Source\PSoC4/BLE.c ****     
 820:.\Generated_Source\PSoC4/BLE.c **** #endif /* CYBLE_GAP_ROLE_CENTRAL || CYBLE_GAP_ROLE_OBSERVER */
 821:.\Generated_Source\PSoC4/BLE.c **** 
 822:.\Generated_Source\PSoC4/BLE.c **** 
 823:.\Generated_Source\PSoC4/BLE.c **** #if(CYBLE_GAP_ROLE_CENTRAL)
 824:.\Generated_Source\PSoC4/BLE.c **** 
 825:.\Generated_Source\PSoC4/BLE.c ****     /******************************************************************************
 826:.\Generated_Source\PSoC4/BLE.c ****     ##Function Name: CyBle_GapcConnectDevice
 827:.\Generated_Source\PSoC4/BLE.c ****     *******************************************************************************
 828:.\Generated_Source\PSoC4/BLE.c ****     
 829:.\Generated_Source\PSoC4/BLE.c ****     Summary:
 830:.\Generated_Source\PSoC4/BLE.c ****      This function is used to send a connection request to the remote device with
 831:.\Generated_Source\PSoC4/BLE.c ****      the connection parameters set in the component customizer. This function needs
ARM GAS  C:\Users\KEVINH~1\AppData\Local\Temp\ccwJsVAk.s 			page 16


 832:.\Generated_Source\PSoC4/BLE.c ****      to be called only once after the target device is discovered by 
 833:.\Generated_Source\PSoC4/BLE.c ****      CyBle_GapcStartScan() and further scanning has stopped. Scanning is 
 834:.\Generated_Source\PSoC4/BLE.c ****      successfully stopped on invoking CyBle_GapcStopScan() and then receiving the
 835:.\Generated_Source\PSoC4/BLE.c ****      event CYBLE_EVT_GAPC_SCAN_START_STOP with sub-parameter 'success' = 0x01u.
 836:.\Generated_Source\PSoC4/BLE.c ****      
 837:.\Generated_Source\PSoC4/BLE.c ****      On successful connection, the following events are generated at the GAP 
 838:.\Generated_Source\PSoC4/BLE.c ****      Central device (as well as the GAP Peripheral device), in the following order.
 839:.\Generated_Source\PSoC4/BLE.c ****      * CYBLE_EVT_GATT_CONNECT_IND
 840:.\Generated_Source\PSoC4/BLE.c ****      * CYBLE_EVT_GAP_DEVICE_CONNECTED
 841:.\Generated_Source\PSoC4/BLE.c ****  
 842:.\Generated_Source\PSoC4/BLE.c ****      A procedure is considered to have timed out if a connection response packet is 
 843:.\Generated_Source\PSoC4/BLE.c ****      not received within time set by cyBle_connectingTimeout global variable
 844:.\Generated_Source\PSoC4/BLE.c ****      (30 seconds by default). CYBLE_EVT_TIMEOUT event with CYBLE_GENERIC_TO parameter
 845:.\Generated_Source\PSoC4/BLE.c ****      will indicate about connection procedure timeout. Connection will automatically
 846:.\Generated_Source\PSoC4/BLE.c ****      be cancelled and state will be changed to CYBLE_STATE_DISCONNECTED.
 847:.\Generated_Source\PSoC4/BLE.c ****     
 848:.\Generated_Source\PSoC4/BLE.c ****     Parameters:
 849:.\Generated_Source\PSoC4/BLE.c ****      const CYBLE_GAP_BD_ADDR_T address: The device address of the remote device to 
 850:.\Generated_Source\PSoC4/BLE.c ****                                         connect to. 
 851:.\Generated_Source\PSoC4/BLE.c ****      timeout: Timeout for which timer to be started in seconds.
 852:.\Generated_Source\PSoC4/BLE.c ****  
 853:.\Generated_Source\PSoC4/BLE.c ****     Return:
 854:.\Generated_Source\PSoC4/BLE.c ****      CYBLE_API_RESULT_T : Return value indicates if the function succeeded or 
 855:.\Generated_Source\PSoC4/BLE.c ****      failed. Following are the possible error codes.
 856:.\Generated_Source\PSoC4/BLE.c ****      <table>
 857:.\Generated_Source\PSoC4/BLE.c ****       Errors codes                        Description
 858:.\Generated_Source\PSoC4/BLE.c ****       ------------                        -----------
 859:.\Generated_Source\PSoC4/BLE.c ****       CYBLE_ERROR_OK                      On successful operation.
 860:.\Generated_Source\PSoC4/BLE.c ****       CYBLE_ERROR_STACK_INTERNAL          On error occurred in the BLE stack.
 861:.\Generated_Source\PSoC4/BLE.c ****       CYBLE_ERROR_INVALID_PARAMETER       On passing an invalid parameter.
 862:.\Generated_Source\PSoC4/BLE.c ****       CYBLE_ERROR_INVALID_STATE           On calling this API not in 
 863:.\Generated_Source\PSoC4/BLE.c ****                                           Disconnected state.
 864:.\Generated_Source\PSoC4/BLE.c ****      </table>
 865:.\Generated_Source\PSoC4/BLE.c ****  
 866:.\Generated_Source\PSoC4/BLE.c ****     ******************************************************************************/
 867:.\Generated_Source\PSoC4/BLE.c ****     CYBLE_API_RESULT_T CyBle_GapcConnectDevice(const CYBLE_GAP_BD_ADDR_T * address)
 868:.\Generated_Source\PSoC4/BLE.c ****     {
 869:.\Generated_Source\PSoC4/BLE.c ****         CYBLE_API_RESULT_T apiResult;
 870:.\Generated_Source\PSoC4/BLE.c ****         uint8 i;
 871:.\Generated_Source\PSoC4/BLE.c **** 
 872:.\Generated_Source\PSoC4/BLE.c ****         if(CYBLE_STATE_DISCONNECTED != CyBle_GetState())
 873:.\Generated_Source\PSoC4/BLE.c ****         {
 874:.\Generated_Source\PSoC4/BLE.c ****             apiResult = CYBLE_ERROR_INVALID_STATE;
 875:.\Generated_Source\PSoC4/BLE.c ****         }
 876:.\Generated_Source\PSoC4/BLE.c ****         else if(address == NULL)
 877:.\Generated_Source\PSoC4/BLE.c ****         {
 878:.\Generated_Source\PSoC4/BLE.c ****             apiResult = CYBLE_ERROR_INVALID_PARAMETER;
 879:.\Generated_Source\PSoC4/BLE.c ****         }
 880:.\Generated_Source\PSoC4/BLE.c ****         else
 881:.\Generated_Source\PSoC4/BLE.c ****         {
 882:.\Generated_Source\PSoC4/BLE.c ****             for(i = 0u; i < CYBLE_GAP_BD_ADDR_SIZE; i++)
 883:.\Generated_Source\PSoC4/BLE.c ****             {
 884:.\Generated_Source\PSoC4/BLE.c ****                 cyBle_connectionParameters.peerBdAddr[i] = address->bdAddr[i];
 885:.\Generated_Source\PSoC4/BLE.c ****             }
 886:.\Generated_Source\PSoC4/BLE.c ****             cyBle_connectionParameters.peerAddrType = address -> type;
 887:.\Generated_Source\PSoC4/BLE.c ****             apiResult = CyBle_GapcInitConnection(&cyBle_connectionParameters);
 888:.\Generated_Source\PSoC4/BLE.c ****             
ARM GAS  C:\Users\KEVINH~1\AppData\Local\Temp\ccwJsVAk.s 			page 17


 889:.\Generated_Source\PSoC4/BLE.c ****             if(CYBLE_ERROR_OK == apiResult)
 890:.\Generated_Source\PSoC4/BLE.c ****             {
 891:.\Generated_Source\PSoC4/BLE.c ****                 CyBle_SetState(CYBLE_STATE_CONNECTING);
 892:.\Generated_Source\PSoC4/BLE.c ****                 if(cyBle_connectingTimeout != 0u)
 893:.\Generated_Source\PSoC4/BLE.c ****                 {
 894:.\Generated_Source\PSoC4/BLE.c ****                     (void)CyBle_StartTimer(cyBle_connectingTimeout);
 895:.\Generated_Source\PSoC4/BLE.c ****                 }
 896:.\Generated_Source\PSoC4/BLE.c ****             }
 897:.\Generated_Source\PSoC4/BLE.c ****         }
 898:.\Generated_Source\PSoC4/BLE.c ****         return (apiResult);
 899:.\Generated_Source\PSoC4/BLE.c ****     }
 900:.\Generated_Source\PSoC4/BLE.c ****     
 901:.\Generated_Source\PSoC4/BLE.c **** 
 902:.\Generated_Source\PSoC4/BLE.c ****     /******************************************************************************
 903:.\Generated_Source\PSoC4/BLE.c ****     ##Function Name: CyBle_GapcCancelDeviceConnection
 904:.\Generated_Source\PSoC4/BLE.c ****     *******************************************************************************
 905:.\Generated_Source\PSoC4/BLE.c ****     
 906:.\Generated_Source\PSoC4/BLE.c ****     Summary:
 907:.\Generated_Source\PSoC4/BLE.c ****      This function cancels a previously initiated connection with the remote 
 908:.\Generated_Source\PSoC4/BLE.c ****      device. It is a blocking function. No event is generated on calling this 
 909:.\Generated_Source\PSoC4/BLE.c ****      function. If the devices are already connected then this function should not
 910:.\Generated_Source\PSoC4/BLE.c ****      be used. If you intend to disconnect from an existing connection, the function
 911:.\Generated_Source\PSoC4/BLE.c ****      CyBle_GapDisconnect() should be used.
 912:.\Generated_Source\PSoC4/BLE.c **** 
 913:.\Generated_Source\PSoC4/BLE.c ****     Parameters:
 914:.\Generated_Source\PSoC4/BLE.c ****      None
 915:.\Generated_Source\PSoC4/BLE.c **** 
 916:.\Generated_Source\PSoC4/BLE.c ****     Return:
 917:.\Generated_Source\PSoC4/BLE.c ****      CYBLE_API_RESULT_T : Return value indicates if the function succeeded or 
 918:.\Generated_Source\PSoC4/BLE.c ****      failed. Following are the possible error codes.
 919:.\Generated_Source\PSoC4/BLE.c ****      <table>
 920:.\Generated_Source\PSoC4/BLE.c ****       Errors codes                        Description
 921:.\Generated_Source\PSoC4/BLE.c ****       ------------                        -----------
 922:.\Generated_Source\PSoC4/BLE.c ****       CYBLE_ERROR_OK                      On successful operation.
 923:.\Generated_Source\PSoC4/BLE.c ****       CYBLE_ERROR_STACK_INTERNAL          An error occurred in the 
 924:.\Generated_Source\PSoC4/BLE.c ****                                            BLE stack.
 925:.\Generated_Source\PSoC4/BLE.c ****       CYBLE_ERROR_INVALID_OPERATION       Device is already connected.
 926:.\Generated_Source\PSoC4/BLE.c ****      </table>
 927:.\Generated_Source\PSoC4/BLE.c ****  
 928:.\Generated_Source\PSoC4/BLE.c ****     ******************************************************************************/
 929:.\Generated_Source\PSoC4/BLE.c ****     CYBLE_API_RESULT_T CyBle_GapcCancelDeviceConnection(void)
 930:.\Generated_Source\PSoC4/BLE.c ****     {
 931:.\Generated_Source\PSoC4/BLE.c ****         CYBLE_API_RESULT_T apiResult;
 932:.\Generated_Source\PSoC4/BLE.c ****         
 933:.\Generated_Source\PSoC4/BLE.c ****         apiResult = CyBle_GapcCancelConnection();
 934:.\Generated_Source\PSoC4/BLE.c ****             
 935:.\Generated_Source\PSoC4/BLE.c ****         if(cyBle_connectingTimeout != 0u)
 936:.\Generated_Source\PSoC4/BLE.c ****         {
 937:.\Generated_Source\PSoC4/BLE.c ****             (void)CyBle_StopTimer();
 938:.\Generated_Source\PSoC4/BLE.c ****         }
 939:.\Generated_Source\PSoC4/BLE.c **** 
 940:.\Generated_Source\PSoC4/BLE.c ****         if(CYBLE_ERROR_OK == apiResult)
 941:.\Generated_Source\PSoC4/BLE.c ****         {
 942:.\Generated_Source\PSoC4/BLE.c ****             CyBle_SetState(CYBLE_STATE_DISCONNECTED);
 943:.\Generated_Source\PSoC4/BLE.c ****         }
 944:.\Generated_Source\PSoC4/BLE.c ****         return (apiResult);
 945:.\Generated_Source\PSoC4/BLE.c ****     }    
ARM GAS  C:\Users\KEVINH~1\AppData\Local\Temp\ccwJsVAk.s 			page 18


 946:.\Generated_Source\PSoC4/BLE.c **** 
 947:.\Generated_Source\PSoC4/BLE.c ****     
 948:.\Generated_Source\PSoC4/BLE.c **** #endif /* CYBLE_GAP_ROLE_CENTRAL */
 949:.\Generated_Source\PSoC4/BLE.c **** 
 950:.\Generated_Source\PSoC4/BLE.c **** 
 951:.\Generated_Source\PSoC4/BLE.c **** #if(CYBLE_GATT_ROLE_SERVER)
 952:.\Generated_Source\PSoC4/BLE.c **** 
 953:.\Generated_Source\PSoC4/BLE.c **** #if(CYBLE_GAP_ROLE_PERIPHERAL)
 954:.\Generated_Source\PSoC4/BLE.c **** 
 955:.\Generated_Source\PSoC4/BLE.c ****         /******************************************************************************
 956:.\Generated_Source\PSoC4/BLE.c ****         ##Function Name: CyBle_ChangeAdLocalName
 957:.\Generated_Source\PSoC4/BLE.c ****         *******************************************************************************
 958:.\Generated_Source\PSoC4/BLE.c ****         Summary:
 959:.\Generated_Source\PSoC4/BLE.c ****          This API is used to set the local device name in the advertisement or scan 
 960:.\Generated_Source\PSoC4/BLE.c ****          response data structure.
 961:.\Generated_Source\PSoC4/BLE.c **** 
 962:.\Generated_Source\PSoC4/BLE.c ****         Parameters:
 963:.\Generated_Source\PSoC4/BLE.c ****          char8 name: The local device name string to be set in advertisement data 
 964:.\Generated_Source\PSoC4/BLE.c ****                    structure.
 965:.\Generated_Source\PSoC4/BLE.c ****          uint8 dest: 0 - advertisement structure, not zero value selects scan response
 966:.\Generated_Source\PSoC4/BLE.c ****                      structure.
 967:.\Generated_Source\PSoC4/BLE.c **** 
 968:.\Generated_Source\PSoC4/BLE.c ****         Return:
 969:.\Generated_Source\PSoC4/BLE.c ****          None
 970:.\Generated_Source\PSoC4/BLE.c ****      
 971:.\Generated_Source\PSoC4/BLE.c ****         ******************************************************************************/
 972:.\Generated_Source\PSoC4/BLE.c ****         static void CyBle_ChangeAdLocalName(const char8 name[], uint8 dest)
 973:.\Generated_Source\PSoC4/BLE.c ****         {
  25              		.loc 1 973 0
  26              		.cfi_startproc
  27              	.LVL0:
  28 0000 F0B5     		push	{r4, r5, r6, r7, lr}
  29              		.cfi_def_cfa_offset 20
  30              		.cfi_offset 4, -20
  31              		.cfi_offset 5, -16
  32              		.cfi_offset 6, -12
  33              		.cfi_offset 7, -8
  34              		.cfi_offset 14, -4
  35              	.LVL1:
 974:.\Generated_Source\PSoC4/BLE.c ****             uint8 i;
 975:.\Generated_Source\PSoC4/BLE.c ****             uint8 flag = 0u;
 976:.\Generated_Source\PSoC4/BLE.c ****             uint8 adLength = 0u;
 977:.\Generated_Source\PSoC4/BLE.c ****             uint8 byteCounter = 0u;
 978:.\Generated_Source\PSoC4/BLE.c ****             uint8 *destBuffer;
 979:.\Generated_Source\PSoC4/BLE.c ****             uint8 maxLength;
 980:.\Generated_Source\PSoC4/BLE.c ****             
 981:.\Generated_Source\PSoC4/BLE.c ****             if(dest == 0u)      /* Destination - advertising structure */
  36              		.loc 1 981 0
  37 0002 0029     		cmp	r1, #0
  38 0004 06D1     		bne	.L2
  39              	.LVL2:
 982:.\Generated_Source\PSoC4/BLE.c ****             {
 983:.\Generated_Source\PSoC4/BLE.c ****                 destBuffer = cyBle_discoveryData.advData;
 984:.\Generated_Source\PSoC4/BLE.c ****                 maxLength = cyBle_discoveryData.advDataLen;
  40              		.loc 1 984 0
  41 0006 1A49     		ldr	r1, .L16
  42              	.LVL3:
ARM GAS  C:\Users\KEVINH~1\AppData\Local\Temp\ccwJsVAk.s 			page 19


  43 0008 CE7F     		ldrb	r6, [r1, #31]
  44              	.LVL4:
  45              	.L4:
 985:.\Generated_Source\PSoC4/BLE.c ****             }
 986:.\Generated_Source\PSoC4/BLE.c ****             else                /* Destination - scan response structure */
 987:.\Generated_Source\PSoC4/BLE.c ****             {
 988:.\Generated_Source\PSoC4/BLE.c ****                 destBuffer = cyBle_scanRspData.scanRspData;
 989:.\Generated_Source\PSoC4/BLE.c ****                 maxLength = cyBle_scanRspData.scanRspDataLen;
 990:.\Generated_Source\PSoC4/BLE.c ****             }
 991:.\Generated_Source\PSoC4/BLE.c ****             
 992:.\Generated_Source\PSoC4/BLE.c ****             while((byteCounter < maxLength) && (0u == flag))
 993:.\Generated_Source\PSoC4/BLE.c ****             {
 994:.\Generated_Source\PSoC4/BLE.c ****                 adLength = destBuffer[byteCounter];
 995:.\Generated_Source\PSoC4/BLE.c ****                 
 996:.\Generated_Source\PSoC4/BLE.c ****                 if(0u != adLength)
 997:.\Generated_Source\PSoC4/BLE.c ****                 {
 998:.\Generated_Source\PSoC4/BLE.c ****                     /* Increment byte counter so it can point to AD type */
 999:.\Generated_Source\PSoC4/BLE.c ****                     byteCounter++;
1000:.\Generated_Source\PSoC4/BLE.c ****                     
1001:.\Generated_Source\PSoC4/BLE.c ****                     if((CYBLE_SHORT_LOCAL_NAME == destBuffer[byteCounter]) || 
1002:.\Generated_Source\PSoC4/BLE.c ****                        (CYBLE_COMPLETE_LOCAL_NAME == destBuffer[byteCounter]))
1003:.\Generated_Source\PSoC4/BLE.c ****                     {
1004:.\Generated_Source\PSoC4/BLE.c ****                         /* Start of the Local Name AD type was fount. Set flag and exit the loop. *
1005:.\Generated_Source\PSoC4/BLE.c ****                         flag = 1u;
  46              		.loc 1 1005 0 discriminator 1
  47 000a 0023     		mov	r3, #0
  48 000c 0022     		mov	r2, #0
  49 000e 0025     		mov	r5, #0
  50 0010 0127     		mov	r7, #1
  51 0012 0FE0     		b	.L14
  52              	.LVL5:
  53              	.L2:
 989:.\Generated_Source\PSoC4/BLE.c ****                 maxLength = cyBle_scanRspData.scanRspDataLen;
  54              		.loc 1 989 0
  55 0014 1749     		ldr	r1, .L16+4
  56              	.LVL6:
  57 0016 CE7F     		ldrb	r6, [r1, #31]
  58              	.LVL7:
  59 0018 F7E7     		b	.L4
  60              	.LVL8:
  61              	.L7:
 994:.\Generated_Source\PSoC4/BLE.c ****                 adLength = destBuffer[byteCounter];
  62              		.loc 1 994 0
  63 001a CA5C     		ldrb	r2, [r1, r3]
  64              	.LVL9:
 996:.\Generated_Source\PSoC4/BLE.c ****                 if(0u != adLength)
  65              		.loc 1 996 0
  66 001c 002A     		cmp	r2, #0
  67 001e 0DD0     		beq	.L5
 999:.\Generated_Source\PSoC4/BLE.c ****                     byteCounter++;
  68              		.loc 1 999 0
  69 0020 0133     		add	r3, r3, #1
  70              	.LVL10:
  71 0022 DBB2     		uxtb	r3, r3
  72              	.LVL11:
1001:.\Generated_Source\PSoC4/BLE.c ****                     if((CYBLE_SHORT_LOCAL_NAME == destBuffer[byteCounter]) || 
  73              		.loc 1 1001 0
ARM GAS  C:\Users\KEVINH~1\AppData\Local\Temp\ccwJsVAk.s 			page 20


  74 0024 CC5C     		ldrb	r4, [r1, r3]
  75 0026 083C     		sub	r4, r4, #8
  76 0028 012C     		cmp	r4, #1
  77 002a 02D9     		bls	.L13
1006:.\Generated_Source\PSoC4/BLE.c ****                     }
1007:.\Generated_Source\PSoC4/BLE.c ****                     else
1008:.\Generated_Source\PSoC4/BLE.c ****                     {
1009:.\Generated_Source\PSoC4/BLE.c ****                         byteCounter += adLength;
  78              		.loc 1 1009 0
  79 002c 9B18     		add	r3, r3, r2
  80              	.LVL12:
  81 002e DBB2     		uxtb	r3, r3
  82              	.LVL13:
  83 0030 00E0     		b	.L14
  84              	.L13:
1005:.\Generated_Source\PSoC4/BLE.c ****                         flag = 1u;
  85              		.loc 1 1005 0
  86 0032 3D1C     		mov	r5, r7
  87              	.LVL14:
  88              	.L14:
 992:.\Generated_Source\PSoC4/BLE.c ****             while((byteCounter < maxLength) && (0u == flag))
  89              		.loc 1 992 0 discriminator 1
  90 0034 B342     		cmp	r3, r6
  91 0036 01D2     		bcs	.L5
 992:.\Generated_Source\PSoC4/BLE.c ****             while((byteCounter < maxLength) && (0u == flag))
  92              		.loc 1 992 0 is_stmt 0 discriminator 2
  93 0038 002D     		cmp	r5, #0
  94 003a EED0     		beq	.L7
  95              	.LVL15:
  96              	.L5:
1010:.\Generated_Source\PSoC4/BLE.c ****                     }
1011:.\Generated_Source\PSoC4/BLE.c ****                 }
1012:.\Generated_Source\PSoC4/BLE.c ****                 else
1013:.\Generated_Source\PSoC4/BLE.c ****                 {
1014:.\Generated_Source\PSoC4/BLE.c ****                     /* The end of advertisement data structure was encountered though exit the loop
1015:.\Generated_Source\PSoC4/BLE.c ****                     break;
1016:.\Generated_Source\PSoC4/BLE.c ****                 }
1017:.\Generated_Source\PSoC4/BLE.c ****             }
1018:.\Generated_Source\PSoC4/BLE.c ****             
1019:.\Generated_Source\PSoC4/BLE.c ****             if(0u != flag)
  97              		.loc 1 1019 0 is_stmt 1
  98 003c 002D     		cmp	r5, #0
  99 003e 16D0     		beq	.L1
1020:.\Generated_Source\PSoC4/BLE.c ****             {
1021:.\Generated_Source\PSoC4/BLE.c ****                 /* Reuse "adLength" to hold location of the last character of local name in 
1022:.\Generated_Source\PSoC4/BLE.c ****                    AD structure. */
1023:.\Generated_Source\PSoC4/BLE.c ****                 adLength += byteCounter;
 100              		.loc 1 1023 0
 101 0040 D218     		add	r2, r2, r3
 102              	.LVL16:
 103 0042 D5B2     		uxtb	r5, r2
 104              	.LVL17:
1024:.\Generated_Source\PSoC4/BLE.c ****                 
1025:.\Generated_Source\PSoC4/BLE.c ****                 /* Increment byte counter to point to start of the local Name string */
1026:.\Generated_Source\PSoC4/BLE.c ****                 byteCounter++;
 105              		.loc 1 1026 0
 106 0044 0133     		add	r3, r3, #1
ARM GAS  C:\Users\KEVINH~1\AppData\Local\Temp\ccwJsVAk.s 			page 21


 107              	.LVL18:
 108 0046 DBB2     		uxtb	r3, r3
 109              	.LVL19:
1027:.\Generated_Source\PSoC4/BLE.c ****                 
1028:.\Generated_Source\PSoC4/BLE.c ****                 for(i = byteCounter; ((i < (adLength)) && (CYBLE_NULL_CHARCTER != name[i - byteCoun
 110              		.loc 1 1028 0
 111 0048 1A1C     		mov	r2, r3
 112              	.LVL20:
 113 004a 02E0     		b	.L9
 114              	.LVL21:
 115              	.L11:
1029:.\Generated_Source\PSoC4/BLE.c ****                 {
1030:.\Generated_Source\PSoC4/BLE.c ****                     destBuffer[i] = (uint8)name[i - byteCounter];
 116              		.loc 1 1030 0 discriminator 1
 117 004c 8C54     		strb	r4, [r1, r2]
1028:.\Generated_Source\PSoC4/BLE.c ****                 for(i = byteCounter; ((i < (adLength)) && (CYBLE_NULL_CHARCTER != name[i - byteCoun
 118              		.loc 1 1028 0 discriminator 1
 119 004e 0132     		add	r2, r2, #1
 120              	.LVL22:
 121 0050 D2B2     		uxtb	r2, r2
 122              	.LVL23:
 123              	.L9:
 124 0052 AA42     		cmp	r2, r5
 125 0054 08D2     		bcs	.L10
1028:.\Generated_Source\PSoC4/BLE.c ****                 for(i = byteCounter; ((i < (adLength)) && (CYBLE_NULL_CHARCTER != name[i - byteCoun
 126              		.loc 1 1028 0 is_stmt 0 discriminator 2
 127 0056 D41A     		sub	r4, r2, r3
 128 0058 045D     		ldrb	r4, [r0, r4]
 129 005a 002C     		cmp	r4, #0
 130 005c F6D1     		bne	.L11
 131 005e 03E0     		b	.L10
 132              	.LVL24:
 133              	.L12:
1031:.\Generated_Source\PSoC4/BLE.c ****                 }
1032:.\Generated_Source\PSoC4/BLE.c ****                 
1033:.\Generated_Source\PSoC4/BLE.c ****                 /* This loop handles the case when new local name is shorted than old one.
1034:.\Generated_Source\PSoC4/BLE.c ****                    In this case all remaining characters should be null characters. */
1035:.\Generated_Source\PSoC4/BLE.c ****                 while(adLength > i)
1036:.\Generated_Source\PSoC4/BLE.c ****                 {
1037:.\Generated_Source\PSoC4/BLE.c ****                     /* Terminate string */
1038:.\Generated_Source\PSoC4/BLE.c ****                     destBuffer[i] = (uint8)CYBLE_NULL_CHARCTER;
 134              		.loc 1 1038 0 is_stmt 1
 135 0060 8B54     		strb	r3, [r1, r2]
1039:.\Generated_Source\PSoC4/BLE.c ****                     i++;
 136              		.loc 1 1039 0
 137 0062 0132     		add	r2, r2, #1
 138              	.LVL25:
 139 0064 D2B2     		uxtb	r2, r2
 140              	.LVL26:
 141 0066 00E0     		b	.L15
 142              	.LVL27:
 143              	.L10:
1038:.\Generated_Source\PSoC4/BLE.c ****                     destBuffer[i] = (uint8)CYBLE_NULL_CHARCTER;
 144              		.loc 1 1038 0 discriminator 1
 145 0068 0023     		mov	r3, #0
 146              	.LVL28:
 147              	.L15:
ARM GAS  C:\Users\KEVINH~1\AppData\Local\Temp\ccwJsVAk.s 			page 22


1035:.\Generated_Source\PSoC4/BLE.c ****                 while(adLength > i)
 148              		.loc 1 1035 0 discriminator 1
 149 006a 9542     		cmp	r5, r2
 150 006c F8D8     		bhi	.L12
 151              	.LVL29:
 152              	.L1:
1040:.\Generated_Source\PSoC4/BLE.c ****                 }
1041:.\Generated_Source\PSoC4/BLE.c ****             }
1042:.\Generated_Source\PSoC4/BLE.c ****         }
 153              		.loc 1 1042 0
 154              		@ sp needed
 155              	.LVL30:
 156 006e F0BD     		pop	{r4, r5, r6, r7, pc}
 157              	.L17:
 158              		.align	2
 159              	.L16:
 160 0070 00000000 		.word	.LANCHOR0
 161 0074 00000000 		.word	.LANCHOR1
 162              		.cfi_endproc
 163              	.LFE9:
 164              		.size	CyBle_ChangeAdLocalName, .-CyBle_ChangeAdLocalName
 165              		.section	.text.CyBle_ServiceInit,"ax",%progbits
 166              		.align	2
 167              		.global	CyBle_ServiceInit
 168              		.code	16
 169              		.thumb_func
 170              		.type	CyBle_ServiceInit, %function
 171              	CyBle_ServiceInit:
 172              	.LFB3:
 193:.\Generated_Source\PSoC4/BLE.c **** {
 173              		.loc 1 193 0
 174              		.cfi_startproc
 175 0000 08B5     		push	{r3, lr}
 176              		.cfi_def_cfa_offset 8
 177              		.cfi_offset 3, -8
 178              		.cfi_offset 14, -4
 244:.\Generated_Source\PSoC4/BLE.c ****         CyBle_CustomInit();
 179              		.loc 1 244 0
 180 0002 FFF7FEFF 		bl	CyBle_CustomInit
 181              	.LVL31:
 298:.\Generated_Source\PSoC4/BLE.c **** }
 182              		.loc 1 298 0
 183              		@ sp needed
 184 0006 08BD     		pop	{r3, pc}
 185              		.cfi_endproc
 186              	.LFE3:
 187              		.size	CyBle_ServiceInit, .-CyBle_ServiceInit
 188              		.section	.text.CyBle_Init,"ax",%progbits
 189              		.align	2
 190              		.global	CyBle_Init
 191              		.code	16
 192              		.thumb_func
 193              		.type	CyBle_Init, %function
 194              	CyBle_Init:
 195              	.LFB2:
 141:.\Generated_Source\PSoC4/BLE.c **** {
 196              		.loc 1 141 0
ARM GAS  C:\Users\KEVINH~1\AppData\Local\Temp\ccwJsVAk.s 			page 23


 197              		.cfi_startproc
 198 0000 08B5     		push	{r3, lr}
 199              		.cfi_def_cfa_offset 8
 200              		.cfi_offset 3, -8
 201              		.cfi_offset 14, -4
 142:.\Generated_Source\PSoC4/BLE.c ****     cyBle_eventHandlerFlag = 0u;
 202              		.loc 1 142 0
 203 0002 0023     		mov	r3, #0
 204 0004 044A     		ldr	r2, .L20
 205 0006 1370     		strb	r3, [r2]
 143:.\Generated_Source\PSoC4/BLE.c ****     cyBle_busyStatus = CYBLE_STACK_STATE_FREE;
 206              		.loc 1 143 0
 207 0008 044A     		ldr	r2, .L20+4
 208 000a 1370     		strb	r3, [r2]
 146:.\Generated_Source\PSoC4/BLE.c ****         cyBle_advertisingIntervalType = CYBLE_ADVERTISING_FAST; 
 209              		.loc 1 146 0
 210 000c 044A     		ldr	r2, .L20+8
 211 000e 1370     		strb	r3, [r2]
 169:.\Generated_Source\PSoC4/BLE.c ****     CyBle_ServiceInit();
 212              		.loc 1 169 0
 213 0010 FFF7FEFF 		bl	CyBle_ServiceInit
 214              	.LVL32:
 175:.\Generated_Source\PSoC4/BLE.c **** }
 215              		.loc 1 175 0
 216              		@ sp needed
 217 0014 08BD     		pop	{r3, pc}
 218              	.L21:
 219 0016 C046     		.align	2
 220              	.L20:
 221 0018 00000000 		.word	cyBle_eventHandlerFlag
 222 001c 00000000 		.word	cyBle_busyStatus
 223 0020 00000000 		.word	cyBle_advertisingIntervalType
 224              		.cfi_endproc
 225              	.LFE2:
 226              		.size	CyBle_Init, .-CyBle_Init
 227              		.section	.text.CyBle_Start,"ax",%progbits
 228              		.align	2
 229              		.global	CyBle_Start
 230              		.code	16
 231              		.thumb_func
 232              		.type	CyBle_Start, %function
 233              	CyBle_Start:
 234              	.LFB4:
 351:.\Generated_Source\PSoC4/BLE.c **** {
 235              		.loc 1 351 0
 236              		.cfi_startproc
 237              	.LVL33:
 238 0000 10B5     		push	{r4, lr}
 239              		.cfi_def_cfa_offset 8
 240              		.cfi_offset 4, -8
 241              		.cfi_offset 14, -4
 242 0002 88B0     		sub	sp, sp, #32
 243              		.cfi_def_cfa_offset 40
 244 0004 041C     		mov	r4, r0
 245              	.LVL34:
 355:.\Generated_Source\PSoC4/BLE.c ****     if(cyBle_initVar == 0u)
 246              		.loc 1 355 0
ARM GAS  C:\Users\KEVINH~1\AppData\Local\Temp\ccwJsVAk.s 			page 24


 247 0006 2023     		mov	r3, #32
 248 0008 144A     		ldr	r2, .L27
 249 000a D35C     		ldrb	r3, [r2, r3]
 250 000c 002B     		cmp	r3, #0
 251 000e 05D1     		bne	.L23
 357:.\Generated_Source\PSoC4/BLE.c ****         CyBle_Init();
 252              		.loc 1 357 0
 253 0010 FFF7FEFF 		bl	CyBle_Init
 254              	.LVL35:
 358:.\Generated_Source\PSoC4/BLE.c ****         cyBle_initVar = 1u;
 255              		.loc 1 358 0
 256 0014 0121     		mov	r1, #1
 257 0016 2023     		mov	r3, #32
 258 0018 104A     		ldr	r2, .L27
 259 001a D154     		strb	r1, [r2, r3]
 260              	.L23:
 361:.\Generated_Source\PSoC4/BLE.c ****     if(callbackFunc != NULL)
 261              		.loc 1 361 0
 262 001c 002C     		cmp	r4, #0
 263 001e 19D0     		beq	.L26
 264              	.LBB2:
 364:.\Generated_Source\PSoC4/BLE.c ****         CYBLE_STK_APP_DATA_BUFF_T dataBuff[CYBLE_STACK_BUF_COUNT] = 
 265              		.loc 1 364 0
 266 0020 02A8     		add	r0, sp, #8
 267 0022 0F49     		ldr	r1, .L27+4
 268 0024 1822     		mov	r2, #24
 269 0026 FFF7FEFF 		bl	memcpy
 270              	.LVL36:
 374:.\Generated_Source\PSoC4/BLE.c ****         apiResult = CyBle_StackInit(&CyBle_EventHandler, cyBle_stackMemoryRam, CYBLE_STACK_RAM_SIZE
 271              		.loc 1 374 0
 272 002a 0623     		mov	r3, #6
 273 002c 0093     		str	r3, [sp]
 274 002e 0D48     		ldr	r0, .L27+8
 275 0030 0D49     		ldr	r1, .L27+12
 276 0032 0E4A     		ldr	r2, .L27+16
 277 0034 02AB     		add	r3, sp, #8
 278 0036 FFF7FEFF 		bl	CyBle_StackInit
 279              	.LVL37:
 380:.\Generated_Source\PSoC4/BLE.c ****         CyBle_ApplCallback = callbackFunc;
 280              		.loc 1 380 0
 281 003a 0D4B     		ldr	r3, .L27+20
 282 003c 1C60     		str	r4, [r3]
 383:.\Generated_Source\PSoC4/BLE.c ****         if(apiResult == CYBLE_ERROR_OK)
 283              		.loc 1 383 0
 284 003e 0028     		cmp	r0, #0
 285 0040 09D1     		bne	.L24
 385:.\Generated_Source\PSoC4/BLE.c ****             CyBle_SetState(CYBLE_STATE_INITIALIZING);
 286              		.loc 1 385 0
 287 0042 0122     		mov	r2, #1
 288 0044 0B4B     		ldr	r3, .L27+24
 289 0046 1A70     		strb	r2, [r3]
 392:.\Generated_Source\PSoC4/BLE.c ****             apiResult = CyBle_GattsDbRegister(cyBle_gattDB, CYBLE_GATT_DB_INDEX_COUNT, CYBLE_GATT_D
 290              		.loc 1 392 0
 291 0048 0B48     		ldr	r0, .L27+28
 292              	.LVL38:
 293 004a 1521     		mov	r1, #21
 294 004c 0F22     		mov	r2, #15
ARM GAS  C:\Users\KEVINH~1\AppData\Local\Temp\ccwJsVAk.s 			page 25


 295 004e FFF7FEFF 		bl	CyBle_GattsDbRegister
 296              	.LVL39:
 297 0052 00E0     		b	.L24
 298              	.LVL40:
 299              	.L26:
 300              	.LBE2:
 352:.\Generated_Source\PSoC4/BLE.c ****     CYBLE_API_RESULT_T apiResult = CYBLE_ERROR_INVALID_PARAMETER;
 301              		.loc 1 352 0
 302 0054 0120     		mov	r0, #1
 303              	.LVL41:
 304              	.L24:
 398:.\Generated_Source\PSoC4/BLE.c **** }
 305              		.loc 1 398 0
 306 0056 08B0     		add	sp, sp, #32
 307              		@ sp needed
 308              	.LVL42:
 309 0058 10BD     		pop	{r4, pc}
 310              	.L28:
 311 005a C046     		.align	2
 312              	.L27:
 313 005c 00000000 		.word	.LANCHOR1
 314 0060 00000000 		.word	.LANCHOR2
 315 0064 00000000 		.word	CyBle_EventHandler
 316 0068 00000000 		.word	cyBle_stackMemoryRam
 317 006c 640A0000 		.word	2660
 318 0070 00000000 		.word	CyBle_ApplCallback
 319 0074 00000000 		.word	cyBle_state
 320 0078 00000000 		.word	cyBle_gattDB
 321              		.cfi_endproc
 322              	.LFE4:
 323              		.size	CyBle_Start, .-CyBle_Start
 324              		.section	.text.CyBle_Stop,"ax",%progbits
 325              		.align	2
 326              		.global	CyBle_Stop
 327              		.code	16
 328              		.thumb_func
 329              		.type	CyBle_Stop, %function
 330              	CyBle_Stop:
 331              	.LFB5:
 418:.\Generated_Source\PSoC4/BLE.c **** {
 332              		.loc 1 418 0
 333              		.cfi_startproc
 334 0000 08B5     		push	{r3, lr}
 335              		.cfi_def_cfa_offset 8
 336              		.cfi_offset 3, -8
 337              		.cfi_offset 14, -4
 419:.\Generated_Source\PSoC4/BLE.c ****     CyBle_Shutdown();                         /* Stop all ongoing activities */
 338              		.loc 1 419 0
 339 0002 FFF7FEFF 		bl	CyBle_Shutdown
 340              	.LVL43:
 420:.\Generated_Source\PSoC4/BLE.c ****     CyBle_SetState(CYBLE_STATE_STOPPED);
 341              		.loc 1 420 0
 342 0006 0022     		mov	r2, #0
 343 0008 014B     		ldr	r3, .L30
 344 000a 1A70     		strb	r2, [r3]
 421:.\Generated_Source\PSoC4/BLE.c **** }
 345              		.loc 1 421 0
ARM GAS  C:\Users\KEVINH~1\AppData\Local\Temp\ccwJsVAk.s 			page 26


 346              		@ sp needed
 347 000c 08BD     		pop	{r3, pc}
 348              	.L31:
 349 000e C046     		.align	2
 350              	.L30:
 351 0010 00000000 		.word	cyBle_state
 352              		.cfi_endproc
 353              	.LFE5:
 354              		.size	CyBle_Stop, .-CyBle_Stop
 355              		.section	.text.CyBle_GappStartAdvertisement,"ax",%progbits
 356              		.align	2
 357              		.global	CyBle_GappStartAdvertisement
 358              		.code	16
 359              		.thumb_func
 360              		.type	CyBle_GappStartAdvertisement, %function
 361              	CyBle_GappStartAdvertisement:
 362              	.LFB6:
 555:.\Generated_Source\PSoC4/BLE.c ****     {
 363              		.loc 1 555 0
 364              		.cfi_startproc
 365              	.LVL44:
 366 0000 08B5     		push	{r3, lr}
 367              		.cfi_def_cfa_offset 8
 368              		.cfi_offset 3, -8
 369              		.cfi_offset 14, -4
 558:.\Generated_Source\PSoC4/BLE.c ****         if(advertisingIntervalType > CYBLE_ADVERTISING_CUSTOM)
 370              		.loc 1 558 0
 371 0002 0228     		cmp	r0, #2
 372 0004 2ED8     		bhi	.L36
 562:.\Generated_Source\PSoC4/BLE.c ****         else if((CYBLE_STATE_DISCONNECTED == CyBle_GetState()) && ((cyBle_eventHandlerFlag & CYBLE_
 373              		.loc 1 562 0
 374 0006 1B4B     		ldr	r3, .L39
 375 0008 1B78     		ldrb	r3, [r3]
 376 000a 042B     		cmp	r3, #4
 377 000c 2CD1     		bne	.L37
 562:.\Generated_Source\PSoC4/BLE.c ****         else if((CYBLE_STATE_DISCONNECTED == CyBle_GetState()) && ((cyBle_eventHandlerFlag & CYBLE_
 378              		.loc 1 562 0 is_stmt 0 discriminator 1
 379 000e 1A4B     		ldr	r3, .L39+4
 380 0010 1B78     		ldrb	r3, [r3]
 381 0012 5907     		lsl	r1, r3, #29
 382 0014 2BD4     		bmi	.L38
 564:.\Generated_Source\PSoC4/BLE.c ****             if(advertisingIntervalType == CYBLE_ADVERTISING_FAST)
 383              		.loc 1 564 0 is_stmt 1
 384 0016 0028     		cmp	r0, #0
 385 0018 09D1     		bne	.L34
 566:.\Generated_Source\PSoC4/BLE.c ****                 cyBle_discoveryModeInfo.advTo = CYBLE_FAST_ADV_TIMEOUT;
 386              		.loc 1 566 0
 387 001a 184B     		ldr	r3, .L39+8
 388 001c 1E22     		mov	r2, #30
 389 001e 1A86     		strh	r2, [r3, #48]
 567:.\Generated_Source\PSoC4/BLE.c ****                 cyBle_discoveryModeInfo.advParam->advIntvMin = CYBLE_FAST_ADV_INT_MIN;
 390              		.loc 1 567 0
 391 0020 2022     		mov	r2, #32
 392 0022 596A     		ldr	r1, [r3, #36]
 393 0024 0A80     		strh	r2, [r1]
 568:.\Generated_Source\PSoC4/BLE.c ****                 cyBle_discoveryModeInfo.advParam->advIntvMax = CYBLE_FAST_ADV_INT_MAX;
 394              		.loc 1 568 0
ARM GAS  C:\Users\KEVINH~1\AppData\Local\Temp\ccwJsVAk.s 			page 27


 395 0026 5B6A     		ldr	r3, [r3, #36]
 396 0028 3022     		mov	r2, #48
 397 002a 5A80     		strh	r2, [r3, #2]
 398 002c 0CE0     		b	.L35
 399              	.L34:
 570:.\Generated_Source\PSoC4/BLE.c ****             else if(advertisingIntervalType == CYBLE_ADVERTISING_SLOW)
 400              		.loc 1 570 0
 401 002e 0128     		cmp	r0, #1
 402 0030 0AD1     		bne	.L35
 572:.\Generated_Source\PSoC4/BLE.c ****                 cyBle_discoveryModeInfo.advTo = CYBLE_SLOW_ADV_TIMEOUT;
 403              		.loc 1 572 0
 404 0032 124B     		ldr	r3, .L39+8
 405 0034 9622     		mov	r2, #150
 406 0036 1A86     		strh	r2, [r3, #48]
 573:.\Generated_Source\PSoC4/BLE.c ****                 cyBle_discoveryModeInfo.advParam->advIntvMin = CYBLE_SLOW_ADV_INT_MIN;
 407              		.loc 1 573 0
 408 0038 C822     		mov	r2, #200
 409 003a D200     		lsl	r2, r2, #3
 410 003c 596A     		ldr	r1, [r3, #36]
 411 003e 0A80     		strh	r2, [r1]
 574:.\Generated_Source\PSoC4/BLE.c ****                 cyBle_discoveryModeInfo.advParam->advIntvMax = CYBLE_SLOW_ADV_INT_MAX;
 412              		.loc 1 574 0
 413 0040 5B6A     		ldr	r3, [r3, #36]
 414 0042 8022     		mov	r2, #128
 415 0044 D201     		lsl	r2, r2, #7
 416 0046 5A80     		strh	r2, [r3, #2]
 417              	.L35:
 579:.\Generated_Source\PSoC4/BLE.c ****             cyBle_advertisingIntervalType = advertisingIntervalType;
 418              		.loc 1 579 0
 419 0048 0D4B     		ldr	r3, .L39+12
 420 004a 1870     		strb	r0, [r3]
 580:.\Generated_Source\PSoC4/BLE.c ****             apiResult = CyBle_GappEnterDiscoveryMode(&cyBle_discoveryModeInfo);
 421              		.loc 1 580 0
 422 004c 0B48     		ldr	r0, .L39+8
 423              	.LVL45:
 424 004e 2030     		add	r0, r0, #32
 425 0050 FFF7FEFF 		bl	CyBle_GappEnterDiscoveryMode
 426              	.LVL46:
 582:.\Generated_Source\PSoC4/BLE.c ****             if(CYBLE_ERROR_OK == apiResult)
 427              		.loc 1 582 0
 428 0054 0028     		cmp	r0, #0
 429 0056 0CD1     		bne	.L33
 584:.\Generated_Source\PSoC4/BLE.c ****                 cyBle_eventHandlerFlag |= CYBLE_START_FLAG;
 430              		.loc 1 584 0
 431 0058 074B     		ldr	r3, .L39+4
 432 005a 1978     		ldrb	r1, [r3]
 433 005c 0422     		mov	r2, #4
 434 005e 0A43     		orr	r2, r1
 435 0060 1A70     		strb	r2, [r3]
 436 0062 06E0     		b	.L33
 437              	.LVL47:
 438              	.L36:
 560:.\Generated_Source\PSoC4/BLE.c ****             apiResult = CYBLE_ERROR_INVALID_PARAMETER;
 439              		.loc 1 560 0
 440 0064 0120     		mov	r0, #1
 441              	.LVL48:
 442 0066 04E0     		b	.L33
ARM GAS  C:\Users\KEVINH~1\AppData\Local\Temp\ccwJsVAk.s 			page 28


 443              	.LVL49:
 444              	.L37:
 589:.\Generated_Source\PSoC4/BLE.c ****             apiResult = CYBLE_ERROR_INVALID_STATE;
 445              		.loc 1 589 0
 446 0068 0420     		mov	r0, #4
 447              	.LVL50:
 448 006a FF30     		add	r0, r0, #255
 449 006c 01E0     		b	.L33
 450              	.LVL51:
 451              	.L38:
 452 006e 0420     		mov	r0, #4
 453              	.LVL52:
 454 0070 FF30     		add	r0, r0, #255
 455              	.L33:
 456              	.LVL53:
 593:.\Generated_Source\PSoC4/BLE.c ****     }
 457              		.loc 1 593 0
 458              		@ sp needed
 459 0072 08BD     		pop	{r3, pc}
 460              	.L40:
 461              		.align	2
 462              	.L39:
 463 0074 00000000 		.word	cyBle_state
 464 0078 00000000 		.word	cyBle_eventHandlerFlag
 465 007c 00000000 		.word	.LANCHOR0
 466 0080 00000000 		.word	cyBle_advertisingIntervalType
 467              		.cfi_endproc
 468              	.LFE6:
 469              		.size	CyBle_GappStartAdvertisement, .-CyBle_GappStartAdvertisement
 470              		.section	.text.CyBle_GappStopAdvertisement,"ax",%progbits
 471              		.align	2
 472              		.global	CyBle_GappStopAdvertisement
 473              		.code	16
 474              		.thumb_func
 475              		.type	CyBle_GappStopAdvertisement, %function
 476              	CyBle_GappStopAdvertisement:
 477              	.LFB7:
 620:.\Generated_Source\PSoC4/BLE.c ****     {
 478              		.loc 1 620 0
 479              		.cfi_startproc
 480 0000 08B5     		push	{r3, lr}
 481              		.cfi_def_cfa_offset 8
 482              		.cfi_offset 3, -8
 483              		.cfi_offset 14, -4
 621:.\Generated_Source\PSoC4/BLE.c ****         CyBle_GappExitDiscoveryMode();
 484              		.loc 1 621 0
 485 0002 FFF7FEFF 		bl	CyBle_GappExitDiscoveryMode
 486              	.LVL54:
 622:.\Generated_Source\PSoC4/BLE.c ****         cyBle_eventHandlerFlag |= CYBLE_STOP_FLAG;
 487              		.loc 1 622 0
 488 0006 034B     		ldr	r3, .L42
 489 0008 1978     		ldrb	r1, [r3]
 490 000a 0822     		mov	r2, #8
 491 000c 0A43     		orr	r2, r1
 492 000e 1A70     		strb	r2, [r3]
 623:.\Generated_Source\PSoC4/BLE.c ****     }
 493              		.loc 1 623 0
ARM GAS  C:\Users\KEVINH~1\AppData\Local\Temp\ccwJsVAk.s 			page 29


 494              		@ sp needed
 495 0010 08BD     		pop	{r3, pc}
 496              	.L43:
 497 0012 C046     		.align	2
 498              	.L42:
 499 0014 00000000 		.word	cyBle_eventHandlerFlag
 500              		.cfi_endproc
 501              	.LFE7:
 502              		.size	CyBle_GappStopAdvertisement, .-CyBle_GappStopAdvertisement
 503              		.section	.text.CyBle_ChangeAdDeviceAddress,"ax",%progbits
 504              		.align	2
 505              		.global	CyBle_ChangeAdDeviceAddress
 506              		.code	16
 507              		.thumb_func
 508              		.type	CyBle_ChangeAdDeviceAddress, %function
 509              	CyBle_ChangeAdDeviceAddress:
 510              	.LFB8:
 644:.\Generated_Source\PSoC4/BLE.c ****     {
 511              		.loc 1 644 0
 512              		.cfi_startproc
 513              	.LVL55:
 671:.\Generated_Source\PSoC4/BLE.c ****     }
 514              		.loc 1 671 0
 515              		@ sp needed
 516 0000 7047     		bx	lr
 517              		.cfi_endproc
 518              	.LFE8:
 519              		.size	CyBle_ChangeAdDeviceAddress, .-CyBle_ChangeAdDeviceAddress
 520 0002 C046     		.section	.text.CyBle_GapSetLocalName,"ax",%progbits
 521              		.align	2
 522              		.global	CyBle_GapSetLocalName
 523              		.code	16
 524              		.thumb_func
 525              		.type	CyBle_GapSetLocalName, %function
 526              	CyBle_GapSetLocalName:
 527              	.LFB10:
1043:.\Generated_Source\PSoC4/BLE.c ****         
1044:.\Generated_Source\PSoC4/BLE.c **** #endif /* (CYBLE_GAP_ROLE_PERIPHERAL) */  
1045:.\Generated_Source\PSoC4/BLE.c ****     
1046:.\Generated_Source\PSoC4/BLE.c ****     
1047:.\Generated_Source\PSoC4/BLE.c ****     /******************************************************************************
1048:.\Generated_Source\PSoC4/BLE.c ****     ##Function Name: CyBle_GapSetLocalName
1049:.\Generated_Source\PSoC4/BLE.c ****     *******************************************************************************
1050:.\Generated_Source\PSoC4/BLE.c ****     Summary:
1051:.\Generated_Source\PSoC4/BLE.c ****      This API is used to set the local device name - a Characteristic of the 
1052:.\Generated_Source\PSoC4/BLE.c ****      GAP Service. If the characteristic length entered in the component customizer
1053:.\Generated_Source\PSoC4/BLE.c ****      is shorter than the string specified by the "name" parameter, the local device
1054:.\Generated_Source\PSoC4/BLE.c ****      name will be cut to the length specified in the customizer.
1055:.\Generated_Source\PSoC4/BLE.c **** 
1056:.\Generated_Source\PSoC4/BLE.c ****     Parameters:
1057:.\Generated_Source\PSoC4/BLE.c ****      char8 name: The local device name string. The name string to be written as
1058:.\Generated_Source\PSoC4/BLE.c ****                  the local device name. It represents a UTF-8 encoded User
1059:.\Generated_Source\PSoC4/BLE.c ****                  Friendly Descriptive Name for the device. The length of the local
1060:.\Generated_Source\PSoC4/BLE.c ****                  device string is entered into the component customizer and it can
1061:.\Generated_Source\PSoC4/BLE.c ****                  be set to a value from 0 to 248 bytes. If the name contained in
1062:.\Generated_Source\PSoC4/BLE.c ****                  the parameter is shorter than the length from the customizer, the
1063:.\Generated_Source\PSoC4/BLE.c ****                  end of the name is indicated by a NULL octet (0x00).
ARM GAS  C:\Users\KEVINH~1\AppData\Local\Temp\ccwJsVAk.s 			page 30


1064:.\Generated_Source\PSoC4/BLE.c **** 
1065:.\Generated_Source\PSoC4/BLE.c ****     Return:
1066:.\Generated_Source\PSoC4/BLE.c ****      CYBLE_API_RESULT_T : Return value indicates if the function succeeded or 
1067:.\Generated_Source\PSoC4/BLE.c ****      failed. Following are the possible error codes.
1068:.\Generated_Source\PSoC4/BLE.c ****      <table>
1069:.\Generated_Source\PSoC4/BLE.c ****       Errors codes                        Description
1070:.\Generated_Source\PSoC4/BLE.c ****       ------------                        -----------
1071:.\Generated_Source\PSoC4/BLE.c ****       CYBLE_ERROR_OK                      Function completed successfully.
1072:.\Generated_Source\PSoC4/BLE.c ****       CYBLE_ERROR_INVALID_PARAMETER       On specifying NULL as input parameter
1073:.\Generated_Source\PSoC4/BLE.c ****      </table>
1074:.\Generated_Source\PSoC4/BLE.c ****  
1075:.\Generated_Source\PSoC4/BLE.c ****     ******************************************************************************/
1076:.\Generated_Source\PSoC4/BLE.c ****     CYBLE_API_RESULT_T CyBle_GapSetLocalName(const char8 name[])
1077:.\Generated_Source\PSoC4/BLE.c ****     {
 528              		.loc 1 1077 0
 529              		.cfi_startproc
 530              	.LVL56:
 531 0000 10B5     		push	{r4, lr}
 532              		.cfi_def_cfa_offset 8
 533              		.cfi_offset 4, -8
 534              		.cfi_offset 14, -4
 535 0002 041E     		sub	r4, r0, #0
 536              	.LVL57:
1078:.\Generated_Source\PSoC4/BLE.c ****         CYBLE_API_RESULT_T apiResult = CYBLE_ERROR_OK;
1079:.\Generated_Source\PSoC4/BLE.c ****         uint8 i;
1080:.\Generated_Source\PSoC4/BLE.c ****         char8 *ptr;
1081:.\Generated_Source\PSoC4/BLE.c ****         uint8 charLen;
1082:.\Generated_Source\PSoC4/BLE.c **** 
1083:.\Generated_Source\PSoC4/BLE.c ****         if(NULL != name)
 537              		.loc 1 1083 0
 538 0004 1DD0     		beq	.L51
1084:.\Generated_Source\PSoC4/BLE.c ****         {
1085:.\Generated_Source\PSoC4/BLE.c ****             /* Get the pointer to the Device Name characteristic  */
1086:.\Generated_Source\PSoC4/BLE.c ****             ptr = (char8 *) CYBLE_GATT_DB_ATTR_GET_ATTR_GEN_PTR(CYBLE_GAP_DEVICE_NAME_INDEX + 1u);
 539              		.loc 1 1086 0
 540 0006 104B     		ldr	r3, .L52
 541 0008 9A6B     		ldr	r2, [r3, #56]
 542 000a 5068     		ldr	r0, [r2, #4]
 543              	.LVL58:
1087:.\Generated_Source\PSoC4/BLE.c **** 
1088:.\Generated_Source\PSoC4/BLE.c ****             /* First need to get the maximum length of the characteristic data in the GATT
1089:.\Generated_Source\PSoC4/BLE.c ****                 database to make sure there is enough place for the data. The length
1090:.\Generated_Source\PSoC4/BLE.c ****                 can't be longer than 248, so only the LSB of 16 bit of length is to
1091:.\Generated_Source\PSoC4/BLE.c ****                 be used. */
1092:.\Generated_Source\PSoC4/BLE.c ****             charLen = (uint8)CYBLE_GATT_DB_ATTR_GET_ATTR_GEN_MAX_LEN(CYBLE_GAP_DEVICE_NAME_INDEX + 
 544              		.loc 1 1092 0
 545 000c 998E     		ldrh	r1, [r3, #52]
 546 000e C9B2     		uxtb	r1, r1
 547              	.LVL59:
1093:.\Generated_Source\PSoC4/BLE.c **** 
1094:.\Generated_Source\PSoC4/BLE.c ****             /* Copy name into characteristic */
1095:.\Generated_Source\PSoC4/BLE.c ****             for(i = 0u; ((i < charLen) && (CYBLE_NULL_CHARCTER != name[i])); i++)
 548              		.loc 1 1095 0
 549 0010 0023     		mov	r3, #0
 550 0012 02E0     		b	.L47
 551              	.LVL60:
 552              	.L49:
ARM GAS  C:\Users\KEVINH~1\AppData\Local\Temp\ccwJsVAk.s 			page 31


1096:.\Generated_Source\PSoC4/BLE.c ****             {
1097:.\Generated_Source\PSoC4/BLE.c ****                 ptr[i] = name[i];
 553              		.loc 1 1097 0 discriminator 1
 554 0014 C254     		strb	r2, [r0, r3]
1095:.\Generated_Source\PSoC4/BLE.c ****             for(i = 0u; ((i < charLen) && (CYBLE_NULL_CHARCTER != name[i])); i++)
 555              		.loc 1 1095 0 discriminator 1
 556 0016 0133     		add	r3, r3, #1
 557              	.LVL61:
 558 0018 DBB2     		uxtb	r3, r3
 559              	.LVL62:
 560              	.L47:
 561 001a 8B42     		cmp	r3, r1
 562 001c 02D2     		bcs	.L48
1095:.\Generated_Source\PSoC4/BLE.c ****             for(i = 0u; ((i < charLen) && (CYBLE_NULL_CHARCTER != name[i])); i++)
 563              		.loc 1 1095 0 is_stmt 0 discriminator 2
 564 001e E25C     		ldrb	r2, [r4, r3]
 565 0020 002A     		cmp	r2, #0
 566 0022 F7D1     		bne	.L49
 567              	.L48:
1098:.\Generated_Source\PSoC4/BLE.c ****             }
1099:.\Generated_Source\PSoC4/BLE.c **** 
1100:.\Generated_Source\PSoC4/BLE.c ****             if(i < charLen)
 568              		.loc 1 1100 0 is_stmt 1
 569 0024 8B42     		cmp	r3, r1
 570 0026 02D2     		bcs	.L50
1101:.\Generated_Source\PSoC4/BLE.c ****             {
1102:.\Generated_Source\PSoC4/BLE.c ****                 /* Terminate string */
1103:.\Generated_Source\PSoC4/BLE.c ****                 ptr[i] = CYBLE_NULL_CHARCTER;
 571              		.loc 1 1103 0
 572 0028 C318     		add	r3, r0, r3
 573              	.LVL63:
 574 002a 0022     		mov	r2, #0
 575 002c 1A70     		strb	r2, [r3]
 576              	.L50:
1104:.\Generated_Source\PSoC4/BLE.c ****             }
1105:.\Generated_Source\PSoC4/BLE.c ****             
1106:.\Generated_Source\PSoC4/BLE.c ****             /* Set new actual length */
1107:.\Generated_Source\PSoC4/BLE.c ****             
1108:.\Generated_Source\PSoC4/BLE.c ****             /* Update device name in advertising and scan response structure */
1109:.\Generated_Source\PSoC4/BLE.c ****             #if(CYBLE_GAP_ROLE_PERIPHERAL)
1110:.\Generated_Source\PSoC4/BLE.c ****                 CyBle_ChangeAdLocalName(name, 0u);
 577              		.loc 1 1110 0
 578 002e 201C     		mov	r0, r4
 579              	.LVL64:
 580 0030 0021     		mov	r1, #0
 581              	.LVL65:
 582 0032 FFF7FEFF 		bl	CyBle_ChangeAdLocalName
 583              	.LVL66:
1111:.\Generated_Source\PSoC4/BLE.c ****                 CyBle_ChangeAdLocalName(name, 1u);
 584              		.loc 1 1111 0
 585 0036 201C     		mov	r0, r4
 586 0038 0121     		mov	r1, #1
 587 003a FFF7FEFF 		bl	CyBle_ChangeAdLocalName
 588              	.LVL67:
1078:.\Generated_Source\PSoC4/BLE.c ****         CYBLE_API_RESULT_T apiResult = CYBLE_ERROR_OK;
 589              		.loc 1 1078 0
 590 003e 0020     		mov	r0, #0
ARM GAS  C:\Users\KEVINH~1\AppData\Local\Temp\ccwJsVAk.s 			page 32


 591 0040 00E0     		b	.L46
 592              	.LVL68:
 593              	.L51:
1112:.\Generated_Source\PSoC4/BLE.c ****             #endif /* (CYBLE_GAP_ROLE_PERIPHERAL) */
1113:.\Generated_Source\PSoC4/BLE.c ****         }
1114:.\Generated_Source\PSoC4/BLE.c ****         else
1115:.\Generated_Source\PSoC4/BLE.c ****         {
1116:.\Generated_Source\PSoC4/BLE.c ****             apiResult = CYBLE_ERROR_INVALID_PARAMETER;
 594              		.loc 1 1116 0
 595 0042 0120     		mov	r0, #1
 596              	.LVL69:
 597              	.L46:
1117:.\Generated_Source\PSoC4/BLE.c ****         }
1118:.\Generated_Source\PSoC4/BLE.c ****         
1119:.\Generated_Source\PSoC4/BLE.c ****         return(apiResult);
1120:.\Generated_Source\PSoC4/BLE.c ****     }
 598              		.loc 1 1120 0
 599              		@ sp needed
 600              	.LVL70:
 601 0044 10BD     		pop	{r4, pc}
 602              	.L53:
 603 0046 C046     		.align	2
 604              	.L52:
 605 0048 00000000 		.word	cyBle_gattDB
 606              		.cfi_endproc
 607              	.LFE10:
 608              		.size	CyBle_GapSetLocalName, .-CyBle_GapSetLocalName
 609              		.section	.text.CyBle_GapGetLocalName,"ax",%progbits
 610              		.align	2
 611              		.global	CyBle_GapGetLocalName
 612              		.code	16
 613              		.thumb_func
 614              		.type	CyBle_GapGetLocalName, %function
 615              	CyBle_GapGetLocalName:
 616              	.LFB11:
1121:.\Generated_Source\PSoC4/BLE.c **** 
1122:.\Generated_Source\PSoC4/BLE.c **** 
1123:.\Generated_Source\PSoC4/BLE.c ****     /******************************************************************************
1124:.\Generated_Source\PSoC4/BLE.c ****     ##Function Name: CyBle_GapGetLocalName
1125:.\Generated_Source\PSoC4/BLE.c ****     *******************************************************************************
1126:.\Generated_Source\PSoC4/BLE.c ****  
1127:.\Generated_Source\PSoC4/BLE.c ****     Summary:
1128:.\Generated_Source\PSoC4/BLE.c ****      This API is used to read the local device name - a Characteristic of the 
1129:.\Generated_Source\PSoC4/BLE.c ****      GAP Service.
1130:.\Generated_Source\PSoC4/BLE.c **** 
1131:.\Generated_Source\PSoC4/BLE.c ****     Parameters:
1132:.\Generated_Source\PSoC4/BLE.c ****     char8 name: The local device name string. Used to read the local name to the
1133:.\Generated_Source\PSoC4/BLE.c ****                 given string array. It represents a UTF-8 encoded User Friendly 
1134:.\Generated_Source\PSoC4/BLE.c ****                 Descriptive Name for the device. The length of the local device
1135:.\Generated_Source\PSoC4/BLE.c ****                 string is entered into the component customizer and it can be set
1136:.\Generated_Source\PSoC4/BLE.c ****                 to a value from 0 to 248 bytes. If the name contained in the
1137:.\Generated_Source\PSoC4/BLE.c ****                 parameter is shorter than the length from the customizer, the end
1138:.\Generated_Source\PSoC4/BLE.c ****                 of the name is indicated by a NULL octet (0x00).
1139:.\Generated_Source\PSoC4/BLE.c **** 
1140:.\Generated_Source\PSoC4/BLE.c ****     Return:
1141:.\Generated_Source\PSoC4/BLE.c ****      CYBLE_API_RESULT_T : Return value indicates if the function succeeded or 
1142:.\Generated_Source\PSoC4/BLE.c ****      failed. Following are the possible error codes.
ARM GAS  C:\Users\KEVINH~1\AppData\Local\Temp\ccwJsVAk.s 			page 33


1143:.\Generated_Source\PSoC4/BLE.c ****      <table>
1144:.\Generated_Source\PSoC4/BLE.c ****       Errors codes                        Description
1145:.\Generated_Source\PSoC4/BLE.c ****       ------------                        -----------
1146:.\Generated_Source\PSoC4/BLE.c ****       CYBLE_ERROR_OK                      Function completed successfully.
1147:.\Generated_Source\PSoC4/BLE.c ****       CYBLE_ERROR_INVALID_PARAMETER       On specifying NULL as input parameter
1148:.\Generated_Source\PSoC4/BLE.c ****      </table>
1149:.\Generated_Source\PSoC4/BLE.c **** 
1150:.\Generated_Source\PSoC4/BLE.c ****     ******************************************************************************/
1151:.\Generated_Source\PSoC4/BLE.c ****     CYBLE_API_RESULT_T CyBle_GapGetLocalName(char8 name[])
1152:.\Generated_Source\PSoC4/BLE.c ****     {
 617              		.loc 1 1152 0
 618              		.cfi_startproc
 619              	.LVL71:
 620 0000 10B5     		push	{r4, lr}
 621              		.cfi_def_cfa_offset 8
 622              		.cfi_offset 4, -8
 623              		.cfi_offset 14, -4
 624              	.LVL72:
1153:.\Generated_Source\PSoC4/BLE.c ****         CYBLE_API_RESULT_T apiResult = CYBLE_ERROR_OK;
1154:.\Generated_Source\PSoC4/BLE.c ****         uint8 charLen;
1155:.\Generated_Source\PSoC4/BLE.c ****         uint8 i;
1156:.\Generated_Source\PSoC4/BLE.c ****         char8 *ptr;
1157:.\Generated_Source\PSoC4/BLE.c **** 
1158:.\Generated_Source\PSoC4/BLE.c ****         if(NULL != name)
 625              		.loc 1 1158 0
 626 0002 0028     		cmp	r0, #0
 627 0004 12D0     		beq	.L59
1159:.\Generated_Source\PSoC4/BLE.c ****         {
1160:.\Generated_Source\PSoC4/BLE.c ****             /* Get the pointer to the Device Name characteristic  */
1161:.\Generated_Source\PSoC4/BLE.c ****             ptr = (char8 *) CYBLE_GATT_DB_ATTR_GET_ATTR_GEN_PTR(CYBLE_GAP_DEVICE_NAME_INDEX + 1u);
 628              		.loc 1 1161 0
 629 0006 0A4B     		ldr	r3, .L60
 630 0008 9B6B     		ldr	r3, [r3, #56]
 631 000a 5C68     		ldr	r4, [r3, #4]
 632              	.LVL73:
1162:.\Generated_Source\PSoC4/BLE.c **** 
1163:.\Generated_Source\PSoC4/BLE.c ****             /* First need to get the length of the characteristic data in the GATT
1164:.\Generated_Source\PSoC4/BLE.c ****                 database to make sure there is enough place for the data. The length
1165:.\Generated_Source\PSoC4/BLE.c ****                 can't be longer than 248, so only the LSB of 16 bit of length is to
1166:.\Generated_Source\PSoC4/BLE.c ****                 be used. */
1167:.\Generated_Source\PSoC4/BLE.c ****             charLen = (uint8)CYBLE_GATT_DB_ATTR_GET_ATTR_GEN_LEN(CYBLE_GAP_DEVICE_NAME_INDEX + 1u);
 633              		.loc 1 1167 0
 634 000c 1978     		ldrb	r1, [r3]
 635              	.LVL74:
1168:.\Generated_Source\PSoC4/BLE.c **** 
1169:.\Generated_Source\PSoC4/BLE.c ****             /* Copy name from characteristic */
1170:.\Generated_Source\PSoC4/BLE.c ****             for(i = 0u; ((i < charLen) && (CYBLE_NULL_CHARCTER != ptr[i])); i++)
 636              		.loc 1 1170 0
 637 000e 0023     		mov	r3, #0
 638              	.LVL75:
 639 0010 02E0     		b	.L56
 640              	.LVL76:
 641              	.L58:
1171:.\Generated_Source\PSoC4/BLE.c ****             {
1172:.\Generated_Source\PSoC4/BLE.c ****                 name[i] = ptr[i];
 642              		.loc 1 1172 0 discriminator 1
 643 0012 C254     		strb	r2, [r0, r3]
ARM GAS  C:\Users\KEVINH~1\AppData\Local\Temp\ccwJsVAk.s 			page 34


1170:.\Generated_Source\PSoC4/BLE.c ****             for(i = 0u; ((i < charLen) && (CYBLE_NULL_CHARCTER != ptr[i])); i++)
 644              		.loc 1 1170 0 discriminator 1
 645 0014 0133     		add	r3, r3, #1
 646              	.LVL77:
 647 0016 DBB2     		uxtb	r3, r3
 648              	.LVL78:
 649              	.L56:
 650 0018 8B42     		cmp	r3, r1
 651 001a 02D2     		bcs	.L57
1170:.\Generated_Source\PSoC4/BLE.c ****             for(i = 0u; ((i < charLen) && (CYBLE_NULL_CHARCTER != ptr[i])); i++)
 652              		.loc 1 1170 0 is_stmt 0 discriminator 2
 653 001c E25C     		ldrb	r2, [r4, r3]
 654 001e 002A     		cmp	r2, #0
 655 0020 F7D1     		bne	.L58
 656              	.L57:
1173:.\Generated_Source\PSoC4/BLE.c ****             }
1174:.\Generated_Source\PSoC4/BLE.c **** 
1175:.\Generated_Source\PSoC4/BLE.c ****             /* Terminate string */
1176:.\Generated_Source\PSoC4/BLE.c ****             name[i] = CYBLE_NULL_CHARCTER;
 657              		.loc 1 1176 0 is_stmt 1
 658 0022 C318     		add	r3, r0, r3
 659              	.LVL79:
 660 0024 0022     		mov	r2, #0
 661 0026 1A70     		strb	r2, [r3]
1153:.\Generated_Source\PSoC4/BLE.c ****         CYBLE_API_RESULT_T apiResult = CYBLE_ERROR_OK;
 662              		.loc 1 1153 0
 663 0028 0020     		mov	r0, #0
 664              	.LVL80:
 665 002a 00E0     		b	.L55
 666              	.LVL81:
 667              	.L59:
1177:.\Generated_Source\PSoC4/BLE.c ****         }
1178:.\Generated_Source\PSoC4/BLE.c ****         else
1179:.\Generated_Source\PSoC4/BLE.c ****         {
1180:.\Generated_Source\PSoC4/BLE.c ****             apiResult = CYBLE_ERROR_INVALID_PARAMETER;
 668              		.loc 1 1180 0
 669 002c 0120     		mov	r0, #1
 670              	.LVL82:
 671              	.L55:
1181:.\Generated_Source\PSoC4/BLE.c ****         }
1182:.\Generated_Source\PSoC4/BLE.c ****         
1183:.\Generated_Source\PSoC4/BLE.c ****         return(apiResult);
1184:.\Generated_Source\PSoC4/BLE.c ****     }
 672              		.loc 1 1184 0
 673              		@ sp needed
 674 002e 10BD     		pop	{r4, pc}
 675              	.L61:
 676              		.align	2
 677              	.L60:
 678 0030 00000000 		.word	cyBle_gattDB
 679              		.cfi_endproc
 680              	.LFE11:
 681              		.size	CyBle_GapGetLocalName, .-CyBle_GapGetLocalName
 682              		.section	.text.CyBle_Get16ByPtr,"ax",%progbits
 683              		.align	2
 684              		.global	CyBle_Get16ByPtr
 685              		.code	16
ARM GAS  C:\Users\KEVINH~1\AppData\Local\Temp\ccwJsVAk.s 			page 35


 686              		.thumb_func
 687              		.type	CyBle_Get16ByPtr, %function
 688              	CyBle_Get16ByPtr:
 689              	.LFB12:
1185:.\Generated_Source\PSoC4/BLE.c **** 
1186:.\Generated_Source\PSoC4/BLE.c **** #endif /* (CYBLE_GATT_ROLE_SERVER) */
1187:.\Generated_Source\PSoC4/BLE.c **** 
1188:.\Generated_Source\PSoC4/BLE.c **** 
1189:.\Generated_Source\PSoC4/BLE.c **** /******************************************************************************
1190:.\Generated_Source\PSoC4/BLE.c **** ##Function Name: CyBle_Get16ByPtr
1191:.\Generated_Source\PSoC4/BLE.c **** *******************************************************************************
1192:.\Generated_Source\PSoC4/BLE.c **** 
1193:.\Generated_Source\PSoC4/BLE.c **** Summary:
1194:.\Generated_Source\PSoC4/BLE.c ****  Returns the two-bytes value by using a pointer to the LSB.
1195:.\Generated_Source\PSoC4/BLE.c **** 
1196:.\Generated_Source\PSoC4/BLE.c **** Parameters:
1197:.\Generated_Source\PSoC4/BLE.c ****  uint8 * ptr: Pointer to the LSB of two-bytes data (little endian).
1198:.\Generated_Source\PSoC4/BLE.c **** 
1199:.\Generated_Source\PSoC4/BLE.c **** Return:
1200:.\Generated_Source\PSoC4/BLE.c ****  uint16 value: Two-bytes data.
1201:.\Generated_Source\PSoC4/BLE.c **** 
1202:.\Generated_Source\PSoC4/BLE.c **** ******************************************************************************/
1203:.\Generated_Source\PSoC4/BLE.c **** uint16 CyBle_Get16ByPtr(const uint8 ptr[])
1204:.\Generated_Source\PSoC4/BLE.c **** {
 690              		.loc 1 1204 0
 691              		.cfi_startproc
 692              	.LVL83:
1205:.\Generated_Source\PSoC4/BLE.c ****     return ((uint16) ptr[0u] | ((uint16) (((uint16) ptr[1u]) << 8u)));
 693              		.loc 1 1205 0
 694 0000 0378     		ldrb	r3, [r0]
 695 0002 4078     		ldrb	r0, [r0, #1]
 696              	.LVL84:
 697 0004 0002     		lsl	r0, r0, #8
 698 0006 1843     		orr	r0, r3
1206:.\Generated_Source\PSoC4/BLE.c **** }
 699              		.loc 1 1206 0
 700              		@ sp needed
 701 0008 7047     		bx	lr
 702              		.cfi_endproc
 703              	.LFE12:
 704              		.size	CyBle_Get16ByPtr, .-CyBle_Get16ByPtr
 705 000a C046     		.section	.text.CyBle_Set16ByPtr,"ax",%progbits
 706              		.align	2
 707              		.global	CyBle_Set16ByPtr
 708              		.code	16
 709              		.thumb_func
 710              		.type	CyBle_Set16ByPtr, %function
 711              	CyBle_Set16ByPtr:
 712              	.LFB13:
1207:.\Generated_Source\PSoC4/BLE.c **** 
1208:.\Generated_Source\PSoC4/BLE.c **** 
1209:.\Generated_Source\PSoC4/BLE.c **** /******************************************************************************
1210:.\Generated_Source\PSoC4/BLE.c **** ##Function Name: CyBle_Set16ByPtr
1211:.\Generated_Source\PSoC4/BLE.c **** *******************************************************************************
1212:.\Generated_Source\PSoC4/BLE.c **** 
1213:.\Generated_Source\PSoC4/BLE.c **** Summary:
1214:.\Generated_Source\PSoC4/BLE.c ****  Sets the two-bytes value by using a pointer to the LSB.
ARM GAS  C:\Users\KEVINH~1\AppData\Local\Temp\ccwJsVAk.s 			page 36


1215:.\Generated_Source\PSoC4/BLE.c **** 
1216:.\Generated_Source\PSoC4/BLE.c **** Parameters:
1217:.\Generated_Source\PSoC4/BLE.c ****  uint8 * ptr:   Pointer to the LSB of two-bytes data (little endian).
1218:.\Generated_Source\PSoC4/BLE.c ****  uint16 value:  Two-bytes data to be written.
1219:.\Generated_Source\PSoC4/BLE.c **** 
1220:.\Generated_Source\PSoC4/BLE.c **** Return:
1221:.\Generated_Source\PSoC4/BLE.c ****  None
1222:.\Generated_Source\PSoC4/BLE.c **** 
1223:.\Generated_Source\PSoC4/BLE.c **** ******************************************************************************/
1224:.\Generated_Source\PSoC4/BLE.c **** void CyBle_Set16ByPtr(uint8 ptr[], uint16 value)
1225:.\Generated_Source\PSoC4/BLE.c **** {
 713              		.loc 1 1225 0
 714              		.cfi_startproc
 715              	.LVL85:
1226:.\Generated_Source\PSoC4/BLE.c ****     ptr[0u] = (uint8) value;
 716              		.loc 1 1226 0
 717 0000 0170     		strb	r1, [r0]
1227:.\Generated_Source\PSoC4/BLE.c ****     ptr[1u] = (uint8) (value >> 8u);
 718              		.loc 1 1227 0
 719 0002 090A     		lsr	r1, r1, #8
 720              	.LVL86:
 721 0004 4170     		strb	r1, [r0, #1]
1228:.\Generated_Source\PSoC4/BLE.c **** }
 722              		.loc 1 1228 0
 723              		@ sp needed
 724 0006 7047     		bx	lr
 725              		.cfi_endproc
 726              	.LFE13:
 727              		.size	CyBle_Set16ByPtr, .-CyBle_Set16ByPtr
 728              		.global	cyBle_sflashDeviceAddress
 729              		.global	cyBle_deviceAddress
 730              		.comm	CyBle_ApplCallback,4,4
 731              		.global	cyBle_discoveryModeInfo
 732              		.global	cyBle_scanRspData
 733              		.global	cyBle_discoveryData
 734              		.global	cyBle_discoveryParam
 735              		.comm	cyBle_stackMemoryRam,2660,8
 736              		.global	cyBle_initVar
 737              		.section	.rodata
 738              		.align	2
 739              		.set	.LANCHOR2,. + 0
 740              	.LC0:
 741 0000 1B00     		.short	27
 742 0002 02       		.byte	2
 743 0003 00       		.space	1
 744 0004 0F00     		.short	15
 745 0006 01       		.byte	1
 746 0007 00       		.space	1
 747 0008 2800     		.short	40
 748 000a 01       		.byte	1
 749 000b 00       		.space	1
 750 000c 4000     		.short	64
 751 000e 01       		.byte	1
 752 000f 00       		.space	1
 753 0010 1700     		.short	23
 754 0012 01       		.byte	1
 755 0013 00       		.space	1
ARM GAS  C:\Users\KEVINH~1\AppData\Local\Temp\ccwJsVAk.s 			page 37


 756 0014 1700     		.short	23
 757 0016 01       		.byte	1
 758 0017 00       		.space	1
 759              		.data
 760              		.align	2
 761              		.set	.LANCHOR0,. + 0
 762              		.type	cyBle_discoveryData, %object
 763              		.size	cyBle_discoveryData, 32
 764              	cyBle_discoveryData:
 765 0000 02       		.byte	2
 766 0001 01       		.byte	1
 767 0002 06       		.byte	6
 768 0003 0A       		.byte	10
 769 0004 09       		.byte	9
 770 0005 42       		.byte	66
 771 0006 4C       		.byte	76
 772 0007 45       		.byte	69
 773 0008 20       		.byte	32
 774 0009 4C       		.byte	76
 775 000a 61       		.byte	97
 776 000b 62       		.byte	98
 777 000c 20       		.byte	32
 778 000d 34       		.byte	52
 779 000e 00       		.byte	0
 780 000f 00       		.byte	0
 781 0010 00       		.byte	0
 782 0011 00       		.byte	0
 783 0012 00       		.byte	0
 784 0013 00       		.byte	0
 785 0014 00       		.byte	0
 786 0015 00       		.byte	0
 787 0016 00       		.byte	0
 788 0017 00       		.byte	0
 789 0018 00       		.byte	0
 790 0019 00       		.byte	0
 791 001a 00       		.byte	0
 792 001b 00       		.byte	0
 793 001c 00       		.byte	0
 794 001d 00       		.byte	0
 795 001e 00       		.byte	0
 796 001f 0E       		.byte	14
 797              		.type	cyBle_discoveryModeInfo, %object
 798              		.size	cyBle_discoveryModeInfo, 20
 799              	cyBle_discoveryModeInfo:
 800 0020 02       		.byte	2
 801 0021 000000   		.space	3
 802 0024 00000000 		.word	cyBle_discoveryParam
 803 0028 00000000 		.word	cyBle_discoveryData
 804 002c 00000000 		.word	cyBle_scanRspData
 805 0030 1E00     		.short	30
 806 0032 0000     		.space	2
 807              		.type	cyBle_sflashDeviceAddress, %object
 808              		.size	cyBle_sflashDeviceAddress, 4
 809              	cyBle_sflashDeviceAddress:
 810 0034 00F2FF0F 		.word	268431872
 811              		.type	cyBle_deviceAddress, %object
 812              		.size	cyBle_deviceAddress, 7
ARM GAS  C:\Users\KEVINH~1\AppData\Local\Temp\ccwJsVAk.s 			page 38


 813              	cyBle_deviceAddress:
 814 0038 00       		.byte	0
 815 0039 00       		.byte	0
 816 003a 00       		.byte	0
 817 003b 50       		.byte	80
 818 003c A0       		.byte	-96
 819 003d 00       		.byte	0
 820 003e 00       		.byte	0
 821 003f 00       		.space	1
 822              		.type	cyBle_discoveryParam, %object
 823              		.size	cyBle_discoveryParam, 16
 824              	cyBle_discoveryParam:
 825 0040 2000     		.short	32
 826 0042 3000     		.short	48
 827 0044 00       		.byte	0
 828 0045 00       		.byte	0
 829 0046 00       		.byte	0
 830 0047 00       		.byte	0
 831 0048 00       		.byte	0
 832 0049 00       		.byte	0
 833 004a 50       		.byte	80
 834 004b A0       		.byte	-96
 835 004c 00       		.byte	0
 836 004d 07       		.byte	7
 837 004e 00       		.byte	0
 838 004f 00       		.space	1
 839              		.bss
 840              		.align	2
 841              		.set	.LANCHOR1,. + 0
 842              		.type	cyBle_scanRspData, %object
 843              		.size	cyBle_scanRspData, 32
 844              	cyBle_scanRspData:
 845 0000 00000000 		.space	32
 845      00000000 
 845      00000000 
 845      00000000 
 845      00000000 
 846              		.type	cyBle_initVar, %object
 847              		.size	cyBle_initVar, 1
 848              	cyBle_initVar:
 849 0020 00       		.space	1
 850 0021 000000   		.text
 851              	.Letext0:
 852              		.file 2 ".\\Generated_Source\\PSoC4\\cytypes.h"
 853              		.file 3 ".\\Generated_Source\\PSoC4\\BLE_Stack.h"
 854              		.file 4 ".\\Generated_Source\\PSoC4\\BLE_StackGap.h"
 855              		.file 5 ".\\Generated_Source\\PSoC4\\BLE_StackGattDb.h"
 856              		.file 6 ".\\Generated_Source\\PSoC4\\BLE.h"
 857              		.file 7 ".\\Generated_Source\\PSoC4\\BLE_eventHandler.h"
 858              		.file 8 ".\\Generated_Source\\PSoC4\\BLE_gatt.h"
 859              		.file 9 ".\\Generated_Source\\PSoC4\\BLE_custom.h"