ARM GAS  C:\Users\KEVINH~1\AppData\Local\Temp\cctGjvGe.s 			page 1


   1              		.cpu cortex-m0
   2              		.fpu softvfp
   3              		.eabi_attribute 20, 1
   4              		.eabi_attribute 21, 1
   5              		.eabi_attribute 23, 3
   6              		.eabi_attribute 24, 1
   7              		.eabi_attribute 25, 1
   8              		.eabi_attribute 26, 1
   9              		.eabi_attribute 30, 6
  10              		.eabi_attribute 34, 0
  11              		.eabi_attribute 18, 4
  12              		.code	16
  13              		.file	"BLE.c"
  14              		.text
  15              	.Ltext0:
  16              		.cfi_sections	.debug_frame
  17              		.global	cyBle_initVar
  18              		.bss
  19              		.type	cyBle_initVar, %object
  20              		.size	cyBle_initVar, 1
  21              	cyBle_initVar:
  22 0000 00       		.space	1
  23              		.comm	cyBle_stackMemoryRam,2660,8
  24              		.global	cyBle_discoveryParam
  25              		.data
  26              		.align	2
  27              		.type	cyBle_discoveryParam, %object
  28              		.size	cyBle_discoveryParam, 16
  29              	cyBle_discoveryParam:
  30 0000 2000     		.short	32
  31 0002 3000     		.short	48
  32 0004 00       		.byte	0
  33 0005 00       		.byte	0
  34 0006 00       		.byte	0
  35 0007 00       		.byte	0
  36 0008 00       		.byte	0
  37 0009 00       		.byte	0
  38 000a 50       		.byte	80
  39 000b A0       		.byte	-96
  40 000c 00       		.byte	0
  41 000d 07       		.byte	7
  42 000e 00       		.byte	0
  43 000f 00       		.space	1
  44              		.global	cyBle_discoveryData
  45              		.align	2
  46              		.type	cyBle_discoveryData, %object
  47              		.size	cyBle_discoveryData, 32
  48              	cyBle_discoveryData:
  49 0010 02       		.byte	2
  50 0011 01       		.byte	1
  51 0012 06       		.byte	6
  52 0013 0A       		.byte	10
  53 0014 09       		.byte	9
  54 0015 42       		.byte	66
  55 0016 4C       		.byte	76
  56 0017 45       		.byte	69
  57 0018 20       		.byte	32
ARM GAS  C:\Users\KEVINH~1\AppData\Local\Temp\cctGjvGe.s 			page 2


  58 0019 4C       		.byte	76
  59 001a 61       		.byte	97
  60 001b 62       		.byte	98
  61 001c 20       		.byte	32
  62 001d 34       		.byte	52
  63 001e 05       		.byte	5
  64 001f 03       		.byte	3
  65 0020 B5       		.byte	-75
  66 0021 CA       		.byte	-54
  67 0022 BB       		.byte	-69
  68 0023 CB       		.byte	-53
  69 0024 00       		.byte	0
  70 0025 00       		.byte	0
  71 0026 00       		.byte	0
  72 0027 00       		.byte	0
  73 0028 00       		.byte	0
  74 0029 00       		.byte	0
  75 002a 00       		.byte	0
  76 002b 00       		.byte	0
  77 002c 00       		.byte	0
  78 002d 00       		.byte	0
  79 002e 00       		.byte	0
  80 002f 14       		.byte	20
  81              		.global	cyBle_scanRspData
  82              		.bss
  83 0001 000000   		.align	2
  84              		.type	cyBle_scanRspData, %object
  85              		.size	cyBle_scanRspData, 32
  86              	cyBle_scanRspData:
  87 0004 00000000 		.space	32
  87      00000000 
  87      00000000 
  87      00000000 
  87      00000000 
  88              		.global	cyBle_discoveryModeInfo
  89              		.data
  90              		.align	2
  91              		.type	cyBle_discoveryModeInfo, %object
  92              		.size	cyBle_discoveryModeInfo, 20
  93              	cyBle_discoveryModeInfo:
  94 0030 02       		.byte	2
  95 0031 000000   		.space	3
  96 0034 00000000 		.word	cyBle_discoveryParam
  97 0038 00000000 		.word	cyBle_discoveryData
  98 003c 00000000 		.word	cyBle_scanRspData
  99 0040 1E00     		.short	30
 100 0042 0000     		.space	2
 101              		.comm	CyBle_ApplCallback,4,4
 102              		.global	cyBle_deviceAddress
 103              		.align	2
 104              		.type	cyBle_deviceAddress, %object
 105              		.size	cyBle_deviceAddress, 7
 106              	cyBle_deviceAddress:
 107 0044 00       		.byte	0
 108 0045 00       		.byte	0
 109 0046 00       		.byte	0
 110 0047 50       		.byte	80
ARM GAS  C:\Users\KEVINH~1\AppData\Local\Temp\cctGjvGe.s 			page 3


 111 0048 A0       		.byte	-96
 112 0049 00       		.byte	0
 113 004a 00       		.byte	0
 114              		.global	cyBle_sflashDeviceAddress
 115 004b 00       		.align	2
 116              		.type	cyBle_sflashDeviceAddress, %object
 117              		.size	cyBle_sflashDeviceAddress, 4
 118              	cyBle_sflashDeviceAddress:
 119 004c 00F2FF0F 		.word	268431872
 120              		.section	.text.CyBle_Init,"ax",%progbits
 121              		.align	2
 122              		.global	CyBle_Init
 123              		.code	16
 124              		.thumb_func
 125              		.type	CyBle_Init, %function
 126              	CyBle_Init:
 127              	.LFB2:
 128              		.file 1 ".\\Generated_Source\\PSoC4\\BLE.c"
   1:.\Generated_Source\PSoC4/BLE.c **** /*******************************************************************************
   2:.\Generated_Source\PSoC4/BLE.c **** File Name: CYBLE.c
   3:.\Generated_Source\PSoC4/BLE.c **** Version 2.0
   4:.\Generated_Source\PSoC4/BLE.c **** 
   5:.\Generated_Source\PSoC4/BLE.c **** Description:
   6:.\Generated_Source\PSoC4/BLE.c ****  This file contains the source code for the Common APIs of the BLE Component.
   7:.\Generated_Source\PSoC4/BLE.c **** 
   8:.\Generated_Source\PSoC4/BLE.c **** ********************************************************************************
   9:.\Generated_Source\PSoC4/BLE.c **** Copyright 2014-2015, Cypress Semiconductor Corporation.  All rights reserved.
  10:.\Generated_Source\PSoC4/BLE.c **** You may use this file only in accordance with the license, terms, conditions,
  11:.\Generated_Source\PSoC4/BLE.c **** disclaimers, and limitations in the end user license agreement accompanying
  12:.\Generated_Source\PSoC4/BLE.c **** the software package with which this file was provided.
  13:.\Generated_Source\PSoC4/BLE.c **** *******************************************************************************/
  14:.\Generated_Source\PSoC4/BLE.c **** 
  15:.\Generated_Source\PSoC4/BLE.c **** #include "BLE_eventHandler.h"
  16:.\Generated_Source\PSoC4/BLE.c **** #include "BLE_HAL_PVT.h"
  17:.\Generated_Source\PSoC4/BLE.c **** 
  18:.\Generated_Source\PSoC4/BLE.c **** 
  19:.\Generated_Source\PSoC4/BLE.c **** /***************************************
  20:.\Generated_Source\PSoC4/BLE.c **** ##Function Prototypes
  21:.\Generated_Source\PSoC4/BLE.c **** ***************************************/
  22:.\Generated_Source\PSoC4/BLE.c **** 
  23:.\Generated_Source\PSoC4/BLE.c **** #if(CYBLE_GATT_ROLE_SERVER)
  24:.\Generated_Source\PSoC4/BLE.c ****     #if(CYBLE_GAP_ROLE_PERIPHERAL)
  25:.\Generated_Source\PSoC4/BLE.c ****         static void CyBle_ChangeAdLocalName(const char8 name[], uint8 dest);
  26:.\Generated_Source\PSoC4/BLE.c ****     #endif /* (CYBLE_GAP_ROLE_PERIPHERAL) */
  27:.\Generated_Source\PSoC4/BLE.c **** #endif /* (CYBLE_GATT_ROLE_SERVER) */
  28:.\Generated_Source\PSoC4/BLE.c ****     
  29:.\Generated_Source\PSoC4/BLE.c **** 
  30:.\Generated_Source\PSoC4/BLE.c **** /***************************************
  31:.\Generated_Source\PSoC4/BLE.c **** ##Global Variables
  32:.\Generated_Source\PSoC4/BLE.c **** ***************************************/
  33:.\Generated_Source\PSoC4/BLE.c **** 
  34:.\Generated_Source\PSoC4/BLE.c **** /* Indicates whether the BLE has been initialized. The variable is initialized to
  35:.\Generated_Source\PSoC4/BLE.c ****    0 and set to 1 the first time CyBle_Start() is called. This allows the component
  36:.\Generated_Source\PSoC4/BLE.c ****    to restart without reinitialization after the first call to the CyBle_Start() 
  37:.\Generated_Source\PSoC4/BLE.c ****    routine. If reinitialization of the component is required, the variable should 
  38:.\Generated_Source\PSoC4/BLE.c ****    be set to 0 before the CyBle_Start() routine is called. Alternatively, the BLE
  39:.\Generated_Source\PSoC4/BLE.c ****    can be reinitialized by calling the CyBle_Init() function.
ARM GAS  C:\Users\KEVINH~1\AppData\Local\Temp\cctGjvGe.s 			page 4


  40:.\Generated_Source\PSoC4/BLE.c **** */
  41:.\Generated_Source\PSoC4/BLE.c **** uint8  cyBle_initVar = 0u;
  42:.\Generated_Source\PSoC4/BLE.c **** 
  43:.\Generated_Source\PSoC4/BLE.c **** /* Allocate RAM memory for stack. This buffer could be reused by application when 
  44:.\Generated_Source\PSoC4/BLE.c ****    BLE component is stopped. 
  45:.\Generated_Source\PSoC4/BLE.c **** */
  46:.\Generated_Source\PSoC4/BLE.c **** CYBLE_CYALIGNED_BEGIN uint8 cyBle_stackMemoryRam[CYBLE_STACK_RAM_SIZE] CYBLE_CYALIGNED_END;
  47:.\Generated_Source\PSoC4/BLE.c **** 
  48:.\Generated_Source\PSoC4/BLE.c **** #if(CYBLE_GAP_ROLE_PERIPHERAL || CYBLE_GAP_ROLE_BROADCASTER)
  49:.\Generated_Source\PSoC4/BLE.c **** 
  50:.\Generated_Source\PSoC4/BLE.c **** CYBLE_GAPP_DISC_PARAM_T cyBle_discoveryParam =
  51:.\Generated_Source\PSoC4/BLE.c **** {
  52:.\Generated_Source\PSoC4/BLE.c ****     0x0020u,    /* uint16 advertising_interval_min */
  53:.\Generated_Source\PSoC4/BLE.c ****     0x0030u,    /* uint16 advertising_interval_max */
  54:.\Generated_Source\PSoC4/BLE.c ****     CYBLE_GAPP_CONNECTABLE_UNDIRECTED_ADV, /* uint8 advertising_type */
  55:.\Generated_Source\PSoC4/BLE.c ****     0x00u,      /* uint8 own_addr_type */
  56:.\Generated_Source\PSoC4/BLE.c ****     0x00u,      /* uint8 direct_addr_type */
  57:.\Generated_Source\PSoC4/BLE.c ****     {0x00u, 0x00u, 0x00u, 0x50u, 0xA0u, 0x00u}, /* uint8* direct_addr */
  58:.\Generated_Source\PSoC4/BLE.c ****     0x07u,      /* uint8 advertising_channel_map */
  59:.\Generated_Source\PSoC4/BLE.c ****     0x00u,      /* uint8 advertising_filter_policy */
  60:.\Generated_Source\PSoC4/BLE.c **** };
  61:.\Generated_Source\PSoC4/BLE.c **** 
  62:.\Generated_Source\PSoC4/BLE.c **** CYBLE_GAPP_DISC_DATA_T cyBle_discoveryData =
  63:.\Generated_Source\PSoC4/BLE.c **** {
  64:.\Generated_Source\PSoC4/BLE.c ****     { 0x02u, 0x01u, 0x06u, 0x0Au, 0x09u, 0x42u, 0x4Cu,
  65:.\Generated_Source\PSoC4/BLE.c ****     0x45u, 0x20u, 0x4Cu, 0x61u, 0x62u, 0x20u, 0x34u, 0x05u,
  66:.\Generated_Source\PSoC4/BLE.c ****     0x03u, 0xB5u, 0xCAu, 0xBBu, 0xCBu, 0x00u, 0x00u, 0x00u,
  67:.\Generated_Source\PSoC4/BLE.c ****     0x00u, 0x00u, 0x00u, 0x00u, 0x00u, 0x00u, 0x00u, 0x00u }, /* uint8 advertising_data[CYBLE_MAX_A
  68:.\Generated_Source\PSoC4/BLE.c ****     0x14u,      /* uint8 adv_data_length */
  69:.\Generated_Source\PSoC4/BLE.c **** };
  70:.\Generated_Source\PSoC4/BLE.c **** 
  71:.\Generated_Source\PSoC4/BLE.c **** CYBLE_GAPP_SCAN_RSP_DATA_T cyBle_scanRspData =
  72:.\Generated_Source\PSoC4/BLE.c **** {
  73:.\Generated_Source\PSoC4/BLE.c ****     { 0x00u, 0x00u, 0x00u, 0x00u, 0x00u, 0x00u, 0x00u,
  74:.\Generated_Source\PSoC4/BLE.c ****     0x00u, 0x00u, 0x00u, 0x00u, 0x00u, 0x00u, 0x00u, 0x00u,
  75:.\Generated_Source\PSoC4/BLE.c ****     0x00u, 0x00u, 0x00u, 0x00u, 0x00u, 0x00u, 0x00u, 0x00u,
  76:.\Generated_Source\PSoC4/BLE.c ****     0x00u, 0x00u, 0x00u, 0x00u, 0x00u, 0x00u, 0x00u, 0x00u }, /* uint8 scan_rsp_data[CYBLE_MAX_SCAN
  77:.\Generated_Source\PSoC4/BLE.c ****     0x00u,      /* uint8 scan_rsp_data_length */
  78:.\Generated_Source\PSoC4/BLE.c **** };
  79:.\Generated_Source\PSoC4/BLE.c **** 
  80:.\Generated_Source\PSoC4/BLE.c **** /* This variable of type CYBLE_GAPP_DISC_MODE_INFO_T is present only when 
  81:.\Generated_Source\PSoC4/BLE.c ****    the BLE component is configured for Peripheral GAP role or Central and 
  82:.\Generated_Source\PSoC4/BLE.c ****    Peripheral GAP role. It contains the Advertisement settings and also the 
  83:.\Generated_Source\PSoC4/BLE.c ****    Advertisement and Scan response data parameters entered in the customizer.
  84:.\Generated_Source\PSoC4/BLE.c ****    This variable can be used by advanced users to change Advertisement settings,
  85:.\Generated_Source\PSoC4/BLE.c ****    Advertisement or Scan response data in runtime. 
  86:.\Generated_Source\PSoC4/BLE.c **** */
  87:.\Generated_Source\PSoC4/BLE.c **** CYBLE_GAPP_DISC_MODE_INFO_T cyBle_discoveryModeInfo =
  88:.\Generated_Source\PSoC4/BLE.c **** {
  89:.\Generated_Source\PSoC4/BLE.c ****     0x02u,      /* uint8 discMode */
  90:.\Generated_Source\PSoC4/BLE.c ****     &cyBle_discoveryParam,
  91:.\Generated_Source\PSoC4/BLE.c ****     &cyBle_discoveryData,
  92:.\Generated_Source\PSoC4/BLE.c ****     &cyBle_scanRspData,
  93:.\Generated_Source\PSoC4/BLE.c ****     0x001Eu,    /* uint16 advTo */
  94:.\Generated_Source\PSoC4/BLE.c **** };
  95:.\Generated_Source\PSoC4/BLE.c **** 
  96:.\Generated_Source\PSoC4/BLE.c **** 
ARM GAS  C:\Users\KEVINH~1\AppData\Local\Temp\cctGjvGe.s 			page 5


  97:.\Generated_Source\PSoC4/BLE.c **** #endif /* CYBLE_GAP_ROLE_PERIPHERAL || CYBLE_GAP_ROLE_BROADCASTER */
  98:.\Generated_Source\PSoC4/BLE.c **** 
  99:.\Generated_Source\PSoC4/BLE.c **** #if(CYBLE_GAP_ROLE_CENTRAL)
 100:.\Generated_Source\PSoC4/BLE.c ****     
 101:.\Generated_Source\PSoC4/BLE.c **** CYBLE_GAPC_CONN_PARAM_T cyBle_connectionParameters;
 102:.\Generated_Source\PSoC4/BLE.c **** 
 103:.\Generated_Source\PSoC4/BLE.c **** /* Connecting timeout is set to 30 seconds in CyBle_Init function. 
 104:.\Generated_Source\PSoC4/BLE.c ****    Not zero value starts timer in CyBle_GapcConnectDevice API.
 105:.\Generated_Source\PSoC4/BLE.c **** */
 106:.\Generated_Source\PSoC4/BLE.c **** uint16 cyBle_connectingTimeout;
 107:.\Generated_Source\PSoC4/BLE.c ****     
 108:.\Generated_Source\PSoC4/BLE.c **** #endif /* CYBLE_GAP_ROLE_CENTRAL */
 109:.\Generated_Source\PSoC4/BLE.c **** 
 110:.\Generated_Source\PSoC4/BLE.c **** #if(CYBLE_GAP_ROLE_CENTRAL || CYBLE_GAP_ROLE_OBSERVER)
 111:.\Generated_Source\PSoC4/BLE.c ****     
 112:.\Generated_Source\PSoC4/BLE.c **** 
 113:.\Generated_Source\PSoC4/BLE.c ****     
 114:.\Generated_Source\PSoC4/BLE.c **** #endif /* CYBLE_GAP_ROLE_CENTRAL || CYBLE_GAP_ROLE_OBSERVER */
 115:.\Generated_Source\PSoC4/BLE.c **** 
 116:.\Generated_Source\PSoC4/BLE.c **** #if((CYBLE_GAP_ROLE_PERIPHERAL || CYBLE_GAP_ROLE_CENTRAL) && (CYBLE_BONDING_REQUIREMENT == CYBLE_BO
 117:.\Generated_Source\PSoC4/BLE.c **** 
 118:.\Generated_Source\PSoC4/BLE.c **** uint8 cyBle_pendingFlashWrite;
 119:.\Generated_Source\PSoC4/BLE.c ****     
 120:.\Generated_Source\PSoC4/BLE.c **** #endif  /* (CYBLE_BONDING_REQUIREMENT == CYBLE_BONDING_YES) */
 121:.\Generated_Source\PSoC4/BLE.c **** 
 122:.\Generated_Source\PSoC4/BLE.c **** CYBLE_CALLBACK_T CyBle_ApplCallback;
 123:.\Generated_Source\PSoC4/BLE.c **** CYBLE_GAP_BD_ADDR_T cyBle_deviceAddress = {{0x00u, 0x00u, 0x00u, 0x50u, 0xA0u, 0x00u}, 0x00u };
 124:.\Generated_Source\PSoC4/BLE.c **** CYBLE_GAP_BD_ADDR_T * cyBle_sflashDeviceAddress = CYBLE_SFLASH_DEVICE_ADDRESS_PTR;
 125:.\Generated_Source\PSoC4/BLE.c **** 
 126:.\Generated_Source\PSoC4/BLE.c **** 
 127:.\Generated_Source\PSoC4/BLE.c **** /******************************************************************************
 128:.\Generated_Source\PSoC4/BLE.c **** ##Function Name: CyBle_Init
 129:.\Generated_Source\PSoC4/BLE.c **** *******************************************************************************
 130:.\Generated_Source\PSoC4/BLE.c ****  Summary:
 131:.\Generated_Source\PSoC4/BLE.c ****   Initializes the component with the parameters set in the customizer.
 132:.\Generated_Source\PSoC4/BLE.c **** 
 133:.\Generated_Source\PSoC4/BLE.c ****  Parameters:
 134:.\Generated_Source\PSoC4/BLE.c ****   None
 135:.\Generated_Source\PSoC4/BLE.c **** 
 136:.\Generated_Source\PSoC4/BLE.c ****  Return:
 137:.\Generated_Source\PSoC4/BLE.c ****   None
 138:.\Generated_Source\PSoC4/BLE.c **** 
 139:.\Generated_Source\PSoC4/BLE.c **** ******************************************************************************/
 140:.\Generated_Source\PSoC4/BLE.c **** void CyBle_Init(void)
 141:.\Generated_Source\PSoC4/BLE.c **** {
 129              		.loc 1 141 0
 130              		.cfi_startproc
 131 0000 80B5     		push	{r7, lr}
 132              		.cfi_def_cfa_offset 8
 133              		.cfi_offset 7, -8
 134              		.cfi_offset 14, -4
 135 0002 00AF     		add	r7, sp, #0
 136              		.cfi_def_cfa_register 7
 142:.\Generated_Source\PSoC4/BLE.c ****     cyBle_eventHandlerFlag = 0u;
 137              		.loc 1 142 0
 138 0004 064B     		ldr	r3, .L2
 139 0006 0022     		mov	r2, #0
ARM GAS  C:\Users\KEVINH~1\AppData\Local\Temp\cctGjvGe.s 			page 6


 140 0008 1A70     		strb	r2, [r3]
 143:.\Generated_Source\PSoC4/BLE.c ****     cyBle_busyStatus = CYBLE_STACK_STATE_FREE;
 141              		.loc 1 143 0
 142 000a 064B     		ldr	r3, .L2+4
 143 000c 0022     		mov	r2, #0
 144 000e 1A70     		strb	r2, [r3]
 144:.\Generated_Source\PSoC4/BLE.c ****     
 145:.\Generated_Source\PSoC4/BLE.c ****     #if(CYBLE_GAP_ROLE_PERIPHERAL || CYBLE_GAP_ROLE_BROADCASTER) 
 146:.\Generated_Source\PSoC4/BLE.c ****         cyBle_advertisingIntervalType = CYBLE_ADVERTISING_FAST; 
 145              		.loc 1 146 0
 146 0010 054B     		ldr	r3, .L2+8
 147 0012 0022     		mov	r2, #0
 148 0014 1A70     		strb	r2, [r3]
 147:.\Generated_Source\PSoC4/BLE.c ****     #endif /* (CYBLE_GAP_ROLE_PERIPHERAL || CYBLE_GAP_ROLE_BROADCASTER)  */
 148:.\Generated_Source\PSoC4/BLE.c ****     #if(CYBLE_GAP_ROLE_CENTRAL || CYBLE_GAP_ROLE_OBSERVER)
 149:.\Generated_Source\PSoC4/BLE.c ****         cyBle_scanningIntervalType = CYBLE_SCANNING_FAST; 
 150:.\Generated_Source\PSoC4/BLE.c ****     #endif /* (CYBLE_GAP_ROLE_CENTRAL || CYBLE_GAP_ROLE_OBSERVER) */
 151:.\Generated_Source\PSoC4/BLE.c ****         
 152:.\Generated_Source\PSoC4/BLE.c ****     /* Init default connection parameters. 
 153:.\Generated_Source\PSoC4/BLE.c ****        Application may change it before initiating a connection */
 154:.\Generated_Source\PSoC4/BLE.c ****     #if(CYBLE_GAP_ROLE_CENTRAL)
 155:.\Generated_Source\PSoC4/BLE.c ****         cyBle_connectionParameters.scanIntv = cyBle_discoveryInfo.scanIntv;
 156:.\Generated_Source\PSoC4/BLE.c ****         cyBle_connectionParameters.scanWindow = cyBle_discoveryInfo.scanWindow;
 157:.\Generated_Source\PSoC4/BLE.c ****         cyBle_connectionParameters.ownAddrType = cyBle_discoveryInfo.ownAddrType;
 158:.\Generated_Source\PSoC4/BLE.c ****         cyBle_connectionParameters.initiatorFilterPolicy = cyBle_discoveryInfo.scanFilterPolicy;
 159:.\Generated_Source\PSoC4/BLE.c ****         cyBle_connectionParameters.connIntvMin = CYBLE_GAPC_CONNECTION_INTERVAL_MIN;
 160:.\Generated_Source\PSoC4/BLE.c ****         cyBle_connectionParameters.connIntvMax = CYBLE_GAPC_CONNECTION_INTERVAL_MAX;
 161:.\Generated_Source\PSoC4/BLE.c ****         cyBle_connectionParameters.connLatency = CYBLE_GAPC_CONNECTION_SLAVE_LATENCY;
 162:.\Generated_Source\PSoC4/BLE.c ****         cyBle_connectionParameters.supervisionTO = CYBLE_GAPC_CONNECTION_TIME_OUT;
 163:.\Generated_Source\PSoC4/BLE.c ****         cyBle_connectionParameters.minCeLength = 0x0000u;
 164:.\Generated_Source\PSoC4/BLE.c ****         cyBle_connectionParameters.maxCeLength = 0xFFFFu;
 165:.\Generated_Source\PSoC4/BLE.c ****         
 166:.\Generated_Source\PSoC4/BLE.c ****         cyBle_connectingTimeout = CYBLE_GAPC_CONNECTING_TIMEOUT;
 167:.\Generated_Source\PSoC4/BLE.c ****     #endif /* CYBLE_GAP_ROLE_CENTRAL */
 168:.\Generated_Source\PSoC4/BLE.c **** 
 169:.\Generated_Source\PSoC4/BLE.c ****     CyBle_ServiceInit();
 149              		.loc 1 169 0
 150 0016 FFF7FEFF 		bl	CyBle_ServiceInit
 170:.\Generated_Source\PSoC4/BLE.c **** 
 171:.\Generated_Source\PSoC4/BLE.c **** #if((CYBLE_GAP_ROLE_PERIPHERAL || CYBLE_GAP_ROLE_CENTRAL) && (CYBLE_BONDING_REQUIREMENT == CYBLE_BO
 172:.\Generated_Source\PSoC4/BLE.c ****     cyBle_pendingFlashWrite = 0u;
 173:.\Generated_Source\PSoC4/BLE.c **** #endif  /* (CYBLE_BONDING_REQUIREMENT == CYBLE_BONDING_YES) */
 174:.\Generated_Source\PSoC4/BLE.c **** 
 175:.\Generated_Source\PSoC4/BLE.c **** }
 151              		.loc 1 175 0
 152 001a BD46     		mov	sp, r7
 153              		@ sp needed
 154 001c 80BD     		pop	{r7, pc}
 155              	.L3:
 156 001e C046     		.align	2
 157              	.L2:
 158 0020 00000000 		.word	cyBle_eventHandlerFlag
 159 0024 00000000 		.word	cyBle_busyStatus
 160 0028 00000000 		.word	cyBle_advertisingIntervalType
 161              		.cfi_endproc
 162              	.LFE2:
 163              		.size	CyBle_Init, .-CyBle_Init
ARM GAS  C:\Users\KEVINH~1\AppData\Local\Temp\cctGjvGe.s 			page 7


 164              		.section	.text.CyBle_ServiceInit,"ax",%progbits
 165              		.align	2
 166              		.global	CyBle_ServiceInit
 167              		.code	16
 168              		.thumb_func
 169              		.type	CyBle_ServiceInit, %function
 170              	CyBle_ServiceInit:
 171              	.LFB3:
 176:.\Generated_Source\PSoC4/BLE.c **** 
 177:.\Generated_Source\PSoC4/BLE.c **** 
 178:.\Generated_Source\PSoC4/BLE.c **** /******************************************************************************
 179:.\Generated_Source\PSoC4/BLE.c **** ##Function Name: CyBle_ServiceInit
 180:.\Generated_Source\PSoC4/BLE.c **** *******************************************************************************
 181:.\Generated_Source\PSoC4/BLE.c **** 
 182:.\Generated_Source\PSoC4/BLE.c **** Summary:
 183:.\Generated_Source\PSoC4/BLE.c ****  Initializes all included services.
 184:.\Generated_Source\PSoC4/BLE.c **** 
 185:.\Generated_Source\PSoC4/BLE.c **** Parameters:
 186:.\Generated_Source\PSoC4/BLE.c ****  None
 187:.\Generated_Source\PSoC4/BLE.c **** 
 188:.\Generated_Source\PSoC4/BLE.c **** Return:
 189:.\Generated_Source\PSoC4/BLE.c ****  None
 190:.\Generated_Source\PSoC4/BLE.c **** 
 191:.\Generated_Source\PSoC4/BLE.c **** ******************************************************************************/
 192:.\Generated_Source\PSoC4/BLE.c **** void CyBle_ServiceInit(void)
 193:.\Generated_Source\PSoC4/BLE.c **** {
 172              		.loc 1 193 0
 173              		.cfi_startproc
 174 0000 80B5     		push	{r7, lr}
 175              		.cfi_def_cfa_offset 8
 176              		.cfi_offset 7, -8
 177              		.cfi_offset 14, -4
 178 0002 00AF     		add	r7, sp, #0
 179              		.cfi_def_cfa_register 7
 194:.\Generated_Source\PSoC4/BLE.c ****     #if(CYBLE_GATT_ROLE_CLIENT)
 195:.\Generated_Source\PSoC4/BLE.c ****         (void)memset(&cyBle_gapc, 0, sizeof(cyBle_gapc));
 196:.\Generated_Source\PSoC4/BLE.c ****         (void)memset(&cyBle_gattc, 0, sizeof(cyBle_gattc));
 197:.\Generated_Source\PSoC4/BLE.c ****     #endif /* CYBLE_GATT_ROLE_CLIENT */
 198:.\Generated_Source\PSoC4/BLE.c ****     
 199:.\Generated_Source\PSoC4/BLE.c ****     #ifdef CYBLE_ANS
 200:.\Generated_Source\PSoC4/BLE.c ****         CyBle_AnsInit();
 201:.\Generated_Source\PSoC4/BLE.c ****     #endif /* CYBLE_ANS */
 202:.\Generated_Source\PSoC4/BLE.c ****     
 203:.\Generated_Source\PSoC4/BLE.c ****     #ifdef CYBLE_BAS
 204:.\Generated_Source\PSoC4/BLE.c ****         CyBle_BasInit();
 205:.\Generated_Source\PSoC4/BLE.c ****     #endif /* CYBLE_BAS */
 206:.\Generated_Source\PSoC4/BLE.c ****     
 207:.\Generated_Source\PSoC4/BLE.c ****     #ifdef CYBLE_BLS
 208:.\Generated_Source\PSoC4/BLE.c ****         CyBle_BlsInit();
 209:.\Generated_Source\PSoC4/BLE.c ****     #endif /* CYBLE_BLS */
 210:.\Generated_Source\PSoC4/BLE.c ****     
 211:.\Generated_Source\PSoC4/BLE.c ****     #ifdef CYBLE_BMS
 212:.\Generated_Source\PSoC4/BLE.c ****         CyBle_BmsInit();
 213:.\Generated_Source\PSoC4/BLE.c ****     #endif /* CYBLE_BMS */
 214:.\Generated_Source\PSoC4/BLE.c ****     
 215:.\Generated_Source\PSoC4/BLE.c ****     #ifdef CYBLE_CGMS
 216:.\Generated_Source\PSoC4/BLE.c ****         CyBle_CgmsInit();
ARM GAS  C:\Users\KEVINH~1\AppData\Local\Temp\cctGjvGe.s 			page 8


 217:.\Generated_Source\PSoC4/BLE.c ****     #endif /* CYBLE_CGMS */
 218:.\Generated_Source\PSoC4/BLE.c **** 
 219:.\Generated_Source\PSoC4/BLE.c ****     #ifdef CYBLE_CPS
 220:.\Generated_Source\PSoC4/BLE.c ****         CyBle_CpsInit();
 221:.\Generated_Source\PSoC4/BLE.c ****     #endif /* CYBLE_CPS */
 222:.\Generated_Source\PSoC4/BLE.c **** 
 223:.\Generated_Source\PSoC4/BLE.c ****     #ifdef CYBLE_CSCS
 224:.\Generated_Source\PSoC4/BLE.c ****         CyBle_CscsInit();
 225:.\Generated_Source\PSoC4/BLE.c ****     #endif /* CYBLE_CSCS */
 226:.\Generated_Source\PSoC4/BLE.c ****     
 227:.\Generated_Source\PSoC4/BLE.c ****     #ifdef CYBLE_CTS
 228:.\Generated_Source\PSoC4/BLE.c ****         CyBle_CtsInit();
 229:.\Generated_Source\PSoC4/BLE.c ****     #endif /* CYBLE_CTS */
 230:.\Generated_Source\PSoC4/BLE.c **** 
 231:.\Generated_Source\PSoC4/BLE.c ****     #ifdef CYBLE_DIS
 232:.\Generated_Source\PSoC4/BLE.c ****         CyBle_DisInit();
 233:.\Generated_Source\PSoC4/BLE.c ****     #endif /* CYBLE_DIS */
 234:.\Generated_Source\PSoC4/BLE.c **** 
 235:.\Generated_Source\PSoC4/BLE.c ****     #ifdef CYBLE_ESS
 236:.\Generated_Source\PSoC4/BLE.c ****         CyBle_EssInit();
 237:.\Generated_Source\PSoC4/BLE.c ****     #endif /* CYBLE_ESS */
 238:.\Generated_Source\PSoC4/BLE.c ****     
 239:.\Generated_Source\PSoC4/BLE.c ****     #ifdef CYBLE_GLS
 240:.\Generated_Source\PSoC4/BLE.c ****         CyBle_GlsInit();
 241:.\Generated_Source\PSoC4/BLE.c ****     #endif /* CYBLE_GLS */
 242:.\Generated_Source\PSoC4/BLE.c ****     
 243:.\Generated_Source\PSoC4/BLE.c ****     #ifdef CYBLE_CUSTOM
 244:.\Generated_Source\PSoC4/BLE.c ****         CyBle_CustomInit();
 180              		.loc 1 244 0
 181 0004 FFF7FEFF 		bl	CyBle_CustomInit
 245:.\Generated_Source\PSoC4/BLE.c ****     #endif /* CYBLE_CUSTOM */
 246:.\Generated_Source\PSoC4/BLE.c **** 
 247:.\Generated_Source\PSoC4/BLE.c ****     #ifdef CYBLE_HIDS
 248:.\Generated_Source\PSoC4/BLE.c ****         CyBle_HidsInit();
 249:.\Generated_Source\PSoC4/BLE.c ****     #endif /* CYBLE_HIDS */
 250:.\Generated_Source\PSoC4/BLE.c **** 
 251:.\Generated_Source\PSoC4/BLE.c ****     #ifdef CYBLE_HRS
 252:.\Generated_Source\PSoC4/BLE.c ****         CyBle_HrsInit();
 253:.\Generated_Source\PSoC4/BLE.c ****     #endif /* CYBLE_HRS */
 254:.\Generated_Source\PSoC4/BLE.c ****     
 255:.\Generated_Source\PSoC4/BLE.c ****     #ifdef CYBLE_HTS
 256:.\Generated_Source\PSoC4/BLE.c ****         CyBle_HtsInit();
 257:.\Generated_Source\PSoC4/BLE.c ****     #endif /* CYBLE_RSCS */
 258:.\Generated_Source\PSoC4/BLE.c **** 
 259:.\Generated_Source\PSoC4/BLE.c ****     #ifdef CYBLE_IAS
 260:.\Generated_Source\PSoC4/BLE.c ****         CyBle_IasInit();
 261:.\Generated_Source\PSoC4/BLE.c ****     #endif /* CYBLE_IAS */
 262:.\Generated_Source\PSoC4/BLE.c **** 
 263:.\Generated_Source\PSoC4/BLE.c ****     #ifdef CYBLE_LLS
 264:.\Generated_Source\PSoC4/BLE.c ****         CyBle_LlsInit();
 265:.\Generated_Source\PSoC4/BLE.c ****     #endif /* CYBLE_LLS */
 266:.\Generated_Source\PSoC4/BLE.c **** 
 267:.\Generated_Source\PSoC4/BLE.c ****     #ifdef CYBLE_RTUS
 268:.\Generated_Source\PSoC4/BLE.c ****         CyBle_RtusInit();
 269:.\Generated_Source\PSoC4/BLE.c ****     #endif /* CYBLE_RTUS */
 270:.\Generated_Source\PSoC4/BLE.c **** 
 271:.\Generated_Source\PSoC4/BLE.c ****     #ifdef CYBLE_LNS
ARM GAS  C:\Users\KEVINH~1\AppData\Local\Temp\cctGjvGe.s 			page 9


 272:.\Generated_Source\PSoC4/BLE.c ****         CyBle_LnsInit();
 273:.\Generated_Source\PSoC4/BLE.c ****     #endif /* CYBLE_LNS */
 274:.\Generated_Source\PSoC4/BLE.c ****     
 275:.\Generated_Source\PSoC4/BLE.c ****     #ifdef CYBLE_PASS
 276:.\Generated_Source\PSoC4/BLE.c ****         CyBle_PassInit();
 277:.\Generated_Source\PSoC4/BLE.c ****     #endif /* CYBLE_PASS */
 278:.\Generated_Source\PSoC4/BLE.c ****     
 279:.\Generated_Source\PSoC4/BLE.c ****     #ifdef CYBLE_RSCS
 280:.\Generated_Source\PSoC4/BLE.c ****         CyBle_RscsInit();
 281:.\Generated_Source\PSoC4/BLE.c ****     #endif /* CYBLE_RSCS */
 282:.\Generated_Source\PSoC4/BLE.c **** 
 283:.\Generated_Source\PSoC4/BLE.c ****     #ifdef CYBLE_SCPS
 284:.\Generated_Source\PSoC4/BLE.c ****         CyBle_ScpsInit();
 285:.\Generated_Source\PSoC4/BLE.c ****     #endif /* CYBLE_SCPS */
 286:.\Generated_Source\PSoC4/BLE.c ****     
 287:.\Generated_Source\PSoC4/BLE.c ****     #ifdef CYBLE_TPS
 288:.\Generated_Source\PSoC4/BLE.c ****         CyBle_TpsInit();
 289:.\Generated_Source\PSoC4/BLE.c ****     #endif /* CYBLE_TPS */
 290:.\Generated_Source\PSoC4/BLE.c ****     
 291:.\Generated_Source\PSoC4/BLE.c ****     #ifdef CYBLE_UDS
 292:.\Generated_Source\PSoC4/BLE.c ****         CyBle_UdsInit();
 293:.\Generated_Source\PSoC4/BLE.c ****     #endif /* CYBLE_UDS */
 294:.\Generated_Source\PSoC4/BLE.c **** 
 295:.\Generated_Source\PSoC4/BLE.c ****     #ifdef CYBLE_WSS
 296:.\Generated_Source\PSoC4/BLE.c ****         CyBle_WssInit();
 297:.\Generated_Source\PSoC4/BLE.c ****     #endif /* CYBLE_WSS */
 298:.\Generated_Source\PSoC4/BLE.c **** }
 182              		.loc 1 298 0
 183 0008 BD46     		mov	sp, r7
 184              		@ sp needed
 185 000a 80BD     		pop	{r7, pc}
 186              		.cfi_endproc
 187              	.LFE3:
 188              		.size	CyBle_ServiceInit, .-CyBle_ServiceInit
 189              		.section	.rodata
 190              		.align	2
 191              	.LC0:
 192 0000 1B00     		.short	27
 193 0002 02       		.byte	2
 194 0003 00       		.space	1
 195 0004 0F00     		.short	15
 196 0006 01       		.byte	1
 197 0007 00       		.space	1
 198 0008 2800     		.short	40
 199 000a 01       		.byte	1
 200 000b 00       		.space	1
 201 000c 4000     		.short	64
 202 000e 01       		.byte	1
 203 000f 00       		.space	1
 204 0010 1700     		.short	23
 205 0012 01       		.byte	1
 206 0013 00       		.space	1
 207 0014 1700     		.short	23
 208 0016 01       		.byte	1
 209 0017 00       		.space	1
 210              		.section	.text.CyBle_Start,"ax",%progbits
 211              		.align	2
ARM GAS  C:\Users\KEVINH~1\AppData\Local\Temp\cctGjvGe.s 			page 10


 212              		.global	CyBle_Start
 213              		.code	16
 214              		.thumb_func
 215              		.type	CyBle_Start, %function
 216              	CyBle_Start:
 217              	.LFB4:
 299:.\Generated_Source\PSoC4/BLE.c **** 
 300:.\Generated_Source\PSoC4/BLE.c **** 
 301:.\Generated_Source\PSoC4/BLE.c **** /******************************************************************************
 302:.\Generated_Source\PSoC4/BLE.c **** ##Function Name: CyBle_Start
 303:.\Generated_Source\PSoC4/BLE.c **** *******************************************************************************
 304:.\Generated_Source\PSoC4/BLE.c **** 
 305:.\Generated_Source\PSoC4/BLE.c **** Summary:
 306:.\Generated_Source\PSoC4/BLE.c ****  This function initializes the BLE Stack, which consists of the BLE Stack 
 307:.\Generated_Source\PSoC4/BLE.c ****  Manager, BLE Controller, and BLE Host modules. It takes care of initializing
 308:.\Generated_Source\PSoC4/BLE.c ****  the Profile layer, schedulers, Timer and other platform related
 309:.\Generated_Source\PSoC4/BLE.c ****  resources required for the BLE component. It also registers the callback 
 310:.\Generated_Source\PSoC4/BLE.c ****  function for BLE events that will be registered in the BLE stack.
 311:.\Generated_Source\PSoC4/BLE.c **** 
 312:.\Generated_Source\PSoC4/BLE.c ****  Note that this function does not reset the BLE Stack.
 313:.\Generated_Source\PSoC4/BLE.c **** 
 314:.\Generated_Source\PSoC4/BLE.c ****  For HCI-Mode of operation, this function will not initialize the BLE Host 
 315:.\Generated_Source\PSoC4/BLE.c ****  module.
 316:.\Generated_Source\PSoC4/BLE.c **** 
 317:.\Generated_Source\PSoC4/BLE.c ****  Calling this function results in the generation of CYBLE_EVT_STACK_ON event
 318:.\Generated_Source\PSoC4/BLE.c ****  on successful initialization of the BLE Stack.
 319:.\Generated_Source\PSoC4/BLE.c **** 
 320:.\Generated_Source\PSoC4/BLE.c **** Parameters:
 321:.\Generated_Source\PSoC4/BLE.c ****  callbackFunc: Event callback function to receive events from BLE stack.
 322:.\Generated_Source\PSoC4/BLE.c ****   CYBLE_CALLBACK_T is a function pointer type.
 323:.\Generated_Source\PSoC4/BLE.c **** 
 324:.\Generated_Source\PSoC4/BLE.c **** Return:
 325:.\Generated_Source\PSoC4/BLE.c ****  CYBLE_API_RESULT_T : Return value indicates if the function succeeded or 
 326:.\Generated_Source\PSoC4/BLE.c ****  failed. Following are the possible error codes.
 327:.\Generated_Source\PSoC4/BLE.c ****  <table>
 328:.\Generated_Source\PSoC4/BLE.c ****   Errors codes                        Description
 329:.\Generated_Source\PSoC4/BLE.c ****   ------------                        -----------------
 330:.\Generated_Source\PSoC4/BLE.c ****   CYBLE_ERROR_OK                      On successful operation.
 331:.\Generated_Source\PSoC4/BLE.c ****   CYBLE_ERROR_INVALID_PARAMETER       On passing a NULL pointer to the 
 332:.\Generated_Source\PSoC4/BLE.c ****                                        function when the BLE stack is not 
 333:.\Generated_Source\PSoC4/BLE.c ****                                        built in HCI mode.
 334:.\Generated_Source\PSoC4/BLE.c ****                                        CYBLE_ERROR_INVALID_PARAMETER
 335:.\Generated_Source\PSoC4/BLE.c ****                                        is never returned in HCI mode.
 336:.\Generated_Source\PSoC4/BLE.c ****   CYBLE_ERROR_REPEATED_ATTEMPTS       On invoking this function more
 337:.\Generated_Source\PSoC4/BLE.c ****                                        than once without calling
 338:.\Generated_Source\PSoC4/BLE.c ****                                        CyBle_Shutdown() function 
 339:.\Generated_Source\PSoC4/BLE.c ****                                        between calls to this function.
 340:.\Generated_Source\PSoC4/BLE.c ****  </table>
 341:.\Generated_Source\PSoC4/BLE.c **** 
 342:.\Generated_Source\PSoC4/BLE.c ****  Global variables:
 343:.\Generated_Source\PSoC4/BLE.c ****   The BLE_intiVar variable is used to indicate initial
 344:.\Generated_Source\PSoC4/BLE.c ****   configuration of this component. The variable is initialized to zero (0u)
 345:.\Generated_Source\PSoC4/BLE.c ****   and set to one (1u) the first time BLE_Start() is called. This
 346:.\Generated_Source\PSoC4/BLE.c ****   allows for component initialization without re-initialization in all
 347:.\Generated_Source\PSoC4/BLE.c ****   subsequent calls to the BLE_Start() routine.
 348:.\Generated_Source\PSoC4/BLE.c **** 
 349:.\Generated_Source\PSoC4/BLE.c **** ******************************************************************************/
ARM GAS  C:\Users\KEVINH~1\AppData\Local\Temp\cctGjvGe.s 			page 11


 350:.\Generated_Source\PSoC4/BLE.c **** CYBLE_API_RESULT_T CyBle_Start(CYBLE_CALLBACK_T callbackFunc)
 351:.\Generated_Source\PSoC4/BLE.c **** {
 218              		.loc 1 351 0
 219              		.cfi_startproc
 220 0000 B0B5     		push	{r4, r5, r7, lr}
 221              		.cfi_def_cfa_offset 16
 222              		.cfi_offset 4, -16
 223              		.cfi_offset 5, -12
 224              		.cfi_offset 7, -8
 225              		.cfi_offset 14, -4
 226 0002 8CB0     		sub	sp, sp, #48
 227              		.cfi_def_cfa_offset 64
 228 0004 02AF     		add	r7, sp, #8
 229              		.cfi_def_cfa 7, 56
 230 0006 7860     		str	r0, [r7, #4]
 352:.\Generated_Source\PSoC4/BLE.c ****     CYBLE_API_RESULT_T apiResult = CYBLE_ERROR_INVALID_PARAMETER;
 231              		.loc 1 352 0
 232 0008 3B1C     		mov	r3, r7
 233 000a 2633     		add	r3, r3, #38
 234 000c 0122     		mov	r2, #1
 235 000e 1A80     		strh	r2, [r3]
 353:.\Generated_Source\PSoC4/BLE.c ****     
 354:.\Generated_Source\PSoC4/BLE.c ****     /* If not initialized then initialize all the required hardware and software */
 355:.\Generated_Source\PSoC4/BLE.c ****     if(cyBle_initVar == 0u)
 236              		.loc 1 355 0
 237 0010 1F4B     		ldr	r3, .L10
 238 0012 1B78     		ldrb	r3, [r3]
 239 0014 002B     		cmp	r3, #0
 240 0016 04D1     		bne	.L6
 356:.\Generated_Source\PSoC4/BLE.c ****     {
 357:.\Generated_Source\PSoC4/BLE.c ****         CyBle_Init();
 241              		.loc 1 357 0
 242 0018 FFF7FEFF 		bl	CyBle_Init
 358:.\Generated_Source\PSoC4/BLE.c ****         cyBle_initVar = 1u;
 243              		.loc 1 358 0
 244 001c 1C4B     		ldr	r3, .L10
 245 001e 0122     		mov	r2, #1
 246 0020 1A70     		strb	r2, [r3]
 247              	.L6:
 359:.\Generated_Source\PSoC4/BLE.c ****     }
 360:.\Generated_Source\PSoC4/BLE.c ****     
 361:.\Generated_Source\PSoC4/BLE.c ****     if(callbackFunc != NULL)
 248              		.loc 1 361 0
 249 0022 7B68     		ldr	r3, [r7, #4]
 250 0024 002B     		cmp	r3, #0
 251 0026 2CD0     		beq	.L7
 252              	.LBB2:
 362:.\Generated_Source\PSoC4/BLE.c ****     {
 363:.\Generated_Source\PSoC4/BLE.c ****     #if(CYBLE_MODE_PROFILE)
 364:.\Generated_Source\PSoC4/BLE.c ****         CYBLE_STK_APP_DATA_BUFF_T dataBuff[CYBLE_STACK_BUF_COUNT] = 
 253              		.loc 1 364 0
 254 0028 3A1C     		mov	r2, r7
 255 002a 0C32     		add	r2, r2, #12
 256 002c 194B     		ldr	r3, .L10+4
 257 002e 111C     		mov	r1, r2
 258 0030 1A1C     		mov	r2, r3
 259 0032 1823     		mov	r3, #24
ARM GAS  C:\Users\KEVINH~1\AppData\Local\Temp\cctGjvGe.s 			page 12


 260 0034 081C     		mov	r0, r1
 261 0036 111C     		mov	r1, r2
 262 0038 1A1C     		mov	r2, r3
 263 003a FFF7FEFF 		bl	memcpy
 365:.\Generated_Source\PSoC4/BLE.c ****         {
 366:.\Generated_Source\PSoC4/BLE.c ****             {CYBLE_GATT_MTU_PLUS_L2CAP_HEADER, CYBLE_GATT_MTU_BUF_COUNT},
 367:.\Generated_Source\PSoC4/BLE.c ****             {CYBLE_GATT_MAX_ATTR_LEN, 1u},
 368:.\Generated_Source\PSoC4/BLE.c ****             {CYBLE_L2CAP_PSM_SIZE, CYBLE_L2CAP_PSM_COUNT},
 369:.\Generated_Source\PSoC4/BLE.c ****             {CYBLE_L2CAP_CBFC_CHANNEL_SIZE, CYBLE_L2CAP_LOGICAL_CHANNEL_COUNT},
 370:.\Generated_Source\PSoC4/BLE.c ****             {CYBLE_L2CAP_MTU, CYBLE_L2CAP_LOGICAL_CHANNEL_COUNT},
 371:.\Generated_Source\PSoC4/BLE.c ****             {CYBLE_L2CAP_MPS, CYBLE_L2CAP_LOGICAL_CHANNEL_COUNT * (CYBLE_L2CAP_MTU/CYBLE_L2CAP_MPS)
 372:.\Generated_Source\PSoC4/BLE.c ****         }; 
 373:.\Generated_Source\PSoC4/BLE.c ****     
 374:.\Generated_Source\PSoC4/BLE.c ****         apiResult = CyBle_StackInit(&CyBle_EventHandler, cyBle_stackMemoryRam, CYBLE_STACK_RAM_SIZE
 264              		.loc 1 374 0
 265 003e 3C1C     		mov	r4, r7
 266 0040 2634     		add	r4, r4, #38
 267 0042 1548     		ldr	r0, .L10+8
 268 0044 1549     		ldr	r1, .L10+12
 269 0046 164A     		ldr	r2, .L10+16
 270 0048 3B1C     		mov	r3, r7
 271 004a 0C33     		add	r3, r3, #12
 272 004c 0625     		mov	r5, #6
 273 004e 0095     		str	r5, [sp]
 274 0050 FFF7FEFF 		bl	CyBle_StackInit
 275 0054 031C     		mov	r3, r0
 276 0056 2380     		strh	r3, [r4]
 375:.\Generated_Source\PSoC4/BLE.c ****             dataBuff, CYBLE_STACK_BUF_COUNT);
 376:.\Generated_Source\PSoC4/BLE.c ****     #else
 377:.\Generated_Source\PSoC4/BLE.c ****         apiResult = CyBle_StackInit(&CyBle_EventHandler, cyBle_stackMemoryRam, CYBLE_STACK_RAM_SIZE
 378:.\Generated_Source\PSoC4/BLE.c ****     #endif /* CYBLE_MODE_PROFILE */  
 379:.\Generated_Source\PSoC4/BLE.c **** 
 380:.\Generated_Source\PSoC4/BLE.c ****         CyBle_ApplCallback = callbackFunc;
 277              		.loc 1 380 0
 278 0058 124B     		ldr	r3, .L10+20
 279 005a 7A68     		ldr	r2, [r7, #4]
 280 005c 1A60     		str	r2, [r3]
 381:.\Generated_Source\PSoC4/BLE.c ****         
 382:.\Generated_Source\PSoC4/BLE.c **** 
 383:.\Generated_Source\PSoC4/BLE.c ****         if(apiResult == CYBLE_ERROR_OK)
 281              		.loc 1 383 0
 282 005e 3B1C     		mov	r3, r7
 283 0060 2633     		add	r3, r3, #38
 284 0062 1B88     		ldrh	r3, [r3]
 285 0064 002B     		cmp	r3, #0
 286 0066 0CD1     		bne	.L7
 384:.\Generated_Source\PSoC4/BLE.c ****         {
 385:.\Generated_Source\PSoC4/BLE.c ****             CyBle_SetState(CYBLE_STATE_INITIALIZING);
 287              		.loc 1 385 0
 288 0068 0F4B     		ldr	r3, .L10+24
 289 006a 0122     		mov	r2, #1
 290 006c 1A70     		strb	r2, [r3]
 386:.\Generated_Source\PSoC4/BLE.c ****             
 387:.\Generated_Source\PSoC4/BLE.c ****         #if (CYBLE_GATT_ROLE_CLIENT)
 388:.\Generated_Source\PSoC4/BLE.c ****             CyBle_SetClientState(CYBLE_CLIENT_STATE_DISCONNECTED);
 389:.\Generated_Source\PSoC4/BLE.c ****         #endif /* CYBLE_GATT_ROLE_CLIENT */
 390:.\Generated_Source\PSoC4/BLE.c ****             
ARM GAS  C:\Users\KEVINH~1\AppData\Local\Temp\cctGjvGe.s 			page 13


 391:.\Generated_Source\PSoC4/BLE.c ****         #if(CYBLE_GATT_ROLE_SERVER)
 392:.\Generated_Source\PSoC4/BLE.c ****             apiResult = CyBle_GattsDbRegister(cyBle_gattDB, CYBLE_GATT_DB_INDEX_COUNT, CYBLE_GATT_D
 291              		.loc 1 392 0
 292 006e 3C1C     		mov	r4, r7
 293 0070 2634     		add	r4, r4, #38
 294 0072 0E4B     		ldr	r3, .L10+28
 295 0074 181C     		mov	r0, r3
 296 0076 1421     		mov	r1, #20
 297 0078 0F22     		mov	r2, #15
 298 007a FFF7FEFF 		bl	CyBle_GattsDbRegister
 299 007e 031C     		mov	r3, r0
 300 0080 2380     		strh	r3, [r4]
 301              	.L7:
 302              	.LBE2:
 393:.\Generated_Source\PSoC4/BLE.c ****         #endif /* CYBLE_GATT_ROLE_SERVER */
 394:.\Generated_Source\PSoC4/BLE.c ****         }
 395:.\Generated_Source\PSoC4/BLE.c ****     }
 396:.\Generated_Source\PSoC4/BLE.c **** 
 397:.\Generated_Source\PSoC4/BLE.c ****     return (apiResult);
 303              		.loc 1 397 0
 304 0082 3B1C     		mov	r3, r7
 305 0084 2633     		add	r3, r3, #38
 306 0086 1B88     		ldrh	r3, [r3]
 398:.\Generated_Source\PSoC4/BLE.c **** }
 307              		.loc 1 398 0
 308 0088 181C     		mov	r0, r3
 309 008a BD46     		mov	sp, r7
 310 008c 0AB0     		add	sp, sp, #40
 311              		@ sp needed
 312 008e B0BD     		pop	{r4, r5, r7, pc}
 313              	.L11:
 314              		.align	2
 315              	.L10:
 316 0090 00000000 		.word	cyBle_initVar
 317 0094 00000000 		.word	.LC0
 318 0098 00000000 		.word	CyBle_EventHandler
 319 009c 00000000 		.word	cyBle_stackMemoryRam
 320 00a0 640A0000 		.word	2660
 321 00a4 00000000 		.word	CyBle_ApplCallback
 322 00a8 00000000 		.word	cyBle_state
 323 00ac 00000000 		.word	cyBle_gattDB
 324              		.cfi_endproc
 325              	.LFE4:
 326              		.size	CyBle_Start, .-CyBle_Start
 327              		.section	.text.CyBle_Stop,"ax",%progbits
 328              		.align	2
 329              		.global	CyBle_Stop
 330              		.code	16
 331              		.thumb_func
 332              		.type	CyBle_Stop, %function
 333              	CyBle_Stop:
 334              	.LFB5:
 399:.\Generated_Source\PSoC4/BLE.c **** 
 400:.\Generated_Source\PSoC4/BLE.c **** 
 401:.\Generated_Source\PSoC4/BLE.c **** /******************************************************************************
 402:.\Generated_Source\PSoC4/BLE.c **** ##Function Name: CyBle_Stop
 403:.\Generated_Source\PSoC4/BLE.c **** *******************************************************************************
ARM GAS  C:\Users\KEVINH~1\AppData\Local\Temp\cctGjvGe.s 			page 14


 404:.\Generated_Source\PSoC4/BLE.c **** 
 405:.\Generated_Source\PSoC4/BLE.c **** Summary:
 406:.\Generated_Source\PSoC4/BLE.c ****  This function stops any ongoing operation in the BLE Stack and forces the 
 407:.\Generated_Source\PSoC4/BLE.c ****  BLE Stack to shut down. The only function that can be called after calling
 408:.\Generated_Source\PSoC4/BLE.c ****  this function is CyBle_Start(). 
 409:.\Generated_Source\PSoC4/BLE.c **** 
 410:.\Generated_Source\PSoC4/BLE.c **** Parameters:
 411:.\Generated_Source\PSoC4/BLE.c ****  None
 412:.\Generated_Source\PSoC4/BLE.c **** 
 413:.\Generated_Source\PSoC4/BLE.c **** Return:
 414:.\Generated_Source\PSoC4/BLE.c ****  None
 415:.\Generated_Source\PSoC4/BLE.c **** 
 416:.\Generated_Source\PSoC4/BLE.c **** ******************************************************************************/
 417:.\Generated_Source\PSoC4/BLE.c **** void CyBle_Stop(void)
 418:.\Generated_Source\PSoC4/BLE.c **** {
 335              		.loc 1 418 0
 336              		.cfi_startproc
 337 0000 80B5     		push	{r7, lr}
 338              		.cfi_def_cfa_offset 8
 339              		.cfi_offset 7, -8
 340              		.cfi_offset 14, -4
 341 0002 00AF     		add	r7, sp, #0
 342              		.cfi_def_cfa_register 7
 419:.\Generated_Source\PSoC4/BLE.c ****     CyBle_Shutdown();                         /* Stop all ongoing activities */
 343              		.loc 1 419 0
 344 0004 FFF7FEFF 		bl	CyBle_Shutdown
 420:.\Generated_Source\PSoC4/BLE.c ****     CyBle_SetState(CYBLE_STATE_STOPPED);
 345              		.loc 1 420 0
 346 0008 024B     		ldr	r3, .L13
 347 000a 0022     		mov	r2, #0
 348 000c 1A70     		strb	r2, [r3]
 421:.\Generated_Source\PSoC4/BLE.c **** }
 349              		.loc 1 421 0
 350 000e BD46     		mov	sp, r7
 351              		@ sp needed
 352 0010 80BD     		pop	{r7, pc}
 353              	.L14:
 354 0012 C046     		.align	2
 355              	.L13:
 356 0014 00000000 		.word	cyBle_state
 357              		.cfi_endproc
 358              	.LFE5:
 359              		.size	CyBle_Stop, .-CyBle_Stop
 360              		.section	.text.CyBle_GappStartAdvertisement,"ax",%progbits
 361              		.align	2
 362              		.global	CyBle_GappStartAdvertisement
 363              		.code	16
 364              		.thumb_func
 365              		.type	CyBle_GappStartAdvertisement, %function
 366              	CyBle_GappStartAdvertisement:
 367              	.LFB6:
 422:.\Generated_Source\PSoC4/BLE.c **** 
 423:.\Generated_Source\PSoC4/BLE.c **** 
 424:.\Generated_Source\PSoC4/BLE.c **** #if((CYBLE_GAP_ROLE_PERIPHERAL || CYBLE_GAP_ROLE_CENTRAL) && (CYBLE_BONDING_REQUIREMENT == CYBLE_BO
 425:.\Generated_Source\PSoC4/BLE.c **** 
 426:.\Generated_Source\PSoC4/BLE.c ****     
 427:.\Generated_Source\PSoC4/BLE.c **** /******************************************************************************
ARM GAS  C:\Users\KEVINH~1\AppData\Local\Temp\cctGjvGe.s 			page 15


 428:.\Generated_Source\PSoC4/BLE.c **** ##Function Name: CyBle_StoreBondingData
 429:.\Generated_Source\PSoC4/BLE.c **** *******************************************************************************
 430:.\Generated_Source\PSoC4/BLE.c **** 
 431:.\Generated_Source\PSoC4/BLE.c **** Summary:
 432:.\Generated_Source\PSoC4/BLE.c ****  This function writes the new bonding data from RAM to the dedicated Flash 
 433:.\Generated_Source\PSoC4/BLE.c ****  location as defined by the component. It performs data comparing between RAM
 434:.\Generated_Source\PSoC4/BLE.c ****  and Flash before writing to Flash. If there is no change between RAM and Flash
 435:.\Generated_Source\PSoC4/BLE.c ****  data, then no write is performed. It writes only one flash row in one call.
 436:.\Generated_Source\PSoC4/BLE.c ****  Application should keep calling this function till API return CYBLE_ERROR_OK. 
 437:.\Generated_Source\PSoC4/BLE.c ****  This function is available only when Bonding requirement is selected in
 438:.\Generated_Source\PSoC4/BLE.c ****  Security settings.    
 439:.\Generated_Source\PSoC4/BLE.c ****     
 440:.\Generated_Source\PSoC4/BLE.c **** Parameters:
 441:.\Generated_Source\PSoC4/BLE.c ****  isForceWrite:  If value is set to 0, then stack will check if flash write 
 442:.\Generated_Source\PSoC4/BLE.c ****                 is permissible. 
 443:.\Generated_Source\PSoC4/BLE.c ****  
 444:.\Generated_Source\PSoC4/BLE.c **** Return:
 445:.\Generated_Source\PSoC4/BLE.c ****  Return value is of type CYBLE_API_RESULT_T.
 446:.\Generated_Source\PSoC4/BLE.c ****  * CYBLE_ERROR_OK - On successful operation
 447:.\Generated_Source\PSoC4/BLE.c ****  * CYBLE_ERROR_FLASH_WRITE_NOT_PERMITED - Flash Write is not complete
 448:.\Generated_Source\PSoC4/BLE.c ****    
 449:.\Generated_Source\PSoC4/BLE.c ****  Side Effects:
 450:.\Generated_Source\PSoC4/BLE.c ****   For BLE devices with 128K of Flash memory this API will automatically 
 451:.\Generated_Source\PSoC4/BLE.c ****   modify the clock settings for the device.
 452:.\Generated_Source\PSoC4/BLE.c ****   Writing to flash requires changes to be done to the IMO (set to 48 MHz)
 453:.\Generated_Source\PSoC4/BLE.c ****   and HFCLK (source set to IMO) settings. The configuration is restored before
 454:.\Generated_Source\PSoC4/BLE.c ****   returning. This will impact the operation of most of the hardware in the
 455:.\Generated_Source\PSoC4/BLE.c ****   device.
 456:.\Generated_Source\PSoC4/BLE.c **** 
 457:.\Generated_Source\PSoC4/BLE.c ****  Global variables:
 458:.\Generated_Source\PSoC4/BLE.c ****   The BLE_pendingFlashWrite variable is used to detect status
 459:.\Generated_Source\PSoC4/BLE.c ****   of pending write to flash operation for stack data and CCCD.
 460:.\Generated_Source\PSoC4/BLE.c ****   This API automatically clears pending bits after write operation complete.
 461:.\Generated_Source\PSoC4/BLE.c ****     
 462:.\Generated_Source\PSoC4/BLE.c **** ******************************************************************************/
 463:.\Generated_Source\PSoC4/BLE.c **** CYBLE_API_RESULT_T CyBle_StoreBondingData(uint8 isForceWrite)
 464:.\Generated_Source\PSoC4/BLE.c **** {
 465:.\Generated_Source\PSoC4/BLE.c ****     CYBLE_API_RESULT_T apiResult = CYBLE_ERROR_OK;
 466:.\Generated_Source\PSoC4/BLE.c ****     
 467:.\Generated_Source\PSoC4/BLE.c ****     /* Store Stack data */
 468:.\Generated_Source\PSoC4/BLE.c ****     if((cyBle_pendingFlashWrite & CYBLE_PENDING_STACK_FLASH_WRITE_BIT) != 0u)
 469:.\Generated_Source\PSoC4/BLE.c ****     {
 470:.\Generated_Source\PSoC4/BLE.c ****         apiResult = CyBle_StoreStackData(isForceWrite);
 471:.\Generated_Source\PSoC4/BLE.c ****         if(apiResult == CYBLE_ERROR_OK)
 472:.\Generated_Source\PSoC4/BLE.c ****         {
 473:.\Generated_Source\PSoC4/BLE.c ****             cyBle_pendingFlashWrite &= (uint8)~CYBLE_PENDING_STACK_FLASH_WRITE_BIT;
 474:.\Generated_Source\PSoC4/BLE.c ****             /* Change apiResult if there are more pending data to store */
 475:.\Generated_Source\PSoC4/BLE.c ****             if((cyBle_pendingFlashWrite & CYBLE_PENDING_CCCD_FLASH_WRITE_BIT) != 0u)
 476:.\Generated_Source\PSoC4/BLE.c ****             {
 477:.\Generated_Source\PSoC4/BLE.c ****                 apiResult = CYBLE_ERROR_FLASH_WRITE_NOT_PERMITED;
 478:.\Generated_Source\PSoC4/BLE.c ****             }
 479:.\Generated_Source\PSoC4/BLE.c ****         }
 480:.\Generated_Source\PSoC4/BLE.c ****     }
 481:.\Generated_Source\PSoC4/BLE.c **** #if(CYBLE_GATT_DB_CCCD_COUNT != 0u)
 482:.\Generated_Source\PSoC4/BLE.c ****     /* Store CCCD values */
 483:.\Generated_Source\PSoC4/BLE.c ****     if( ((apiResult == CYBLE_ERROR_OK) || (isForceWrite != 0u)) && 
 484:.\Generated_Source\PSoC4/BLE.c ****         ((cyBle_pendingFlashWrite & CYBLE_PENDING_CCCD_FLASH_WRITE_BIT) != 0u) &&
ARM GAS  C:\Users\KEVINH~1\AppData\Local\Temp\cctGjvGe.s 			page 16


 485:.\Generated_Source\PSoC4/BLE.c ****         (cyBle_connHandle.bdHandle <= CYBLE_GAP_MAX_BONDED_DEVICE))
 486:.\Generated_Source\PSoC4/BLE.c ****     {
 487:.\Generated_Source\PSoC4/BLE.c ****         apiResult = CyBle_StoreAppData(cyBle_attValuesCCCD, cyBle_attValuesCCCDFlashMemory[cyBle_co
 488:.\Generated_Source\PSoC4/BLE.c ****                                        CYBLE_GATT_DB_CCCD_COUNT, isForceWrite);
 489:.\Generated_Source\PSoC4/BLE.c ****         if(apiResult == CYBLE_ERROR_OK)
 490:.\Generated_Source\PSoC4/BLE.c ****         {
 491:.\Generated_Source\PSoC4/BLE.c ****             cyBle_pendingFlashWrite &= (uint8)~CYBLE_PENDING_CCCD_FLASH_WRITE_BIT;
 492:.\Generated_Source\PSoC4/BLE.c ****         }
 493:.\Generated_Source\PSoC4/BLE.c ****     }
 494:.\Generated_Source\PSoC4/BLE.c **** #endif /* CYBLE_GATT_DB_CCCD_COUNT != 0u */
 495:.\Generated_Source\PSoC4/BLE.c ****     return(apiResult);
 496:.\Generated_Source\PSoC4/BLE.c **** }
 497:.\Generated_Source\PSoC4/BLE.c **** 
 498:.\Generated_Source\PSoC4/BLE.c **** 
 499:.\Generated_Source\PSoC4/BLE.c **** #endif /* (CYBLE_GAP_ROLE_PERIPHERAL || CYBLE_GAP_ROLE_CENTRAL) && (CYBLE_BONDING_REQUIREMENT == CY
 500:.\Generated_Source\PSoC4/BLE.c **** 
 501:.\Generated_Source\PSoC4/BLE.c **** 
 502:.\Generated_Source\PSoC4/BLE.c **** #if(CYBLE_GAP_ROLE_PERIPHERAL || CYBLE_GAP_ROLE_BROADCASTER)
 503:.\Generated_Source\PSoC4/BLE.c **** 
 504:.\Generated_Source\PSoC4/BLE.c ****     /******************************************************************************
 505:.\Generated_Source\PSoC4/BLE.c ****     ##Function Name: CyBle_GappStartAdvertisement
 506:.\Generated_Source\PSoC4/BLE.c ****     *******************************************************************************
 507:.\Generated_Source\PSoC4/BLE.c ****     
 508:.\Generated_Source\PSoC4/BLE.c ****     Summary:
 509:.\Generated_Source\PSoC4/BLE.c ****      This function is used to start the advertisement using the advertisement data 
 510:.\Generated_Source\PSoC4/BLE.c ****      set in the component customizer's GUI. After invoking this API, the device 
 511:.\Generated_Source\PSoC4/BLE.c ****      will be available for connection by the devices configured for GAP central 
 512:.\Generated_Source\PSoC4/BLE.c ****      role. It is only included if the device is configured for GAP Peripheral or 
 513:.\Generated_Source\PSoC4/BLE.c ****      GAP Peripheral + Central role.
 514:.\Generated_Source\PSoC4/BLE.c ****      
 515:.\Generated_Source\PSoC4/BLE.c ****      On start of advertisement, GAP Peripheral receives the
 516:.\Generated_Source\PSoC4/BLE.c ****      CYBLE_EVT_GAPP_ADVERTISEMENT_START_STOP event. The following events are 
 517:.\Generated_Source\PSoC4/BLE.c ****      possible on invoking this function:
 518:.\Generated_Source\PSoC4/BLE.c ****      
 519:.\Generated_Source\PSoC4/BLE.c ****      * CYBLE_EVT_GAP_DEVICE_CONNECTED: If the device connects to remote GAP 
 520:.\Generated_Source\PSoC4/BLE.c ****                                          Central device
 521:.\Generated_Source\PSoC4/BLE.c ****      * CYBLE_EVT_TIMEOUT: If no device in GAP Central mode connects to this 
 522:.\Generated_Source\PSoC4/BLE.c ****                           device within the specified timeout limit. Stack 
 523:.\Generated_Source\PSoC4/BLE.c ****                           automatically initiate stop advertising when Slow 
 524:.\Generated_Source\PSoC4/BLE.c ****                           advertising was initiated, or starts Slow advertising
 525:.\Generated_Source\PSoC4/BLE.c ****                           after Fast advertising timeout occur.
 526:.\Generated_Source\PSoC4/BLE.c ****      * CYBLE_EVT_GAPP_ADVERTISEMENT_START_STOP: If device started or stopped
 527:.\Generated_Source\PSoC4/BLE.c ****                                                   advertising. Use CyBle_GetState()
 528:.\Generated_Source\PSoC4/BLE.c ****                                                   to determine the state. Sequential 
 529:.\Generated_Source\PSoC4/BLE.c ****                                                   advertising could be started when
 530:.\Generated_Source\PSoC4/BLE.c ****                                                   CYBLE_STATE_DISCONNECTED state is
 531:.\Generated_Source\PSoC4/BLE.c ****                                                   returned.
 532:.\Generated_Source\PSoC4/BLE.c **** 
 533:.\Generated_Source\PSoC4/BLE.c ****     Parameters:
 534:.\Generated_Source\PSoC4/BLE.c ****      uint8 advertisingIntervalType: Fast or slow advertising interval with timings
 535:.\Generated_Source\PSoC4/BLE.c ****                                     entered in Advertising settings section of the
 536:.\Generated_Source\PSoC4/BLE.c ****                                     customizer.
 537:.\Generated_Source\PSoC4/BLE.c ****      * CYBLE_ADVERTISING_FAST   0x00u
 538:.\Generated_Source\PSoC4/BLE.c ****      * CYBLE_ADVERTISING_SLOW   0x01u
 539:.\Generated_Source\PSoC4/BLE.c ****      * CYBLE_ADVERTISING_CUSTOM 0x02u
 540:.\Generated_Source\PSoC4/BLE.c ****     
 541:.\Generated_Source\PSoC4/BLE.c ****     Return:
ARM GAS  C:\Users\KEVINH~1\AppData\Local\Temp\cctGjvGe.s 			page 17


 542:.\Generated_Source\PSoC4/BLE.c ****      CYBLE_API_RESULT_T : Return value indicates if the function succeeded or
 543:.\Generated_Source\PSoC4/BLE.c ****      failed. Following are the possible error codes.
 544:.\Generated_Source\PSoC4/BLE.c ****      <table>
 545:.\Generated_Source\PSoC4/BLE.c ****       Errors codes                        Description
 546:.\Generated_Source\PSoC4/BLE.c ****       ------------                        -----------
 547:.\Generated_Source\PSoC4/BLE.c ****       CYBLE_ERROR_OK                      On successful operation.
 548:.\Generated_Source\PSoC4/BLE.c ****       CYBLE_ERROR_INVALID_PARAMETER       On passing an invalid parameter.
 549:.\Generated_Source\PSoC4/BLE.c ****       CYBLE_ERROR_INVALID_STATE           On calling this API not in 
 550:.\Generated_Source\PSoC4/BLE.c ****                                           Disconnected state.
 551:.\Generated_Source\PSoC4/BLE.c ****      </table>
 552:.\Generated_Source\PSoC4/BLE.c ****     
 553:.\Generated_Source\PSoC4/BLE.c ****     ******************************************************************************/
 554:.\Generated_Source\PSoC4/BLE.c ****     CYBLE_API_RESULT_T CyBle_GappStartAdvertisement(uint8 advertisingIntervalType)
 555:.\Generated_Source\PSoC4/BLE.c ****     {
 368              		.loc 1 555 0
 369              		.cfi_startproc
 370 0000 90B5     		push	{r4, r7, lr}
 371              		.cfi_def_cfa_offset 12
 372              		.cfi_offset 4, -12
 373              		.cfi_offset 7, -8
 374              		.cfi_offset 14, -4
 375 0002 85B0     		sub	sp, sp, #20
 376              		.cfi_def_cfa_offset 32
 377 0004 00AF     		add	r7, sp, #0
 378              		.cfi_def_cfa_register 7
 379 0006 021C     		mov	r2, r0
 380 0008 FB1D     		add	r3, r7, #7
 381 000a 1A70     		strb	r2, [r3]
 556:.\Generated_Source\PSoC4/BLE.c ****         CYBLE_API_RESULT_T apiResult;
 557:.\Generated_Source\PSoC4/BLE.c ****         
 558:.\Generated_Source\PSoC4/BLE.c ****         if(advertisingIntervalType > CYBLE_ADVERTISING_CUSTOM)
 382              		.loc 1 558 0
 383 000c FB1D     		add	r3, r7, #7
 384 000e 1B78     		ldrb	r3, [r3]
 385 0010 022B     		cmp	r3, #2
 386 0012 04D9     		bls	.L16
 559:.\Generated_Source\PSoC4/BLE.c ****         {
 560:.\Generated_Source\PSoC4/BLE.c ****             apiResult = CYBLE_ERROR_INVALID_PARAMETER;
 387              		.loc 1 560 0
 388 0014 3B1C     		mov	r3, r7
 389 0016 0E33     		add	r3, r3, #14
 390 0018 0122     		mov	r2, #1
 391 001a 1A80     		strh	r2, [r3]
 392 001c 4BE0     		b	.L17
 393              	.L16:
 561:.\Generated_Source\PSoC4/BLE.c ****         }
 562:.\Generated_Source\PSoC4/BLE.c ****         else if((CYBLE_STATE_DISCONNECTED == CyBle_GetState()) && ((cyBle_eventHandlerFlag & CYBLE_
 394              		.loc 1 562 0
 395 001e 294B     		ldr	r3, .L23
 396 0020 1B78     		ldrb	r3, [r3]
 397 0022 042B     		cmp	r3, #4
 398 0024 42D1     		bne	.L18
 399              		.loc 1 562 0 is_stmt 0 discriminator 1
 400 0026 284B     		ldr	r3, .L23+4
 401 0028 1B78     		ldrb	r3, [r3]
 402 002a DBB2     		uxtb	r3, r3
 403 002c 1A1C     		mov	r2, r3
ARM GAS  C:\Users\KEVINH~1\AppData\Local\Temp\cctGjvGe.s 			page 18


 404 002e 0423     		mov	r3, #4
 405 0030 1340     		and	r3, r2
 406 0032 3BD1     		bne	.L18
 563:.\Generated_Source\PSoC4/BLE.c ****         {   
 564:.\Generated_Source\PSoC4/BLE.c ****             if(advertisingIntervalType == CYBLE_ADVERTISING_FAST)
 407              		.loc 1 564 0 is_stmt 1
 408 0034 FB1D     		add	r3, r7, #7
 409 0036 1B78     		ldrb	r3, [r3]
 410 0038 002B     		cmp	r3, #0
 411 003a 0BD1     		bne	.L19
 565:.\Generated_Source\PSoC4/BLE.c ****             {
 566:.\Generated_Source\PSoC4/BLE.c ****                 cyBle_discoveryModeInfo.advTo = CYBLE_FAST_ADV_TIMEOUT;
 412              		.loc 1 566 0
 413 003c 234B     		ldr	r3, .L23+8
 414 003e 1E22     		mov	r2, #30
 415 0040 1A82     		strh	r2, [r3, #16]
 567:.\Generated_Source\PSoC4/BLE.c ****                 cyBle_discoveryModeInfo.advParam->advIntvMin = CYBLE_FAST_ADV_INT_MIN;
 416              		.loc 1 567 0
 417 0042 224B     		ldr	r3, .L23+8
 418 0044 5B68     		ldr	r3, [r3, #4]
 419 0046 2022     		mov	r2, #32
 420 0048 1A80     		strh	r2, [r3]
 568:.\Generated_Source\PSoC4/BLE.c ****                 cyBle_discoveryModeInfo.advParam->advIntvMax = CYBLE_FAST_ADV_INT_MAX;
 421              		.loc 1 568 0
 422 004a 204B     		ldr	r3, .L23+8
 423 004c 5B68     		ldr	r3, [r3, #4]
 424 004e 3022     		mov	r2, #48
 425 0050 5A80     		strh	r2, [r3, #2]
 426 0052 10E0     		b	.L20
 427              	.L19:
 569:.\Generated_Source\PSoC4/BLE.c ****             }
 570:.\Generated_Source\PSoC4/BLE.c ****             else if(advertisingIntervalType == CYBLE_ADVERTISING_SLOW)
 428              		.loc 1 570 0
 429 0054 FB1D     		add	r3, r7, #7
 430 0056 1B78     		ldrb	r3, [r3]
 431 0058 012B     		cmp	r3, #1
 432 005a 0CD1     		bne	.L20
 571:.\Generated_Source\PSoC4/BLE.c ****             {
 572:.\Generated_Source\PSoC4/BLE.c ****                 cyBle_discoveryModeInfo.advTo = CYBLE_SLOW_ADV_TIMEOUT;
 433              		.loc 1 572 0
 434 005c 1B4B     		ldr	r3, .L23+8
 435 005e 9622     		mov	r2, #150
 436 0060 1A82     		strh	r2, [r3, #16]
 573:.\Generated_Source\PSoC4/BLE.c ****                 cyBle_discoveryModeInfo.advParam->advIntvMin = CYBLE_SLOW_ADV_INT_MIN;
 437              		.loc 1 573 0
 438 0062 1A4B     		ldr	r3, .L23+8
 439 0064 5B68     		ldr	r3, [r3, #4]
 440 0066 C822     		mov	r2, #200
 441 0068 D200     		lsl	r2, r2, #3
 442 006a 1A80     		strh	r2, [r3]
 574:.\Generated_Source\PSoC4/BLE.c ****                 cyBle_discoveryModeInfo.advParam->advIntvMax = CYBLE_SLOW_ADV_INT_MAX;
 443              		.loc 1 574 0
 444 006c 174B     		ldr	r3, .L23+8
 445 006e 5B68     		ldr	r3, [r3, #4]
 446 0070 8022     		mov	r2, #128
 447 0072 D201     		lsl	r2, r2, #7
 448 0074 5A80     		strh	r2, [r3, #2]
ARM GAS  C:\Users\KEVINH~1\AppData\Local\Temp\cctGjvGe.s 			page 19


 449              	.L20:
 575:.\Generated_Source\PSoC4/BLE.c ****             }       
 576:.\Generated_Source\PSoC4/BLE.c ****             else /* Do not update advertising intervals */
 577:.\Generated_Source\PSoC4/BLE.c ****             {
 578:.\Generated_Source\PSoC4/BLE.c ****             }
 579:.\Generated_Source\PSoC4/BLE.c ****             cyBle_advertisingIntervalType = advertisingIntervalType;
 450              		.loc 1 579 0
 451 0076 164B     		ldr	r3, .L23+12
 452 0078 FA1D     		add	r2, r7, #7
 453 007a 1278     		ldrb	r2, [r2]
 454 007c 1A70     		strb	r2, [r3]
 580:.\Generated_Source\PSoC4/BLE.c ****             apiResult = CyBle_GappEnterDiscoveryMode(&cyBle_discoveryModeInfo);
 455              		.loc 1 580 0
 456 007e 3C1C     		mov	r4, r7
 457 0080 0E34     		add	r4, r4, #14
 458 0082 124B     		ldr	r3, .L23+8
 459 0084 181C     		mov	r0, r3
 460 0086 FFF7FEFF 		bl	CyBle_GappEnterDiscoveryMode
 461 008a 031C     		mov	r3, r0
 462 008c 2380     		strh	r3, [r4]
 581:.\Generated_Source\PSoC4/BLE.c ****         
 582:.\Generated_Source\PSoC4/BLE.c ****             if(CYBLE_ERROR_OK == apiResult)
 463              		.loc 1 582 0
 464 008e 3B1C     		mov	r3, r7
 465 0090 0E33     		add	r3, r3, #14
 466 0092 1B88     		ldrh	r3, [r3]
 467 0094 002B     		cmp	r3, #0
 468 0096 08D1     		bne	.L21
 583:.\Generated_Source\PSoC4/BLE.c ****             {
 584:.\Generated_Source\PSoC4/BLE.c ****                 cyBle_eventHandlerFlag |= CYBLE_START_FLAG;
 469              		.loc 1 584 0
 470 0098 0B4B     		ldr	r3, .L23+4
 471 009a 1B78     		ldrb	r3, [r3]
 472 009c DBB2     		uxtb	r3, r3
 473 009e 0422     		mov	r2, #4
 474 00a0 1343     		orr	r3, r2
 475 00a2 DAB2     		uxtb	r2, r3
 476 00a4 084B     		ldr	r3, .L23+4
 477 00a6 1A70     		strb	r2, [r3]
 582:.\Generated_Source\PSoC4/BLE.c ****             if(CYBLE_ERROR_OK == apiResult)
 478              		.loc 1 582 0
 479 00a8 05E0     		b	.L17
 480              	.L21:
 582:.\Generated_Source\PSoC4/BLE.c ****             if(CYBLE_ERROR_OK == apiResult)
 481              		.loc 1 582 0 is_stmt 0 discriminator 1
 482 00aa 04E0     		b	.L17
 483              	.L18:
 585:.\Generated_Source\PSoC4/BLE.c ****             }
 586:.\Generated_Source\PSoC4/BLE.c ****         }
 587:.\Generated_Source\PSoC4/BLE.c ****         else
 588:.\Generated_Source\PSoC4/BLE.c ****         {
 589:.\Generated_Source\PSoC4/BLE.c ****             apiResult = CYBLE_ERROR_INVALID_STATE;
 484              		.loc 1 589 0 is_stmt 1
 485 00ac 3B1C     		mov	r3, r7
 486 00ae 0E33     		add	r3, r3, #14
 487 00b0 0422     		mov	r2, #4
 488 00b2 FF32     		add	r2, r2, #255
ARM GAS  C:\Users\KEVINH~1\AppData\Local\Temp\cctGjvGe.s 			page 20


 489 00b4 1A80     		strh	r2, [r3]
 490              	.L17:
 590:.\Generated_Source\PSoC4/BLE.c ****         }
 591:.\Generated_Source\PSoC4/BLE.c **** 
 592:.\Generated_Source\PSoC4/BLE.c ****         return (apiResult);
 491              		.loc 1 592 0
 492 00b6 3B1C     		mov	r3, r7
 493 00b8 0E33     		add	r3, r3, #14
 494 00ba 1B88     		ldrh	r3, [r3]
 593:.\Generated_Source\PSoC4/BLE.c ****     }
 495              		.loc 1 593 0
 496 00bc 181C     		mov	r0, r3
 497 00be BD46     		mov	sp, r7
 498 00c0 05B0     		add	sp, sp, #20
 499              		@ sp needed
 500 00c2 90BD     		pop	{r4, r7, pc}
 501              	.L24:
 502              		.align	2
 503              	.L23:
 504 00c4 00000000 		.word	cyBle_state
 505 00c8 00000000 		.word	cyBle_eventHandlerFlag
 506 00cc 00000000 		.word	cyBle_discoveryModeInfo
 507 00d0 00000000 		.word	cyBle_advertisingIntervalType
 508              		.cfi_endproc
 509              	.LFE6:
 510              		.size	CyBle_GappStartAdvertisement, .-CyBle_GappStartAdvertisement
 511              		.section	.text.CyBle_GappStopAdvertisement,"ax",%progbits
 512              		.align	2
 513              		.global	CyBle_GappStopAdvertisement
 514              		.code	16
 515              		.thumb_func
 516              		.type	CyBle_GappStopAdvertisement, %function
 517              	CyBle_GappStopAdvertisement:
 518              	.LFB7:
 594:.\Generated_Source\PSoC4/BLE.c **** 
 595:.\Generated_Source\PSoC4/BLE.c ****     
 596:.\Generated_Source\PSoC4/BLE.c ****     /******************************************************************************
 597:.\Generated_Source\PSoC4/BLE.c ****     ##Function Name: CyBle_GappStopAdvertisement
 598:.\Generated_Source\PSoC4/BLE.c ****     *******************************************************************************
 599:.\Generated_Source\PSoC4/BLE.c ****     
 600:.\Generated_Source\PSoC4/BLE.c ****      Summary:
 601:.\Generated_Source\PSoC4/BLE.c ****       This function can be used to exit from discovery mode. After the execution 
 602:.\Generated_Source\PSoC4/BLE.c ****       of this function, there will no longer be any advertisements. On stopping 
 603:.\Generated_Source\PSoC4/BLE.c ****       advertising, GAP Peripheral receives CYBLE_EVT_GAPP_ADVERTISEMENT_START_STOP
 604:.\Generated_Source\PSoC4/BLE.c ****       event. It is expected that the application layer tracks the function call 
 605:.\Generated_Source\PSoC4/BLE.c ****       performed before occurrence of this event as this event can occur on making 
 606:.\Generated_Source\PSoC4/BLE.c ****       a call to Cy_BleGappStartAdvertisement(), CyBle_GappEnterDiscoveryMode(), 
 607:.\Generated_Source\PSoC4/BLE.c ****       or CyBle_GappStartAdvertisement() functions as well.
 608:.\Generated_Source\PSoC4/BLE.c ****       
 609:.\Generated_Source\PSoC4/BLE.c ****       The following event occurs on invoking this function:
 610:.\Generated_Source\PSoC4/BLE.c ****       * CYBLE_EVT_GAPP_ADVERTISEMENT_START_STOP
 611:.\Generated_Source\PSoC4/BLE.c ****     
 612:.\Generated_Source\PSoC4/BLE.c ****      Parameters:
 613:.\Generated_Source\PSoC4/BLE.c ****       None
 614:.\Generated_Source\PSoC4/BLE.c ****     
 615:.\Generated_Source\PSoC4/BLE.c ****      Return:
 616:.\Generated_Source\PSoC4/BLE.c ****       None
ARM GAS  C:\Users\KEVINH~1\AppData\Local\Temp\cctGjvGe.s 			page 21


 617:.\Generated_Source\PSoC4/BLE.c ****     
 618:.\Generated_Source\PSoC4/BLE.c ****     ******************************************************************************/
 619:.\Generated_Source\PSoC4/BLE.c ****     void CyBle_GappStopAdvertisement(void)
 620:.\Generated_Source\PSoC4/BLE.c ****     {
 519              		.loc 1 620 0
 520              		.cfi_startproc
 521 0000 80B5     		push	{r7, lr}
 522              		.cfi_def_cfa_offset 8
 523              		.cfi_offset 7, -8
 524              		.cfi_offset 14, -4
 525 0002 00AF     		add	r7, sp, #0
 526              		.cfi_def_cfa_register 7
 621:.\Generated_Source\PSoC4/BLE.c ****         CyBle_GappExitDiscoveryMode();
 527              		.loc 1 621 0
 528 0004 FFF7FEFF 		bl	CyBle_GappExitDiscoveryMode
 622:.\Generated_Source\PSoC4/BLE.c ****         cyBle_eventHandlerFlag |= CYBLE_STOP_FLAG;
 529              		.loc 1 622 0
 530 0008 044B     		ldr	r3, .L26
 531 000a 1B78     		ldrb	r3, [r3]
 532 000c DBB2     		uxtb	r3, r3
 533 000e 0822     		mov	r2, #8
 534 0010 1343     		orr	r3, r2
 535 0012 DAB2     		uxtb	r2, r3
 536 0014 014B     		ldr	r3, .L26
 537 0016 1A70     		strb	r2, [r3]
 623:.\Generated_Source\PSoC4/BLE.c ****     }
 538              		.loc 1 623 0
 539 0018 BD46     		mov	sp, r7
 540              		@ sp needed
 541 001a 80BD     		pop	{r7, pc}
 542              	.L27:
 543              		.align	2
 544              	.L26:
 545 001c 00000000 		.word	cyBle_eventHandlerFlag
 546              		.cfi_endproc
 547              	.LFE7:
 548              		.size	CyBle_GappStopAdvertisement, .-CyBle_GappStopAdvertisement
 549              		.section	.text.CyBle_ChangeAdDeviceAddress,"ax",%progbits
 550              		.align	2
 551              		.global	CyBle_ChangeAdDeviceAddress
 552              		.code	16
 553              		.thumb_func
 554              		.type	CyBle_ChangeAdDeviceAddress, %function
 555              	CyBle_ChangeAdDeviceAddress:
 556              	.LFB8:
 624:.\Generated_Source\PSoC4/BLE.c ****     
 625:.\Generated_Source\PSoC4/BLE.c ****     
 626:.\Generated_Source\PSoC4/BLE.c ****     /******************************************************************************
 627:.\Generated_Source\PSoC4/BLE.c ****     ##Function Name: CyBle_ChangeAdDeviceAddress
 628:.\Generated_Source\PSoC4/BLE.c ****     *******************************************************************************
 629:.\Generated_Source\PSoC4/BLE.c **** 
 630:.\Generated_Source\PSoC4/BLE.c ****     Summary:
 631:.\Generated_Source\PSoC4/BLE.c ****      This API is used to set the Bluetooth device address into the advertisement 
 632:.\Generated_Source\PSoC4/BLE.c ****      or scan response data structure.
 633:.\Generated_Source\PSoC4/BLE.c **** 
 634:.\Generated_Source\PSoC4/BLE.c ****     Parameters:
 635:.\Generated_Source\PSoC4/BLE.c ****      bdAddr: Bluetooth Device address. The variable is of type CYBLE_GAP_BD_ADDR_T
ARM GAS  C:\Users\KEVINH~1\AppData\Local\Temp\cctGjvGe.s 			page 22


 636:.\Generated_Source\PSoC4/BLE.c ****      uint8 dest: 0 - avrevtisement structure, not zero value selects scan response
 637:.\Generated_Source\PSoC4/BLE.c ****                  structure.
 638:.\Generated_Source\PSoC4/BLE.c **** 
 639:.\Generated_Source\PSoC4/BLE.c ****     Return:
 640:.\Generated_Source\PSoC4/BLE.c ****      None
 641:.\Generated_Source\PSoC4/BLE.c ****  
 642:.\Generated_Source\PSoC4/BLE.c ****     ******************************************************************************/
 643:.\Generated_Source\PSoC4/BLE.c ****     void CyBle_ChangeAdDeviceAddress(const CYBLE_GAP_BD_ADDR_T* bdAddr, uint8 dest)
 644:.\Generated_Source\PSoC4/BLE.c ****     {
 557              		.loc 1 644 0
 558              		.cfi_startproc
 559 0000 80B5     		push	{r7, lr}
 560              		.cfi_def_cfa_offset 8
 561              		.cfi_offset 7, -8
 562              		.cfi_offset 14, -4
 563 0002 84B0     		sub	sp, sp, #16
 564              		.cfi_def_cfa_offset 24
 565 0004 00AF     		add	r7, sp, #0
 566              		.cfi_def_cfa_register 7
 567 0006 7860     		str	r0, [r7, #4]
 568 0008 0A1C     		mov	r2, r1
 569 000a FB1C     		add	r3, r7, #3
 570 000c 1A70     		strb	r2, [r3]
 645:.\Generated_Source\PSoC4/BLE.c ****         uint8 i;
 646:.\Generated_Source\PSoC4/BLE.c ****         uint8 *destBuffer = NULL;
 571              		.loc 1 646 0
 572 000e 0023     		mov	r3, #0
 573 0010 BB60     		str	r3, [r7, #8]
 647:.\Generated_Source\PSoC4/BLE.c ****         
 648:.\Generated_Source\PSoC4/BLE.c ****         if(dest == 0u)      /* Destination - advertising structure */
 649:.\Generated_Source\PSoC4/BLE.c ****         {
 650:.\Generated_Source\PSoC4/BLE.c ****             #ifdef CYBLE_ADV_PKT_INDEX_BLUETOOTH_DEVICE_ADDRESS
 651:.\Generated_Source\PSoC4/BLE.c ****                 destBuffer = &cyBle_discoveryData.advData[CYBLE_ADV_PKT_INDEX_BLUETOOTH_DEVICE_ADDR
 652:.\Generated_Source\PSoC4/BLE.c ****             #endif /* CYBLE_ADV_PKT_INDEX_BLUETOOTH_DEVICE_ADDRESS */
 653:.\Generated_Source\PSoC4/BLE.c ****         }
 654:.\Generated_Source\PSoC4/BLE.c ****         else                /* Destination - scan response structure */
 655:.\Generated_Source\PSoC4/BLE.c ****         {
 656:.\Generated_Source\PSoC4/BLE.c ****             #ifdef CYBLE_SCN_PKT_INDEX_BLUETOOTH_DEVICE_ADDRESS
 657:.\Generated_Source\PSoC4/BLE.c ****                 destBuffer = &cyBle_scanRspData.scanRspData[CYBLE_SCN_PKT_INDEX_BLUETOOTH_DEVICE_AD
 658:.\Generated_Source\PSoC4/BLE.c ****             #endif /* CYBLE_SCN_PKT_INDEX_BLUETOOTH_DEVICE_ADDRESS */    
 659:.\Generated_Source\PSoC4/BLE.c ****         }
 660:.\Generated_Source\PSoC4/BLE.c ****         
 661:.\Generated_Source\PSoC4/BLE.c ****         if(destBuffer != NULL)
 574              		.loc 1 661 0
 575 0012 BB68     		ldr	r3, [r7, #8]
 576 0014 002B     		cmp	r3, #0
 577 0016 20D0     		beq	.L28
 662:.\Generated_Source\PSoC4/BLE.c ****         {
 663:.\Generated_Source\PSoC4/BLE.c ****             /* Update Device Address type */
 664:.\Generated_Source\PSoC4/BLE.c ****             destBuffer[0u] = bdAddr->type;
 578              		.loc 1 664 0
 579 0018 7B68     		ldr	r3, [r7, #4]
 580 001a 9A79     		ldrb	r2, [r3, #6]
 581 001c BB68     		ldr	r3, [r7, #8]
 582 001e 1A70     		strb	r2, [r3]
 665:.\Generated_Source\PSoC4/BLE.c ****             
 666:.\Generated_Source\PSoC4/BLE.c ****             for(i = 0; i < CYBLE_GAP_BD_ADDR_SIZE; i++)
ARM GAS  C:\Users\KEVINH~1\AppData\Local\Temp\cctGjvGe.s 			page 23


 583              		.loc 1 666 0
 584 0020 3B1C     		mov	r3, r7
 585 0022 0F33     		add	r3, r3, #15
 586 0024 0022     		mov	r2, #0
 587 0026 1A70     		strb	r2, [r3]
 588 0028 12E0     		b	.L30
 589              	.L31:
 667:.\Generated_Source\PSoC4/BLE.c ****             {
 668:.\Generated_Source\PSoC4/BLE.c ****                 destBuffer[i + 1u] = bdAddr->bdAddr[i];
 590              		.loc 1 668 0 discriminator 2
 591 002a 3B1C     		mov	r3, r7
 592 002c 0F33     		add	r3, r3, #15
 593 002e 1B78     		ldrb	r3, [r3]
 594 0030 0133     		add	r3, r3, #1
 595 0032 BA68     		ldr	r2, [r7, #8]
 596 0034 D318     		add	r3, r2, r3
 597 0036 3A1C     		mov	r2, r7
 598 0038 0F32     		add	r2, r2, #15
 599 003a 1278     		ldrb	r2, [r2]
 600 003c 7968     		ldr	r1, [r7, #4]
 601 003e 8A5C     		ldrb	r2, [r1, r2]
 602 0040 1A70     		strb	r2, [r3]
 666:.\Generated_Source\PSoC4/BLE.c ****             for(i = 0; i < CYBLE_GAP_BD_ADDR_SIZE; i++)
 603              		.loc 1 666 0 discriminator 2
 604 0042 3B1C     		mov	r3, r7
 605 0044 0F33     		add	r3, r3, #15
 606 0046 1A78     		ldrb	r2, [r3]
 607 0048 3B1C     		mov	r3, r7
 608 004a 0F33     		add	r3, r3, #15
 609 004c 0132     		add	r2, r2, #1
 610 004e 1A70     		strb	r2, [r3]
 611              	.L30:
 666:.\Generated_Source\PSoC4/BLE.c ****             for(i = 0; i < CYBLE_GAP_BD_ADDR_SIZE; i++)
 612              		.loc 1 666 0 is_stmt 0 discriminator 1
 613 0050 3B1C     		mov	r3, r7
 614 0052 0F33     		add	r3, r3, #15
 615 0054 1B78     		ldrb	r3, [r3]
 616 0056 052B     		cmp	r3, #5
 617 0058 E7D9     		bls	.L31
 618              	.L28:
 669:.\Generated_Source\PSoC4/BLE.c ****             }
 670:.\Generated_Source\PSoC4/BLE.c ****         }
 671:.\Generated_Source\PSoC4/BLE.c ****     }
 619              		.loc 1 671 0 is_stmt 1
 620 005a BD46     		mov	sp, r7
 621 005c 04B0     		add	sp, sp, #16
 622              		@ sp needed
 623 005e 80BD     		pop	{r7, pc}
 624              		.cfi_endproc
 625              	.LFE8:
 626              		.size	CyBle_ChangeAdDeviceAddress, .-CyBle_ChangeAdDeviceAddress
 627              		.section	.text.CyBle_ChangeAdLocalName,"ax",%progbits
 628              		.align	2
 629              		.code	16
 630              		.thumb_func
 631              		.type	CyBle_ChangeAdLocalName, %function
 632              	CyBle_ChangeAdLocalName:
ARM GAS  C:\Users\KEVINH~1\AppData\Local\Temp\cctGjvGe.s 			page 24


 633              	.LFB9:
 672:.\Generated_Source\PSoC4/BLE.c ****   
 673:.\Generated_Source\PSoC4/BLE.c **** #endif /* CYBLE_GAP_ROLE_PERIPHERAL || CYBLE_GAP_ROLE_BROADCASTER */
 674:.\Generated_Source\PSoC4/BLE.c **** 
 675:.\Generated_Source\PSoC4/BLE.c **** 
 676:.\Generated_Source\PSoC4/BLE.c **** #if(CYBLE_GAP_ROLE_CENTRAL || CYBLE_GAP_ROLE_OBSERVER)
 677:.\Generated_Source\PSoC4/BLE.c **** 
 678:.\Generated_Source\PSoC4/BLE.c ****     /******************************************************************************
 679:.\Generated_Source\PSoC4/BLE.c ****     ##Function Name: CyBle_GapcStartScan
 680:.\Generated_Source\PSoC4/BLE.c ****     *******************************************************************************
 681:.\Generated_Source\PSoC4/BLE.c ****     
 682:.\Generated_Source\PSoC4/BLE.c ****      Summary:
 683:.\Generated_Source\PSoC4/BLE.c ****       This function is used for discovering GAP peripheral devices that are 
 684:.\Generated_Source\PSoC4/BLE.c ****       available for connection. It performs the scanning routine using the 
 685:.\Generated_Source\PSoC4/BLE.c ****       parameters entered in the component's customizer.
 686:.\Generated_Source\PSoC4/BLE.c ****       
 687:.\Generated_Source\PSoC4/BLE.c ****       As soon as the discovery operation starts, CYBLE_EVT_GAPC_SCAN_START_STOP 
 688:.\Generated_Source\PSoC4/BLE.c ****       event is generated. The CYBLE_EVT_GAPC_SCAN_PROGRESS_RESULT event is 
 689:.\Generated_Source\PSoC4/BLE.c ****       generated when a GAP peripheral device is located. There are three discovery
 690:.\Generated_Source\PSoC4/BLE.c ****       procedures can be selected in the customizer's GUI:
 691:.\Generated_Source\PSoC4/BLE.c ****       
 692:.\Generated_Source\PSoC4/BLE.c ****       * Observation procedure: A device performing the observer role receives only
 693:.\Generated_Source\PSoC4/BLE.c ****                                advertisement data from devices irrespective of 
 694:.\Generated_Source\PSoC4/BLE.c ****                                their discoverable mode settings. Advertisement 
 695:.\Generated_Source\PSoC4/BLE.c ****                                data received is provided by the event,      
 696:.\Generated_Source\PSoC4/BLE.c ****                                CYBLE_EVT_GAPC_SCAN_PROGRESS_RESULT. This procedure
 697:.\Generated_Source\PSoC4/BLE.c ****                                requires the scanType sub parameter to be passive
 698:.\Generated_Source\PSoC4/BLE.c ****                                scanning. 
 699:.\Generated_Source\PSoC4/BLE.c ****       
 700:.\Generated_Source\PSoC4/BLE.c ****       * Limited Discovery procedure: A device performing the limited discovery
 701:.\Generated_Source\PSoC4/BLE.c ****                                      procedure receives advertisement data and 
 702:.\Generated_Source\PSoC4/BLE.c ****                                      scan# response data from devices in the 
 703:.\Generated_Source\PSoC4/BLE.c ****                                      limited discoverable mode only. Received data
 704:.\Generated_Source\PSoC4/BLE.c ****                                      is provided by the event, 
 705:.\Generated_Source\PSoC4/BLE.c ****                                      CYBLE_EVT_GAPC_SCAN_PROGRESS_RESULT. This 
 706:.\Generated_Source\PSoC4/BLE.c ****                                      procedure requires the scanType sub-parameter 
 707:.\Generated_Source\PSoC4/BLE.c ****                                      to be active scanning.
 708:.\Generated_Source\PSoC4/BLE.c ****       
 709:.\Generated_Source\PSoC4/BLE.c ****       * General Discovery procedure: A device performing the general discovery 
 710:.\Generated_Source\PSoC4/BLE.c ****                                      procedure receives the advertisement data and
 711:.\Generated_Source\PSoC4/BLE.c ****                                      scan response data from devices in both 
 712:.\Generated_Source\PSoC4/BLE.c ****                                      limited discoverable mode and the general 
 713:.\Generated_Source\PSoC4/BLE.c ****                                      discoverable mode. Received data is provided
 714:.\Generated_Source\PSoC4/BLE.c ****                                      by the event,
 715:.\Generated_Source\PSoC4/BLE.c ****                                      CYBLE_EVT_GAPC_SCAN_PROGRESS_RESULT. This 
 716:.\Generated_Source\PSoC4/BLE.c ****                                      procedure requires the scanType sub-parameter
 717:.\Generated_Source\PSoC4/BLE.c ****                                      to be active scanning.
 718:.\Generated_Source\PSoC4/BLE.c ****       
 719:.\Generated_Source\PSoC4/BLE.c ****       Every Advertisement / Scan response packet received results in a new event, 
 720:.\Generated_Source\PSoC4/BLE.c ****       CYBLE_EVT_GAPC_SCAN_PROGRESS_RESULT.
 721:.\Generated_Source\PSoC4/BLE.c ****       If 'scanTo' sub-parameter is a non-zero value, then upon commencement of 
 722:.\Generated_Source\PSoC4/BLE.c ****       discovery procedure and elapsed time = 'scanTo', CYBLE_EVT_TIMEOUT event
 723:.\Generated_Source\PSoC4/BLE.c ****       is generated with the event parameter indicating CYBLE_GAP_SCAN_TO.
 724:.\Generated_Source\PSoC4/BLE.c ****       Possible generated events are:
 725:.\Generated_Source\PSoC4/BLE.c ****       * CYBLE_EVT_GAPC_SCAN_START_STOP: If a device started or stopped scanning. 
 726:.\Generated_Source\PSoC4/BLE.c ****                                         Use CyBle_GetState() to determine the 
 727:.\Generated_Source\PSoC4/BLE.c ****                                         state. Sequential scanning could be 
ARM GAS  C:\Users\KEVINH~1\AppData\Local\Temp\cctGjvGe.s 			page 25


 728:.\Generated_Source\PSoC4/BLE.c ****                                         started when CYBLE_STATE_DISCONNECTED 
 729:.\Generated_Source\PSoC4/BLE.c ****                                         state is returned. 
 730:.\Generated_Source\PSoC4/BLE.c ****       * CYBLE_EVT_GAPC_SCAN_PROGRESS_RESULT 
 731:.\Generated_Source\PSoC4/BLE.c ****       * CYBLE_EVT_TIMEOUT (CYBLE_GAP_SCAN_TO)
 732:.\Generated_Source\PSoC4/BLE.c ****     
 733:.\Generated_Source\PSoC4/BLE.c ****      Parameters:
 734:.\Generated_Source\PSoC4/BLE.c ****       uint8 scanningIntervalType:  Fast or slow scanning interval with
 735:.\Generated_Source\PSoC4/BLE.c ****           timings entered in Scan settings section of the customiser.
 736:.\Generated_Source\PSoC4/BLE.c ****     	  * CYBLE_SCANNING_FAST   0x00u
 737:.\Generated_Source\PSoC4/BLE.c ****     	  * CYBLE_SCANNING_SLOW   0x01u
 738:.\Generated_Source\PSoC4/BLE.c ****     	  * CYBLE_SCANNING_CUSTOM 0x02u
 739:.\Generated_Source\PSoC4/BLE.c ****     
 740:.\Generated_Source\PSoC4/BLE.c ****     Return:
 741:.\Generated_Source\PSoC4/BLE.c ****      CYBLE_API_RESULT_T : Return value indicates if the function succeeded or
 742:.\Generated_Source\PSoC4/BLE.c ****      failed. Following are the possible error codes.
 743:.\Generated_Source\PSoC4/BLE.c ****      <table>
 744:.\Generated_Source\PSoC4/BLE.c ****       Errors codes                        Description
 745:.\Generated_Source\PSoC4/BLE.c ****       ------------                        -----------
 746:.\Generated_Source\PSoC4/BLE.c ****       CYBLE_ERROR_OK                      On successful operation.
 747:.\Generated_Source\PSoC4/BLE.c ****       CYBLE_ERROR_STACK_INTERNAL          An error occurred in the BLE stack.
 748:.\Generated_Source\PSoC4/BLE.c ****       CYBLE_ERROR_INVALID_PARAMETER       On passing an invalid parameter.
 749:.\Generated_Source\PSoC4/BLE.c ****      </table>
 750:.\Generated_Source\PSoC4/BLE.c ****      
 751:.\Generated_Source\PSoC4/BLE.c ****     ******************************************************************************/
 752:.\Generated_Source\PSoC4/BLE.c ****     CYBLE_API_RESULT_T CyBle_GapcStartScan(uint8 scanningIntervalType)
 753:.\Generated_Source\PSoC4/BLE.c ****     {
 754:.\Generated_Source\PSoC4/BLE.c ****         CYBLE_API_RESULT_T apiResult;
 755:.\Generated_Source\PSoC4/BLE.c **** 
 756:.\Generated_Source\PSoC4/BLE.c ****         if(scanningIntervalType > CYBLE_SCANNING_CUSTOM)
 757:.\Generated_Source\PSoC4/BLE.c ****         {
 758:.\Generated_Source\PSoC4/BLE.c ****             apiResult = CYBLE_ERROR_INVALID_PARAMETER;
 759:.\Generated_Source\PSoC4/BLE.c ****         }
 760:.\Generated_Source\PSoC4/BLE.c ****         else
 761:.\Generated_Source\PSoC4/BLE.c ****         {
 762:.\Generated_Source\PSoC4/BLE.c ****             if(scanningIntervalType == CYBLE_SCANNING_FAST)
 763:.\Generated_Source\PSoC4/BLE.c ****             {
 764:.\Generated_Source\PSoC4/BLE.c ****                 cyBle_discoveryInfo.scanTo = CYBLE_FAST_SCAN_TIMEOUT;
 765:.\Generated_Source\PSoC4/BLE.c ****                 cyBle_discoveryInfo.scanIntv = CYBLE_FAST_SCAN_INTERVAL;
 766:.\Generated_Source\PSoC4/BLE.c ****                 cyBle_discoveryInfo.scanWindow = CYBLE_FAST_SCAN_WINDOW;
 767:.\Generated_Source\PSoC4/BLE.c ****             }
 768:.\Generated_Source\PSoC4/BLE.c ****             else if(scanningIntervalType == CYBLE_SCANNING_SLOW)
 769:.\Generated_Source\PSoC4/BLE.c ****             {
 770:.\Generated_Source\PSoC4/BLE.c ****                 cyBle_discoveryInfo.scanTo = CYBLE_SLOW_SCAN_TIMEOUT;
 771:.\Generated_Source\PSoC4/BLE.c ****                 cyBle_discoveryInfo.scanIntv = CYBLE_SLOW_SCAN_INTERVAL;
 772:.\Generated_Source\PSoC4/BLE.c ****                 cyBle_discoveryInfo.scanWindow = CYBLE_SLOW_SCAN_WINDOW;
 773:.\Generated_Source\PSoC4/BLE.c ****             }       
 774:.\Generated_Source\PSoC4/BLE.c ****             else /* Do not update scanning intervals */
 775:.\Generated_Source\PSoC4/BLE.c ****             {
 776:.\Generated_Source\PSoC4/BLE.c ****             }
 777:.\Generated_Source\PSoC4/BLE.c ****             
 778:.\Generated_Source\PSoC4/BLE.c ****             cyBle_scanningIntervalType = scanningIntervalType;
 779:.\Generated_Source\PSoC4/BLE.c ****             apiResult = CyBle_GapcStartDiscovery(&cyBle_discoveryInfo);
 780:.\Generated_Source\PSoC4/BLE.c ****         
 781:.\Generated_Source\PSoC4/BLE.c ****             if(CYBLE_ERROR_OK == apiResult)
 782:.\Generated_Source\PSoC4/BLE.c ****             {
 783:.\Generated_Source\PSoC4/BLE.c ****                 cyBle_eventHandlerFlag |= CYBLE_START_FLAG;
 784:.\Generated_Source\PSoC4/BLE.c ****             }
ARM GAS  C:\Users\KEVINH~1\AppData\Local\Temp\cctGjvGe.s 			page 26


 785:.\Generated_Source\PSoC4/BLE.c ****         }
 786:.\Generated_Source\PSoC4/BLE.c ****        
 787:.\Generated_Source\PSoC4/BLE.c ****         return (apiResult);
 788:.\Generated_Source\PSoC4/BLE.c ****     }
 789:.\Generated_Source\PSoC4/BLE.c ****     
 790:.\Generated_Source\PSoC4/BLE.c ****     
 791:.\Generated_Source\PSoC4/BLE.c ****     /******************************************************************************
 792:.\Generated_Source\PSoC4/BLE.c ****     ##Function Name: CyBle_GapcStopScan
 793:.\Generated_Source\PSoC4/BLE.c ****     *******************************************************************************
 794:.\Generated_Source\PSoC4/BLE.c ****     
 795:.\Generated_Source\PSoC4/BLE.c ****      Summary:
 796:.\Generated_Source\PSoC4/BLE.c ****       This function used to stop the discovery of devices. On stopping discovery
 797:.\Generated_Source\PSoC4/BLE.c ****       operation, CYBLE_EVT_GAPC_SCAN_START_STOP event is generated. Application
 798:.\Generated_Source\PSoC4/BLE.c ****       layer needs to keep track of the function call made before receiving this
 799:.\Generated_Source\PSoC4/BLE.c ****       event to associate this event with either the start or stop discovery
 800:.\Generated_Source\PSoC4/BLE.c ****       function.
 801:.\Generated_Source\PSoC4/BLE.c ****     
 802:.\Generated_Source\PSoC4/BLE.c ****       Possible events generated are:
 803:.\Generated_Source\PSoC4/BLE.c ****        * CYBLE_EVT_GAPC_SCAN_START_STOP
 804:.\Generated_Source\PSoC4/BLE.c ****     
 805:.\Generated_Source\PSoC4/BLE.c ****      Parameters:
 806:.\Generated_Source\PSoC4/BLE.c ****       None
 807:.\Generated_Source\PSoC4/BLE.c ****     
 808:.\Generated_Source\PSoC4/BLE.c ****      Return:
 809:.\Generated_Source\PSoC4/BLE.c ****       None
 810:.\Generated_Source\PSoC4/BLE.c ****     
 811:.\Generated_Source\PSoC4/BLE.c ****     ******************************************************************************/
 812:.\Generated_Source\PSoC4/BLE.c ****     void CyBle_GapcStopScan(void)
 813:.\Generated_Source\PSoC4/BLE.c ****     {
 814:.\Generated_Source\PSoC4/BLE.c ****         CyBle_GapcStopDiscovery();
 815:.\Generated_Source\PSoC4/BLE.c ****         
 816:.\Generated_Source\PSoC4/BLE.c ****         cyBle_eventHandlerFlag |= CYBLE_STOP_FLAG;
 817:.\Generated_Source\PSoC4/BLE.c ****     }
 818:.\Generated_Source\PSoC4/BLE.c **** 
 819:.\Generated_Source\PSoC4/BLE.c ****     
 820:.\Generated_Source\PSoC4/BLE.c **** #endif /* CYBLE_GAP_ROLE_CENTRAL || CYBLE_GAP_ROLE_OBSERVER */
 821:.\Generated_Source\PSoC4/BLE.c **** 
 822:.\Generated_Source\PSoC4/BLE.c **** 
 823:.\Generated_Source\PSoC4/BLE.c **** #if(CYBLE_GAP_ROLE_CENTRAL)
 824:.\Generated_Source\PSoC4/BLE.c **** 
 825:.\Generated_Source\PSoC4/BLE.c ****     /******************************************************************************
 826:.\Generated_Source\PSoC4/BLE.c ****     ##Function Name: CyBle_GapcConnectDevice
 827:.\Generated_Source\PSoC4/BLE.c ****     *******************************************************************************
 828:.\Generated_Source\PSoC4/BLE.c ****     
 829:.\Generated_Source\PSoC4/BLE.c ****     Summary:
 830:.\Generated_Source\PSoC4/BLE.c ****      This function is used to send a connection request to the remote device with
 831:.\Generated_Source\PSoC4/BLE.c ****      the connection parameters set in the component customizer. This function needs
 832:.\Generated_Source\PSoC4/BLE.c ****      to be called only once after the target device is discovered by 
 833:.\Generated_Source\PSoC4/BLE.c ****      CyBle_GapcStartScan() and further scanning has stopped. Scanning is 
 834:.\Generated_Source\PSoC4/BLE.c ****      successfully stopped on invoking CyBle_GapcStopScan() and then receiving the
 835:.\Generated_Source\PSoC4/BLE.c ****      event CYBLE_EVT_GAPC_SCAN_START_STOP with sub-parameter 'success' = 0x01u.
 836:.\Generated_Source\PSoC4/BLE.c ****      
 837:.\Generated_Source\PSoC4/BLE.c ****      On successful connection, the following events are generated at the GAP 
 838:.\Generated_Source\PSoC4/BLE.c ****      Central device (as well as the GAP Peripheral device), in the following order.
 839:.\Generated_Source\PSoC4/BLE.c ****      * CYBLE_EVT_GATT_CONNECT_IND
 840:.\Generated_Source\PSoC4/BLE.c ****      * CYBLE_EVT_GAP_DEVICE_CONNECTED
 841:.\Generated_Source\PSoC4/BLE.c ****  
ARM GAS  C:\Users\KEVINH~1\AppData\Local\Temp\cctGjvGe.s 			page 27


 842:.\Generated_Source\PSoC4/BLE.c ****      A procedure is considered to have timed out if a connection response packet is 
 843:.\Generated_Source\PSoC4/BLE.c ****      not received within time set by cyBle_connectingTimeout global variable
 844:.\Generated_Source\PSoC4/BLE.c ****      (30 seconds by default). CYBLE_EVT_TIMEOUT event with CYBLE_GENERIC_TO parameter
 845:.\Generated_Source\PSoC4/BLE.c ****      will indicate about connection procedure timeout. Connection will automatically
 846:.\Generated_Source\PSoC4/BLE.c ****      be cancelled and state will be changed to CYBLE_STATE_DISCONNECTED.
 847:.\Generated_Source\PSoC4/BLE.c ****     
 848:.\Generated_Source\PSoC4/BLE.c ****     Parameters:
 849:.\Generated_Source\PSoC4/BLE.c ****      const CYBLE_GAP_BD_ADDR_T address: The device address of the remote device to 
 850:.\Generated_Source\PSoC4/BLE.c ****                                         connect to. 
 851:.\Generated_Source\PSoC4/BLE.c ****      timeout: Timeout for which timer to be started in seconds.
 852:.\Generated_Source\PSoC4/BLE.c ****  
 853:.\Generated_Source\PSoC4/BLE.c ****     Return:
 854:.\Generated_Source\PSoC4/BLE.c ****      CYBLE_API_RESULT_T : Return value indicates if the function succeeded or 
 855:.\Generated_Source\PSoC4/BLE.c ****      failed. Following are the possible error codes.
 856:.\Generated_Source\PSoC4/BLE.c ****      <table>
 857:.\Generated_Source\PSoC4/BLE.c ****       Errors codes                        Description
 858:.\Generated_Source\PSoC4/BLE.c ****       ------------                        -----------
 859:.\Generated_Source\PSoC4/BLE.c ****       CYBLE_ERROR_OK                      On successful operation.
 860:.\Generated_Source\PSoC4/BLE.c ****       CYBLE_ERROR_STACK_INTERNAL          On error occurred in the BLE stack.
 861:.\Generated_Source\PSoC4/BLE.c ****       CYBLE_ERROR_INVALID_PARAMETER       On passing an invalid parameter.
 862:.\Generated_Source\PSoC4/BLE.c ****       CYBLE_ERROR_INVALID_STATE           On calling this API not in 
 863:.\Generated_Source\PSoC4/BLE.c ****                                           Disconnected state.
 864:.\Generated_Source\PSoC4/BLE.c ****      </table>
 865:.\Generated_Source\PSoC4/BLE.c ****  
 866:.\Generated_Source\PSoC4/BLE.c ****     ******************************************************************************/
 867:.\Generated_Source\PSoC4/BLE.c ****     CYBLE_API_RESULT_T CyBle_GapcConnectDevice(const CYBLE_GAP_BD_ADDR_T * address)
 868:.\Generated_Source\PSoC4/BLE.c ****     {
 869:.\Generated_Source\PSoC4/BLE.c ****         CYBLE_API_RESULT_T apiResult;
 870:.\Generated_Source\PSoC4/BLE.c ****         uint8 i;
 871:.\Generated_Source\PSoC4/BLE.c **** 
 872:.\Generated_Source\PSoC4/BLE.c ****         if(CYBLE_STATE_DISCONNECTED != CyBle_GetState())
 873:.\Generated_Source\PSoC4/BLE.c ****         {
 874:.\Generated_Source\PSoC4/BLE.c ****             apiResult = CYBLE_ERROR_INVALID_STATE;
 875:.\Generated_Source\PSoC4/BLE.c ****         }
 876:.\Generated_Source\PSoC4/BLE.c ****         else if(address == NULL)
 877:.\Generated_Source\PSoC4/BLE.c ****         {
 878:.\Generated_Source\PSoC4/BLE.c ****             apiResult = CYBLE_ERROR_INVALID_PARAMETER;
 879:.\Generated_Source\PSoC4/BLE.c ****         }
 880:.\Generated_Source\PSoC4/BLE.c ****         else
 881:.\Generated_Source\PSoC4/BLE.c ****         {
 882:.\Generated_Source\PSoC4/BLE.c ****             for(i = 0u; i < CYBLE_GAP_BD_ADDR_SIZE; i++)
 883:.\Generated_Source\PSoC4/BLE.c ****             {
 884:.\Generated_Source\PSoC4/BLE.c ****                 cyBle_connectionParameters.peerBdAddr[i] = address->bdAddr[i];
 885:.\Generated_Source\PSoC4/BLE.c ****             }
 886:.\Generated_Source\PSoC4/BLE.c ****             cyBle_connectionParameters.peerAddrType = address -> type;
 887:.\Generated_Source\PSoC4/BLE.c ****             apiResult = CyBle_GapcInitConnection(&cyBle_connectionParameters);
 888:.\Generated_Source\PSoC4/BLE.c ****             
 889:.\Generated_Source\PSoC4/BLE.c ****             if(CYBLE_ERROR_OK == apiResult)
 890:.\Generated_Source\PSoC4/BLE.c ****             {
 891:.\Generated_Source\PSoC4/BLE.c ****                 CyBle_SetState(CYBLE_STATE_CONNECTING);
 892:.\Generated_Source\PSoC4/BLE.c ****                 if(cyBle_connectingTimeout != 0u)
 893:.\Generated_Source\PSoC4/BLE.c ****                 {
 894:.\Generated_Source\PSoC4/BLE.c ****                     (void)CyBle_StartTimer(cyBle_connectingTimeout);
 895:.\Generated_Source\PSoC4/BLE.c ****                 }
 896:.\Generated_Source\PSoC4/BLE.c ****             }
 897:.\Generated_Source\PSoC4/BLE.c ****         }
 898:.\Generated_Source\PSoC4/BLE.c ****         return (apiResult);
ARM GAS  C:\Users\KEVINH~1\AppData\Local\Temp\cctGjvGe.s 			page 28


 899:.\Generated_Source\PSoC4/BLE.c ****     }
 900:.\Generated_Source\PSoC4/BLE.c ****     
 901:.\Generated_Source\PSoC4/BLE.c **** 
 902:.\Generated_Source\PSoC4/BLE.c ****     /******************************************************************************
 903:.\Generated_Source\PSoC4/BLE.c ****     ##Function Name: CyBle_GapcCancelDeviceConnection
 904:.\Generated_Source\PSoC4/BLE.c ****     *******************************************************************************
 905:.\Generated_Source\PSoC4/BLE.c ****     
 906:.\Generated_Source\PSoC4/BLE.c ****     Summary:
 907:.\Generated_Source\PSoC4/BLE.c ****      This function cancels a previously initiated connection with the remote 
 908:.\Generated_Source\PSoC4/BLE.c ****      device. It is a blocking function. No event is generated on calling this 
 909:.\Generated_Source\PSoC4/BLE.c ****      function. If the devices are already connected then this function should not
 910:.\Generated_Source\PSoC4/BLE.c ****      be used. If you intend to disconnect from an existing connection, the function
 911:.\Generated_Source\PSoC4/BLE.c ****      CyBle_GapDisconnect() should be used.
 912:.\Generated_Source\PSoC4/BLE.c **** 
 913:.\Generated_Source\PSoC4/BLE.c ****     Parameters:
 914:.\Generated_Source\PSoC4/BLE.c ****      None
 915:.\Generated_Source\PSoC4/BLE.c **** 
 916:.\Generated_Source\PSoC4/BLE.c ****     Return:
 917:.\Generated_Source\PSoC4/BLE.c ****      CYBLE_API_RESULT_T : Return value indicates if the function succeeded or 
 918:.\Generated_Source\PSoC4/BLE.c ****      failed. Following are the possible error codes.
 919:.\Generated_Source\PSoC4/BLE.c ****      <table>
 920:.\Generated_Source\PSoC4/BLE.c ****       Errors codes                        Description
 921:.\Generated_Source\PSoC4/BLE.c ****       ------------                        -----------
 922:.\Generated_Source\PSoC4/BLE.c ****       CYBLE_ERROR_OK                      On successful operation.
 923:.\Generated_Source\PSoC4/BLE.c ****       CYBLE_ERROR_STACK_INTERNAL          An error occurred in the 
 924:.\Generated_Source\PSoC4/BLE.c ****                                            BLE stack.
 925:.\Generated_Source\PSoC4/BLE.c ****       CYBLE_ERROR_INVALID_OPERATION       Device is already connected.
 926:.\Generated_Source\PSoC4/BLE.c ****      </table>
 927:.\Generated_Source\PSoC4/BLE.c ****  
 928:.\Generated_Source\PSoC4/BLE.c ****     ******************************************************************************/
 929:.\Generated_Source\PSoC4/BLE.c ****     CYBLE_API_RESULT_T CyBle_GapcCancelDeviceConnection(void)
 930:.\Generated_Source\PSoC4/BLE.c ****     {
 931:.\Generated_Source\PSoC4/BLE.c ****         CYBLE_API_RESULT_T apiResult;
 932:.\Generated_Source\PSoC4/BLE.c ****         
 933:.\Generated_Source\PSoC4/BLE.c ****         apiResult = CyBle_GapcCancelConnection();
 934:.\Generated_Source\PSoC4/BLE.c ****             
 935:.\Generated_Source\PSoC4/BLE.c ****         if(cyBle_connectingTimeout != 0u)
 936:.\Generated_Source\PSoC4/BLE.c ****         {
 937:.\Generated_Source\PSoC4/BLE.c ****             (void)CyBle_StopTimer();
 938:.\Generated_Source\PSoC4/BLE.c ****         }
 939:.\Generated_Source\PSoC4/BLE.c **** 
 940:.\Generated_Source\PSoC4/BLE.c ****         if(CYBLE_ERROR_OK == apiResult)
 941:.\Generated_Source\PSoC4/BLE.c ****         {
 942:.\Generated_Source\PSoC4/BLE.c ****             CyBle_SetState(CYBLE_STATE_DISCONNECTED);
 943:.\Generated_Source\PSoC4/BLE.c ****         }
 944:.\Generated_Source\PSoC4/BLE.c ****         return (apiResult);
 945:.\Generated_Source\PSoC4/BLE.c ****     }    
 946:.\Generated_Source\PSoC4/BLE.c **** 
 947:.\Generated_Source\PSoC4/BLE.c ****     
 948:.\Generated_Source\PSoC4/BLE.c **** #endif /* CYBLE_GAP_ROLE_CENTRAL */
 949:.\Generated_Source\PSoC4/BLE.c **** 
 950:.\Generated_Source\PSoC4/BLE.c **** 
 951:.\Generated_Source\PSoC4/BLE.c **** #if(CYBLE_GATT_ROLE_SERVER)
 952:.\Generated_Source\PSoC4/BLE.c **** 
 953:.\Generated_Source\PSoC4/BLE.c **** #if(CYBLE_GAP_ROLE_PERIPHERAL)
 954:.\Generated_Source\PSoC4/BLE.c **** 
 955:.\Generated_Source\PSoC4/BLE.c ****         /******************************************************************************
ARM GAS  C:\Users\KEVINH~1\AppData\Local\Temp\cctGjvGe.s 			page 29


 956:.\Generated_Source\PSoC4/BLE.c ****         ##Function Name: CyBle_ChangeAdLocalName
 957:.\Generated_Source\PSoC4/BLE.c ****         *******************************************************************************
 958:.\Generated_Source\PSoC4/BLE.c ****         Summary:
 959:.\Generated_Source\PSoC4/BLE.c ****          This API is used to set the local device name in the advertisement or scan 
 960:.\Generated_Source\PSoC4/BLE.c ****          response data structure.
 961:.\Generated_Source\PSoC4/BLE.c **** 
 962:.\Generated_Source\PSoC4/BLE.c ****         Parameters:
 963:.\Generated_Source\PSoC4/BLE.c ****          char8 name: The local device name string to be set in advertisement data 
 964:.\Generated_Source\PSoC4/BLE.c ****                    structure.
 965:.\Generated_Source\PSoC4/BLE.c ****          uint8 dest: 0 - advertisement structure, not zero value selects scan response
 966:.\Generated_Source\PSoC4/BLE.c ****                      structure.
 967:.\Generated_Source\PSoC4/BLE.c **** 
 968:.\Generated_Source\PSoC4/BLE.c ****         Return:
 969:.\Generated_Source\PSoC4/BLE.c ****          None
 970:.\Generated_Source\PSoC4/BLE.c ****      
 971:.\Generated_Source\PSoC4/BLE.c ****         ******************************************************************************/
 972:.\Generated_Source\PSoC4/BLE.c ****         static void CyBle_ChangeAdLocalName(const char8 name[], uint8 dest)
 973:.\Generated_Source\PSoC4/BLE.c ****         {
 634              		.loc 1 973 0
 635              		.cfi_startproc
 636 0000 80B5     		push	{r7, lr}
 637              		.cfi_def_cfa_offset 8
 638              		.cfi_offset 7, -8
 639              		.cfi_offset 14, -4
 640 0002 86B0     		sub	sp, sp, #24
 641              		.cfi_def_cfa_offset 32
 642 0004 00AF     		add	r7, sp, #0
 643              		.cfi_def_cfa_register 7
 644 0006 7860     		str	r0, [r7, #4]
 645 0008 0A1C     		mov	r2, r1
 646 000a FB1C     		add	r3, r7, #3
 647 000c 1A70     		strb	r2, [r3]
 974:.\Generated_Source\PSoC4/BLE.c ****             uint8 i;
 975:.\Generated_Source\PSoC4/BLE.c ****             uint8 flag = 0u;
 648              		.loc 1 975 0
 649 000e 3B1C     		mov	r3, r7
 650 0010 1633     		add	r3, r3, #22
 651 0012 0022     		mov	r2, #0
 652 0014 1A70     		strb	r2, [r3]
 976:.\Generated_Source\PSoC4/BLE.c ****             uint8 adLength = 0u;
 653              		.loc 1 976 0
 654 0016 3B1C     		mov	r3, r7
 655 0018 1533     		add	r3, r3, #21
 656 001a 0022     		mov	r2, #0
 657 001c 1A70     		strb	r2, [r3]
 977:.\Generated_Source\PSoC4/BLE.c ****             uint8 byteCounter = 0u;
 658              		.loc 1 977 0
 659 001e 3B1C     		mov	r3, r7
 660 0020 1433     		add	r3, r3, #20
 661 0022 0022     		mov	r2, #0
 662 0024 1A70     		strb	r2, [r3]
 978:.\Generated_Source\PSoC4/BLE.c ****             uint8 *destBuffer;
 979:.\Generated_Source\PSoC4/BLE.c ****             uint8 maxLength;
 980:.\Generated_Source\PSoC4/BLE.c ****             
 981:.\Generated_Source\PSoC4/BLE.c ****             if(dest == 0u)      /* Destination - advertising structure */
 663              		.loc 1 981 0
 664 0026 FB1C     		add	r3, r7, #3
ARM GAS  C:\Users\KEVINH~1\AppData\Local\Temp\cctGjvGe.s 			page 30


 665 0028 1B78     		ldrb	r3, [r3]
 666 002a 002B     		cmp	r3, #0
 667 002c 07D1     		bne	.L33
 982:.\Generated_Source\PSoC4/BLE.c ****             {
 983:.\Generated_Source\PSoC4/BLE.c ****                 destBuffer = cyBle_discoveryData.advData;
 668              		.loc 1 983 0
 669 002e 5A4B     		ldr	r3, .L48
 670 0030 3B61     		str	r3, [r7, #16]
 984:.\Generated_Source\PSoC4/BLE.c ****                 maxLength = cyBle_discoveryData.advDataLen;
 671              		.loc 1 984 0
 672 0032 3B1C     		mov	r3, r7
 673 0034 0F33     		add	r3, r3, #15
 674 0036 584A     		ldr	r2, .L48
 675 0038 D27F     		ldrb	r2, [r2, #31]
 676 003a 1A70     		strb	r2, [r3]
 985:.\Generated_Source\PSoC4/BLE.c ****             }
 986:.\Generated_Source\PSoC4/BLE.c ****             else                /* Destination - scan response structure */
 987:.\Generated_Source\PSoC4/BLE.c ****             {
 988:.\Generated_Source\PSoC4/BLE.c ****                 destBuffer = cyBle_scanRspData.scanRspData;
 989:.\Generated_Source\PSoC4/BLE.c ****                 maxLength = cyBle_scanRspData.scanRspDataLen;
 990:.\Generated_Source\PSoC4/BLE.c ****             }
 991:.\Generated_Source\PSoC4/BLE.c ****             
 992:.\Generated_Source\PSoC4/BLE.c ****             while((byteCounter < maxLength) && (0u == flag))
 677              		.loc 1 992 0
 678 003c 3DE0     		b	.L35
 679              	.L33:
 988:.\Generated_Source\PSoC4/BLE.c ****                 destBuffer = cyBle_scanRspData.scanRspData;
 680              		.loc 1 988 0
 681 003e 574B     		ldr	r3, .L48+4
 682 0040 3B61     		str	r3, [r7, #16]
 989:.\Generated_Source\PSoC4/BLE.c ****                 maxLength = cyBle_scanRspData.scanRspDataLen;
 683              		.loc 1 989 0
 684 0042 3B1C     		mov	r3, r7
 685 0044 0F33     		add	r3, r3, #15
 686 0046 554A     		ldr	r2, .L48+4
 687 0048 D27F     		ldrb	r2, [r2, #31]
 688 004a 1A70     		strb	r2, [r3]
 689              		.loc 1 992 0
 690 004c 35E0     		b	.L35
 691              	.L41:
 993:.\Generated_Source\PSoC4/BLE.c ****             {
 994:.\Generated_Source\PSoC4/BLE.c ****                 adLength = destBuffer[byteCounter];
 692              		.loc 1 994 0
 693 004e 3B1C     		mov	r3, r7
 694 0050 1433     		add	r3, r3, #20
 695 0052 1B78     		ldrb	r3, [r3]
 696 0054 3A69     		ldr	r2, [r7, #16]
 697 0056 D218     		add	r2, r2, r3
 698 0058 3B1C     		mov	r3, r7
 699 005a 1533     		add	r3, r3, #21
 700 005c 1278     		ldrb	r2, [r2]
 701 005e 1A70     		strb	r2, [r3]
 995:.\Generated_Source\PSoC4/BLE.c ****                 
 996:.\Generated_Source\PSoC4/BLE.c ****                 if(0u != adLength)
 702              		.loc 1 996 0
 703 0060 3B1C     		mov	r3, r7
 704 0062 1533     		add	r3, r3, #21
ARM GAS  C:\Users\KEVINH~1\AppData\Local\Temp\cctGjvGe.s 			page 31


 705 0064 1B78     		ldrb	r3, [r3]
 706 0066 002B     		cmp	r3, #0
 707 0068 26D0     		beq	.L36
 997:.\Generated_Source\PSoC4/BLE.c ****                 {
 998:.\Generated_Source\PSoC4/BLE.c ****                     /* Increment byte counter so it can point to AD type */
 999:.\Generated_Source\PSoC4/BLE.c ****                     byteCounter++;
 708              		.loc 1 999 0
 709 006a 3B1C     		mov	r3, r7
 710 006c 1433     		add	r3, r3, #20
 711 006e 1A78     		ldrb	r2, [r3]
 712 0070 3B1C     		mov	r3, r7
 713 0072 1433     		add	r3, r3, #20
 714 0074 0132     		add	r2, r2, #1
 715 0076 1A70     		strb	r2, [r3]
1000:.\Generated_Source\PSoC4/BLE.c ****                     
1001:.\Generated_Source\PSoC4/BLE.c ****                     if((CYBLE_SHORT_LOCAL_NAME == destBuffer[byteCounter]) || 
 716              		.loc 1 1001 0
 717 0078 3B1C     		mov	r3, r7
 718 007a 1433     		add	r3, r3, #20
 719 007c 1B78     		ldrb	r3, [r3]
 720 007e 3A69     		ldr	r2, [r7, #16]
 721 0080 D318     		add	r3, r2, r3
 722 0082 1B78     		ldrb	r3, [r3]
 723 0084 082B     		cmp	r3, #8
 724 0086 07D0     		beq	.L37
1002:.\Generated_Source\PSoC4/BLE.c ****                        (CYBLE_COMPLETE_LOCAL_NAME == destBuffer[byteCounter]))
 725              		.loc 1 1002 0 discriminator 1
 726 0088 3B1C     		mov	r3, r7
 727 008a 1433     		add	r3, r3, #20
 728 008c 1B78     		ldrb	r3, [r3]
 729 008e 3A69     		ldr	r2, [r7, #16]
 730 0090 D318     		add	r3, r2, r3
 731 0092 1B78     		ldrb	r3, [r3]
1001:.\Generated_Source\PSoC4/BLE.c ****                     if((CYBLE_SHORT_LOCAL_NAME == destBuffer[byteCounter]) || 
 732              		.loc 1 1001 0 discriminator 1
 733 0094 092B     		cmp	r3, #9
 734 0096 04D1     		bne	.L38
 735              	.L37:
1003:.\Generated_Source\PSoC4/BLE.c ****                     {
1004:.\Generated_Source\PSoC4/BLE.c ****                         /* Start of the Local Name AD type was fount. Set flag and exit the loop. *
1005:.\Generated_Source\PSoC4/BLE.c ****                         flag = 1u;
 736              		.loc 1 1005 0
 737 0098 3B1C     		mov	r3, r7
 738 009a 1633     		add	r3, r3, #22
 739 009c 0122     		mov	r2, #1
 740 009e 1A70     		strb	r2, [r3]
 741 00a0 0BE0     		b	.L35
 742              	.L38:
1006:.\Generated_Source\PSoC4/BLE.c ****                     }
1007:.\Generated_Source\PSoC4/BLE.c ****                     else
1008:.\Generated_Source\PSoC4/BLE.c ****                     {
1009:.\Generated_Source\PSoC4/BLE.c ****                         byteCounter += adLength;
 743              		.loc 1 1009 0
 744 00a2 3B1C     		mov	r3, r7
 745 00a4 1433     		add	r3, r3, #20
 746 00a6 391C     		mov	r1, r7
 747 00a8 1431     		add	r1, r1, #20
ARM GAS  C:\Users\KEVINH~1\AppData\Local\Temp\cctGjvGe.s 			page 32


 748 00aa 3A1C     		mov	r2, r7
 749 00ac 1532     		add	r2, r2, #21
 750 00ae 0978     		ldrb	r1, [r1]
 751 00b0 1278     		ldrb	r2, [r2]
 752 00b2 8A18     		add	r2, r1, r2
 753 00b4 1A70     		strb	r2, [r3]
 754 00b6 00E0     		b	.L35
 755              	.L36:
1010:.\Generated_Source\PSoC4/BLE.c ****                     }
1011:.\Generated_Source\PSoC4/BLE.c ****                 }
1012:.\Generated_Source\PSoC4/BLE.c ****                 else
1013:.\Generated_Source\PSoC4/BLE.c ****                 {
1014:.\Generated_Source\PSoC4/BLE.c ****                     /* The end of advertisement data structure was encountered though exit the loop
1015:.\Generated_Source\PSoC4/BLE.c ****                     break;
 756              		.loc 1 1015 0
 757 00b8 0CE0     		b	.L40
 758              	.L35:
 992:.\Generated_Source\PSoC4/BLE.c ****             while((byteCounter < maxLength) && (0u == flag))
 759              		.loc 1 992 0 discriminator 1
 760 00ba 3A1C     		mov	r2, r7
 761 00bc 1432     		add	r2, r2, #20
 762 00be 3B1C     		mov	r3, r7
 763 00c0 0F33     		add	r3, r3, #15
 764 00c2 1278     		ldrb	r2, [r2]
 765 00c4 1B78     		ldrb	r3, [r3]
 766 00c6 9A42     		cmp	r2, r3
 767 00c8 04D2     		bcs	.L40
 992:.\Generated_Source\PSoC4/BLE.c ****             while((byteCounter < maxLength) && (0u == flag))
 768              		.loc 1 992 0 is_stmt 0 discriminator 2
 769 00ca 3B1C     		mov	r3, r7
 770 00cc 1633     		add	r3, r3, #22
 771 00ce 1B78     		ldrb	r3, [r3]
 772 00d0 002B     		cmp	r3, #0
 773 00d2 BCD0     		beq	.L41
 774              	.L40:
1016:.\Generated_Source\PSoC4/BLE.c ****                 }
1017:.\Generated_Source\PSoC4/BLE.c ****             }
1018:.\Generated_Source\PSoC4/BLE.c ****             
1019:.\Generated_Source\PSoC4/BLE.c ****             if(0u != flag)
 775              		.loc 1 1019 0 is_stmt 1
 776 00d4 3B1C     		mov	r3, r7
 777 00d6 1633     		add	r3, r3, #22
 778 00d8 1B78     		ldrb	r3, [r3]
 779 00da 002B     		cmp	r3, #0
 780 00dc 59D0     		beq	.L32
1020:.\Generated_Source\PSoC4/BLE.c ****             {
1021:.\Generated_Source\PSoC4/BLE.c ****                 /* Reuse "adLength" to hold location of the last character of local name in 
1022:.\Generated_Source\PSoC4/BLE.c ****                    AD structure. */
1023:.\Generated_Source\PSoC4/BLE.c ****                 adLength += byteCounter;
 781              		.loc 1 1023 0
 782 00de 3B1C     		mov	r3, r7
 783 00e0 1533     		add	r3, r3, #21
 784 00e2 391C     		mov	r1, r7
 785 00e4 1531     		add	r1, r1, #21
 786 00e6 3A1C     		mov	r2, r7
 787 00e8 1432     		add	r2, r2, #20
 788 00ea 0978     		ldrb	r1, [r1]
ARM GAS  C:\Users\KEVINH~1\AppData\Local\Temp\cctGjvGe.s 			page 33


 789 00ec 1278     		ldrb	r2, [r2]
 790 00ee 8A18     		add	r2, r1, r2
 791 00f0 1A70     		strb	r2, [r3]
1024:.\Generated_Source\PSoC4/BLE.c ****                 
1025:.\Generated_Source\PSoC4/BLE.c ****                 /* Increment byte counter to point to start of the local Name string */
1026:.\Generated_Source\PSoC4/BLE.c ****                 byteCounter++;
 792              		.loc 1 1026 0
 793 00f2 3B1C     		mov	r3, r7
 794 00f4 1433     		add	r3, r3, #20
 795 00f6 1A78     		ldrb	r2, [r3]
 796 00f8 3B1C     		mov	r3, r7
 797 00fa 1433     		add	r3, r3, #20
 798 00fc 0132     		add	r2, r2, #1
 799 00fe 1A70     		strb	r2, [r3]
1027:.\Generated_Source\PSoC4/BLE.c ****                 
1028:.\Generated_Source\PSoC4/BLE.c ****                 for(i = byteCounter; ((i < (adLength)) && (CYBLE_NULL_CHARCTER != name[i - byteCoun
 800              		.loc 1 1028 0
 801 0100 3B1C     		mov	r3, r7
 802 0102 1733     		add	r3, r3, #23
 803 0104 3A1C     		mov	r2, r7
 804 0106 1432     		add	r2, r2, #20
 805 0108 1278     		ldrb	r2, [r2]
 806 010a 1A70     		strb	r2, [r3]
 807 010c 16E0     		b	.L43
 808              	.L45:
1029:.\Generated_Source\PSoC4/BLE.c ****                 {
1030:.\Generated_Source\PSoC4/BLE.c ****                     destBuffer[i] = (uint8)name[i - byteCounter];
 809              		.loc 1 1030 0 discriminator 1
 810 010e 3B1C     		mov	r3, r7
 811 0110 1733     		add	r3, r3, #23
 812 0112 1B78     		ldrb	r3, [r3]
 813 0114 3A69     		ldr	r2, [r7, #16]
 814 0116 D318     		add	r3, r2, r3
 815 0118 3A1C     		mov	r2, r7
 816 011a 1732     		add	r2, r2, #23
 817 011c 1178     		ldrb	r1, [r2]
 818 011e 3A1C     		mov	r2, r7
 819 0120 1432     		add	r2, r2, #20
 820 0122 1278     		ldrb	r2, [r2]
 821 0124 8A1A     		sub	r2, r1, r2
 822 0126 7968     		ldr	r1, [r7, #4]
 823 0128 8A18     		add	r2, r1, r2
 824 012a 1278     		ldrb	r2, [r2]
 825 012c 1A70     		strb	r2, [r3]
1028:.\Generated_Source\PSoC4/BLE.c ****                 for(i = byteCounter; ((i < (adLength)) && (CYBLE_NULL_CHARCTER != name[i - byteCoun
 826              		.loc 1 1028 0 discriminator 1
 827 012e 3B1C     		mov	r3, r7
 828 0130 1733     		add	r3, r3, #23
 829 0132 1A78     		ldrb	r2, [r3]
 830 0134 3B1C     		mov	r3, r7
 831 0136 1733     		add	r3, r3, #23
 832 0138 0132     		add	r2, r2, #1
 833 013a 1A70     		strb	r2, [r3]
 834              	.L43:
 835 013c 3A1C     		mov	r2, r7
 836 013e 1732     		add	r2, r2, #23
 837 0140 3B1C     		mov	r3, r7
ARM GAS  C:\Users\KEVINH~1\AppData\Local\Temp\cctGjvGe.s 			page 34


 838 0142 1533     		add	r3, r3, #21
 839 0144 1278     		ldrb	r2, [r2]
 840 0146 1B78     		ldrb	r3, [r3]
 841 0148 9A42     		cmp	r2, r3
 842 014a 0BD2     		bcs	.L44
1028:.\Generated_Source\PSoC4/BLE.c ****                 for(i = byteCounter; ((i < (adLength)) && (CYBLE_NULL_CHARCTER != name[i - byteCoun
 843              		.loc 1 1028 0 is_stmt 0 discriminator 2
 844 014c 3B1C     		mov	r3, r7
 845 014e 1733     		add	r3, r3, #23
 846 0150 1A78     		ldrb	r2, [r3]
 847 0152 3B1C     		mov	r3, r7
 848 0154 1433     		add	r3, r3, #20
 849 0156 1B78     		ldrb	r3, [r3]
 850 0158 D31A     		sub	r3, r2, r3
 851 015a 7A68     		ldr	r2, [r7, #4]
 852 015c D318     		add	r3, r2, r3
 853 015e 1B78     		ldrb	r3, [r3]
 854 0160 002B     		cmp	r3, #0
 855 0162 D4D1     		bne	.L45
 856              	.L44:
1031:.\Generated_Source\PSoC4/BLE.c ****                 }
1032:.\Generated_Source\PSoC4/BLE.c ****                 
1033:.\Generated_Source\PSoC4/BLE.c ****                 /* This loop handles the case when new local name is shorted than old one.
1034:.\Generated_Source\PSoC4/BLE.c ****                    In this case all remaining characters should be null characters. */
1035:.\Generated_Source\PSoC4/BLE.c ****                 while(adLength > i)
 857              		.loc 1 1035 0 is_stmt 1
 858 0164 0DE0     		b	.L46
 859              	.L47:
1036:.\Generated_Source\PSoC4/BLE.c ****                 {
1037:.\Generated_Source\PSoC4/BLE.c ****                     /* Terminate string */
1038:.\Generated_Source\PSoC4/BLE.c ****                     destBuffer[i] = (uint8)CYBLE_NULL_CHARCTER;
 860              		.loc 1 1038 0
 861 0166 3B1C     		mov	r3, r7
 862 0168 1733     		add	r3, r3, #23
 863 016a 1B78     		ldrb	r3, [r3]
 864 016c 3A69     		ldr	r2, [r7, #16]
 865 016e D318     		add	r3, r2, r3
 866 0170 0022     		mov	r2, #0
 867 0172 1A70     		strb	r2, [r3]
1039:.\Generated_Source\PSoC4/BLE.c ****                     i++;
 868              		.loc 1 1039 0
 869 0174 3B1C     		mov	r3, r7
 870 0176 1733     		add	r3, r3, #23
 871 0178 1A78     		ldrb	r2, [r3]
 872 017a 3B1C     		mov	r3, r7
 873 017c 1733     		add	r3, r3, #23
 874 017e 0132     		add	r2, r2, #1
 875 0180 1A70     		strb	r2, [r3]
 876              	.L46:
1035:.\Generated_Source\PSoC4/BLE.c ****                 while(adLength > i)
 877              		.loc 1 1035 0 discriminator 1
 878 0182 3A1C     		mov	r2, r7
 879 0184 1532     		add	r2, r2, #21
 880 0186 3B1C     		mov	r3, r7
 881 0188 1733     		add	r3, r3, #23
 882 018a 1278     		ldrb	r2, [r2]
 883 018c 1B78     		ldrb	r3, [r3]
ARM GAS  C:\Users\KEVINH~1\AppData\Local\Temp\cctGjvGe.s 			page 35


 884 018e 9A42     		cmp	r2, r3
 885 0190 E9D8     		bhi	.L47
 886              	.L32:
1040:.\Generated_Source\PSoC4/BLE.c ****                 }
1041:.\Generated_Source\PSoC4/BLE.c ****             }
1042:.\Generated_Source\PSoC4/BLE.c ****         }
 887              		.loc 1 1042 0
 888 0192 BD46     		mov	sp, r7
 889 0194 06B0     		add	sp, sp, #24
 890              		@ sp needed
 891 0196 80BD     		pop	{r7, pc}
 892              	.L49:
 893              		.align	2
 894              	.L48:
 895 0198 00000000 		.word	cyBle_discoveryData
 896 019c 00000000 		.word	cyBle_scanRspData
 897              		.cfi_endproc
 898              	.LFE9:
 899              		.size	CyBle_ChangeAdLocalName, .-CyBle_ChangeAdLocalName
 900              		.section	.text.CyBle_GapSetLocalName,"ax",%progbits
 901              		.align	2
 902              		.global	CyBle_GapSetLocalName
 903              		.code	16
 904              		.thumb_func
 905              		.type	CyBle_GapSetLocalName, %function
 906              	CyBle_GapSetLocalName:
 907              	.LFB10:
1043:.\Generated_Source\PSoC4/BLE.c ****         
1044:.\Generated_Source\PSoC4/BLE.c **** #endif /* (CYBLE_GAP_ROLE_PERIPHERAL) */  
1045:.\Generated_Source\PSoC4/BLE.c ****     
1046:.\Generated_Source\PSoC4/BLE.c ****     
1047:.\Generated_Source\PSoC4/BLE.c ****     /******************************************************************************
1048:.\Generated_Source\PSoC4/BLE.c ****     ##Function Name: CyBle_GapSetLocalName
1049:.\Generated_Source\PSoC4/BLE.c ****     *******************************************************************************
1050:.\Generated_Source\PSoC4/BLE.c ****     Summary:
1051:.\Generated_Source\PSoC4/BLE.c ****      This API is used to set the local device name - a Characteristic of the 
1052:.\Generated_Source\PSoC4/BLE.c ****      GAP Service. If the characteristic length entered in the component customizer
1053:.\Generated_Source\PSoC4/BLE.c ****      is shorter than the string specified by the "name" parameter, the local device
1054:.\Generated_Source\PSoC4/BLE.c ****      name will be cut to the length specified in the customizer.
1055:.\Generated_Source\PSoC4/BLE.c **** 
1056:.\Generated_Source\PSoC4/BLE.c ****     Parameters:
1057:.\Generated_Source\PSoC4/BLE.c ****      char8 name: The local device name string. The name string to be written as
1058:.\Generated_Source\PSoC4/BLE.c ****                  the local device name. It represents a UTF-8 encoded User
1059:.\Generated_Source\PSoC4/BLE.c ****                  Friendly Descriptive Name for the device. The length of the local
1060:.\Generated_Source\PSoC4/BLE.c ****                  device string is entered into the component customizer and it can
1061:.\Generated_Source\PSoC4/BLE.c ****                  be set to a value from 0 to 248 bytes. If the name contained in
1062:.\Generated_Source\PSoC4/BLE.c ****                  the parameter is shorter than the length from the customizer, the
1063:.\Generated_Source\PSoC4/BLE.c ****                  end of the name is indicated by a NULL octet (0x00).
1064:.\Generated_Source\PSoC4/BLE.c **** 
1065:.\Generated_Source\PSoC4/BLE.c ****     Return:
1066:.\Generated_Source\PSoC4/BLE.c ****      CYBLE_API_RESULT_T : Return value indicates if the function succeeded or 
1067:.\Generated_Source\PSoC4/BLE.c ****      failed. Following are the possible error codes.
1068:.\Generated_Source\PSoC4/BLE.c ****      <table>
1069:.\Generated_Source\PSoC4/BLE.c ****       Errors codes                        Description
1070:.\Generated_Source\PSoC4/BLE.c ****       ------------                        -----------
1071:.\Generated_Source\PSoC4/BLE.c ****       CYBLE_ERROR_OK                      Function completed successfully.
1072:.\Generated_Source\PSoC4/BLE.c ****       CYBLE_ERROR_INVALID_PARAMETER       On specifying NULL as input parameter
ARM GAS  C:\Users\KEVINH~1\AppData\Local\Temp\cctGjvGe.s 			page 36


1073:.\Generated_Source\PSoC4/BLE.c ****      </table>
1074:.\Generated_Source\PSoC4/BLE.c ****  
1075:.\Generated_Source\PSoC4/BLE.c ****     ******************************************************************************/
1076:.\Generated_Source\PSoC4/BLE.c ****     CYBLE_API_RESULT_T CyBle_GapSetLocalName(const char8 name[])
1077:.\Generated_Source\PSoC4/BLE.c ****     {
 908              		.loc 1 1077 0
 909              		.cfi_startproc
 910 0000 80B5     		push	{r7, lr}
 911              		.cfi_def_cfa_offset 8
 912              		.cfi_offset 7, -8
 913              		.cfi_offset 14, -4
 914 0002 86B0     		sub	sp, sp, #24
 915              		.cfi_def_cfa_offset 32
 916 0004 00AF     		add	r7, sp, #0
 917              		.cfi_def_cfa_register 7
 918 0006 7860     		str	r0, [r7, #4]
1078:.\Generated_Source\PSoC4/BLE.c ****         CYBLE_API_RESULT_T apiResult = CYBLE_ERROR_OK;
 919              		.loc 1 1078 0
 920 0008 3B1C     		mov	r3, r7
 921 000a 1633     		add	r3, r3, #22
 922 000c 0022     		mov	r2, #0
 923 000e 1A80     		strh	r2, [r3]
1079:.\Generated_Source\PSoC4/BLE.c ****         uint8 i;
1080:.\Generated_Source\PSoC4/BLE.c ****         char8 *ptr;
1081:.\Generated_Source\PSoC4/BLE.c ****         uint8 charLen;
1082:.\Generated_Source\PSoC4/BLE.c **** 
1083:.\Generated_Source\PSoC4/BLE.c ****         if(NULL != name)
 924              		.loc 1 1083 0
 925 0010 7B68     		ldr	r3, [r7, #4]
 926 0012 002B     		cmp	r3, #0
 927 0014 4AD0     		beq	.L51
1084:.\Generated_Source\PSoC4/BLE.c ****         {
1085:.\Generated_Source\PSoC4/BLE.c ****             /* Get the pointer to the Device Name characteristic  */
1086:.\Generated_Source\PSoC4/BLE.c ****             ptr = (char8 *) CYBLE_GATT_DB_ATTR_GET_ATTR_GEN_PTR(CYBLE_GAP_DEVICE_NAME_INDEX + 1u);
 928              		.loc 1 1086 0
 929 0016 2B4B     		ldr	r3, .L58
 930 0018 9B6B     		ldr	r3, [r3, #56]
 931 001a 5B68     		ldr	r3, [r3, #4]
 932 001c 3B61     		str	r3, [r7, #16]
1087:.\Generated_Source\PSoC4/BLE.c **** 
1088:.\Generated_Source\PSoC4/BLE.c ****             /* First need to get the maximum length of the characteristic data in the GATT
1089:.\Generated_Source\PSoC4/BLE.c ****                 database to make sure there is enough place for the data. The length
1090:.\Generated_Source\PSoC4/BLE.c ****                 can't be longer than 248, so only the LSB of 16 bit of length is to
1091:.\Generated_Source\PSoC4/BLE.c ****                 be used. */
1092:.\Generated_Source\PSoC4/BLE.c ****             charLen = (uint8)CYBLE_GATT_DB_ATTR_GET_ATTR_GEN_MAX_LEN(CYBLE_GAP_DEVICE_NAME_INDEX + 
 933              		.loc 1 1092 0
 934 001e 294B     		ldr	r3, .L58
 935 0020 9A8E     		ldrh	r2, [r3, #52]
 936 0022 3B1C     		mov	r3, r7
 937 0024 0F33     		add	r3, r3, #15
 938 0026 1A70     		strb	r2, [r3]
1093:.\Generated_Source\PSoC4/BLE.c **** 
1094:.\Generated_Source\PSoC4/BLE.c ****             /* Copy name into characteristic */
1095:.\Generated_Source\PSoC4/BLE.c ****             for(i = 0u; ((i < charLen) && (CYBLE_NULL_CHARCTER != name[i])); i++)
 939              		.loc 1 1095 0
 940 0028 3B1C     		mov	r3, r7
 941 002a 1533     		add	r3, r3, #21
ARM GAS  C:\Users\KEVINH~1\AppData\Local\Temp\cctGjvGe.s 			page 37


 942 002c 0022     		mov	r2, #0
 943 002e 1A70     		strb	r2, [r3]
 944 0030 12E0     		b	.L52
 945              	.L54:
1096:.\Generated_Source\PSoC4/BLE.c ****             {
1097:.\Generated_Source\PSoC4/BLE.c ****                 ptr[i] = name[i];
 946              		.loc 1 1097 0 discriminator 1
 947 0032 3B1C     		mov	r3, r7
 948 0034 1533     		add	r3, r3, #21
 949 0036 1B78     		ldrb	r3, [r3]
 950 0038 3A69     		ldr	r2, [r7, #16]
 951 003a D318     		add	r3, r2, r3
 952 003c 3A1C     		mov	r2, r7
 953 003e 1532     		add	r2, r2, #21
 954 0040 1278     		ldrb	r2, [r2]
 955 0042 7968     		ldr	r1, [r7, #4]
 956 0044 8A18     		add	r2, r1, r2
 957 0046 1278     		ldrb	r2, [r2]
 958 0048 1A70     		strb	r2, [r3]
1095:.\Generated_Source\PSoC4/BLE.c ****             for(i = 0u; ((i < charLen) && (CYBLE_NULL_CHARCTER != name[i])); i++)
 959              		.loc 1 1095 0 discriminator 1
 960 004a 3B1C     		mov	r3, r7
 961 004c 1533     		add	r3, r3, #21
 962 004e 1A78     		ldrb	r2, [r3]
 963 0050 3B1C     		mov	r3, r7
 964 0052 1533     		add	r3, r3, #21
 965 0054 0132     		add	r2, r2, #1
 966 0056 1A70     		strb	r2, [r3]
 967              	.L52:
 968 0058 3A1C     		mov	r2, r7
 969 005a 1532     		add	r2, r2, #21
 970 005c 3B1C     		mov	r3, r7
 971 005e 0F33     		add	r3, r3, #15
 972 0060 1278     		ldrb	r2, [r2]
 973 0062 1B78     		ldrb	r3, [r3]
 974 0064 9A42     		cmp	r2, r3
 975 0066 07D2     		bcs	.L53
1095:.\Generated_Source\PSoC4/BLE.c ****             for(i = 0u; ((i < charLen) && (CYBLE_NULL_CHARCTER != name[i])); i++)
 976              		.loc 1 1095 0 is_stmt 0 discriminator 2
 977 0068 3B1C     		mov	r3, r7
 978 006a 1533     		add	r3, r3, #21
 979 006c 1B78     		ldrb	r3, [r3]
 980 006e 7A68     		ldr	r2, [r7, #4]
 981 0070 D318     		add	r3, r2, r3
 982 0072 1B78     		ldrb	r3, [r3]
 983 0074 002B     		cmp	r3, #0
 984 0076 DCD1     		bne	.L54
 985              	.L53:
1098:.\Generated_Source\PSoC4/BLE.c ****             }
1099:.\Generated_Source\PSoC4/BLE.c **** 
1100:.\Generated_Source\PSoC4/BLE.c ****             if(i < charLen)
 986              		.loc 1 1100 0 is_stmt 1
 987 0078 3A1C     		mov	r2, r7
 988 007a 1532     		add	r2, r2, #21
 989 007c 3B1C     		mov	r3, r7
 990 007e 0F33     		add	r3, r3, #15
 991 0080 1278     		ldrb	r2, [r2]
ARM GAS  C:\Users\KEVINH~1\AppData\Local\Temp\cctGjvGe.s 			page 38


 992 0082 1B78     		ldrb	r3, [r3]
 993 0084 9A42     		cmp	r2, r3
 994 0086 06D2     		bcs	.L55
1101:.\Generated_Source\PSoC4/BLE.c ****             {
1102:.\Generated_Source\PSoC4/BLE.c ****                 /* Terminate string */
1103:.\Generated_Source\PSoC4/BLE.c ****                 ptr[i] = CYBLE_NULL_CHARCTER;
 995              		.loc 1 1103 0
 996 0088 3B1C     		mov	r3, r7
 997 008a 1533     		add	r3, r3, #21
 998 008c 1B78     		ldrb	r3, [r3]
 999 008e 3A69     		ldr	r2, [r7, #16]
 1000 0090 D318     		add	r3, r2, r3
 1001 0092 0022     		mov	r2, #0
 1002 0094 1A70     		strb	r2, [r3]
 1003              	.L55:
1104:.\Generated_Source\PSoC4/BLE.c ****             }
1105:.\Generated_Source\PSoC4/BLE.c ****             
1106:.\Generated_Source\PSoC4/BLE.c ****             /* Set new actual length */
1107:.\Generated_Source\PSoC4/BLE.c ****             
1108:.\Generated_Source\PSoC4/BLE.c ****             /* Update device name in advertising and scan response structure */
1109:.\Generated_Source\PSoC4/BLE.c ****             #if(CYBLE_GAP_ROLE_PERIPHERAL)
1110:.\Generated_Source\PSoC4/BLE.c ****                 CyBle_ChangeAdLocalName(name, 0u);
 1004              		.loc 1 1110 0
 1005 0096 7B68     		ldr	r3, [r7, #4]
 1006 0098 181C     		mov	r0, r3
 1007 009a 0021     		mov	r1, #0
 1008 009c FFF7FEFF 		bl	CyBle_ChangeAdLocalName
1111:.\Generated_Source\PSoC4/BLE.c ****                 CyBle_ChangeAdLocalName(name, 1u);
 1009              		.loc 1 1111 0
 1010 00a0 7B68     		ldr	r3, [r7, #4]
 1011 00a2 181C     		mov	r0, r3
 1012 00a4 0121     		mov	r1, #1
 1013 00a6 FFF7FEFF 		bl	CyBle_ChangeAdLocalName
 1014 00aa 03E0     		b	.L56
 1015              	.L51:
1112:.\Generated_Source\PSoC4/BLE.c ****             #endif /* (CYBLE_GAP_ROLE_PERIPHERAL) */
1113:.\Generated_Source\PSoC4/BLE.c ****         }
1114:.\Generated_Source\PSoC4/BLE.c ****         else
1115:.\Generated_Source\PSoC4/BLE.c ****         {
1116:.\Generated_Source\PSoC4/BLE.c ****             apiResult = CYBLE_ERROR_INVALID_PARAMETER;
 1016              		.loc 1 1116 0
 1017 00ac 3B1C     		mov	r3, r7
 1018 00ae 1633     		add	r3, r3, #22
 1019 00b0 0122     		mov	r2, #1
 1020 00b2 1A80     		strh	r2, [r3]
 1021              	.L56:
1117:.\Generated_Source\PSoC4/BLE.c ****         }
1118:.\Generated_Source\PSoC4/BLE.c ****         
1119:.\Generated_Source\PSoC4/BLE.c ****         return(apiResult);
 1022              		.loc 1 1119 0
 1023 00b4 3B1C     		mov	r3, r7
 1024 00b6 1633     		add	r3, r3, #22
 1025 00b8 1B88     		ldrh	r3, [r3]
1120:.\Generated_Source\PSoC4/BLE.c ****     }
 1026              		.loc 1 1120 0
 1027 00ba 181C     		mov	r0, r3
 1028 00bc BD46     		mov	sp, r7
ARM GAS  C:\Users\KEVINH~1\AppData\Local\Temp\cctGjvGe.s 			page 39


 1029 00be 06B0     		add	sp, sp, #24
 1030              		@ sp needed
 1031 00c0 80BD     		pop	{r7, pc}
 1032              	.L59:
 1033 00c2 C046     		.align	2
 1034              	.L58:
 1035 00c4 00000000 		.word	cyBle_gattDB
 1036              		.cfi_endproc
 1037              	.LFE10:
 1038              		.size	CyBle_GapSetLocalName, .-CyBle_GapSetLocalName
 1039              		.section	.text.CyBle_GapGetLocalName,"ax",%progbits
 1040              		.align	2
 1041              		.global	CyBle_GapGetLocalName
 1042              		.code	16
 1043              		.thumb_func
 1044              		.type	CyBle_GapGetLocalName, %function
 1045              	CyBle_GapGetLocalName:
 1046              	.LFB11:
1121:.\Generated_Source\PSoC4/BLE.c **** 
1122:.\Generated_Source\PSoC4/BLE.c **** 
1123:.\Generated_Source\PSoC4/BLE.c ****     /******************************************************************************
1124:.\Generated_Source\PSoC4/BLE.c ****     ##Function Name: CyBle_GapGetLocalName
1125:.\Generated_Source\PSoC4/BLE.c ****     *******************************************************************************
1126:.\Generated_Source\PSoC4/BLE.c ****  
1127:.\Generated_Source\PSoC4/BLE.c ****     Summary:
1128:.\Generated_Source\PSoC4/BLE.c ****      This API is used to read the local device name - a Characteristic of the 
1129:.\Generated_Source\PSoC4/BLE.c ****      GAP Service.
1130:.\Generated_Source\PSoC4/BLE.c **** 
1131:.\Generated_Source\PSoC4/BLE.c ****     Parameters:
1132:.\Generated_Source\PSoC4/BLE.c ****     char8 name: The local device name string. Used to read the local name to the
1133:.\Generated_Source\PSoC4/BLE.c ****                 given string array. It represents a UTF-8 encoded User Friendly 
1134:.\Generated_Source\PSoC4/BLE.c ****                 Descriptive Name for the device. The length of the local device
1135:.\Generated_Source\PSoC4/BLE.c ****                 string is entered into the component customizer and it can be set
1136:.\Generated_Source\PSoC4/BLE.c ****                 to a value from 0 to 248 bytes. If the name contained in the
1137:.\Generated_Source\PSoC4/BLE.c ****                 parameter is shorter than the length from the customizer, the end
1138:.\Generated_Source\PSoC4/BLE.c ****                 of the name is indicated by a NULL octet (0x00).
1139:.\Generated_Source\PSoC4/BLE.c **** 
1140:.\Generated_Source\PSoC4/BLE.c ****     Return:
1141:.\Generated_Source\PSoC4/BLE.c ****      CYBLE_API_RESULT_T : Return value indicates if the function succeeded or 
1142:.\Generated_Source\PSoC4/BLE.c ****      failed. Following are the possible error codes.
1143:.\Generated_Source\PSoC4/BLE.c ****      <table>
1144:.\Generated_Source\PSoC4/BLE.c ****       Errors codes                        Description
1145:.\Generated_Source\PSoC4/BLE.c ****       ------------                        -----------
1146:.\Generated_Source\PSoC4/BLE.c ****       CYBLE_ERROR_OK                      Function completed successfully.
1147:.\Generated_Source\PSoC4/BLE.c ****       CYBLE_ERROR_INVALID_PARAMETER       On specifying NULL as input parameter
1148:.\Generated_Source\PSoC4/BLE.c ****      </table>
1149:.\Generated_Source\PSoC4/BLE.c **** 
1150:.\Generated_Source\PSoC4/BLE.c ****     ******************************************************************************/
1151:.\Generated_Source\PSoC4/BLE.c ****     CYBLE_API_RESULT_T CyBle_GapGetLocalName(char8 name[])
1152:.\Generated_Source\PSoC4/BLE.c ****     {
 1047              		.loc 1 1152 0
 1048              		.cfi_startproc
 1049 0000 80B5     		push	{r7, lr}
 1050              		.cfi_def_cfa_offset 8
 1051              		.cfi_offset 7, -8
 1052              		.cfi_offset 14, -4
 1053 0002 86B0     		sub	sp, sp, #24
ARM GAS  C:\Users\KEVINH~1\AppData\Local\Temp\cctGjvGe.s 			page 40


 1054              		.cfi_def_cfa_offset 32
 1055 0004 00AF     		add	r7, sp, #0
 1056              		.cfi_def_cfa_register 7
 1057 0006 7860     		str	r0, [r7, #4]
1153:.\Generated_Source\PSoC4/BLE.c ****         CYBLE_API_RESULT_T apiResult = CYBLE_ERROR_OK;
 1058              		.loc 1 1153 0
 1059 0008 3B1C     		mov	r3, r7
 1060 000a 1633     		add	r3, r3, #22
 1061 000c 0022     		mov	r2, #0
 1062 000e 1A80     		strh	r2, [r3]
1154:.\Generated_Source\PSoC4/BLE.c ****         uint8 charLen;
1155:.\Generated_Source\PSoC4/BLE.c ****         uint8 i;
1156:.\Generated_Source\PSoC4/BLE.c ****         char8 *ptr;
1157:.\Generated_Source\PSoC4/BLE.c **** 
1158:.\Generated_Source\PSoC4/BLE.c ****         if(NULL != name)
 1063              		.loc 1 1158 0
 1064 0010 7B68     		ldr	r3, [r7, #4]
 1065 0012 002B     		cmp	r3, #0
 1066 0014 39D0     		beq	.L61
1159:.\Generated_Source\PSoC4/BLE.c ****         {
1160:.\Generated_Source\PSoC4/BLE.c ****             /* Get the pointer to the Device Name characteristic  */
1161:.\Generated_Source\PSoC4/BLE.c ****             ptr = (char8 *) CYBLE_GATT_DB_ATTR_GET_ATTR_GEN_PTR(CYBLE_GAP_DEVICE_NAME_INDEX + 1u);
 1067              		.loc 1 1161 0
 1068 0016 224B     		ldr	r3, .L67
 1069 0018 9B6B     		ldr	r3, [r3, #56]
 1070 001a 5B68     		ldr	r3, [r3, #4]
 1071 001c 3B61     		str	r3, [r7, #16]
1162:.\Generated_Source\PSoC4/BLE.c **** 
1163:.\Generated_Source\PSoC4/BLE.c ****             /* First need to get the length of the characteristic data in the GATT
1164:.\Generated_Source\PSoC4/BLE.c ****                 database to make sure there is enough place for the data. The length
1165:.\Generated_Source\PSoC4/BLE.c ****                 can't be longer than 248, so only the LSB of 16 bit of length is to
1166:.\Generated_Source\PSoC4/BLE.c ****                 be used. */
1167:.\Generated_Source\PSoC4/BLE.c ****             charLen = (uint8)CYBLE_GATT_DB_ATTR_GET_ATTR_GEN_LEN(CYBLE_GAP_DEVICE_NAME_INDEX + 1u);
 1072              		.loc 1 1167 0
 1073 001e 204B     		ldr	r3, .L67
 1074 0020 9B6B     		ldr	r3, [r3, #56]
 1075 0022 1A88     		ldrh	r2, [r3]
 1076 0024 3B1C     		mov	r3, r7
 1077 0026 0F33     		add	r3, r3, #15
 1078 0028 1A70     		strb	r2, [r3]
1168:.\Generated_Source\PSoC4/BLE.c **** 
1169:.\Generated_Source\PSoC4/BLE.c ****             /* Copy name from characteristic */
1170:.\Generated_Source\PSoC4/BLE.c ****             for(i = 0u; ((i < charLen) && (CYBLE_NULL_CHARCTER != ptr[i])); i++)
 1079              		.loc 1 1170 0
 1080 002a 3B1C     		mov	r3, r7
 1081 002c 1533     		add	r3, r3, #21
 1082 002e 0022     		mov	r2, #0
 1083 0030 1A70     		strb	r2, [r3]
 1084 0032 12E0     		b	.L62
 1085              	.L64:
1171:.\Generated_Source\PSoC4/BLE.c ****             {
1172:.\Generated_Source\PSoC4/BLE.c ****                 name[i] = ptr[i];
 1086              		.loc 1 1172 0 discriminator 1
 1087 0034 3B1C     		mov	r3, r7
 1088 0036 1533     		add	r3, r3, #21
 1089 0038 1B78     		ldrb	r3, [r3]
 1090 003a 7A68     		ldr	r2, [r7, #4]
ARM GAS  C:\Users\KEVINH~1\AppData\Local\Temp\cctGjvGe.s 			page 41


 1091 003c D318     		add	r3, r2, r3
 1092 003e 3A1C     		mov	r2, r7
 1093 0040 1532     		add	r2, r2, #21
 1094 0042 1278     		ldrb	r2, [r2]
 1095 0044 3969     		ldr	r1, [r7, #16]
 1096 0046 8A18     		add	r2, r1, r2
 1097 0048 1278     		ldrb	r2, [r2]
 1098 004a 1A70     		strb	r2, [r3]
1170:.\Generated_Source\PSoC4/BLE.c ****             for(i = 0u; ((i < charLen) && (CYBLE_NULL_CHARCTER != ptr[i])); i++)
 1099              		.loc 1 1170 0 discriminator 1
 1100 004c 3B1C     		mov	r3, r7
 1101 004e 1533     		add	r3, r3, #21
 1102 0050 1A78     		ldrb	r2, [r3]
 1103 0052 3B1C     		mov	r3, r7
 1104 0054 1533     		add	r3, r3, #21
 1105 0056 0132     		add	r2, r2, #1
 1106 0058 1A70     		strb	r2, [r3]
 1107              	.L62:
 1108 005a 3A1C     		mov	r2, r7
 1109 005c 1532     		add	r2, r2, #21
 1110 005e 3B1C     		mov	r3, r7
 1111 0060 0F33     		add	r3, r3, #15
 1112 0062 1278     		ldrb	r2, [r2]
 1113 0064 1B78     		ldrb	r3, [r3]
 1114 0066 9A42     		cmp	r2, r3
 1115 0068 07D2     		bcs	.L63
1170:.\Generated_Source\PSoC4/BLE.c ****             for(i = 0u; ((i < charLen) && (CYBLE_NULL_CHARCTER != ptr[i])); i++)
 1116              		.loc 1 1170 0 is_stmt 0 discriminator 2
 1117 006a 3B1C     		mov	r3, r7
 1118 006c 1533     		add	r3, r3, #21
 1119 006e 1B78     		ldrb	r3, [r3]
 1120 0070 3A69     		ldr	r2, [r7, #16]
 1121 0072 D318     		add	r3, r2, r3
 1122 0074 1B78     		ldrb	r3, [r3]
 1123 0076 002B     		cmp	r3, #0
 1124 0078 DCD1     		bne	.L64
 1125              	.L63:
1173:.\Generated_Source\PSoC4/BLE.c ****             }
1174:.\Generated_Source\PSoC4/BLE.c **** 
1175:.\Generated_Source\PSoC4/BLE.c ****             /* Terminate string */
1176:.\Generated_Source\PSoC4/BLE.c ****             name[i] = CYBLE_NULL_CHARCTER;
 1126              		.loc 1 1176 0 is_stmt 1
 1127 007a 3B1C     		mov	r3, r7
 1128 007c 1533     		add	r3, r3, #21
 1129 007e 1B78     		ldrb	r3, [r3]
 1130 0080 7A68     		ldr	r2, [r7, #4]
 1131 0082 D318     		add	r3, r2, r3
 1132 0084 0022     		mov	r2, #0
 1133 0086 1A70     		strb	r2, [r3]
 1134 0088 03E0     		b	.L65
 1135              	.L61:
1177:.\Generated_Source\PSoC4/BLE.c ****         }
1178:.\Generated_Source\PSoC4/BLE.c ****         else
1179:.\Generated_Source\PSoC4/BLE.c ****         {
1180:.\Generated_Source\PSoC4/BLE.c ****             apiResult = CYBLE_ERROR_INVALID_PARAMETER;
 1136              		.loc 1 1180 0
 1137 008a 3B1C     		mov	r3, r7
ARM GAS  C:\Users\KEVINH~1\AppData\Local\Temp\cctGjvGe.s 			page 42


 1138 008c 1633     		add	r3, r3, #22
 1139 008e 0122     		mov	r2, #1
 1140 0090 1A80     		strh	r2, [r3]
 1141              	.L65:
1181:.\Generated_Source\PSoC4/BLE.c ****         }
1182:.\Generated_Source\PSoC4/BLE.c ****         
1183:.\Generated_Source\PSoC4/BLE.c ****         return(apiResult);
 1142              		.loc 1 1183 0
 1143 0092 3B1C     		mov	r3, r7
 1144 0094 1633     		add	r3, r3, #22
 1145 0096 1B88     		ldrh	r3, [r3]
1184:.\Generated_Source\PSoC4/BLE.c ****     }
 1146              		.loc 1 1184 0
 1147 0098 181C     		mov	r0, r3
 1148 009a BD46     		mov	sp, r7
 1149 009c 06B0     		add	sp, sp, #24
 1150              		@ sp needed
 1151 009e 80BD     		pop	{r7, pc}
 1152              	.L68:
 1153              		.align	2
 1154              	.L67:
 1155 00a0 00000000 		.word	cyBle_gattDB
 1156              		.cfi_endproc
 1157              	.LFE11:
 1158              		.size	CyBle_GapGetLocalName, .-CyBle_GapGetLocalName
 1159              		.section	.text.CyBle_Get16ByPtr,"ax",%progbits
 1160              		.align	2
 1161              		.global	CyBle_Get16ByPtr
 1162              		.code	16
 1163              		.thumb_func
 1164              		.type	CyBle_Get16ByPtr, %function
 1165              	CyBle_Get16ByPtr:
 1166              	.LFB12:
1185:.\Generated_Source\PSoC4/BLE.c **** 
1186:.\Generated_Source\PSoC4/BLE.c **** #endif /* (CYBLE_GATT_ROLE_SERVER) */
1187:.\Generated_Source\PSoC4/BLE.c **** 
1188:.\Generated_Source\PSoC4/BLE.c **** 
1189:.\Generated_Source\PSoC4/BLE.c **** /******************************************************************************
1190:.\Generated_Source\PSoC4/BLE.c **** ##Function Name: CyBle_Get16ByPtr
1191:.\Generated_Source\PSoC4/BLE.c **** *******************************************************************************
1192:.\Generated_Source\PSoC4/BLE.c **** 
1193:.\Generated_Source\PSoC4/BLE.c **** Summary:
1194:.\Generated_Source\PSoC4/BLE.c ****  Returns the two-bytes value by using a pointer to the LSB.
1195:.\Generated_Source\PSoC4/BLE.c **** 
1196:.\Generated_Source\PSoC4/BLE.c **** Parameters:
1197:.\Generated_Source\PSoC4/BLE.c ****  uint8 * ptr: Pointer to the LSB of two-bytes data (little endian).
1198:.\Generated_Source\PSoC4/BLE.c **** 
1199:.\Generated_Source\PSoC4/BLE.c **** Return:
1200:.\Generated_Source\PSoC4/BLE.c ****  uint16 value: Two-bytes data.
1201:.\Generated_Source\PSoC4/BLE.c **** 
1202:.\Generated_Source\PSoC4/BLE.c **** ******************************************************************************/
1203:.\Generated_Source\PSoC4/BLE.c **** uint16 CyBle_Get16ByPtr(const uint8 ptr[])
1204:.\Generated_Source\PSoC4/BLE.c **** {
 1167              		.loc 1 1204 0
 1168              		.cfi_startproc
 1169 0000 80B5     		push	{r7, lr}
 1170              		.cfi_def_cfa_offset 8
ARM GAS  C:\Users\KEVINH~1\AppData\Local\Temp\cctGjvGe.s 			page 43


 1171              		.cfi_offset 7, -8
 1172              		.cfi_offset 14, -4
 1173 0002 82B0     		sub	sp, sp, #8
 1174              		.cfi_def_cfa_offset 16
 1175 0004 00AF     		add	r7, sp, #0
 1176              		.cfi_def_cfa_register 7
 1177 0006 7860     		str	r0, [r7, #4]
1205:.\Generated_Source\PSoC4/BLE.c ****     return ((uint16) ptr[0u] | ((uint16) (((uint16) ptr[1u]) << 8u)));
 1178              		.loc 1 1205 0
 1179 0008 7B68     		ldr	r3, [r7, #4]
 1180 000a 1B78     		ldrb	r3, [r3]
 1181 000c 1A1C     		mov	r2, r3
 1182 000e 7B68     		ldr	r3, [r7, #4]
 1183 0010 0133     		add	r3, r3, #1
 1184 0012 1B78     		ldrb	r3, [r3]
 1185 0014 1B02     		lsl	r3, r3, #8
 1186 0016 9BB2     		uxth	r3, r3
 1187 0018 1343     		orr	r3, r2
 1188 001a 9BB2     		uxth	r3, r3
1206:.\Generated_Source\PSoC4/BLE.c **** }
 1189              		.loc 1 1206 0
 1190 001c 181C     		mov	r0, r3
 1191 001e BD46     		mov	sp, r7
 1192 0020 02B0     		add	sp, sp, #8
 1193              		@ sp needed
 1194 0022 80BD     		pop	{r7, pc}
 1195              		.cfi_endproc
 1196              	.LFE12:
 1197              		.size	CyBle_Get16ByPtr, .-CyBle_Get16ByPtr
 1198              		.section	.text.CyBle_Set16ByPtr,"ax",%progbits
 1199              		.align	2
 1200              		.global	CyBle_Set16ByPtr
 1201              		.code	16
 1202              		.thumb_func
 1203              		.type	CyBle_Set16ByPtr, %function
 1204              	CyBle_Set16ByPtr:
 1205              	.LFB13:
1207:.\Generated_Source\PSoC4/BLE.c **** 
1208:.\Generated_Source\PSoC4/BLE.c **** 
1209:.\Generated_Source\PSoC4/BLE.c **** /******************************************************************************
1210:.\Generated_Source\PSoC4/BLE.c **** ##Function Name: CyBle_Set16ByPtr
1211:.\Generated_Source\PSoC4/BLE.c **** *******************************************************************************
1212:.\Generated_Source\PSoC4/BLE.c **** 
1213:.\Generated_Source\PSoC4/BLE.c **** Summary:
1214:.\Generated_Source\PSoC4/BLE.c ****  Sets the two-bytes value by using a pointer to the LSB.
1215:.\Generated_Source\PSoC4/BLE.c **** 
1216:.\Generated_Source\PSoC4/BLE.c **** Parameters:
1217:.\Generated_Source\PSoC4/BLE.c ****  uint8 * ptr:   Pointer to the LSB of two-bytes data (little endian).
1218:.\Generated_Source\PSoC4/BLE.c ****  uint16 value:  Two-bytes data to be written.
1219:.\Generated_Source\PSoC4/BLE.c **** 
1220:.\Generated_Source\PSoC4/BLE.c **** Return:
1221:.\Generated_Source\PSoC4/BLE.c ****  None
1222:.\Generated_Source\PSoC4/BLE.c **** 
1223:.\Generated_Source\PSoC4/BLE.c **** ******************************************************************************/
1224:.\Generated_Source\PSoC4/BLE.c **** void CyBle_Set16ByPtr(uint8 ptr[], uint16 value)
1225:.\Generated_Source\PSoC4/BLE.c **** {
 1206              		.loc 1 1225 0
ARM GAS  C:\Users\KEVINH~1\AppData\Local\Temp\cctGjvGe.s 			page 44


 1207              		.cfi_startproc
 1208 0000 80B5     		push	{r7, lr}
 1209              		.cfi_def_cfa_offset 8
 1210              		.cfi_offset 7, -8
 1211              		.cfi_offset 14, -4
 1212 0002 82B0     		sub	sp, sp, #8
 1213              		.cfi_def_cfa_offset 16
 1214 0004 00AF     		add	r7, sp, #0
 1215              		.cfi_def_cfa_register 7
 1216 0006 7860     		str	r0, [r7, #4]
 1217 0008 0A1C     		mov	r2, r1
 1218 000a BB1C     		add	r3, r7, #2
 1219 000c 1A80     		strh	r2, [r3]
1226:.\Generated_Source\PSoC4/BLE.c ****     ptr[0u] = (uint8) value;
 1220              		.loc 1 1226 0
 1221 000e BB1C     		add	r3, r7, #2
 1222 0010 1B88     		ldrh	r3, [r3]
 1223 0012 DAB2     		uxtb	r2, r3
 1224 0014 7B68     		ldr	r3, [r7, #4]
 1225 0016 1A70     		strb	r2, [r3]
1227:.\Generated_Source\PSoC4/BLE.c ****     ptr[1u] = (uint8) (value >> 8u);
 1226              		.loc 1 1227 0
 1227 0018 7B68     		ldr	r3, [r7, #4]
 1228 001a 0133     		add	r3, r3, #1
 1229 001c BA1C     		add	r2, r7, #2
 1230 001e 1288     		ldrh	r2, [r2]
 1231 0020 120A     		lsr	r2, r2, #8
 1232 0022 92B2     		uxth	r2, r2
 1233 0024 D2B2     		uxtb	r2, r2
 1234 0026 1A70     		strb	r2, [r3]
1228:.\Generated_Source\PSoC4/BLE.c **** }
 1235              		.loc 1 1228 0
 1236 0028 BD46     		mov	sp, r7
 1237 002a 02B0     		add	sp, sp, #8
 1238              		@ sp needed
 1239 002c 80BD     		pop	{r7, pc}
 1240              		.cfi_endproc
 1241              	.LFE13:
 1242              		.size	CyBle_Set16ByPtr, .-CyBle_Set16ByPtr
 1243 002e C046     		.text
 1244              	.Letext0:
 1245              		.file 2 ".\\Generated_Source\\PSoC4\\cytypes.h"
 1246              		.file 3 ".\\Generated_Source\\PSoC4\\BLE_Stack.h"
 1247              		.file 4 ".\\Generated_Source\\PSoC4\\BLE_StackGap.h"
 1248              		.file 5 ".\\Generated_Source\\PSoC4\\BLE_StackGattDb.h"
 1249              		.file 6 ".\\Generated_Source\\PSoC4\\BLE.h"
 1250              		.file 7 ".\\Generated_Source\\PSoC4\\BLE_eventHandler.h"
 1251              		.file 8 ".\\Generated_Source\\PSoC4\\BLE_gatt.h"